ARM GAS  C:\Users\GYULAI~1\AppData\Local\Temp\ccmvhz8T.s 			page 1


   1              		.syntax unified
   2              		.cpu cortex-m3
   3              		.fpu softvfp
   4              		.eabi_attribute 20, 1
   5              		.eabi_attribute 21, 1
   6              		.eabi_attribute 23, 3
   7              		.eabi_attribute 24, 1
   8              		.eabi_attribute 25, 1
   9              		.eabi_attribute 26, 1
  10              		.eabi_attribute 30, 6
  11              		.eabi_attribute 34, 1
  12              		.eabi_attribute 18, 4
  13              		.thumb
  14              		.syntax unified
  15              		.file	"alarm.c"
  16              		.text
  17              	.Ltext0:
  18              		.cfi_sections	.debug_frame
  19              		.section	.rodata
  20              		.align	2
  21              		.type	rhea_rtc_datetimeFormatGeneral, %object
  22              		.size	rhea_rtc_datetimeFormatGeneral, 20
  23              	rhea_rtc_datetimeFormatGeneral:
  24 0000 59595959 		.ascii	"YYYY/MM/dd hh:mm:ss\000"
  24      2F4D4D2F 
  24      64642068 
  24      683A6D6D 
  24      3A737300 
  25              		.align	2
  26              		.type	rhea_rtc_datetimeFormatGeneralUS, %object
  27              		.size	rhea_rtc_datetimeFormatGeneralUS, 22
  28              	rhea_rtc_datetimeFormatGeneralUS:
  29 0014 64642F4D 		.ascii	"dd/MM/YYYY hh:mm:ss t\000"
  29      4D2F5959 
  29      59592068 
  29      683A6D6D 
  29      3A737320 
  30 002a 0000     		.align	2
  31              		.type	rhea_rtc_datetimeFormatFull, %object
  32              		.size	rhea_rtc_datetimeFormatFull, 22
  33              	rhea_rtc_datetimeFormatFull:
  34 002c 772C204D 		.ascii	"w, MMMM d, YYYY h:m:s\000"
  34      4D4D4D20 
  34      642C2059 
  34      59595920 
  34      683A6D3A 
  35 0042 0000     		.align	2
  36              	.LC0:
  37 0044 205B4576 		.ascii	" [EveryMinute]\000"
  37      6572794D 
  37      696E7574 
  37      655D00
  38 0053 00       		.align	2
  39              	.LC1:
  40 0054 205B4576 		.ascii	" [EveryHour]  \000"
  40      65727948 
  40      6F75725D 
ARM GAS  C:\Users\GYULAI~1\AppData\Local\Temp\ccmvhz8T.s 			page 2


  40      202000
  41 0063 00       		.align	2
  42              	.LC2:
  43 0064 205B4576 		.ascii	" [EveryDay]   \000"
  43      65727944 
  43      61795D20 
  43      202000
  44 0073 00       		.align	2
  45              	.LC3:
  46 0074 205B4576 		.ascii	" [EveryWeek]  \000"
  46      65727957 
  46      65656B5D 
  46      202000
  47 0083 00       		.align	2
  48              	.LC4:
  49 0084 205B4576 		.ascii	" [EveryMonth] \000"
  49      6572794D 
  49      6F6E7468 
  49      5D2000
  50 0093 00       		.align	2
  51              	.LC5:
  52 0094 205B4576 		.ascii	" [EveryYear]  \000"
  52      65727959 
  52      6561725D 
  52      202000
  53 00a3 00       		.align	2
  54              	.LC6:
  55 00a4 205B4675 		.ascii	" [FutureDate] \000"
  55      74757265 
  55      44617465 
  55      5D2000
  56 00b3 00       		.align	2
  57              	.LC7:
  58 00b4 205B7265 		.ascii	" [recurring]\000"
  58      63757272 
  58      696E675D 
  58      00
  59 00c1 000000   		.align	2
  60              	.LC8:
  61 00c4 205B6F6E 		.ascii	" [one-shot]\000"
  61      652D7368 
  61      6F745D00 
  62              		.section	.text.rhea_rtc_formatAlarm,"ax",%progbits
  63              		.align	2
  64              		.global	rhea_rtc_formatAlarm
  65              		.thumb
  66              		.thumb_func
  67              		.type	rhea_rtc_formatAlarm, %function
  68              	rhea_rtc_formatAlarm:
  69              	.LFB0:
  70              		.file 1 "rhea\\rtc\\alarm\\alarm.c"
   1:rhea\rtc\alarm/alarm.c **** /*********************************************************************************
   2:rhea\rtc\alarm/alarm.c ****  * Copyright (c) 2020 Peter Gyulai
   3:rhea\rtc\alarm/alarm.c ****  *
   4:rhea\rtc\alarm/alarm.c ****  * Permission is hereby granted, free of charge, to any person obtaining a copy
   5:rhea\rtc\alarm/alarm.c ****  * of this software and associated documentation files (the "Software"), to deal
   6:rhea\rtc\alarm/alarm.c ****  * in the Software without restriction, including without limitation the rights
ARM GAS  C:\Users\GYULAI~1\AppData\Local\Temp\ccmvhz8T.s 			page 3


   7:rhea\rtc\alarm/alarm.c ****  * to use, copy, modify, merge, publish, distribute, sublicense, and/or sell
   8:rhea\rtc\alarm/alarm.c ****  * copies of the Software, and to permit persons to whom the Software is
   9:rhea\rtc\alarm/alarm.c ****  * furnished to do so, subject to the following conditions:
  10:rhea\rtc\alarm/alarm.c ****  *
  11:rhea\rtc\alarm/alarm.c ****  * The above copyright notice and this permission notice shall be included in all
  12:rhea\rtc\alarm/alarm.c ****  * copies or substantial portions of the Software.
  13:rhea\rtc\alarm/alarm.c ****  *
  14:rhea\rtc\alarm/alarm.c ****  * THE SOFTWARE IS PROVIDED "AS IS", WITHOUT WARRANTY OF ANY KIND,
  15:rhea\rtc\alarm/alarm.c ****  * EXPRESS OR IMPLIED, INCLUDING BUT NOT LIMITED TO THE WARRANTIES OF
  16:rhea\rtc\alarm/alarm.c ****  * MERCHANTABILITY, FITNESS FOR A PARTICULAR PURPOSE AND NONINFRINGEMENT.
  17:rhea\rtc\alarm/alarm.c ****  * IN NO EVENT SHALL THE AUTHORS OR COPYRIGHT HOLDERS BE LIABLE FOR ANY CLAIM,
  18:rhea\rtc\alarm/alarm.c ****  * DAMAGES OR OTHER LIABILITY, WHETHER IN AN ACTION OF CONTRACT, TORT OR
  19:rhea\rtc\alarm/alarm.c ****  * OTHERWISE, ARISING FROM, OUT OF OR IN CONNECTION WITH THE SOFTWARE OR THE USE
  20:rhea\rtc\alarm/alarm.c ****  * OR OTHER DEALINGS IN THE SOFTWARE.
  21:rhea\rtc\alarm/alarm.c **** **********************************************************************************/
  22:rhea\rtc\alarm/alarm.c **** 
  23:rhea\rtc\alarm/alarm.c **** /**
  24:rhea\rtc\alarm/alarm.c ****  * @file    alarm.c
  25:rhea\rtc\alarm/alarm.c ****  * @author  Peter Gyulai
  26:rhea\rtc\alarm/alarm.c ****  * @version 1.0.0
  27:rhea\rtc\alarm/alarm.c ****  * @date    2020.04.16
  28:rhea\rtc\alarm/alarm.c ****  * @brief   Library implementation.
  29:rhea\rtc\alarm/alarm.c ****  * @details
  30:rhea\rtc\alarm/alarm.c ****  * This file contains the alarm utility implementation.
  31:rhea\rtc\alarm/alarm.c ****  */
  32:rhea\rtc\alarm/alarm.c **** 
  33:rhea\rtc\alarm/alarm.c **** // Doxygen documentation duplication suppression
  34:rhea\rtc\alarm/alarm.c **** #ifndef DOXYGEN_SHOULD_SKIP_THIS
  35:rhea\rtc\alarm/alarm.c **** 
  36:rhea\rtc\alarm/alarm.c **** // Standard includes
  37:rhea\rtc\alarm/alarm.c **** #include <string.h>
  38:rhea\rtc\alarm/alarm.c **** 
  39:rhea\rtc\alarm/alarm.c **** // Project includes
  40:rhea\rtc\alarm/alarm.c **** #include "alarm.h"
  41:rhea\rtc\alarm/alarm.c ****     
  42:rhea\rtc\alarm/alarm.c **** 
  43:rhea\rtc\alarm/alarm.c **** void rhea_rtc_formatAlarm(const rhea_rtc_alarm alarm, char *buffer) {
  71              		.loc 1 43 0
  72              		.cfi_startproc
  73              		@ args = 0, pretend = 0, frame = 16
  74              		@ frame_needed = 1, uses_anonymous_args = 0
  75 0000 90B5     		push	{r4, r7, lr}
  76              		.cfi_def_cfa_offset 12
  77              		.cfi_offset 4, -12
  78              		.cfi_offset 7, -8
  79              		.cfi_offset 14, -4
  80 0002 85B0     		sub	sp, sp, #20
  81              		.cfi_def_cfa_offset 32
  82 0004 00AF     		add	r7, sp, #0
  83              		.cfi_def_cfa_register 7
  84 0006 3C1D     		adds	r4, r7, #4
  85 0008 84E80700 		stmia	r4, {r0, r1, r2}
  86 000c 3B60     		str	r3, [r7]
  44:rhea\rtc\alarm/alarm.c **** 
  45:rhea\rtc\alarm/alarm.c ****     // Printing formatted datetime of the alarm
  46:rhea\rtc\alarm/alarm.c ****     rhea_rtc_formatDate(alarm.datetime, rhea_rtc_datetimeFormatGeneral, buffer);
  87              		.loc 1 46 0
ARM GAS  C:\Users\GYULAI~1\AppData\Local\Temp\ccmvhz8T.s 			page 4


  88 000e 3B68     		ldr	r3, [r7]
  89 0010 564A     		ldr	r2, .L13
  90 0012 391D     		adds	r1, r7, #4
  91 0014 03C9     		ldmia	r1, {r0, r1}
  92 0016 FFF7FEFF 		bl	rhea_rtc_formatDate
  47:rhea\rtc\alarm/alarm.c **** 
  48:rhea\rtc\alarm/alarm.c ****     // Printing alarm mode
  49:rhea\rtc\alarm/alarm.c ****     switch(alarm.mode) {
  93              		.loc 1 49 0
  94 001a BB7B     		ldrb	r3, [r7, #14]	@ zero_extendqisi2
  95 001c 062B     		cmp	r3, #6
  96 001e 00F29680 		bhi	.L2
  97 0022 01A2     		adr	r2, .L4
  98 0024 52F823F0 		ldr	pc, [r2, r3, lsl #2]
  99              		.p2align 2
 100              	.L4:
 101 0028 45000000 		.word	.L3+1
 102 002c 6B000000 		.word	.L5+1
 103 0030 91000000 		.word	.L6+1
 104 0034 B7000000 		.word	.L7+1
 105 0038 DD000000 		.word	.L8+1
 106 003c 03010000 		.word	.L9+1
 107 0040 29010000 		.word	.L10+1
 108              		.p2align 1
 109              	.L3:
  50:rhea\rtc\alarm/alarm.c ****     case EveryMinute:   strcat(buffer, " [EveryMinute]"); break;
 110              		.loc 1 50 0
 111 0044 3868     		ldr	r0, [r7]
 112 0046 FFF7FEFF 		bl	strlen
 113 004a 0346     		mov	r3, r0
 114 004c 1A46     		mov	r2, r3
 115 004e 3B68     		ldr	r3, [r7]
 116 0050 1344     		add	r3, r3, r2
 117 0052 474A     		ldr	r2, .L13+4
 118 0054 1C46     		mov	r4, r3
 119 0056 1346     		mov	r3, r2
 120 0058 07CB     		ldmia	r3!, {r0, r1, r2}
 121 005a 2060     		str	r0, [r4]	@ unaligned
 122 005c 6160     		str	r1, [r4, #4]	@ unaligned
 123 005e A260     		str	r2, [r4, #8]	@ unaligned
 124 0060 1A88     		ldrh	r2, [r3]	@ unaligned
 125 0062 9B78     		ldrb	r3, [r3, #2]
 126 0064 A281     		strh	r2, [r4, #12]	@ unaligned
 127 0066 A373     		strb	r3, [r4, #14]
 128 0068 71E0     		b	.L2
 129              	.L5:
  51:rhea\rtc\alarm/alarm.c ****     case EveryHour:     strcat(buffer, " [EveryHour]  "); break;
 130              		.loc 1 51 0
 131 006a 3868     		ldr	r0, [r7]
 132 006c FFF7FEFF 		bl	strlen
 133 0070 0346     		mov	r3, r0
 134 0072 1A46     		mov	r2, r3
 135 0074 3B68     		ldr	r3, [r7]
 136 0076 1344     		add	r3, r3, r2
 137 0078 3E4A     		ldr	r2, .L13+8
 138 007a 1C46     		mov	r4, r3
 139 007c 1346     		mov	r3, r2
ARM GAS  C:\Users\GYULAI~1\AppData\Local\Temp\ccmvhz8T.s 			page 5


 140 007e 07CB     		ldmia	r3!, {r0, r1, r2}
 141 0080 2060     		str	r0, [r4]	@ unaligned
 142 0082 6160     		str	r1, [r4, #4]	@ unaligned
 143 0084 A260     		str	r2, [r4, #8]	@ unaligned
 144 0086 1A88     		ldrh	r2, [r3]	@ unaligned
 145 0088 9B78     		ldrb	r3, [r3, #2]
 146 008a A281     		strh	r2, [r4, #12]	@ unaligned
 147 008c A373     		strb	r3, [r4, #14]
 148 008e 5EE0     		b	.L2
 149              	.L6:
  52:rhea\rtc\alarm/alarm.c ****     case EveryDay:      strcat(buffer, " [EveryDay]   "); break;
 150              		.loc 1 52 0
 151 0090 3868     		ldr	r0, [r7]
 152 0092 FFF7FEFF 		bl	strlen
 153 0096 0346     		mov	r3, r0
 154 0098 1A46     		mov	r2, r3
 155 009a 3B68     		ldr	r3, [r7]
 156 009c 1344     		add	r3, r3, r2
 157 009e 364A     		ldr	r2, .L13+12
 158 00a0 1C46     		mov	r4, r3
 159 00a2 1346     		mov	r3, r2
 160 00a4 07CB     		ldmia	r3!, {r0, r1, r2}
 161 00a6 2060     		str	r0, [r4]	@ unaligned
 162 00a8 6160     		str	r1, [r4, #4]	@ unaligned
 163 00aa A260     		str	r2, [r4, #8]	@ unaligned
 164 00ac 1A88     		ldrh	r2, [r3]	@ unaligned
 165 00ae 9B78     		ldrb	r3, [r3, #2]
 166 00b0 A281     		strh	r2, [r4, #12]	@ unaligned
 167 00b2 A373     		strb	r3, [r4, #14]
 168 00b4 4BE0     		b	.L2
 169              	.L7:
  53:rhea\rtc\alarm/alarm.c ****     case EveryWeek:     strcat(buffer, " [EveryWeek]  "); break;
 170              		.loc 1 53 0
 171 00b6 3868     		ldr	r0, [r7]
 172 00b8 FFF7FEFF 		bl	strlen
 173 00bc 0346     		mov	r3, r0
 174 00be 1A46     		mov	r2, r3
 175 00c0 3B68     		ldr	r3, [r7]
 176 00c2 1344     		add	r3, r3, r2
 177 00c4 2D4A     		ldr	r2, .L13+16
 178 00c6 1C46     		mov	r4, r3
 179 00c8 1346     		mov	r3, r2
 180 00ca 07CB     		ldmia	r3!, {r0, r1, r2}
 181 00cc 2060     		str	r0, [r4]	@ unaligned
 182 00ce 6160     		str	r1, [r4, #4]	@ unaligned
 183 00d0 A260     		str	r2, [r4, #8]	@ unaligned
 184 00d2 1A88     		ldrh	r2, [r3]	@ unaligned
 185 00d4 9B78     		ldrb	r3, [r3, #2]
 186 00d6 A281     		strh	r2, [r4, #12]	@ unaligned
 187 00d8 A373     		strb	r3, [r4, #14]
 188 00da 38E0     		b	.L2
 189              	.L8:
  54:rhea\rtc\alarm/alarm.c ****     case EveryMonth:    strcat(buffer, " [EveryMonth] "); break;
 190              		.loc 1 54 0
 191 00dc 3868     		ldr	r0, [r7]
 192 00de FFF7FEFF 		bl	strlen
 193 00e2 0346     		mov	r3, r0
ARM GAS  C:\Users\GYULAI~1\AppData\Local\Temp\ccmvhz8T.s 			page 6


 194 00e4 1A46     		mov	r2, r3
 195 00e6 3B68     		ldr	r3, [r7]
 196 00e8 1344     		add	r3, r3, r2
 197 00ea 254A     		ldr	r2, .L13+20
 198 00ec 1C46     		mov	r4, r3
 199 00ee 1346     		mov	r3, r2
 200 00f0 07CB     		ldmia	r3!, {r0, r1, r2}
 201 00f2 2060     		str	r0, [r4]	@ unaligned
 202 00f4 6160     		str	r1, [r4, #4]	@ unaligned
 203 00f6 A260     		str	r2, [r4, #8]	@ unaligned
 204 00f8 1A88     		ldrh	r2, [r3]	@ unaligned
 205 00fa 9B78     		ldrb	r3, [r3, #2]
 206 00fc A281     		strh	r2, [r4, #12]	@ unaligned
 207 00fe A373     		strb	r3, [r4, #14]
 208 0100 25E0     		b	.L2
 209              	.L9:
  55:rhea\rtc\alarm/alarm.c ****     case EveryYear:     strcat(buffer, " [EveryYear]  "); break;
 210              		.loc 1 55 0
 211 0102 3868     		ldr	r0, [r7]
 212 0104 FFF7FEFF 		bl	strlen
 213 0108 0346     		mov	r3, r0
 214 010a 1A46     		mov	r2, r3
 215 010c 3B68     		ldr	r3, [r7]
 216 010e 1344     		add	r3, r3, r2
 217 0110 1C4A     		ldr	r2, .L13+24
 218 0112 1C46     		mov	r4, r3
 219 0114 1346     		mov	r3, r2
 220 0116 07CB     		ldmia	r3!, {r0, r1, r2}
 221 0118 2060     		str	r0, [r4]	@ unaligned
 222 011a 6160     		str	r1, [r4, #4]	@ unaligned
 223 011c A260     		str	r2, [r4, #8]	@ unaligned
 224 011e 1A88     		ldrh	r2, [r3]	@ unaligned
 225 0120 9B78     		ldrb	r3, [r3, #2]
 226 0122 A281     		strh	r2, [r4, #12]	@ unaligned
 227 0124 A373     		strb	r3, [r4, #14]
 228 0126 12E0     		b	.L2
 229              	.L10:
  56:rhea\rtc\alarm/alarm.c ****     case FutureDate:    strcat(buffer, " [FutureDate] "); break;
 230              		.loc 1 56 0
 231 0128 3868     		ldr	r0, [r7]
 232 012a FFF7FEFF 		bl	strlen
 233 012e 0346     		mov	r3, r0
 234 0130 1A46     		mov	r2, r3
 235 0132 3B68     		ldr	r3, [r7]
 236 0134 1344     		add	r3, r3, r2
 237 0136 144A     		ldr	r2, .L13+28
 238 0138 1C46     		mov	r4, r3
 239 013a 1346     		mov	r3, r2
 240 013c 07CB     		ldmia	r3!, {r0, r1, r2}
 241 013e 2060     		str	r0, [r4]	@ unaligned
 242 0140 6160     		str	r1, [r4, #4]	@ unaligned
 243 0142 A260     		str	r2, [r4, #8]	@ unaligned
 244 0144 1A88     		ldrh	r2, [r3]	@ unaligned
 245 0146 9B78     		ldrb	r3, [r3, #2]
 246 0148 A281     		strh	r2, [r4, #12]	@ unaligned
 247 014a A373     		strb	r3, [r4, #14]
 248 014c 00BF     		nop
ARM GAS  C:\Users\GYULAI~1\AppData\Local\Temp\ccmvhz8T.s 			page 7


 249              	.L2:
  57:rhea\rtc\alarm/alarm.c ****     };
  58:rhea\rtc\alarm/alarm.c **** 
  59:rhea\rtc\alarm/alarm.c ****     // Printing recurring status
  60:rhea\rtc\alarm/alarm.c ****     strcat(buffer, (alarm.recurring ? " [recurring]" : " [one-shot]"));
 250              		.loc 1 60 0
 251 014e 3B7B     		ldrb	r3, [r7, #12]	@ zero_extendqisi2
 252 0150 002B     		cmp	r3, #0
 253 0152 01D0     		beq	.L11
 254              		.loc 1 60 0 is_stmt 0 discriminator 1
 255 0154 0D4B     		ldr	r3, .L13+32
 256 0156 00E0     		b	.L12
 257              	.L11:
 258              		.loc 1 60 0 discriminator 2
 259 0158 0D4B     		ldr	r3, .L13+36
 260              	.L12:
 261              		.loc 1 60 0 discriminator 4
 262 015a 1946     		mov	r1, r3
 263 015c 3868     		ldr	r0, [r7]
 264 015e FFF7FEFF 		bl	strcat
  61:rhea\rtc\alarm/alarm.c **** }
 265              		.loc 1 61 0 is_stmt 1 discriminator 4
 266 0162 00BF     		nop
 267 0164 1437     		adds	r7, r7, #20
 268              		.cfi_def_cfa_offset 12
 269 0166 BD46     		mov	sp, r7
 270              		.cfi_def_cfa_register 13
 271              		@ sp needed
 272 0168 90BD     		pop	{r4, r7, pc}
 273              	.L14:
 274 016a 00BF     		.align	2
 275              	.L13:
 276 016c 00000000 		.word	rhea_rtc_datetimeFormatGeneral
 277 0170 44000000 		.word	.LC0
 278 0174 54000000 		.word	.LC1
 279 0178 64000000 		.word	.LC2
 280 017c 74000000 		.word	.LC3
 281 0180 84000000 		.word	.LC4
 282 0184 94000000 		.word	.LC5
 283 0188 A4000000 		.word	.LC6
 284 018c B4000000 		.word	.LC7
 285 0190 C4000000 		.word	.LC8
 286              		.cfi_endproc
 287              	.LFE0:
 288              		.size	rhea_rtc_formatAlarm, .-rhea_rtc_formatAlarm
 289              		.section	.text.rhea_rtc_weekdayDifference,"ax",%progbits
 290              		.align	2
 291              		.global	rhea_rtc_weekdayDifference
 292              		.thumb
 293              		.thumb_func
 294              		.type	rhea_rtc_weekdayDifference, %function
 295              	rhea_rtc_weekdayDifference:
 296              	.LFB1:
  62:rhea\rtc\alarm/alarm.c **** 
  63:rhea\rtc\alarm/alarm.c **** // Algorithm source: https://howardhinnant.github.io/date_algorithms.html#weekday_difference
  64:rhea\rtc\alarm/alarm.c **** unsigned rhea_rtc_weekdayDifference(unsigned x, unsigned y) {
 297              		.loc 1 64 0
ARM GAS  C:\Users\GYULAI~1\AppData\Local\Temp\ccmvhz8T.s 			page 8


 298              		.cfi_startproc
 299              		@ args = 0, pretend = 0, frame = 8
 300              		@ frame_needed = 1, uses_anonymous_args = 0
 301              		@ link register save eliminated.
 302 0000 80B4     		push	{r7}
 303              		.cfi_def_cfa_offset 4
 304              		.cfi_offset 7, -4
 305 0002 83B0     		sub	sp, sp, #12
 306              		.cfi_def_cfa_offset 16
 307 0004 00AF     		add	r7, sp, #0
 308              		.cfi_def_cfa_register 7
 309 0006 7860     		str	r0, [r7, #4]
 310 0008 3960     		str	r1, [r7]
  65:rhea\rtc\alarm/alarm.c ****     x -= y;
 311              		.loc 1 65 0
 312 000a 7A68     		ldr	r2, [r7, #4]
 313 000c 3B68     		ldr	r3, [r7]
 314 000e D31A     		subs	r3, r2, r3
 315 0010 7B60     		str	r3, [r7, #4]
  66:rhea\rtc\alarm/alarm.c ****     return x <= 6 ? x : x + 7;
 316              		.loc 1 66 0
 317 0012 7B68     		ldr	r3, [r7, #4]
 318 0014 062B     		cmp	r3, #6
 319 0016 02D9     		bls	.L16
 320              		.loc 1 66 0 is_stmt 0 discriminator 1
 321 0018 7B68     		ldr	r3, [r7, #4]
 322 001a 0733     		adds	r3, r3, #7
 323 001c 00E0     		b	.L18
 324              	.L16:
 325              		.loc 1 66 0 discriminator 2
 326 001e 7B68     		ldr	r3, [r7, #4]
 327              	.L18:
  67:rhea\rtc\alarm/alarm.c **** }
 328              		.loc 1 67 0 is_stmt 1 discriminator 5
 329 0020 1846     		mov	r0, r3
 330 0022 0C37     		adds	r7, r7, #12
 331              		.cfi_def_cfa_offset 4
 332 0024 BD46     		mov	sp, r7
 333              		.cfi_def_cfa_register 13
 334              		@ sp needed
 335 0026 80BC     		pop	{r7}
 336              		.cfi_restore 7
 337              		.cfi_def_cfa_offset 0
 338 0028 7047     		bx	lr
 339              		.cfi_endproc
 340              	.LFE1:
 341              		.size	rhea_rtc_weekdayDifference, .-rhea_rtc_weekdayDifference
 342 002a 00BF     		.section	.text.rhea_rtc_normalizeAlarm,"ax",%progbits
 343              		.align	2
 344              		.global	rhea_rtc_normalizeAlarm
 345              		.thumb
 346              		.thumb_func
 347              		.type	rhea_rtc_normalizeAlarm, %function
 348              	rhea_rtc_normalizeAlarm:
 349              	.LFB2:
  68:rhea\rtc\alarm/alarm.c **** 
  69:rhea\rtc\alarm/alarm.c **** void rhea_rtc_normalizeAlarm(rhea_rtc_alarm *alarm, const rhea_rtc_datetime after) {
ARM GAS  C:\Users\GYULAI~1\AppData\Local\Temp\ccmvhz8T.s 			page 9


 350              		.loc 1 69 0
 351              		.cfi_startproc
 352              		@ args = 0, pretend = 0, frame = 72
 353              		@ frame_needed = 1, uses_anonymous_args = 0
 354 0000 90B5     		push	{r4, r7, lr}
 355              		.cfi_def_cfa_offset 12
 356              		.cfi_offset 4, -12
 357              		.cfi_offset 7, -8
 358              		.cfi_offset 14, -4
 359 0002 93B0     		sub	sp, sp, #76
 360              		.cfi_def_cfa_offset 88
 361 0004 00AF     		add	r7, sp, #0
 362              		.cfi_def_cfa_register 7
 363 0006 7861     		str	r0, [r7, #20]
 364 0008 07F10C03 		add	r3, r7, #12
 365 000c 83E80600 		stmia	r3, {r1, r2}
  70:rhea\rtc\alarm/alarm.c ****     
  71:rhea\rtc\alarm/alarm.c ****     // FutureDate alarms are not normalizable
  72:rhea\rtc\alarm/alarm.c ****     if(alarm->mode == FutureDate) {
 366              		.loc 1 72 0
 367 0010 7B69     		ldr	r3, [r7, #20]
 368 0012 9B7A     		ldrb	r3, [r3, #10]	@ zero_extendqisi2
 369 0014 062B     		cmp	r3, #6
 370 0016 03D1     		bne	.L20
  73:rhea\rtc\alarm/alarm.c ****         alarm->active = 0;
 371              		.loc 1 73 0
 372 0018 7B69     		ldr	r3, [r7, #20]
 373 001a 0022     		movs	r2, #0
 374 001c 5A72     		strb	r2, [r3, #9]
  74:rhea\rtc\alarm/alarm.c ****         return;
 375              		.loc 1 74 0
 376 001e 0EE1     		b	.L19
 377              	.L20:
  75:rhea\rtc\alarm/alarm.c ****     }
  76:rhea\rtc\alarm/alarm.c ****     
  77:rhea\rtc\alarm/alarm.c ****     int64_t afterSeconds = rhea_rtc_toSeconds(after);
 378              		.loc 1 77 0
 379 0020 07F10C03 		add	r3, r7, #12
 380 0024 93E80300 		ldmia	r3, {r0, r1}
 381 0028 FFF7FEFF 		bl	rhea_rtc_toSeconds
 382 002c C7E91001 		strd	r0, [r7, #64]
  78:rhea\rtc\alarm/alarm.c ****     rhea_rtc_alarm newAlarm = {after, alarm->recurring, alarm->active, alarm->mode};
 383              		.loc 1 78 0
 384 0030 07F11C03 		add	r3, r7, #28
 385 0034 07F10C02 		add	r2, r7, #12
 386 0038 92E80300 		ldmia	r2, {r0, r1}
 387 003c 83E80300 		stmia	r3, {r0, r1}
 388 0040 7B69     		ldr	r3, [r7, #20]
 389 0042 1B7A     		ldrb	r3, [r3, #8]	@ zero_extendqisi2
 390 0044 87F82430 		strb	r3, [r7, #36]
 391 0048 7B69     		ldr	r3, [r7, #20]
 392 004a 5B7A     		ldrb	r3, [r3, #9]	@ zero_extendqisi2
 393 004c 87F82530 		strb	r3, [r7, #37]
 394 0050 7B69     		ldr	r3, [r7, #20]
 395 0052 9B7A     		ldrb	r3, [r3, #10]	@ zero_extendqisi2
 396 0054 87F82630 		strb	r3, [r7, #38]
  79:rhea\rtc\alarm/alarm.c ****     
ARM GAS  C:\Users\GYULAI~1\AppData\Local\Temp\ccmvhz8T.s 			page 10


  80:rhea\rtc\alarm/alarm.c ****     if(alarm->mode >= EveryMinute) newAlarm.datetime.second  = alarm->datetime.second;
 397              		.loc 1 80 0
 398 0058 7B69     		ldr	r3, [r7, #20]
 399 005a DB79     		ldrb	r3, [r3, #7]	@ zero_extendqisi2
 400 005c 87F82330 		strb	r3, [r7, #35]
  81:rhea\rtc\alarm/alarm.c ****     if(alarm->mode >= EveryHour)   newAlarm.datetime.minute  = alarm->datetime.minute;
 401              		.loc 1 81 0
 402 0060 7B69     		ldr	r3, [r7, #20]
 403 0062 9B7A     		ldrb	r3, [r3, #10]	@ zero_extendqisi2
 404 0064 002B     		cmp	r3, #0
 405 0066 03D0     		beq	.L22
 406              		.loc 1 81 0 is_stmt 0 discriminator 1
 407 0068 7B69     		ldr	r3, [r7, #20]
 408 006a 9B79     		ldrb	r3, [r3, #6]	@ zero_extendqisi2
 409 006c 87F82230 		strb	r3, [r7, #34]
 410              	.L22:
  82:rhea\rtc\alarm/alarm.c ****     if(alarm->mode >= EveryDay)    newAlarm.datetime.hour    = alarm->datetime.hour;
 411              		.loc 1 82 0 is_stmt 1
 412 0070 7B69     		ldr	r3, [r7, #20]
 413 0072 9B7A     		ldrb	r3, [r3, #10]	@ zero_extendqisi2
 414 0074 012B     		cmp	r3, #1
 415 0076 03D9     		bls	.L23
 416              		.loc 1 82 0 is_stmt 0 discriminator 1
 417 0078 7B69     		ldr	r3, [r7, #20]
 418 007a 5B79     		ldrb	r3, [r3, #5]	@ zero_extendqisi2
 419 007c 87F82130 		strb	r3, [r7, #33]
 420              	.L23:
  83:rhea\rtc\alarm/alarm.c ****     if(alarm->mode >= EveryMonth)  newAlarm.datetime.date    = alarm->datetime.date;
 421              		.loc 1 83 0 is_stmt 1
 422 0080 7B69     		ldr	r3, [r7, #20]
 423 0082 9B7A     		ldrb	r3, [r3, #10]	@ zero_extendqisi2
 424 0084 032B     		cmp	r3, #3
 425 0086 02D9     		bls	.L24
 426              		.loc 1 83 0 is_stmt 0 discriminator 1
 427 0088 7B69     		ldr	r3, [r7, #20]
 428 008a DB78     		ldrb	r3, [r3, #3]	@ zero_extendqisi2
 429 008c FB77     		strb	r3, [r7, #31]
 430              	.L24:
  84:rhea\rtc\alarm/alarm.c ****     if(alarm->mode >= EveryYear)   newAlarm.datetime.month   = alarm->datetime.month;
 431              		.loc 1 84 0 is_stmt 1
 432 008e 7B69     		ldr	r3, [r7, #20]
 433 0090 9B7A     		ldrb	r3, [r3, #10]	@ zero_extendqisi2
 434 0092 042B     		cmp	r3, #4
 435 0094 02D9     		bls	.L25
 436              		.loc 1 84 0 is_stmt 0 discriminator 1
 437 0096 7B69     		ldr	r3, [r7, #20]
 438 0098 9B78     		ldrb	r3, [r3, #2]	@ zero_extendqisi2
 439 009a BB77     		strb	r3, [r7, #30]
 440              	.L25:
  85:rhea\rtc\alarm/alarm.c ****     if(alarm->mode == EveryWeek) {
 441              		.loc 1 85 0 is_stmt 1
 442 009c 7B69     		ldr	r3, [r7, #20]
 443 009e 9B7A     		ldrb	r3, [r3, #10]	@ zero_extendqisi2
 444 00a0 032B     		cmp	r3, #3
 445 00a2 2BD1     		bne	.L26
 446              	.LBB2:
  86:rhea\rtc\alarm/alarm.c ****         
ARM GAS  C:\Users\GYULAI~1\AppData\Local\Temp\ccmvhz8T.s 			page 11


  87:rhea\rtc\alarm/alarm.c ****         // Adding number of days so the day of week matches
  88:rhea\rtc\alarm/alarm.c ****         uint8_t inc_days = rhea_rtc_weekdayDifference(alarm->datetime.weekday, newAlarm.datetime.we
 447              		.loc 1 88 0
 448 00a4 7B69     		ldr	r3, [r7, #20]
 449 00a6 1B79     		ldrb	r3, [r3, #4]	@ zero_extendqisi2
 450 00a8 1A46     		mov	r2, r3
 451 00aa 97F82030 		ldrb	r3, [r7, #32]	@ zero_extendqisi2
 452 00ae 1946     		mov	r1, r3
 453 00b0 1046     		mov	r0, r2
 454 00b2 FFF7FEFF 		bl	rhea_rtc_weekdayDifference
 455 00b6 0346     		mov	r3, r0
 456 00b8 87F83F30 		strb	r3, [r7, #63]
  89:rhea\rtc\alarm/alarm.c ****         int64_t new_secs = rhea_rtc_toSeconds(newAlarm.datetime) + inc_days * RHEA_RTC_SECONDS_PER_
 457              		.loc 1 89 0
 458 00bc 07F11C03 		add	r3, r7, #28
 459 00c0 93E80300 		ldmia	r3, {r0, r1}
 460 00c4 FFF7FEFF 		bl	rhea_rtc_toSeconds
 461 00c8 0A46     		mov	r2, r1
 462 00ca 0146     		mov	r1, r0
 463 00cc 97F83F30 		ldrb	r3, [r7, #63]	@ zero_extendqisi2
 464 00d0 5C48     		ldr	r0, .L39
 465 00d2 00FB03F3 		mul	r3, r0, r3
 466 00d6 4FEAE374 		asr	r4, r3, #31
 467 00da 5B18     		adds	r3, r3, r1
 468 00dc 44EB0204 		adc	r4, r4, r2
 469 00e0 C7E90C34 		strd	r3, [r7, #48]
  90:rhea\rtc\alarm/alarm.c ****         newAlarm.datetime = rhea_rtc_fromSeconds(new_secs);
 470              		.loc 1 90 0
 471 00e4 3946     		mov	r1, r7
 472 00e6 D7E90C23 		ldrd	r2, [r7, #48]
 473 00ea 0846     		mov	r0, r1
 474 00ec FFF7FEFF 		bl	rhea_rtc_fromSeconds
 475 00f0 07F11C03 		add	r3, r7, #28
 476 00f4 3A46     		mov	r2, r7
 477 00f6 1068     		ldr	r0, [r2]	@ unaligned
 478 00f8 5168     		ldr	r1, [r2, #4]	@ unaligned
 479 00fa 03C3     		stmia	r3!, {r0, r1}
 480              	.L26:
 481              	.LBE2:
  91:rhea\rtc\alarm/alarm.c ****     }
  92:rhea\rtc\alarm/alarm.c **** 
  93:rhea\rtc\alarm/alarm.c ****     // Calculating new alarm timestamp
  94:rhea\rtc\alarm/alarm.c ****     int64_t newAlarmTimestamp = rhea_rtc_toSeconds(newAlarm.datetime);
 482              		.loc 1 94 0
 483 00fc 07F11C03 		add	r3, r7, #28
 484 0100 93E80300 		ldmia	r3, {r0, r1}
 485 0104 FFF7FEFF 		bl	rhea_rtc_toSeconds
 486 0108 C7E90A01 		strd	r0, [r7, #40]
  95:rhea\rtc\alarm/alarm.c ****     
  96:rhea\rtc\alarm/alarm.c ****     // Checking if the alarm is already normalized
  97:rhea\rtc\alarm/alarm.c ****     if(newAlarmTimestamp > afterSeconds) {
 487              		.loc 1 97 0
 488 010c D7E90A34 		ldrd	r3, [r7, #40]
 489 0110 D7E91012 		ldrd	r1, [r7, #64]
 490 0114 9942     		cmp	r1, r3
 491 0116 72EB0403 		sbcs	r3, r2, r4
 492 011a 0DDA     		bge	.L27
ARM GAS  C:\Users\GYULAI~1\AppData\Local\Temp\ccmvhz8T.s 			page 12


  98:rhea\rtc\alarm/alarm.c ****         
  99:rhea\rtc\alarm/alarm.c ****         // Recalculating day of week
 100:rhea\rtc\alarm/alarm.c ****         rhea_rtc_setWeekday(&newAlarm.datetime);
 493              		.loc 1 100 0
 494 011c 07F11C03 		add	r3, r7, #28
 495 0120 1846     		mov	r0, r3
 496 0122 FFF7FEFF 		bl	rhea_rtc_setWeekday
 101:rhea\rtc\alarm/alarm.c ****         
 102:rhea\rtc\alarm/alarm.c ****         // Applying changes
 103:rhea\rtc\alarm/alarm.c ****         *alarm = newAlarm;   
 497              		.loc 1 103 0
 498 0126 7B69     		ldr	r3, [r7, #20]
 499 0128 1C46     		mov	r4, r3
 500 012a 07F11C03 		add	r3, r7, #28
 501 012e 07CB     		ldmia	r3!, {r0, r1, r2}
 502 0130 2060     		str	r0, [r4]	@ unaligned
 503 0132 6160     		str	r1, [r4, #4]	@ unaligned
 504 0134 A260     		str	r2, [r4, #8]	@ unaligned
 104:rhea\rtc\alarm/alarm.c ****         return;
 505              		.loc 1 104 0
 506 0136 82E0     		b	.L19
 507              	.L27:
 105:rhea\rtc\alarm/alarm.c ****     }
 106:rhea\rtc\alarm/alarm.c ****         
 107:rhea\rtc\alarm/alarm.c ****     // Incrementing alarm datetime by one unit based on mode
 108:rhea\rtc\alarm/alarm.c ****     switch(alarm->mode) {
 508              		.loc 1 108 0
 509 0138 7B69     		ldr	r3, [r7, #20]
 510 013a 9B7A     		ldrb	r3, [r3, #10]	@ zero_extendqisi2
 511 013c 052B     		cmp	r3, #5
 512 013e 71D8     		bhi	.L28
 513 0140 01A2     		adr	r2, .L30
 514 0142 52F823F0 		ldr	pc, [r2, r3, lsl #2]
 515 0146 00BF     		.p2align 2
 516              	.L30:
 517 0148 61010000 		.word	.L29+1
 518 014c 85010000 		.word	.L31+1
 519 0150 AB010000 		.word	.L32+1
 520 0154 D5010000 		.word	.L33+1
 521 0158 FF010000 		.word	.L34+1
 522 015c 1D020000 		.word	.L35+1
 523              		.p2align 1
 524              	.L29:
 109:rhea\rtc\alarm/alarm.c ****     case EveryMinute:   newAlarm.datetime = rhea_rtc_fromSeconds(newAlarmTimestamp + RHEA_RTC_SECON
 525              		.loc 1 109 0
 526 0160 D7E90A34 		ldrd	r3, [r7, #40]
 527 0164 3C33     		adds	r3, r3, #60
 528 0166 44F10004 		adc	r4, r4, #0
 529 016a 3946     		mov	r1, r7
 530 016c 1A46     		mov	r2, r3
 531 016e 2346     		mov	r3, r4
 532 0170 0846     		mov	r0, r1
 533 0172 FFF7FEFF 		bl	rhea_rtc_fromSeconds
 534 0176 07F11C03 		add	r3, r7, #28
 535 017a 3A46     		mov	r2, r7
 536 017c 1068     		ldr	r0, [r2]	@ unaligned
 537 017e 5168     		ldr	r1, [r2, #4]	@ unaligned
ARM GAS  C:\Users\GYULAI~1\AppData\Local\Temp\ccmvhz8T.s 			page 13


 538 0180 03C3     		stmia	r3!, {r0, r1}
 110:rhea\rtc\alarm/alarm.c ****                         break;
 539              		.loc 1 110 0
 540 0182 4FE0     		b	.L28
 541              	.L31:
 111:rhea\rtc\alarm/alarm.c ****     case EveryHour:     newAlarm.datetime = rhea_rtc_fromSeconds(newAlarmTimestamp + RHEA_RTC_SECON
 542              		.loc 1 111 0
 543 0184 D7E90A34 		ldrd	r3, [r7, #40]
 544 0188 13F56163 		adds	r3, r3, #3600
 545 018c 44F10004 		adc	r4, r4, #0
 546 0190 3946     		mov	r1, r7
 547 0192 1A46     		mov	r2, r3
 548 0194 2346     		mov	r3, r4
 549 0196 0846     		mov	r0, r1
 550 0198 FFF7FEFF 		bl	rhea_rtc_fromSeconds
 551 019c 07F11C03 		add	r3, r7, #28
 552 01a0 3A46     		mov	r2, r7
 553 01a2 1068     		ldr	r0, [r2]	@ unaligned
 554 01a4 5168     		ldr	r1, [r2, #4]	@ unaligned
 555 01a6 03C3     		stmia	r3!, {r0, r1}
 112:rhea\rtc\alarm/alarm.c ****                         break;
 556              		.loc 1 112 0
 557 01a8 3CE0     		b	.L28
 558              	.L32:
 113:rhea\rtc\alarm/alarm.c ****     case EveryDay:      newAlarm.datetime = rhea_rtc_fromSeconds(newAlarmTimestamp + RHEA_RTC_SECON
 559              		.loc 1 113 0
 560 01aa D7E90A34 		ldrd	r3, [r7, #40]
 561 01ae 2549     		ldr	r1, .L39
 562 01b0 4FF00002 		mov	r2, #0
 563 01b4 5B18     		adds	r3, r3, r1
 564 01b6 44EB0204 		adc	r4, r4, r2
 565 01ba 3946     		mov	r1, r7
 566 01bc 1A46     		mov	r2, r3
 567 01be 2346     		mov	r3, r4
 568 01c0 0846     		mov	r0, r1
 569 01c2 FFF7FEFF 		bl	rhea_rtc_fromSeconds
 570 01c6 07F11C03 		add	r3, r7, #28
 571 01ca 3A46     		mov	r2, r7
 572 01cc 1068     		ldr	r0, [r2]	@ unaligned
 573 01ce 5168     		ldr	r1, [r2, #4]	@ unaligned
 574 01d0 03C3     		stmia	r3!, {r0, r1}
 114:rhea\rtc\alarm/alarm.c ****                         break;
 575              		.loc 1 114 0
 576 01d2 27E0     		b	.L28
 577              	.L33:
 115:rhea\rtc\alarm/alarm.c ****     case EveryWeek:     newAlarm.datetime = rhea_rtc_fromSeconds(newAlarmTimestamp + RHEA_RTC_SECON
 578              		.loc 1 115 0
 579 01d4 D7E90A34 		ldrd	r3, [r7, #40]
 580 01d8 1B49     		ldr	r1, .L39+4
 581 01da 4FF00002 		mov	r2, #0
 582 01de 5B18     		adds	r3, r3, r1
 583 01e0 44EB0204 		adc	r4, r4, r2
 584 01e4 3946     		mov	r1, r7
 585 01e6 1A46     		mov	r2, r3
 586 01e8 2346     		mov	r3, r4
 587 01ea 0846     		mov	r0, r1
 588 01ec FFF7FEFF 		bl	rhea_rtc_fromSeconds
ARM GAS  C:\Users\GYULAI~1\AppData\Local\Temp\ccmvhz8T.s 			page 14


 589 01f0 07F11C03 		add	r3, r7, #28
 590 01f4 3A46     		mov	r2, r7
 591 01f6 1068     		ldr	r0, [r2]	@ unaligned
 592 01f8 5168     		ldr	r1, [r2, #4]	@ unaligned
 593 01fa 03C3     		stmia	r3!, {r0, r1}
 116:rhea\rtc\alarm/alarm.c ****                         break;
 594              		.loc 1 116 0
 595 01fc 12E0     		b	.L28
 596              	.L34:
 117:rhea\rtc\alarm/alarm.c ****     case EveryMonth:    if(newAlarm.datetime.month == 12) { newAlarm.datetime.month = 1; newAlarm.d
 597              		.loc 1 117 0
 598 01fe BB7F     		ldrb	r3, [r7, #30]	@ zero_extendqisi2
 599 0200 0C2B     		cmp	r3, #12
 600 0202 06D1     		bne	.L36
 601              		.loc 1 117 0 is_stmt 0 discriminator 1
 602 0204 0123     		movs	r3, #1
 603 0206 BB77     		strb	r3, [r7, #30]
 604 0208 BB8B     		ldrh	r3, [r7, #28]
 605 020a 0133     		adds	r3, r3, #1
 606 020c 9BB2     		uxth	r3, r3
 607 020e BB83     		strh	r3, [r7, #28]	@ movhi
 118:rhea\rtc\alarm/alarm.c ****                         else newAlarm.datetime.month++;
 119:rhea\rtc\alarm/alarm.c ****                         break;
 608              		.loc 1 119 0 is_stmt 1 discriminator 1
 609 0210 08E0     		b	.L28
 610              	.L36:
 118:rhea\rtc\alarm/alarm.c ****                         else newAlarm.datetime.month++;
 611              		.loc 1 118 0
 612 0212 BB7F     		ldrb	r3, [r7, #30]	@ zero_extendqisi2
 613 0214 0133     		adds	r3, r3, #1
 614 0216 DBB2     		uxtb	r3, r3
 615 0218 BB77     		strb	r3, [r7, #30]
 616              		.loc 1 119 0
 617 021a 03E0     		b	.L28
 618              	.L35:
 120:rhea\rtc\alarm/alarm.c ****     case EveryYear:     newAlarm.datetime.year++;
 619              		.loc 1 120 0
 620 021c BB8B     		ldrh	r3, [r7, #28]
 621 021e 0133     		adds	r3, r3, #1
 622 0220 9BB2     		uxth	r3, r3
 623 0222 BB83     		strh	r3, [r7, #28]	@ movhi
 624              	.L28:
 121:rhea\rtc\alarm/alarm.c ****     };
 122:rhea\rtc\alarm/alarm.c ****     
 123:rhea\rtc\alarm/alarm.c ****     // Recalculating day of week
 124:rhea\rtc\alarm/alarm.c ****     rhea_rtc_setWeekday(&newAlarm.datetime);
 625              		.loc 1 124 0 discriminator 1
 626 0224 07F11C03 		add	r3, r7, #28
 627 0228 1846     		mov	r0, r3
 628 022a FFF7FEFF 		bl	rhea_rtc_setWeekday
 125:rhea\rtc\alarm/alarm.c ****     
 126:rhea\rtc\alarm/alarm.c ****     // Applying changes
 127:rhea\rtc\alarm/alarm.c ****     *alarm = newAlarm;
 629              		.loc 1 127 0 discriminator 1
 630 022e 7B69     		ldr	r3, [r7, #20]
 631 0230 1C46     		mov	r4, r3
 632 0232 07F11C03 		add	r3, r7, #28
ARM GAS  C:\Users\GYULAI~1\AppData\Local\Temp\ccmvhz8T.s 			page 15


 633 0236 07CB     		ldmia	r3!, {r0, r1, r2}
 634 0238 2060     		str	r0, [r4]	@ unaligned
 635 023a 6160     		str	r1, [r4, #4]	@ unaligned
 636 023c A260     		str	r2, [r4, #8]	@ unaligned
 637              	.L19:
 128:rhea\rtc\alarm/alarm.c **** }
 638              		.loc 1 128 0
 639 023e 4C37     		adds	r7, r7, #76
 640              		.cfi_def_cfa_offset 12
 641 0240 BD46     		mov	sp, r7
 642              		.cfi_def_cfa_register 13
 643              		@ sp needed
 644 0242 90BD     		pop	{r4, r7, pc}
 645              	.L40:
 646              		.align	2
 647              	.L39:
 648 0244 80510100 		.word	86400
 649 0248 803A0900 		.word	604800
 650              		.cfi_endproc
 651              	.LFE2:
 652              		.size	rhea_rtc_normalizeAlarm, .-rhea_rtc_normalizeAlarm
 653              		.text
 654              	.Letext0:
 655              		.file 2 "e:\\cypress\\psoc creator\\4.2\\psoc creator\\import\\gnu\\arm\\5.4.1\\arm-none-eabi\\inc
 656              		.file 3 "e:\\cypress\\psoc creator\\4.2\\psoc creator\\import\\gnu\\arm\\5.4.1\\arm-none-eabi\\inc
 657              		.file 4 "rhea\\rtc\\alarm\\../datetime/datetime.h"
 658              		.file 5 "rhea\\rtc\\alarm\\alarm.h"