ARM GAS  C:\Users\GYULAI~1\AppData\Local\Temp\cclBQTHO.s 			page 1


   1              		.syntax unified
   2              		.cpu cortex-m3
   3              		.fpu softvfp
   4              		.eabi_attribute 20, 1
   5              		.eabi_attribute 21, 1
   6              		.eabi_attribute 23, 3
   7              		.eabi_attribute 24, 1
   8              		.eabi_attribute 25, 1
   9              		.eabi_attribute 26, 1
  10              		.eabi_attribute 30, 1
  11              		.eabi_attribute 34, 1
  12              		.eabi_attribute 18, 4
  13              		.thumb
  14              		.syntax unified
  15              		.file	"BME280.c"
  16              		.text
  17              	.Ltext0:
  18              		.cfi_sections	.debug_frame
  19              		.section	.text.BME280_SetI2CController,"ax",%progbits
  20              		.align	2
  21              		.global	BME280_SetI2CController
  22              		.thumb
  23              		.thumb_func
  24              		.type	BME280_SetI2CController, %function
  25              	BME280_SetI2CController:
  26              	.LFB0:
  27              		.file 1 "rhea\\drivers\\BME280\\BME280.c"
   1:rhea\drivers\BME280/BME280.c **** /*********************************************************************************
   2:rhea\drivers\BME280/BME280.c ****  * Copyright (c) 2020 Peter Gyulai
   3:rhea\drivers\BME280/BME280.c ****  *
   4:rhea\drivers\BME280/BME280.c ****  * Permission is hereby granted, free of charge, to any person obtaining a copy
   5:rhea\drivers\BME280/BME280.c ****  * of this software and associated documentation files (the "Software"), to deal
   6:rhea\drivers\BME280/BME280.c ****  * in the Software without restriction, including without limitation the rights
   7:rhea\drivers\BME280/BME280.c ****  * to use, copy, modify, merge, publish, distribute, sublicense, and/or sell
   8:rhea\drivers\BME280/BME280.c ****  * copies of the Software, and to permit persons to whom the Software is
   9:rhea\drivers\BME280/BME280.c ****  * furnished to do so, subject to the following conditions:
  10:rhea\drivers\BME280/BME280.c ****  *
  11:rhea\drivers\BME280/BME280.c ****  * The above copyright notice and this permission notice shall be included in all
  12:rhea\drivers\BME280/BME280.c ****  * copies or substantial portions of the Software.
  13:rhea\drivers\BME280/BME280.c ****  *
  14:rhea\drivers\BME280/BME280.c ****  * THE SOFTWARE IS PROVIDED "AS IS", WITHOUT WARRANTY OF ANY KIND,
  15:rhea\drivers\BME280/BME280.c ****  * EXPRESS OR IMPLIED, INCLUDING BUT NOT LIMITED TO THE WARRANTIES OF
  16:rhea\drivers\BME280/BME280.c ****  * MERCHANTABILITY, FITNESS FOR A PARTICULAR PURPOSE AND NONINFRINGEMENT.
  17:rhea\drivers\BME280/BME280.c ****  * IN NO EVENT SHALL THE AUTHORS OR COPYRIGHT HOLDERS BE LIABLE FOR ANY CLAIM,
  18:rhea\drivers\BME280/BME280.c ****  * DAMAGES OR OTHER LIABILITY, WHETHER IN AN ACTION OF CONTRACT, TORT OR
  19:rhea\drivers\BME280/BME280.c ****  * OTHERWISE, ARISING FROM, OUT OF OR IN CONNECTION WITH THE SOFTWARE OR THE USE
  20:rhea\drivers\BME280/BME280.c ****  * OR OTHER DEALINGS IN THE SOFTWARE.
  21:rhea\drivers\BME280/BME280.c **** **********************************************************************************/
  22:rhea\drivers\BME280/BME280.c **** 
  23:rhea\drivers\BME280/BME280.c **** /**
  24:rhea\drivers\BME280/BME280.c ****  * @file    BME280.c
  25:rhea\drivers\BME280/BME280.c ****  * @author  Peter Gyulai
  26:rhea\drivers\BME280/BME280.c ****  * @version 1.1.0
  27:rhea\drivers\BME280/BME280.c ****  * @date    2020.04.14
  28:rhea\drivers\BME280/BME280.c ****  * @brief   Library implementation.
  29:rhea\drivers\BME280/BME280.c ****  * @details
  30:rhea\drivers\BME280/BME280.c ****  * This file contains the function definitions and static variable definitions used
ARM GAS  C:\Users\GYULAI~1\AppData\Local\Temp\cclBQTHO.s 			page 2


  31:rhea\drivers\BME280/BME280.c ****  * by the BME280 driver library.
  32:rhea\drivers\BME280/BME280.c ****  */
  33:rhea\drivers\BME280/BME280.c **** 
  34:rhea\drivers\BME280/BME280.c **** // Doxygen documentation duplication suppression
  35:rhea\drivers\BME280/BME280.c **** #ifndef DOXYGEN_SHOULD_SKIP_THIS
  36:rhea\drivers\BME280/BME280.c **** 
  37:rhea\drivers\BME280/BME280.c **** // Project includes
  38:rhea\drivers\BME280/BME280.c **** #include "BME280.h"
  39:rhea\drivers\BME280/BME280.c **** 
  40:rhea\drivers\BME280/BME280.c **** 
  41:rhea\drivers\BME280/BME280.c **** // // Structure holding function pointers to I2C handlers
  42:rhea\drivers\BME280/BME280.c **** static BME280_I2CControllerStruct BME280_I2CController;
  43:rhea\drivers\BME280/BME280.c **** 
  44:rhea\drivers\BME280/BME280.c **** // Static instance holding a local copy of the BME280's registers
  45:rhea\drivers\BME280/BME280.c **** static BME280_RegisterStruct BME280_RegistersLocal;
  46:rhea\drivers\BME280/BME280.c **** 
  47:rhea\drivers\BME280/BME280.c **** void BME280_SetI2CController(BME280_I2CControllerStruct controller) {
  28              		.loc 1 47 0
  29              		.cfi_startproc
  30              		@ args = 0, pretend = 0, frame = 16
  31              		@ frame_needed = 0, uses_anonymous_args = 0
  32              		@ link register save eliminated.
  33 0000 30B4     		push	{r4, r5}
  34              		.cfi_def_cfa_offset 8
  35              		.cfi_offset 4, -8
  36              		.cfi_offset 5, -4
  37 0002 84B0     		sub	sp, sp, #16
  38              		.cfi_def_cfa_offset 24
  39 0004 8DE80F00 		stmia	sp, {r0, r1, r2, r3}
  48:rhea\drivers\BME280/BME280.c **** 	BME280_I2CController = controller;
  40              		.loc 1 48 0
  41 0008 034D     		ldr	r5, .L3
  42 000a 9DE80F00 		ldmia	sp, {r0, r1, r2, r3}
  43 000e 85E80F00 		stmia	r5, {r0, r1, r2, r3}
  49:rhea\drivers\BME280/BME280.c **** }
  44              		.loc 1 49 0
  45 0012 04B0     		add	sp, sp, #16
  46              		.cfi_def_cfa_offset 8
  47              		@ sp needed
  48 0014 30BC     		pop	{r4, r5}
  49              		.cfi_restore 5
  50              		.cfi_restore 4
  51              		.cfi_def_cfa_offset 0
  52 0016 7047     		bx	lr
  53              	.L4:
  54              		.align	2
  55              	.L3:
  56 0018 00000000 		.word	.LANCHOR0
  57              		.cfi_endproc
  58              	.LFE0:
  59              		.size	BME280_SetI2CController, .-BME280_SetI2CController
  60              		.section	.text.BME280_I2CReader,"ax",%progbits
  61              		.align	2
  62              		.global	BME280_I2CReader
  63              		.thumb
  64              		.thumb_func
  65              		.type	BME280_I2CReader, %function
ARM GAS  C:\Users\GYULAI~1\AppData\Local\Temp\cclBQTHO.s 			page 3


  66              	BME280_I2CReader:
  67              	.LFB1:
  50:rhea\drivers\BME280/BME280.c **** 
  51:rhea\drivers\BME280/BME280.c **** void BME280_I2CReader(uint8_t address, uint8_t deviceAddress, unsigned char * buffer, uint8_t byteC
  68              		.loc 1 51 0
  69              		.cfi_startproc
  70              		@ args = 0, pretend = 0, frame = 0
  71              		@ frame_needed = 0, uses_anonymous_args = 0
  72              	.LVL0:
  73 0000 2DE9F041 		push	{r4, r5, r6, r7, r8, lr}
  74              		.cfi_def_cfa_offset 24
  75              		.cfi_offset 4, -24
  76              		.cfi_offset 5, -20
  77              		.cfi_offset 6, -16
  78              		.cfi_offset 7, -12
  79              		.cfi_offset 8, -8
  80              		.cfi_offset 14, -4
  81 0004 0746     		mov	r7, r0
  82 0006 8846     		mov	r8, r1
  83 0008 1646     		mov	r6, r2
  84 000a 1D46     		mov	r5, r3
  52:rhea\drivers\BME280/BME280.c ****     
  53:rhea\drivers\BME280/BME280.c ****     // Selecting the device for write
  54:rhea\drivers\BME280/BME280.c ****     BME280_I2CController.MasterSendStart(address, 0);
  85              		.loc 1 54 0
  86 000c 0F4C     		ldr	r4, .L9
  87 000e 2368     		ldr	r3, [r4]
  88              	.LVL1:
  89 0010 0021     		movs	r1, #0
  90              	.LVL2:
  91 0012 9847     		blx	r3
  92              	.LVL3:
  55:rhea\drivers\BME280/BME280.c ****     
  56:rhea\drivers\BME280/BME280.c ****     // Writing first device address to read
  57:rhea\drivers\BME280/BME280.c ****     BME280_I2CController.MasterWriteByte(deviceAddress);
  93              		.loc 1 57 0
  94 0014 A368     		ldr	r3, [r4, #8]
  95 0016 4046     		mov	r0, r8
  96 0018 9847     		blx	r3
  97              	.LVL4:
  58:rhea\drivers\BME280/BME280.c ****     
  59:rhea\drivers\BME280/BME280.c ****     // Selecting the device for read
  60:rhea\drivers\BME280/BME280.c ****     BME280_I2CController.MasterSendStart(address, 1);
  98              		.loc 1 60 0
  99 001a 2368     		ldr	r3, [r4]
 100 001c 0121     		movs	r1, #1
 101 001e 3846     		mov	r0, r7
 102 0020 9847     		blx	r3
 103              	.LVL5:
 104              	.LBB2:
  61:rhea\drivers\BME280/BME280.c ****     
  62:rhea\drivers\BME280/BME280.c ****     // Reading bytes from the device
  63:rhea\drivers\BME280/BME280.c ****     for(uint8_t i = 0; i < byteCount; i++) {
 105              		.loc 1 63 0
 106 0022 0024     		movs	r4, #0
 107 0024 0AE0     		b	.L6
 108              	.LVL6:
ARM GAS  C:\Users\GYULAI~1\AppData\Local\Temp\cclBQTHO.s 			page 4


 109              	.L7:
  64:rhea\drivers\BME280/BME280.c ****         buffer[i] = BME280_I2CController.MasterReadByte(i < byteCount - 1 ? 1 : 0);   
 110              		.loc 1 64 0 discriminator 3
 111 0026 094B     		ldr	r3, .L9
 112 0028 DB68     		ldr	r3, [r3, #12]
 113 002a 681E     		subs	r0, r5, #1
 114 002c 8442     		cmp	r4, r0
 115 002e ACBF     		ite	ge
 116 0030 0020     		movge	r0, #0
 117 0032 0120     		movlt	r0, #1
 118 0034 9847     		blx	r3
 119              	.LVL7:
 120 0036 3055     		strb	r0, [r6, r4]
  63:rhea\drivers\BME280/BME280.c ****         buffer[i] = BME280_I2CController.MasterReadByte(i < byteCount - 1 ? 1 : 0);   
 121              		.loc 1 63 0 discriminator 3
 122 0038 0134     		adds	r4, r4, #1
 123              	.LVL8:
 124 003a E4B2     		uxtb	r4, r4
 125              	.LVL9:
 126              	.L6:
  63:rhea\drivers\BME280/BME280.c ****         buffer[i] = BME280_I2CController.MasterReadByte(i < byteCount - 1 ? 1 : 0);   
 127              		.loc 1 63 0 is_stmt 0 discriminator 1
 128 003c AC42     		cmp	r4, r5
 129 003e F2D3     		bcc	.L7
 130              	.LBE2:
  65:rhea\drivers\BME280/BME280.c ****     }
  66:rhea\drivers\BME280/BME280.c ****     
  67:rhea\drivers\BME280/BME280.c ****     // Sending STOP 
  68:rhea\drivers\BME280/BME280.c ****     BME280_I2CController.MasterSendStop();
 131              		.loc 1 68 0 is_stmt 1
 132 0040 024B     		ldr	r3, .L9
 133 0042 5B68     		ldr	r3, [r3, #4]
 134 0044 9847     		blx	r3
 135              	.LVL10:
 136 0046 BDE8F081 		pop	{r4, r5, r6, r7, r8, pc}
 137              	.LVL11:
 138              	.L10:
 139 004a 00BF     		.align	2
 140              	.L9:
 141 004c 00000000 		.word	.LANCHOR0
 142              		.cfi_endproc
 143              	.LFE1:
 144              		.size	BME280_I2CReader, .-BME280_I2CReader
 145              		.section	.text.BME280_I2CWriter,"ax",%progbits
 146              		.align	2
 147              		.global	BME280_I2CWriter
 148              		.thumb
 149              		.thumb_func
 150              		.type	BME280_I2CWriter, %function
 151              	BME280_I2CWriter:
 152              	.LFB2:
  69:rhea\drivers\BME280/BME280.c **** }
  70:rhea\drivers\BME280/BME280.c **** 
  71:rhea\drivers\BME280/BME280.c **** void BME280_I2CWriter(uint8_t address, uint8_t deviceAddress, const unsigned char * buffer, uint8_t
 153              		.loc 1 71 0
 154              		.cfi_startproc
 155              		@ args = 0, pretend = 0, frame = 0
ARM GAS  C:\Users\GYULAI~1\AppData\Local\Temp\cclBQTHO.s 			page 5


 156              		@ frame_needed = 0, uses_anonymous_args = 0
 157              	.LVL12:
 158 0000 2DE9F843 		push	{r3, r4, r5, r6, r7, r8, r9, lr}
 159              		.cfi_def_cfa_offset 32
 160              		.cfi_offset 3, -32
 161              		.cfi_offset 4, -28
 162              		.cfi_offset 5, -24
 163              		.cfi_offset 6, -20
 164              		.cfi_offset 7, -16
 165              		.cfi_offset 8, -12
 166              		.cfi_offset 9, -8
 167              		.cfi_offset 14, -4
 168 0004 0D46     		mov	r5, r1
 169 0006 9146     		mov	r9, r2
 170 0008 9846     		mov	r8, r3
  72:rhea\drivers\BME280/BME280.c ****     
  73:rhea\drivers\BME280/BME280.c ****     // Selecting the device for write
  74:rhea\drivers\BME280/BME280.c ****     BME280_I2CController.MasterSendStart(address, 0);
 171              		.loc 1 74 0
 172 000a 0D4B     		ldr	r3, .L15
 173              	.LVL13:
 174 000c 1B68     		ldr	r3, [r3]
 175 000e 0021     		movs	r1, #0
 176              	.LVL14:
 177 0010 9847     		blx	r3
 178              	.LVL15:
 179              	.LBB3:
  75:rhea\drivers\BME280/BME280.c ****     
  76:rhea\drivers\BME280/BME280.c ****     // Writing bytes to the device
  77:rhea\drivers\BME280/BME280.c ****     for(uint8_t i = 0; i < byteCount; i++) {
 180              		.loc 1 77 0
 181 0012 0024     		movs	r4, #0
 182 0014 0CE0     		b	.L12
 183              	.LVL16:
 184              	.L13:
  78:rhea\drivers\BME280/BME280.c ****         
  79:rhea\drivers\BME280/BME280.c ****         // Sending device address to write
  80:rhea\drivers\BME280/BME280.c ****         BME280_I2CController.MasterWriteByte(deviceAddress++);
 185              		.loc 1 80 0 discriminator 3
 186 0016 0A4E     		ldr	r6, .L15
 187 0018 B368     		ldr	r3, [r6, #8]
 188 001a 6F1C     		adds	r7, r5, #1
 189 001c FFB2     		uxtb	r7, r7
 190              	.LVL17:
 191 001e 2846     		mov	r0, r5
 192 0020 9847     		blx	r3
 193              	.LVL18:
  81:rhea\drivers\BME280/BME280.c ****         
  82:rhea\drivers\BME280/BME280.c ****         // Sending byte to write
  83:rhea\drivers\BME280/BME280.c ****         BME280_I2CController.MasterWriteByte(buffer[i]);
 194              		.loc 1 83 0 discriminator 3
 195 0022 B368     		ldr	r3, [r6, #8]
 196 0024 19F80400 		ldrb	r0, [r9, r4]	@ zero_extendqisi2
 197 0028 9847     		blx	r3
 198              	.LVL19:
  77:rhea\drivers\BME280/BME280.c ****         
 199              		.loc 1 77 0 discriminator 3
ARM GAS  C:\Users\GYULAI~1\AppData\Local\Temp\cclBQTHO.s 			page 6


 200 002a 0134     		adds	r4, r4, #1
 201              	.LVL20:
 202 002c E4B2     		uxtb	r4, r4
 203              	.LVL21:
  80:rhea\drivers\BME280/BME280.c ****         
 204              		.loc 1 80 0 discriminator 3
 205 002e 3D46     		mov	r5, r7
 206              	.LVL22:
 207              	.L12:
  77:rhea\drivers\BME280/BME280.c ****         
 208              		.loc 1 77 0 discriminator 1
 209 0030 4445     		cmp	r4, r8
 210 0032 F0D3     		bcc	.L13
 211              	.LBE3:
  84:rhea\drivers\BME280/BME280.c ****     }
  85:rhea\drivers\BME280/BME280.c ****     
  86:rhea\drivers\BME280/BME280.c ****     // Sending STOP 
  87:rhea\drivers\BME280/BME280.c ****     BME280_I2CController.MasterSendStop();
 212              		.loc 1 87 0
 213 0034 024B     		ldr	r3, .L15
 214 0036 5B68     		ldr	r3, [r3, #4]
 215 0038 9847     		blx	r3
 216              	.LVL23:
 217 003a BDE8F883 		pop	{r3, r4, r5, r6, r7, r8, r9, pc}
 218              	.LVL24:
 219              	.L16:
 220 003e 00BF     		.align	2
 221              	.L15:
 222 0040 00000000 		.word	.LANCHOR0
 223              		.cfi_endproc
 224              	.LFE2:
 225              		.size	BME280_I2CWriter, .-BME280_I2CWriter
 226              		.section	.text.BME280_Reset,"ax",%progbits
 227              		.align	2
 228              		.global	BME280_Reset
 229              		.thumb
 230              		.thumb_func
 231              		.type	BME280_Reset, %function
 232              	BME280_Reset:
 233              	.LFB4:
  88:rhea\drivers\BME280/BME280.c **** }
  89:rhea\drivers\BME280/BME280.c ****     
  90:rhea\drivers\BME280/BME280.c **** void BME280_Init(void) {
  91:rhea\drivers\BME280/BME280.c **** 
  92:rhea\drivers\BME280/BME280.c ****     // Reading & validating chip ID
  93:rhea\drivers\BME280/BME280.c ****     uint8_t ID = 0x00;
  94:rhea\drivers\BME280/BME280.c ****     BME280_I2CReader(BME280_I2C_ADDR, BME280_ID, &ID, 1);
  95:rhea\drivers\BME280/BME280.c ****         // Do assertion: ID == BME280_CHIP_ID
  96:rhea\drivers\BME280/BME280.c ****     
  97:rhea\drivers\BME280/BME280.c ****     // Reading calibration data
  98:rhea\drivers\BME280/BME280.c ****     uint8_t calibDataLow[BME280_CALIBRATION_REGS_LOW_COUNT];
  99:rhea\drivers\BME280/BME280.c ****     uint8_t calibDataHigh[BME280_CALIBRATION_REGS_HIGH_COUNT];
 100:rhea\drivers\BME280/BME280.c ****     BME280_I2CReader(BME280_I2C_ADDR, BME280_CALIBRATION_REGS_LOW, calibDataLow, BME280_CALIBRATION
 101:rhea\drivers\BME280/BME280.c ****     BME280_I2CReader(BME280_I2C_ADDR, BME280_CALIBRATION_REGS_HIGH, calibDataHigh, BME280_CALIBRATI
 102:rhea\drivers\BME280/BME280.c **** 
 103:rhea\drivers\BME280/BME280.c ****     // Setting temperature compensation parameters
 104:rhea\drivers\BME280/BME280.c ****     BME280_RegistersLocal.dig_T1 = (uint16_t) calibDataLow[0]  | (uint16_t) calibDataLow[1] << 8;
ARM GAS  C:\Users\GYULAI~1\AppData\Local\Temp\cclBQTHO.s 			page 7


 105:rhea\drivers\BME280/BME280.c ****     BME280_RegistersLocal.dig_T2 = (int16_t)  calibDataLow[2]  | (int16_t)  calibDataLow[3] << 8;
 106:rhea\drivers\BME280/BME280.c ****     BME280_RegistersLocal.dig_T3 = (int16_t)  calibDataLow[4]  | (int16_t)  calibDataLow[5] << 8;
 107:rhea\drivers\BME280/BME280.c **** 
 108:rhea\drivers\BME280/BME280.c ****     // Setting pressure compensation parameters
 109:rhea\drivers\BME280/BME280.c ****     BME280_RegistersLocal.dig_P1 = (uint16_t) calibDataLow[6]  | (uint16_t) calibDataLow[7] << 8;
 110:rhea\drivers\BME280/BME280.c ****     BME280_RegistersLocal.dig_P2 = (int16_t)  calibDataLow[8]  | (int16_t)  calibDataLow[9] << 8;
 111:rhea\drivers\BME280/BME280.c ****     BME280_RegistersLocal.dig_P3 = (int16_t)  calibDataLow[10] | (int16_t)  calibDataLow[11] << 8;
 112:rhea\drivers\BME280/BME280.c ****     BME280_RegistersLocal.dig_P4 = (int16_t)  calibDataLow[12] | (int16_t)  calibDataLow[13] << 8;
 113:rhea\drivers\BME280/BME280.c ****     BME280_RegistersLocal.dig_P5 = (int16_t)  calibDataLow[14] | (int16_t)  calibDataLow[15] << 8;
 114:rhea\drivers\BME280/BME280.c ****     BME280_RegistersLocal.dig_P6 = (int16_t)  calibDataLow[16] | (int16_t)  calibDataLow[17] << 8;
 115:rhea\drivers\BME280/BME280.c ****     BME280_RegistersLocal.dig_P7 = (int16_t)  calibDataLow[18] | (int16_t)  calibDataLow[19] << 8;
 116:rhea\drivers\BME280/BME280.c ****     BME280_RegistersLocal.dig_P8 = (int16_t)  calibDataLow[20] | (int16_t)  calibDataLow[21] << 8;
 117:rhea\drivers\BME280/BME280.c ****     BME280_RegistersLocal.dig_P9 = (int16_t)  calibDataLow[22] | (int16_t)  calibDataLow[23] << 8;
 118:rhea\drivers\BME280/BME280.c **** 
 119:rhea\drivers\BME280/BME280.c ****     // Setting humidity compensation parameters
 120:rhea\drivers\BME280/BME280.c ****     BME280_RegistersLocal.dig_H1 = (uint8_t)  calibDataLow[25];
 121:rhea\drivers\BME280/BME280.c ****     BME280_RegistersLocal.dig_H2 = (int16_t)  calibDataHigh[0]         | (int16_t) calibDataHigh[1]
 122:rhea\drivers\BME280/BME280.c ****     BME280_RegistersLocal.dig_H3 = (uint8_t)  calibDataHigh[2];
 123:rhea\drivers\BME280/BME280.c ****     BME280_RegistersLocal.dig_H4 = (int16_t) (calibDataHigh[4] | 0x0F) | (int16_t) calibDataHigh[3]
 124:rhea\drivers\BME280/BME280.c ****     BME280_RegistersLocal.dig_H5 = (int16_t) (calibDataHigh[4] | 0xF0) | (int16_t) calibDataHigh[5]
 125:rhea\drivers\BME280/BME280.c ****     BME280_RegistersLocal.dig_H6 = (int8_t)   calibDataHigh[6];
 126:rhea\drivers\BME280/BME280.c **** 
 127:rhea\drivers\BME280/BME280.c ****     // Performing software reset
 128:rhea\drivers\BME280/BME280.c ****     BME280_Reset();
 129:rhea\drivers\BME280/BME280.c **** }
 130:rhea\drivers\BME280/BME280.c **** 
 131:rhea\drivers\BME280/BME280.c **** void BME280_Reset(void) {
 234              		.loc 1 131 0
 235              		.cfi_startproc
 236              		@ args = 0, pretend = 0, frame = 8
 237              		@ frame_needed = 0, uses_anonymous_args = 0
 238 0000 00B5     		push	{lr}
 239              		.cfi_def_cfa_offset 4
 240              		.cfi_offset 14, -4
 241 0002 83B0     		sub	sp, sp, #12
 242              		.cfi_def_cfa_offset 16
 132:rhea\drivers\BME280/BME280.c **** 
 133:rhea\drivers\BME280/BME280.c ****     // Writing reset word to RESET register
 134:rhea\drivers\BME280/BME280.c ****     const uint8_t resetWord = BME280_RESET_WORD;
 243              		.loc 1 134 0
 244 0004 02AA     		add	r2, sp, #8
 245 0006 B623     		movs	r3, #182
 246 0008 02F8013D 		strb	r3, [r2, #-1]!
 135:rhea\drivers\BME280/BME280.c ****     BME280_I2CWriter(BME280_I2C_ADDR, BME280_RESET, &resetWord, 1);
 247              		.loc 1 135 0
 248 000c 0123     		movs	r3, #1
 249 000e E021     		movs	r1, #224
 250 0010 7620     		movs	r0, #118
 251 0012 FFF7FEFF 		bl	BME280_I2CWriter
 252              	.LVL25:
 136:rhea\drivers\BME280/BME280.c **** }
 253              		.loc 1 136 0
 254 0016 03B0     		add	sp, sp, #12
 255              		.cfi_def_cfa_offset 4
 256              		@ sp needed
 257 0018 5DF804FB 		ldr	pc, [sp], #4
 258              		.cfi_endproc
ARM GAS  C:\Users\GYULAI~1\AppData\Local\Temp\cclBQTHO.s 			page 8


 259              	.LFE4:
 260              		.size	BME280_Reset, .-BME280_Reset
 261              		.section	.text.BME280_Init,"ax",%progbits
 262              		.align	2
 263              		.global	BME280_Init
 264              		.thumb
 265              		.thumb_func
 266              		.type	BME280_Init, %function
 267              	BME280_Init:
 268              	.LFB3:
  90:rhea\drivers\BME280/BME280.c **** 
 269              		.loc 1 90 0
 270              		.cfi_startproc
 271              		@ args = 0, pretend = 0, frame = 40
 272              		@ frame_needed = 0, uses_anonymous_args = 0
 273 0000 00B5     		push	{lr}
 274              		.cfi_def_cfa_offset 4
 275              		.cfi_offset 14, -4
 276 0002 8BB0     		sub	sp, sp, #44
 277              		.cfi_def_cfa_offset 48
  93:rhea\drivers\BME280/BME280.c ****     BME280_I2CReader(BME280_I2C_ADDR, BME280_ID, &ID, 1);
 278              		.loc 1 93 0
 279 0004 0AAA     		add	r2, sp, #40
 280 0006 0023     		movs	r3, #0
 281 0008 02F8013D 		strb	r3, [r2, #-1]!
  94:rhea\drivers\BME280/BME280.c ****         // Do assertion: ID == BME280_CHIP_ID
 282              		.loc 1 94 0
 283 000c 0123     		movs	r3, #1
 284 000e D021     		movs	r1, #208
 285 0010 7620     		movs	r0, #118
 286 0012 FFF7FEFF 		bl	BME280_I2CReader
 287              	.LVL26:
 100:rhea\drivers\BME280/BME280.c ****     BME280_I2CReader(BME280_I2C_ADDR, BME280_CALIBRATION_REGS_HIGH, calibDataHigh, BME280_CALIBRATI
 288              		.loc 1 100 0
 289 0016 1A23     		movs	r3, #26
 290 0018 03AA     		add	r2, sp, #12
 291 001a 8821     		movs	r1, #136
 292 001c 7620     		movs	r0, #118
 293 001e FFF7FEFF 		bl	BME280_I2CReader
 294              	.LVL27:
 101:rhea\drivers\BME280/BME280.c **** 
 295              		.loc 1 101 0
 296 0022 0723     		movs	r3, #7
 297 0024 01AA     		add	r2, sp, #4
 298 0026 E121     		movs	r1, #225
 299 0028 7620     		movs	r0, #118
 300 002a FFF7FEFF 		bl	BME280_I2CReader
 301              	.LVL28:
 104:rhea\drivers\BME280/BME280.c ****     BME280_RegistersLocal.dig_T2 = (int16_t)  calibDataLow[2]  | (int16_t)  calibDataLow[3] << 8;
 302              		.loc 1 104 0
 303 002e 9DF80C20 		ldrb	r2, [sp, #12]	@ zero_extendqisi2
 304 0032 9DF80D10 		ldrb	r1, [sp, #13]	@ zero_extendqisi2
 305 0036 3D4B     		ldr	r3, .L21
 306 0038 42EA0122 		orr	r2, r2, r1, lsl #8
 307 003c 9A83     		strh	r2, [r3, #28]	@ movhi
 105:rhea\drivers\BME280/BME280.c ****     BME280_RegistersLocal.dig_T3 = (int16_t)  calibDataLow[4]  | (int16_t)  calibDataLow[5] << 8;
 308              		.loc 1 105 0
ARM GAS  C:\Users\GYULAI~1\AppData\Local\Temp\cclBQTHO.s 			page 9


 309 003e 9DF80E20 		ldrb	r2, [sp, #14]	@ zero_extendqisi2
 310 0042 9DF80F10 		ldrb	r1, [sp, #15]	@ zero_extendqisi2
 311 0046 42EA0122 		orr	r2, r2, r1, lsl #8
 312 004a DA83     		strh	r2, [r3, #30]	@ movhi
 106:rhea\drivers\BME280/BME280.c **** 
 313              		.loc 1 106 0
 314 004c 9DF81020 		ldrb	r2, [sp, #16]	@ zero_extendqisi2
 315 0050 9DF81110 		ldrb	r1, [sp, #17]	@ zero_extendqisi2
 316 0054 42EA0122 		orr	r2, r2, r1, lsl #8
 317 0058 1A84     		strh	r2, [r3, #32]	@ movhi
 109:rhea\drivers\BME280/BME280.c ****     BME280_RegistersLocal.dig_P2 = (int16_t)  calibDataLow[8]  | (int16_t)  calibDataLow[9] << 8;
 318              		.loc 1 109 0
 319 005a 9DF81220 		ldrb	r2, [sp, #18]	@ zero_extendqisi2
 320 005e 9DF81310 		ldrb	r1, [sp, #19]	@ zero_extendqisi2
 321 0062 42EA0122 		orr	r2, r2, r1, lsl #8
 322 0066 5A84     		strh	r2, [r3, #34]	@ movhi
 110:rhea\drivers\BME280/BME280.c ****     BME280_RegistersLocal.dig_P3 = (int16_t)  calibDataLow[10] | (int16_t)  calibDataLow[11] << 8;
 323              		.loc 1 110 0
 324 0068 9DF81420 		ldrb	r2, [sp, #20]	@ zero_extendqisi2
 325 006c 9DF81510 		ldrb	r1, [sp, #21]	@ zero_extendqisi2
 326 0070 42EA0122 		orr	r2, r2, r1, lsl #8
 327 0074 9A84     		strh	r2, [r3, #36]	@ movhi
 111:rhea\drivers\BME280/BME280.c ****     BME280_RegistersLocal.dig_P4 = (int16_t)  calibDataLow[12] | (int16_t)  calibDataLow[13] << 8;
 328              		.loc 1 111 0
 329 0076 9DF81620 		ldrb	r2, [sp, #22]	@ zero_extendqisi2
 330 007a 9DF81710 		ldrb	r1, [sp, #23]	@ zero_extendqisi2
 331 007e 42EA0122 		orr	r2, r2, r1, lsl #8
 332 0082 DA84     		strh	r2, [r3, #38]	@ movhi
 112:rhea\drivers\BME280/BME280.c ****     BME280_RegistersLocal.dig_P5 = (int16_t)  calibDataLow[14] | (int16_t)  calibDataLow[15] << 8;
 333              		.loc 1 112 0
 334 0084 9DF81820 		ldrb	r2, [sp, #24]	@ zero_extendqisi2
 335 0088 9DF81910 		ldrb	r1, [sp, #25]	@ zero_extendqisi2
 336 008c 42EA0122 		orr	r2, r2, r1, lsl #8
 337 0090 1A85     		strh	r2, [r3, #40]	@ movhi
 113:rhea\drivers\BME280/BME280.c ****     BME280_RegistersLocal.dig_P6 = (int16_t)  calibDataLow[16] | (int16_t)  calibDataLow[17] << 8;
 338              		.loc 1 113 0
 339 0092 9DF81A20 		ldrb	r2, [sp, #26]	@ zero_extendqisi2
 340 0096 9DF81B10 		ldrb	r1, [sp, #27]	@ zero_extendqisi2
 341 009a 42EA0122 		orr	r2, r2, r1, lsl #8
 342 009e 5A85     		strh	r2, [r3, #42]	@ movhi
 114:rhea\drivers\BME280/BME280.c ****     BME280_RegistersLocal.dig_P7 = (int16_t)  calibDataLow[18] | (int16_t)  calibDataLow[19] << 8;
 343              		.loc 1 114 0
 344 00a0 9DF81C20 		ldrb	r2, [sp, #28]	@ zero_extendqisi2
 345 00a4 9DF81D10 		ldrb	r1, [sp, #29]	@ zero_extendqisi2
 346 00a8 42EA0122 		orr	r2, r2, r1, lsl #8
 347 00ac 9A85     		strh	r2, [r3, #44]	@ movhi
 115:rhea\drivers\BME280/BME280.c ****     BME280_RegistersLocal.dig_P8 = (int16_t)  calibDataLow[20] | (int16_t)  calibDataLow[21] << 8;
 348              		.loc 1 115 0
 349 00ae 9DF81E20 		ldrb	r2, [sp, #30]	@ zero_extendqisi2
 350 00b2 9DF81F10 		ldrb	r1, [sp, #31]	@ zero_extendqisi2
 351 00b6 42EA0122 		orr	r2, r2, r1, lsl #8
 352 00ba DA85     		strh	r2, [r3, #46]	@ movhi
 116:rhea\drivers\BME280/BME280.c ****     BME280_RegistersLocal.dig_P9 = (int16_t)  calibDataLow[22] | (int16_t)  calibDataLow[23] << 8;
 353              		.loc 1 116 0
 354 00bc 9DF82020 		ldrb	r2, [sp, #32]	@ zero_extendqisi2
 355 00c0 9DF82110 		ldrb	r1, [sp, #33]	@ zero_extendqisi2
 356 00c4 42EA0122 		orr	r2, r2, r1, lsl #8
ARM GAS  C:\Users\GYULAI~1\AppData\Local\Temp\cclBQTHO.s 			page 10


 357 00c8 1A86     		strh	r2, [r3, #48]	@ movhi
 117:rhea\drivers\BME280/BME280.c **** 
 358              		.loc 1 117 0
 359 00ca 9DF82220 		ldrb	r2, [sp, #34]	@ zero_extendqisi2
 360 00ce 9DF82310 		ldrb	r1, [sp, #35]	@ zero_extendqisi2
 361 00d2 42EA0122 		orr	r2, r2, r1, lsl #8
 362 00d6 5A86     		strh	r2, [r3, #50]	@ movhi
 120:rhea\drivers\BME280/BME280.c ****     BME280_RegistersLocal.dig_H2 = (int16_t)  calibDataHigh[0]         | (int16_t) calibDataHigh[1]
 363              		.loc 1 120 0
 364 00d8 9DF82520 		ldrb	r2, [sp, #37]	@ zero_extendqisi2
 365 00dc 83F83420 		strb	r2, [r3, #52]
 121:rhea\drivers\BME280/BME280.c ****     BME280_RegistersLocal.dig_H3 = (uint8_t)  calibDataHigh[2];
 366              		.loc 1 121 0
 367 00e0 9DF80420 		ldrb	r2, [sp, #4]	@ zero_extendqisi2
 368 00e4 9DF80510 		ldrb	r1, [sp, #5]	@ zero_extendqisi2
 369 00e8 42EA0122 		orr	r2, r2, r1, lsl #8
 370 00ec A3F83520 		strh	r2, [r3, #53]	@ unaligned
 122:rhea\drivers\BME280/BME280.c ****     BME280_RegistersLocal.dig_H4 = (int16_t) (calibDataHigh[4] | 0x0F) | (int16_t) calibDataHigh[3]
 371              		.loc 1 122 0
 372 00f0 9DF80620 		ldrb	r2, [sp, #6]	@ zero_extendqisi2
 373 00f4 83F83720 		strb	r2, [r3, #55]
 123:rhea\drivers\BME280/BME280.c ****     BME280_RegistersLocal.dig_H5 = (int16_t) (calibDataHigh[4] | 0xF0) | (int16_t) calibDataHigh[5]
 374              		.loc 1 123 0
 375 00f8 9DF80820 		ldrb	r2, [sp, #8]	@ zero_extendqisi2
 376 00fc 9DF80700 		ldrb	r0, [sp, #7]	@ zero_extendqisi2
 377 0100 42F00F01 		orr	r1, r2, #15
 378 0104 41EA0011 		orr	r1, r1, r0, lsl #4
 379 0108 1987     		strh	r1, [r3, #56]	@ movhi
 124:rhea\drivers\BME280/BME280.c ****     BME280_RegistersLocal.dig_H6 = (int8_t)   calibDataHigh[6];
 380              		.loc 1 124 0
 381 010a 9DF80910 		ldrb	r1, [sp, #9]	@ zero_extendqisi2
 382 010e 42F0F002 		orr	r2, r2, #240
 383 0112 42EA0112 		orr	r2, r2, r1, lsl #4
 384 0116 5A87     		strh	r2, [r3, #58]	@ movhi
 125:rhea\drivers\BME280/BME280.c **** 
 385              		.loc 1 125 0
 386 0118 9DF90A20 		ldrsb	r2, [sp, #10]
 387 011c 83F83C20 		strb	r2, [r3, #60]
 128:rhea\drivers\BME280/BME280.c **** }
 388              		.loc 1 128 0
 389 0120 FFF7FEFF 		bl	BME280_Reset
 390              	.LVL29:
 129:rhea\drivers\BME280/BME280.c **** 
 391              		.loc 1 129 0
 392 0124 0BB0     		add	sp, sp, #44
 393              		.cfi_def_cfa_offset 4
 394              		@ sp needed
 395 0126 5DF804FB 		ldr	pc, [sp], #4
 396              	.L22:
 397 012a 00BF     		.align	2
 398              	.L21:
 399 012c 00000000 		.word	.LANCHOR0
 400              		.cfi_endproc
 401              	.LFE3:
 402              		.size	BME280_Init, .-BME280_Init
 403              		.section	.text.BME280_ReadRegisters,"ax",%progbits
 404              		.align	2
ARM GAS  C:\Users\GYULAI~1\AppData\Local\Temp\cclBQTHO.s 			page 11


 405              		.global	BME280_ReadRegisters
 406              		.thumb
 407              		.thumb_func
 408              		.type	BME280_ReadRegisters, %function
 409              	BME280_ReadRegisters:
 410              	.LFB5:
 137:rhea\drivers\BME280/BME280.c **** 
 138:rhea\drivers\BME280/BME280.c **** void BME280_ReadRegisters(void) {
 411              		.loc 1 138 0
 412              		.cfi_startproc
 413              		@ args = 0, pretend = 0, frame = 0
 414              		@ frame_needed = 0, uses_anonymous_args = 0
 415 0000 10B5     		push	{r4, lr}
 416              		.cfi_def_cfa_offset 8
 417              		.cfi_offset 4, -8
 418              		.cfi_offset 14, -4
 139:rhea\drivers\BME280/BME280.c **** 
 140:rhea\drivers\BME280/BME280.c ****     // Reading measurement registers [F7-FE]
 141:rhea\drivers\BME280/BME280.c ****     BME280_I2CReader(BME280_I2C_ADDR, BME280_PRESS_MSB, (uint8_t*) &BME280_RegistersLocal.PRESS_MSB
 419              		.loc 1 141 0
 420 0002 084C     		ldr	r4, .L25
 421 0004 0823     		movs	r3, #8
 422 0006 04F11002 		add	r2, r4, #16
 423 000a F721     		movs	r1, #247
 424 000c 7620     		movs	r0, #118
 425 000e FFF7FEFF 		bl	BME280_I2CReader
 426              	.LVL30:
 142:rhea\drivers\BME280/BME280.c **** 
 143:rhea\drivers\BME280/BME280.c ****     // Reading configuration registers [F2-F5]
 144:rhea\drivers\BME280/BME280.c ****     BME280_I2CReader(BME280_I2C_ADDR, BME280_CTRL_HUM, (uint8_t*) &BME280_RegistersLocal.CTRL_HUM, 
 427              		.loc 1 144 0
 428 0012 0423     		movs	r3, #4
 429 0014 04F11802 		add	r2, r4, #24
 430 0018 F221     		movs	r1, #242
 431 001a 7620     		movs	r0, #118
 432 001c FFF7FEFF 		bl	BME280_I2CReader
 433              	.LVL31:
 434 0020 10BD     		pop	{r4, pc}
 435              	.L26:
 436 0022 00BF     		.align	2
 437              	.L25:
 438 0024 00000000 		.word	.LANCHOR0
 439              		.cfi_endproc
 440              	.LFE5:
 441              		.size	BME280_ReadRegisters, .-BME280_ReadRegisters
 442              		.section	.text.BME280_WriteRegisters,"ax",%progbits
 443              		.align	2
 444              		.global	BME280_WriteRegisters
 445              		.thumb
 446              		.thumb_func
 447              		.type	BME280_WriteRegisters, %function
 448              	BME280_WriteRegisters:
 449              	.LFB6:
 145:rhea\drivers\BME280/BME280.c **** }
 146:rhea\drivers\BME280/BME280.c **** 
 147:rhea\drivers\BME280/BME280.c **** void BME280_WriteRegisters(void) {
 450              		.loc 1 147 0
ARM GAS  C:\Users\GYULAI~1\AppData\Local\Temp\cclBQTHO.s 			page 12


 451              		.cfi_startproc
 452              		@ args = 0, pretend = 0, frame = 0
 453              		@ frame_needed = 0, uses_anonymous_args = 0
 454 0000 08B5     		push	{r3, lr}
 455              		.cfi_def_cfa_offset 8
 456              		.cfi_offset 3, -8
 457              		.cfi_offset 14, -4
 148:rhea\drivers\BME280/BME280.c **** 
 149:rhea\drivers\BME280/BME280.c ****     // Writing configuration registers [F2-F5]
 150:rhea\drivers\BME280/BME280.c ****     BME280_I2CWriter(BME280_I2C_ADDR, BME280_CTRL_HUM, (const uint8_t*) &BME280_RegistersLocal.CTRL
 458              		.loc 1 150 0
 459 0002 0423     		movs	r3, #4
 460 0004 024A     		ldr	r2, .L29
 461 0006 F221     		movs	r1, #242
 462 0008 7620     		movs	r0, #118
 463 000a FFF7FEFF 		bl	BME280_I2CWriter
 464              	.LVL32:
 465 000e 08BD     		pop	{r3, pc}
 466              	.L30:
 467              		.align	2
 468              	.L29:
 469 0010 18000000 		.word	.LANCHOR0+24
 470              		.cfi_endproc
 471              	.LFE6:
 472              		.size	BME280_WriteRegisters, .-BME280_WriteRegisters
 473              		.global	__aeabi_ui2d
 474              		.global	__aeabi_dmul
 475              		.global	__aeabi_dsub
 476              		.global	__aeabi_i2d
 477              		.global	__aeabi_dadd
 478              		.global	__aeabi_d2iz
 479              		.global	__aeabi_ddiv
 480              		.global	__aeabi_dcmplt
 481              		.global	__aeabi_dcmpgt
 482              		.section	.text.BME280_GetTemperatureCelsius,"ax",%progbits
 483              		.align	2
 484              		.global	BME280_GetTemperatureCelsius
 485              		.thumb
 486              		.thumb_func
 487              		.type	BME280_GetTemperatureCelsius, %function
 488              	BME280_GetTemperatureCelsius:
 489              	.LFB7:
 151:rhea\drivers\BME280/BME280.c **** }
 152:rhea\drivers\BME280/BME280.c **** 
 153:rhea\drivers\BME280/BME280.c **** int8_t BME280_GetTemperatureCelsius(uint8_t readNow) {
 490              		.loc 1 153 0
 491              		.cfi_startproc
 492              		@ args = 0, pretend = 0, frame = 0
 493              		@ frame_needed = 0, uses_anonymous_args = 0
 494              	.LVL33:
 495 0000 2DE9F84F 		push	{r3, r4, r5, r6, r7, r8, r9, r10, fp, lr}
 496              		.cfi_def_cfa_offset 40
 497              		.cfi_offset 3, -40
 498              		.cfi_offset 4, -36
 499              		.cfi_offset 5, -32
 500              		.cfi_offset 6, -28
 501              		.cfi_offset 7, -24
ARM GAS  C:\Users\GYULAI~1\AppData\Local\Temp\cclBQTHO.s 			page 13


 502              		.cfi_offset 8, -20
 503              		.cfi_offset 9, -16
 504              		.cfi_offset 10, -12
 505              		.cfi_offset 11, -8
 506              		.cfi_offset 14, -4
 154:rhea\drivers\BME280/BME280.c **** 
 155:rhea\drivers\BME280/BME280.c ****     // Loading measurements registers from the device
 156:rhea\drivers\BME280/BME280.c ****     if(readNow) BME280_ReadRegisters();
 507              		.loc 1 156 0
 508 0004 08B1     		cbz	r0, .L32
 509              		.loc 1 156 0 is_stmt 0 discriminator 1
 510 0006 FFF7FEFF 		bl	BME280_ReadRegisters
 511              	.LVL34:
 512              	.L32:
 157:rhea\drivers\BME280/BME280.c ****     
 158:rhea\drivers\BME280/BME280.c ****     // Preparing measurement register data
 159:rhea\drivers\BME280/BME280.c ****     uint32_t regData = BME280_RegistersLocal.TEMP_XLSB >> 4 | 
 513              		.loc 1 159 0 is_stmt 1
 514 000a 404C     		ldr	r4, .L37
 515 000c 607D     		ldrb	r0, [r4, #21]	@ zero_extendqisi2
 160:rhea\drivers\BME280/BME280.c ****                        BME280_RegistersLocal.TEMP_LSB  << 4 | 
 516              		.loc 1 160 0
 517 000e 237D     		ldrb	r3, [r4, #20]	@ zero_extendqisi2
 518 0010 1B01     		lsls	r3, r3, #4
 159:rhea\drivers\BME280/BME280.c ****                        BME280_RegistersLocal.TEMP_LSB  << 4 | 
 519              		.loc 1 159 0
 520 0012 43EA1013 		orr	r3, r3, r0, lsr #4
 161:rhea\drivers\BME280/BME280.c ****                        BME280_RegistersLocal.TEMP_MSB  << 12;
 521              		.loc 1 161 0
 522 0016 E07C     		ldrb	r0, [r4, #19]	@ zero_extendqisi2
 523              	.LVL35:
 162:rhea\drivers\BME280/BME280.c **** 
 163:rhea\drivers\BME280/BME280.c ****     // Compensation algorithm from Bosch Sensortech
 164:rhea\drivers\BME280/BME280.c ****     // https://github.com/BoschSensortec/BME280_driver
 165:rhea\drivers\BME280/BME280.c **** 
 166:rhea\drivers\BME280/BME280.c ****     double var1;
 167:rhea\drivers\BME280/BME280.c ****     double var2;
 168:rhea\drivers\BME280/BME280.c ****     double temperature;
 169:rhea\drivers\BME280/BME280.c ****     double temperature_min = -40;
 170:rhea\drivers\BME280/BME280.c ****     double temperature_max = 85;
 171:rhea\drivers\BME280/BME280.c **** 
 172:rhea\drivers\BME280/BME280.c ****     var1 = ((double)regData) / 16384.0 - ((double)BME280_RegistersLocal.dig_T1) / 1024.0;
 524              		.loc 1 172 0
 525 0018 43EA0030 		orr	r0, r3, r0, lsl #12
 526              	.LVL36:
 527 001c FFF7FEFF 		bl	__aeabi_ui2d
 528              	.LVL37:
 529 0020 8046     		mov	r8, r0
 530 0022 8946     		mov	r9, r1
 531 0024 0022     		movs	r2, #0
 532 0026 3A4B     		ldr	r3, .L37+4
 533 0028 FFF7FEFF 		bl	__aeabi_dmul
 534              	.LVL38:
 535 002c 0646     		mov	r6, r0
 536 002e 0F46     		mov	r7, r1
 537 0030 A08B     		ldrh	r0, [r4, #28]
 538 0032 FFF7FEFF 		bl	__aeabi_ui2d
ARM GAS  C:\Users\GYULAI~1\AppData\Local\Temp\cclBQTHO.s 			page 14


 539              	.LVL39:
 540 0036 8246     		mov	r10, r0
 541 0038 8B46     		mov	fp, r1
 542 003a 0022     		movs	r2, #0
 543 003c 354B     		ldr	r3, .L37+8
 544 003e FFF7FEFF 		bl	__aeabi_dmul
 545              	.LVL40:
 546 0042 0246     		mov	r2, r0
 547 0044 0B46     		mov	r3, r1
 548 0046 3046     		mov	r0, r6
 549 0048 3946     		mov	r1, r7
 550 004a FFF7FEFF 		bl	__aeabi_dsub
 551              	.LVL41:
 552 004e 0646     		mov	r6, r0
 553 0050 0F46     		mov	r7, r1
 554              	.LVL42:
 173:rhea\drivers\BME280/BME280.c ****     var1 = var1 * ((double)BME280_RegistersLocal.dig_T2);
 555              		.loc 1 173 0
 556 0052 B4F91E00 		ldrsh	r0, [r4, #30]
 557 0056 FFF7FEFF 		bl	__aeabi_i2d
 558              	.LVL43:
 559 005a 0246     		mov	r2, r0
 560 005c 0B46     		mov	r3, r1
 561 005e 3046     		mov	r0, r6
 562 0060 3946     		mov	r1, r7
 563 0062 FFF7FEFF 		bl	__aeabi_dmul
 564              	.LVL44:
 565 0066 0646     		mov	r6, r0
 566              	.LVL45:
 567 0068 0F46     		mov	r7, r1
 568              	.LVL46:
 174:rhea\drivers\BME280/BME280.c ****     var2 = (((double)regData) / 131072.0 - ((double)BME280_RegistersLocal.dig_T1) / 8192.0);
 569              		.loc 1 174 0
 570 006a 0022     		movs	r2, #0
 571 006c 2A4B     		ldr	r3, .L37+12
 572 006e 4046     		mov	r0, r8
 573 0070 4946     		mov	r1, r9
 574 0072 FFF7FEFF 		bl	__aeabi_dmul
 575              	.LVL47:
 576 0076 8046     		mov	r8, r0
 577 0078 8946     		mov	r9, r1
 578 007a 0022     		movs	r2, #0
 579 007c 274B     		ldr	r3, .L37+16
 580 007e 5046     		mov	r0, r10
 581 0080 5946     		mov	r1, fp
 582 0082 FFF7FEFF 		bl	__aeabi_dmul
 583              	.LVL48:
 584 0086 0246     		mov	r2, r0
 585 0088 0B46     		mov	r3, r1
 586 008a 4046     		mov	r0, r8
 587 008c 4946     		mov	r1, r9
 588 008e FFF7FEFF 		bl	__aeabi_dsub
 589              	.LVL49:
 175:rhea\drivers\BME280/BME280.c ****     var2 = (var2 * var2) * ((double)BME280_RegistersLocal.dig_T3);
 590              		.loc 1 175 0
 591 0092 0246     		mov	r2, r0
 592 0094 0B46     		mov	r3, r1
ARM GAS  C:\Users\GYULAI~1\AppData\Local\Temp\cclBQTHO.s 			page 15


 593 0096 FFF7FEFF 		bl	__aeabi_dmul
 594              	.LVL50:
 595 009a 8046     		mov	r8, r0
 596 009c 8946     		mov	r9, r1
 597 009e B4F92000 		ldrsh	r0, [r4, #32]
 598 00a2 FFF7FEFF 		bl	__aeabi_i2d
 599              	.LVL51:
 600 00a6 0246     		mov	r2, r0
 601 00a8 0B46     		mov	r3, r1
 602 00aa 4046     		mov	r0, r8
 603 00ac 4946     		mov	r1, r9
 604 00ae FFF7FEFF 		bl	__aeabi_dmul
 605              	.LVL52:
 176:rhea\drivers\BME280/BME280.c ****     BME280_RegistersLocal.t_fine = (int32_t)(var1 + var2);
 606              		.loc 1 176 0
 607 00b2 0246     		mov	r2, r0
 608 00b4 0B46     		mov	r3, r1
 609 00b6 3046     		mov	r0, r6
 610              	.LVL53:
 611 00b8 3946     		mov	r1, r7
 612 00ba FFF7FEFF 		bl	__aeabi_dadd
 613              	.LVL54:
 614 00be 0646     		mov	r6, r0
 615              	.LVL55:
 616 00c0 0F46     		mov	r7, r1
 617 00c2 FFF7FEFF 		bl	__aeabi_d2iz
 618              	.LVL56:
 619 00c6 C4F83D00 		str	r0, [r4, #61]	@ unaligned
 177:rhea\drivers\BME280/BME280.c ****     temperature = (var1 + var2) / 5120.0;
 620              		.loc 1 177 0
 621 00ca 0022     		movs	r2, #0
 622 00cc 144B     		ldr	r3, .L37+20
 623 00ce 3046     		mov	r0, r6
 624 00d0 3946     		mov	r1, r7
 625 00d2 FFF7FEFF 		bl	__aeabi_ddiv
 626              	.LVL57:
 627 00d6 0446     		mov	r4, r0
 628 00d8 0D46     		mov	r5, r1
 629              	.LVL58:
 178:rhea\drivers\BME280/BME280.c **** 
 179:rhea\drivers\BME280/BME280.c ****     if      (temperature < temperature_min) temperature = temperature_min;
 630              		.loc 1 179 0
 631 00da 0022     		movs	r2, #0
 632 00dc 114B     		ldr	r3, .L37+24
 633 00de FFF7FEFF 		bl	__aeabi_dcmplt
 634              	.LVL59:
 635 00e2 38B9     		cbnz	r0, .L34
 180:rhea\drivers\BME280/BME280.c ****     else if (temperature > temperature_max) temperature = temperature_max;
 636              		.loc 1 180 0
 637 00e4 0022     		movs	r2, #0
 638 00e6 104B     		ldr	r3, .L37+28
 639 00e8 2046     		mov	r0, r4
 640 00ea 2946     		mov	r1, r5
 641 00ec FFF7FEFF 		bl	__aeabi_dcmpgt
 642              	.LVL60:
 643 00f0 18B9     		cbnz	r0, .L35
 644 00f2 04E0     		b	.L33
ARM GAS  C:\Users\GYULAI~1\AppData\Local\Temp\cclBQTHO.s 			page 16


 645              	.L34:
 179:rhea\drivers\BME280/BME280.c ****     else if (temperature > temperature_max) temperature = temperature_max;
 646              		.loc 1 179 0
 647 00f4 0024     		movs	r4, #0
 648              	.LVL61:
 649 00f6 0B4D     		ldr	r5, .L37+24
 650 00f8 01E0     		b	.L33
 651              	.LVL62:
 652              	.L35:
 653              		.loc 1 180 0
 654 00fa 0024     		movs	r4, #0
 655              	.LVL63:
 656 00fc 0A4D     		ldr	r5, .L37+28
 657              	.L33:
 658              	.LVL64:
 181:rhea\drivers\BME280/BME280.c **** 
 182:rhea\drivers\BME280/BME280.c ****     return temperature;
 659              		.loc 1 182 0
 660 00fe 2046     		mov	r0, r4
 661 0100 2946     		mov	r1, r5
 662 0102 FFF7FEFF 		bl	__aeabi_d2iz
 663              	.LVL65:
 183:rhea\drivers\BME280/BME280.c **** }
 664              		.loc 1 183 0
 665 0106 40B2     		sxtb	r0, r0
 666 0108 BDE8F88F 		pop	{r3, r4, r5, r6, r7, r8, r9, r10, fp, pc}
 667              	.LVL66:
 668              	.L38:
 669              		.align	2
 670              	.L37:
 671 010c 00000000 		.word	.LANCHOR0
 672 0110 0000103F 		.word	1058013184
 673 0114 0000503F 		.word	1062207488
 674 0118 0000E03E 		.word	1054867456
 675 011c 0000203F 		.word	1059061760
 676 0120 0000B440 		.word	1085538304
 677 0124 000044C0 		.word	-1069285376
 678 0128 00405540 		.word	1079328768
 679              		.cfi_endproc
 680              	.LFE7:
 681              		.size	BME280_GetTemperatureCelsius, .-BME280_GetTemperatureCelsius
 682              		.global	__aeabi_i2f
 683              		.global	__aeabi_fmul
 684              		.global	__aeabi_fadd
 685              		.global	__aeabi_f2iz
 686              		.section	.text.BME280_GetTemperatureFahrenheit,"ax",%progbits
 687              		.align	2
 688              		.global	BME280_GetTemperatureFahrenheit
 689              		.thumb
 690              		.thumb_func
 691              		.type	BME280_GetTemperatureFahrenheit, %function
 692              	BME280_GetTemperatureFahrenheit:
 693              	.LFB8:
 184:rhea\drivers\BME280/BME280.c **** 
 185:rhea\drivers\BME280/BME280.c **** int8_t BME280_GetTemperatureFahrenheit(uint8_t readNow) {
 694              		.loc 1 185 0
 695              		.cfi_startproc
ARM GAS  C:\Users\GYULAI~1\AppData\Local\Temp\cclBQTHO.s 			page 17


 696              		@ args = 0, pretend = 0, frame = 0
 697              		@ frame_needed = 0, uses_anonymous_args = 0
 698              	.LVL67:
 699 0000 08B5     		push	{r3, lr}
 700              		.cfi_def_cfa_offset 8
 701              		.cfi_offset 3, -8
 702              		.cfi_offset 14, -4
 186:rhea\drivers\BME280/BME280.c **** 
 187:rhea\drivers\BME280/BME280.c ****     // Converting results in degrees Celsius to degrees Fahrenheit
 188:rhea\drivers\BME280/BME280.c ****     return 1.8f * BME280_GetTemperatureCelsius(readNow) + 32;
 703              		.loc 1 188 0
 704 0002 FFF7FEFF 		bl	BME280_GetTemperatureCelsius
 705              	.LVL68:
 706 0006 FFF7FEFF 		bl	__aeabi_i2f
 707              	.LVL69:
 708 000a 0549     		ldr	r1, .L41
 709 000c FFF7FEFF 		bl	__aeabi_fmul
 710              	.LVL70:
 711 0010 4FF08441 		mov	r1, #1107296256
 712 0014 FFF7FEFF 		bl	__aeabi_fadd
 713              	.LVL71:
 714 0018 FFF7FEFF 		bl	__aeabi_f2iz
 715              	.LVL72:
 189:rhea\drivers\BME280/BME280.c **** }
 716              		.loc 1 189 0
 717 001c 40B2     		sxtb	r0, r0
 718 001e 08BD     		pop	{r3, pc}
 719              	.L42:
 720              		.align	2
 721              	.L41:
 722 0020 6666E63F 		.word	1072064102
 723              		.cfi_endproc
 724              	.LFE8:
 725              		.size	BME280_GetTemperatureFahrenheit, .-BME280_GetTemperatureFahrenheit
 726              		.global	__aeabi_d2uiz
 727              		.section	.text.BME280_GetPressure,"ax",%progbits
 728              		.align	2
 729              		.global	BME280_GetPressure
 730              		.thumb
 731              		.thumb_func
 732              		.type	BME280_GetPressure, %function
 733              	BME280_GetPressure:
 734              	.LFB9:
 190:rhea\drivers\BME280/BME280.c **** 
 191:rhea\drivers\BME280/BME280.c **** uint32_t BME280_GetPressure(uint8_t readNow) {
 735              		.loc 1 191 0
 736              		.cfi_startproc
 737              		@ args = 0, pretend = 0, frame = 0
 738              		@ frame_needed = 0, uses_anonymous_args = 0
 739              	.LVL73:
 740 0000 2DE9F84F 		push	{r3, r4, r5, r6, r7, r8, r9, r10, fp, lr}
 741              		.cfi_def_cfa_offset 40
 742              		.cfi_offset 3, -40
 743              		.cfi_offset 4, -36
 744              		.cfi_offset 5, -32
 745              		.cfi_offset 6, -28
 746              		.cfi_offset 7, -24
ARM GAS  C:\Users\GYULAI~1\AppData\Local\Temp\cclBQTHO.s 			page 18


 747              		.cfi_offset 8, -20
 748              		.cfi_offset 9, -16
 749              		.cfi_offset 10, -12
 750              		.cfi_offset 11, -8
 751              		.cfi_offset 14, -4
 192:rhea\drivers\BME280/BME280.c ****     
 193:rhea\drivers\BME280/BME280.c ****     // Loading measurements registers from the device
 194:rhea\drivers\BME280/BME280.c ****     if(readNow) BME280_ReadRegisters();
 752              		.loc 1 194 0
 753 0004 08B1     		cbz	r0, .L44
 754              		.loc 1 194 0 is_stmt 0 discriminator 1
 755 0006 FFF7FEFF 		bl	BME280_ReadRegisters
 756              	.LVL74:
 757              	.L44:
 195:rhea\drivers\BME280/BME280.c **** 
 196:rhea\drivers\BME280/BME280.c ****     // Preparing measurement register data
 197:rhea\drivers\BME280/BME280.c ****     uint32_t regData = BME280_RegistersLocal.PRESS_XLSB >> 4 | 
 758              		.loc 1 197 0 is_stmt 1
 759 000a 954C     		ldr	r4, .L49+24
 760 000c A37C     		ldrb	r3, [r4, #18]	@ zero_extendqisi2
 198:rhea\drivers\BME280/BME280.c ****                        BME280_RegistersLocal.PRESS_LSB  << 4 | 
 761              		.loc 1 198 0
 762 000e 657C     		ldrb	r5, [r4, #17]	@ zero_extendqisi2
 763 0010 2D01     		lsls	r5, r5, #4
 197:rhea\drivers\BME280/BME280.c ****                        BME280_RegistersLocal.PRESS_LSB  << 4 | 
 764              		.loc 1 197 0
 765 0012 45EA1313 		orr	r3, r5, r3, lsr #4
 199:rhea\drivers\BME280/BME280.c ****                        BME280_RegistersLocal.PRESS_MSB  << 12;
 766              		.loc 1 199 0
 767 0016 257C     		ldrb	r5, [r4, #16]	@ zero_extendqisi2
 198:rhea\drivers\BME280/BME280.c ****                        BME280_RegistersLocal.PRESS_LSB  << 4 | 
 768              		.loc 1 198 0
 769 0018 43EA0535 		orr	r5, r3, r5, lsl #12
 770              	.LVL75:
 200:rhea\drivers\BME280/BME280.c **** 
 201:rhea\drivers\BME280/BME280.c ****     // Compensation algorithm from Bosch Sensortech
 202:rhea\drivers\BME280/BME280.c ****     // https://github.com/BoschSensortec/BME280_driver
 203:rhea\drivers\BME280/BME280.c **** 
 204:rhea\drivers\BME280/BME280.c ****     double var1;
 205:rhea\drivers\BME280/BME280.c ****     double var2;
 206:rhea\drivers\BME280/BME280.c ****     double var3;
 207:rhea\drivers\BME280/BME280.c ****     double pressure;
 208:rhea\drivers\BME280/BME280.c ****     double pressure_min = 30000.0;
 209:rhea\drivers\BME280/BME280.c ****     double pressure_max = 110000.0;
 210:rhea\drivers\BME280/BME280.c **** 
 211:rhea\drivers\BME280/BME280.c ****     var1 = ((double)BME280_RegistersLocal.t_fine / 2.0) - 64000.0;
 771              		.loc 1 211 0
 772 001c D4F83D00 		ldr	r0, [r4, #61]	@ unaligned
 773 0020 FFF7FEFF 		bl	__aeabi_i2d
 774              	.LVL76:
 775 0024 0022     		movs	r2, #0
 776 0026 8F4B     		ldr	r3, .L49+28
 777 0028 FFF7FEFF 		bl	__aeabi_dmul
 778              	.LVL77:
 779 002c 0022     		movs	r2, #0
 780 002e 8E4B     		ldr	r3, .L49+32
 781 0030 FFF7FEFF 		bl	__aeabi_dsub
ARM GAS  C:\Users\GYULAI~1\AppData\Local\Temp\cclBQTHO.s 			page 19


 782              	.LVL78:
 783 0034 0646     		mov	r6, r0
 784 0036 0F46     		mov	r7, r1
 785              	.LVL79:
 212:rhea\drivers\BME280/BME280.c ****     var2 = var1 * var1 * ((double)BME280_RegistersLocal.dig_P6) / 32768.0;
 786              		.loc 1 212 0
 787 0038 0246     		mov	r2, r0
 788 003a 0B46     		mov	r3, r1
 789 003c FFF7FEFF 		bl	__aeabi_dmul
 790              	.LVL80:
 791 0040 8046     		mov	r8, r0
 792 0042 8946     		mov	r9, r1
 793 0044 B4F92C00 		ldrsh	r0, [r4, #44]
 794 0048 FFF7FEFF 		bl	__aeabi_i2d
 795              	.LVL81:
 796 004c 0246     		mov	r2, r0
 797 004e 0B46     		mov	r3, r1
 798 0050 4046     		mov	r0, r8
 799 0052 4946     		mov	r1, r9
 800 0054 FFF7FEFF 		bl	__aeabi_dmul
 801              	.LVL82:
 802 0058 0022     		movs	r2, #0
 803 005a 4FF07C53 		mov	r3, #1056964608
 804 005e FFF7FEFF 		bl	__aeabi_dmul
 805              	.LVL83:
 806 0062 8046     		mov	r8, r0
 807 0064 8946     		mov	r9, r1
 808              	.LVL84:
 213:rhea\drivers\BME280/BME280.c ****     var2 = var2 + var1 * ((double)BME280_RegistersLocal.dig_P5) * 2.0;
 809              		.loc 1 213 0
 810 0066 B4F92A00 		ldrsh	r0, [r4, #42]
 811 006a FFF7FEFF 		bl	__aeabi_i2d
 812              	.LVL85:
 813 006e 0246     		mov	r2, r0
 814 0070 0B46     		mov	r3, r1
 815 0072 3046     		mov	r0, r6
 816 0074 3946     		mov	r1, r7
 817 0076 FFF7FEFF 		bl	__aeabi_dmul
 818              	.LVL86:
 819 007a 0246     		mov	r2, r0
 820 007c 0B46     		mov	r3, r1
 821 007e FFF7FEFF 		bl	__aeabi_dadd
 822              	.LVL87:
 823 0082 0246     		mov	r2, r0
 824 0084 0B46     		mov	r3, r1
 825 0086 4046     		mov	r0, r8
 826 0088 4946     		mov	r1, r9
 827 008a FFF7FEFF 		bl	__aeabi_dadd
 828              	.LVL88:
 214:rhea\drivers\BME280/BME280.c ****     var2 = (var2 / 4.0) + (((double)BME280_RegistersLocal.dig_P4) * 65536.0);
 829              		.loc 1 214 0
 830 008e 0022     		movs	r2, #0
 831 0090 764B     		ldr	r3, .L49+36
 832 0092 FFF7FEFF 		bl	__aeabi_dmul
 833              	.LVL89:
 834 0096 8046     		mov	r8, r0
 835 0098 8946     		mov	r9, r1
ARM GAS  C:\Users\GYULAI~1\AppData\Local\Temp\cclBQTHO.s 			page 20


 836 009a B4F92800 		ldrsh	r0, [r4, #40]
 837 009e FFF7FEFF 		bl	__aeabi_i2d
 838              	.LVL90:
 839 00a2 0022     		movs	r2, #0
 840 00a4 724B     		ldr	r3, .L49+40
 841 00a6 FFF7FEFF 		bl	__aeabi_dmul
 842              	.LVL91:
 843 00aa 0246     		mov	r2, r0
 844 00ac 0B46     		mov	r3, r1
 845 00ae 4046     		mov	r0, r8
 846 00b0 4946     		mov	r1, r9
 847 00b2 FFF7FEFF 		bl	__aeabi_dadd
 848              	.LVL92:
 849 00b6 8246     		mov	r10, r0
 850 00b8 8B46     		mov	fp, r1
 851              	.LVL93:
 215:rhea\drivers\BME280/BME280.c ****     var3 = ((double)BME280_RegistersLocal.dig_P3) * var1 * var1 / 524288.0;
 852              		.loc 1 215 0
 853 00ba B4F92600 		ldrsh	r0, [r4, #38]
 854 00be FFF7FEFF 		bl	__aeabi_i2d
 855              	.LVL94:
 856 00c2 0246     		mov	r2, r0
 857 00c4 0B46     		mov	r3, r1
 858 00c6 3046     		mov	r0, r6
 859 00c8 3946     		mov	r1, r7
 860 00ca FFF7FEFF 		bl	__aeabi_dmul
 861              	.LVL95:
 862 00ce 0246     		mov	r2, r0
 863 00d0 0B46     		mov	r3, r1
 864 00d2 3046     		mov	r0, r6
 865 00d4 3946     		mov	r1, r7
 866 00d6 FFF7FEFF 		bl	__aeabi_dmul
 867              	.LVL96:
 868 00da 0022     		movs	r2, #0
 869 00dc 4FF07B53 		mov	r3, #1052770304
 870 00e0 FFF7FEFF 		bl	__aeabi_dmul
 871              	.LVL97:
 872 00e4 8046     		mov	r8, r0
 873 00e6 8946     		mov	r9, r1
 874              	.LVL98:
 216:rhea\drivers\BME280/BME280.c ****     var1 = (var3 + ((double)BME280_RegistersLocal.dig_P2) * var1) / 524288.0;
 875              		.loc 1 216 0
 876 00e8 B4F92400 		ldrsh	r0, [r4, #36]
 877 00ec FFF7FEFF 		bl	__aeabi_i2d
 878              	.LVL99:
 879 00f0 0246     		mov	r2, r0
 880 00f2 0B46     		mov	r3, r1
 881 00f4 3046     		mov	r0, r6
 882 00f6 3946     		mov	r1, r7
 883 00f8 FFF7FEFF 		bl	__aeabi_dmul
 884              	.LVL100:
 885 00fc 0246     		mov	r2, r0
 886 00fe 0B46     		mov	r3, r1
 887 0100 4046     		mov	r0, r8
 888 0102 4946     		mov	r1, r9
 889 0104 FFF7FEFF 		bl	__aeabi_dadd
 890              	.LVL101:
ARM GAS  C:\Users\GYULAI~1\AppData\Local\Temp\cclBQTHO.s 			page 21


 891 0108 0022     		movs	r2, #0
 892 010a 4FF07B53 		mov	r3, #1052770304
 893 010e FFF7FEFF 		bl	__aeabi_dmul
 894              	.LVL102:
 217:rhea\drivers\BME280/BME280.c ****     var1 = (1.0 + var1 / 32768.0) * ((double)BME280_RegistersLocal.dig_P1);
 895              		.loc 1 217 0
 896 0112 0022     		movs	r2, #0
 897 0114 4FF07C53 		mov	r3, #1056964608
 898 0118 FFF7FEFF 		bl	__aeabi_dmul
 899              	.LVL103:
 900 011c 0022     		movs	r2, #0
 901 011e 554B     		ldr	r3, .L49+44
 902 0120 FFF7FEFF 		bl	__aeabi_dadd
 903              	.LVL104:
 904 0124 0646     		mov	r6, r0
 905 0126 0F46     		mov	r7, r1
 906 0128 608C     		ldrh	r0, [r4, #34]
 907 012a FFF7FEFF 		bl	__aeabi_ui2d
 908              	.LVL105:
 909 012e 0246     		mov	r2, r0
 910 0130 0B46     		mov	r3, r1
 911 0132 3046     		mov	r0, r6
 912 0134 3946     		mov	r1, r7
 913 0136 FFF7FEFF 		bl	__aeabi_dmul
 914              	.LVL106:
 915 013a 8046     		mov	r8, r0
 916              	.LVL107:
 917 013c 8946     		mov	r9, r1
 918              	.LVL108:
 218:rhea\drivers\BME280/BME280.c **** 
 219:rhea\drivers\BME280/BME280.c ****     pressure = 1048576.0 - (double) regData;
 919              		.loc 1 219 0
 920 013e 2846     		mov	r0, r5
 921 0140 FFF7FEFF 		bl	__aeabi_ui2d
 922              	.LVL109:
 923 0144 0246     		mov	r2, r0
 924 0146 0B46     		mov	r3, r1
 925 0148 0020     		movs	r0, #0
 926 014a 4B49     		ldr	r1, .L49+48
 927 014c FFF7FEFF 		bl	__aeabi_dsub
 928              	.LVL110:
 929 0150 0646     		mov	r6, r0
 930 0152 0F46     		mov	r7, r1
 931              	.LVL111:
 220:rhea\drivers\BME280/BME280.c ****     pressure = (pressure - (var2 / 4096.0)) * 6250.0 / var1;
 932              		.loc 1 220 0
 933 0154 0022     		movs	r2, #0
 934 0156 494B     		ldr	r3, .L49+52
 935 0158 5046     		mov	r0, r10
 936 015a 5946     		mov	r1, fp
 937 015c FFF7FEFF 		bl	__aeabi_dmul
 938              	.LVL112:
 939 0160 0246     		mov	r2, r0
 940 0162 0B46     		mov	r3, r1
 941 0164 3046     		mov	r0, r6
 942 0166 3946     		mov	r1, r7
 943 0168 FFF7FEFF 		bl	__aeabi_dsub
ARM GAS  C:\Users\GYULAI~1\AppData\Local\Temp\cclBQTHO.s 			page 22


 944              	.LVL113:
 945 016c 36A3     		adr	r3, .L49
 946 016e D3E90023 		ldrd	r2, [r3]
 947 0172 FFF7FEFF 		bl	__aeabi_dmul
 948              	.LVL114:
 949 0176 4246     		mov	r2, r8
 950 0178 4B46     		mov	r3, r9
 951 017a FFF7FEFF 		bl	__aeabi_ddiv
 952              	.LVL115:
 953 017e 0646     		mov	r6, r0
 954              	.LVL116:
 955 0180 0F46     		mov	r7, r1
 956              	.LVL117:
 221:rhea\drivers\BME280/BME280.c ****     var1 = ((double)BME280_RegistersLocal.dig_P9) * pressure * pressure / 2147483648.0;
 957              		.loc 1 221 0
 958 0182 B4F93200 		ldrsh	r0, [r4, #50]
 959 0186 FFF7FEFF 		bl	__aeabi_i2d
 960              	.LVL118:
 961 018a 0246     		mov	r2, r0
 962 018c 0B46     		mov	r3, r1
 963 018e 3046     		mov	r0, r6
 964 0190 3946     		mov	r1, r7
 965 0192 FFF7FEFF 		bl	__aeabi_dmul
 966              	.LVL119:
 967 0196 0246     		mov	r2, r0
 968 0198 0B46     		mov	r3, r1
 969 019a 3046     		mov	r0, r6
 970 019c 3946     		mov	r1, r7
 971 019e FFF7FEFF 		bl	__aeabi_dmul
 972              	.LVL120:
 973 01a2 0022     		movs	r2, #0
 974 01a4 4FF07853 		mov	r3, #1040187392
 975 01a8 FFF7FEFF 		bl	__aeabi_dmul
 976              	.LVL121:
 977 01ac 8046     		mov	r8, r0
 978              	.LVL122:
 979 01ae 8946     		mov	r9, r1
 980              	.LVL123:
 222:rhea\drivers\BME280/BME280.c ****     var2 = pressure * ((double)BME280_RegistersLocal.dig_P8) / 32768.0;
 981              		.loc 1 222 0
 982 01b0 B4F93000 		ldrsh	r0, [r4, #48]
 983 01b4 FFF7FEFF 		bl	__aeabi_i2d
 984              	.LVL124:
 985 01b8 0246     		mov	r2, r0
 986 01ba 0B46     		mov	r3, r1
 987 01bc 3046     		mov	r0, r6
 988 01be 3946     		mov	r1, r7
 989 01c0 FFF7FEFF 		bl	__aeabi_dmul
 990              	.LVL125:
 991 01c4 0022     		movs	r2, #0
 992 01c6 4FF07C53 		mov	r3, #1056964608
 993 01ca FFF7FEFF 		bl	__aeabi_dmul
 994              	.LVL126:
 223:rhea\drivers\BME280/BME280.c ****     pressure = pressure + (var1 + var2 + ((double)BME280_RegistersLocal.dig_P7)) / 16.0;
 995              		.loc 1 223 0
 996 01ce 0246     		mov	r2, r0
 997 01d0 0B46     		mov	r3, r1
ARM GAS  C:\Users\GYULAI~1\AppData\Local\Temp\cclBQTHO.s 			page 23


 998 01d2 4046     		mov	r0, r8
 999              	.LVL127:
 1000 01d4 4946     		mov	r1, r9
 1001 01d6 FFF7FEFF 		bl	__aeabi_dadd
 1002              	.LVL128:
 1003 01da 8046     		mov	r8, r0
 1004              	.LVL129:
 1005 01dc 8946     		mov	r9, r1
 1006 01de B4F92E00 		ldrsh	r0, [r4, #46]
 1007 01e2 FFF7FEFF 		bl	__aeabi_i2d
 1008              	.LVL130:
 1009 01e6 0246     		mov	r2, r0
 1010 01e8 0B46     		mov	r3, r1
 1011 01ea 4046     		mov	r0, r8
 1012 01ec 4946     		mov	r1, r9
 1013 01ee FFF7FEFF 		bl	__aeabi_dadd
 1014              	.LVL131:
 1015 01f2 0022     		movs	r2, #0
 1016 01f4 224B     		ldr	r3, .L49+56
 1017 01f6 FFF7FEFF 		bl	__aeabi_dmul
 1018              	.LVL132:
 1019 01fa 0246     		mov	r2, r0
 1020 01fc 0B46     		mov	r3, r1
 1021 01fe 3046     		mov	r0, r6
 1022 0200 3946     		mov	r1, r7
 1023 0202 FFF7FEFF 		bl	__aeabi_dadd
 1024              	.LVL133:
 1025 0206 0446     		mov	r4, r0
 1026 0208 0D46     		mov	r5, r1
 1027              	.LVL134:
 224:rhea\drivers\BME280/BME280.c **** 
 225:rhea\drivers\BME280/BME280.c ****     if      (pressure < pressure_min) pressure = pressure_min;
 1028              		.loc 1 225 0
 1029 020a 11A3     		adr	r3, .L49+8
 1030 020c D3E90023 		ldrd	r2, [r3]
 1031 0210 FFF7FEFF 		bl	__aeabi_dcmplt
 1032              	.LVL135:
 1033 0214 40B9     		cbnz	r0, .L46
 226:rhea\drivers\BME280/BME280.c ****     else if (pressure > pressure_max) pressure = pressure_max;
 1034              		.loc 1 226 0
 1035 0216 10A3     		adr	r3, .L49+16
 1036 0218 D3E90023 		ldrd	r2, [r3]
 1037 021c 2046     		mov	r0, r4
 1038 021e 2946     		mov	r1, r5
 1039 0220 FFF7FEFF 		bl	__aeabi_dcmpgt
 1040              	.LVL136:
 1041 0224 20B9     		cbnz	r0, .L47
 1042 0226 06E0     		b	.L45
 1043              	.L46:
 225:rhea\drivers\BME280/BME280.c ****     else if (pressure > pressure_max) pressure = pressure_max;
 1044              		.loc 1 225 0
 1045 0228 09A5     		adr	r5, .L49+8
 1046 022a D5E90045 		ldrd	r4, [r5]
 1047              	.LVL137:
 1048 022e 02E0     		b	.L45
 1049              	.LVL138:
 1050              	.L47:
ARM GAS  C:\Users\GYULAI~1\AppData\Local\Temp\cclBQTHO.s 			page 24


 1051              		.loc 1 226 0
 1052 0230 09A5     		adr	r5, .L49+16
 1053 0232 D5E90045 		ldrd	r4, [r5]
 1054              	.LVL139:
 1055              	.L45:
 227:rhea\drivers\BME280/BME280.c **** 
 228:rhea\drivers\BME280/BME280.c ****     return pressure;
 1056              		.loc 1 228 0
 1057 0236 2046     		mov	r0, r4
 1058 0238 2946     		mov	r1, r5
 1059 023a FFF7FEFF 		bl	__aeabi_d2uiz
 1060              	.LVL140:
 229:rhea\drivers\BME280/BME280.c **** }
 1061              		.loc 1 229 0
 1062 023e BDE8F88F 		pop	{r3, r4, r5, r6, r7, r8, r9, r10, fp, pc}
 1063              	.LVL141:
 1064              	.L50:
 1065 0242 00BFAFF3 		.align	3
 1065      0080
 1066              	.L49:
 1067 0248 00000000 		.word	0
 1068 024c 006AB840 		.word	1085827584
 1069 0250 00000000 		.word	0
 1070 0254 004CDD40 		.word	1088244736
 1071 0258 00000000 		.word	0
 1072 025c 00DBFA40 		.word	1090181888
 1073 0260 00000000 		.word	.LANCHOR0
 1074 0264 0000E03F 		.word	1071644672
 1075 0268 0040EF40 		.word	1089421312
 1076 026c 0000D03F 		.word	1070596096
 1077 0270 0000F040 		.word	1089470464
 1078 0274 0000F03F 		.word	1072693248
 1079 0278 00003041 		.word	1093664768
 1080 027c 0000303F 		.word	1060110336
 1081 0280 0000B03F 		.word	1068498944
 1082              		.cfi_endproc
 1083              	.LFE9:
 1084              		.size	BME280_GetPressure, .-BME280_GetPressure
 1085              		.section	.text.BME280_GetHumidity,"ax",%progbits
 1086              		.align	2
 1087              		.global	BME280_GetHumidity
 1088              		.thumb
 1089              		.thumb_func
 1090              		.type	BME280_GetHumidity, %function
 1091              	BME280_GetHumidity:
 1092              	.LFB10:
 230:rhea\drivers\BME280/BME280.c **** 
 231:rhea\drivers\BME280/BME280.c **** uint8_t BME280_GetHumidity(uint8_t readNow) {
 1093              		.loc 1 231 0
 1094              		.cfi_startproc
 1095              		@ args = 0, pretend = 0, frame = 16
 1096              		@ frame_needed = 0, uses_anonymous_args = 0
 1097              	.LVL142:
 1098 0000 2DE9F047 		push	{r4, r5, r6, r7, r8, r9, r10, lr}
 1099              		.cfi_def_cfa_offset 32
 1100              		.cfi_offset 4, -32
 1101              		.cfi_offset 5, -28
ARM GAS  C:\Users\GYULAI~1\AppData\Local\Temp\cclBQTHO.s 			page 25


 1102              		.cfi_offset 6, -24
 1103              		.cfi_offset 7, -20
 1104              		.cfi_offset 8, -16
 1105              		.cfi_offset 9, -12
 1106              		.cfi_offset 10, -8
 1107              		.cfi_offset 14, -4
 1108 0004 84B0     		sub	sp, sp, #16
 1109              		.cfi_def_cfa_offset 48
 232:rhea\drivers\BME280/BME280.c ****     
 233:rhea\drivers\BME280/BME280.c ****     // Loading measurements registers from the device
 234:rhea\drivers\BME280/BME280.c ****     if(readNow) BME280_ReadRegisters();
 1110              		.loc 1 234 0
 1111 0006 08B1     		cbz	r0, .L52
 1112              		.loc 1 234 0 is_stmt 0 discriminator 1
 1113 0008 FFF7FEFF 		bl	BME280_ReadRegisters
 1114              	.LVL143:
 1115              	.L52:
 235:rhea\drivers\BME280/BME280.c **** 
 236:rhea\drivers\BME280/BME280.c ****     // Preparing measurement register data
 237:rhea\drivers\BME280/BME280.c ****     uint32_t regData = BME280_RegistersLocal.HUM_LSB | 
 1116              		.loc 1 237 0 is_stmt 1
 1117 000c DFF898A1 		ldr	r10, .L57+28
 1118 0010 9AF81730 		ldrb	r3, [r10, #23]	@ zero_extendqisi2
 238:rhea\drivers\BME280/BME280.c ****                        BME280_RegistersLocal.HUM_MSB << 8;
 1119              		.loc 1 238 0
 1120 0014 9AF81680 		ldrb	r8, [r10, #22]	@ zero_extendqisi2
 237:rhea\drivers\BME280/BME280.c ****                        BME280_RegistersLocal.HUM_MSB << 8;
 1121              		.loc 1 237 0
 1122 0018 43EA0828 		orr	r8, r3, r8, lsl #8
 1123              	.LVL144:
 239:rhea\drivers\BME280/BME280.c **** 
 240:rhea\drivers\BME280/BME280.c ****     // Compensation algorithm from Bosch Sensortech
 241:rhea\drivers\BME280/BME280.c ****     // https://github.com/BoschSensortec/BME280_driver
 242:rhea\drivers\BME280/BME280.c **** 
 243:rhea\drivers\BME280/BME280.c ****     double humidity;
 244:rhea\drivers\BME280/BME280.c ****     double humidity_min = 0.0;
 245:rhea\drivers\BME280/BME280.c ****     double humidity_max = 100.0;
 246:rhea\drivers\BME280/BME280.c ****     double var1;
 247:rhea\drivers\BME280/BME280.c ****     double var2;
 248:rhea\drivers\BME280/BME280.c ****     double var3;
 249:rhea\drivers\BME280/BME280.c ****     double var4;
 250:rhea\drivers\BME280/BME280.c ****     double var5;
 251:rhea\drivers\BME280/BME280.c ****     double var6;
 252:rhea\drivers\BME280/BME280.c **** 
 253:rhea\drivers\BME280/BME280.c ****     var1 = ((double)BME280_RegistersLocal.t_fine) - 76800.0;
 1124              		.loc 1 253 0
 1125 001c DAF83D00 		ldr	r0, [r10, #61]	@ unaligned
 1126 0020 FFF7FEFF 		bl	__aeabi_i2d
 1127              	.LVL145:
 1128 0024 0022     		movs	r2, #0
 1129 0026 594B     		ldr	r3, .L57
 1130 0028 FFF7FEFF 		bl	__aeabi_dsub
 1131              	.LVL146:
 1132 002c 0646     		mov	r6, r0
 1133 002e 0F46     		mov	r7, r1
 1134              	.LVL147:
 254:rhea\drivers\BME280/BME280.c ****     var2 = (((double)BME280_RegistersLocal.dig_H4) * 64.0 + (((double)BME280_RegistersLocal.dig_H5)
ARM GAS  C:\Users\GYULAI~1\AppData\Local\Temp\cclBQTHO.s 			page 26


 1135              		.loc 1 254 0
 1136 0030 BAF93800 		ldrsh	r0, [r10, #56]
 1137 0034 FFF7FEFF 		bl	__aeabi_i2d
 1138              	.LVL148:
 1139 0038 0022     		movs	r2, #0
 1140 003a 554B     		ldr	r3, .L57+4
 1141 003c FFF7FEFF 		bl	__aeabi_dmul
 1142              	.LVL149:
 1143 0040 0446     		mov	r4, r0
 1144 0042 0D46     		mov	r5, r1
 1145 0044 BAF93A00 		ldrsh	r0, [r10, #58]
 1146 0048 FFF7FEFF 		bl	__aeabi_i2d
 1147              	.LVL150:
 1148 004c 0022     		movs	r2, #0
 1149 004e 514B     		ldr	r3, .L57+8
 1150 0050 FFF7FEFF 		bl	__aeabi_dmul
 1151              	.LVL151:
 1152 0054 0246     		mov	r2, r0
 1153 0056 0B46     		mov	r3, r1
 1154 0058 3046     		mov	r0, r6
 1155 005a 3946     		mov	r1, r7
 1156 005c FFF7FEFF 		bl	__aeabi_dmul
 1157              	.LVL152:
 1158 0060 0246     		mov	r2, r0
 1159 0062 0B46     		mov	r3, r1
 1160 0064 2046     		mov	r0, r4
 1161 0066 2946     		mov	r1, r5
 1162 0068 FFF7FEFF 		bl	__aeabi_dadd
 1163              	.LVL153:
 1164 006c 0446     		mov	r4, r0
 1165 006e 0D46     		mov	r5, r1
 1166              	.LVL154:
 255:rhea\drivers\BME280/BME280.c ****     var3 = regData - var2;
 1167              		.loc 1 255 0
 1168 0070 4046     		mov	r0, r8
 1169 0072 FFF7FEFF 		bl	__aeabi_ui2d
 1170              	.LVL155:
 1171 0076 2246     		mov	r2, r4
 1172 0078 2B46     		mov	r3, r5
 1173 007a FFF7FEFF 		bl	__aeabi_dsub
 1174              	.LVL156:
 1175 007e CDE90001 		strd	r0, [sp]
 1176              	.LVL157:
 256:rhea\drivers\BME280/BME280.c ****     var4 = ((double)BME280_RegistersLocal.dig_H2) / 65536.0;
 1177              		.loc 1 256 0
 1178 0082 BAF93500 		ldrsh	r0, [r10, #53]	@ unaligned
 1179              	.LVL158:
 1180 0086 FFF7FEFF 		bl	__aeabi_i2d
 1181              	.LVL159:
 1182 008a 0022     		movs	r2, #0
 1183 008c 424B     		ldr	r3, .L57+12
 1184 008e FFF7FEFF 		bl	__aeabi_dmul
 1185              	.LVL160:
 1186 0092 CDE90201 		strd	r0, [sp, #8]
 1187              	.LVL161:
 257:rhea\drivers\BME280/BME280.c ****     var5 = (1.0 + (((double)BME280_RegistersLocal.dig_H3) / 67108864.0) * var1);
 1188              		.loc 1 257 0
ARM GAS  C:\Users\GYULAI~1\AppData\Local\Temp\cclBQTHO.s 			page 27


 1189 0096 9AF83700 		ldrb	r0, [r10, #55]	@ zero_extendqisi2
 1190              	.LVL162:
 1191 009a FFF7FEFF 		bl	__aeabi_ui2d
 1192              	.LVL163:
 1193 009e 0022     		movs	r2, #0
 1194 00a0 3E4B     		ldr	r3, .L57+16
 1195 00a2 FFF7FEFF 		bl	__aeabi_dmul
 1196              	.LVL164:
 1197 00a6 0246     		mov	r2, r0
 1198 00a8 0B46     		mov	r3, r1
 1199 00aa 3046     		mov	r0, r6
 1200 00ac 3946     		mov	r1, r7
 1201 00ae FFF7FEFF 		bl	__aeabi_dmul
 1202              	.LVL165:
 1203 00b2 0022     		movs	r2, #0
 1204 00b4 3A4B     		ldr	r3, .L57+20
 1205 00b6 FFF7FEFF 		bl	__aeabi_dadd
 1206              	.LVL166:
 1207 00ba 0446     		mov	r4, r0
 1208              	.LVL167:
 1209 00bc 0D46     		mov	r5, r1
 1210              	.LVL168:
 258:rhea\drivers\BME280/BME280.c ****     var6 = 1.0 + (((double)BME280_RegistersLocal.dig_H6) / 67108864.0) * var1 * var5;
 1211              		.loc 1 258 0
 1212 00be 9AF93C00 		ldrsb	r0, [r10, #60]
 1213 00c2 FFF7FEFF 		bl	__aeabi_i2d
 1214              	.LVL169:
 1215 00c6 0022     		movs	r2, #0
 1216 00c8 344B     		ldr	r3, .L57+16
 1217 00ca FFF7FEFF 		bl	__aeabi_dmul
 1218              	.LVL170:
 1219 00ce 0246     		mov	r2, r0
 1220 00d0 0B46     		mov	r3, r1
 1221 00d2 3046     		mov	r0, r6
 1222 00d4 3946     		mov	r1, r7
 1223 00d6 FFF7FEFF 		bl	__aeabi_dmul
 1224              	.LVL171:
 1225 00da 0246     		mov	r2, r0
 1226 00dc 0B46     		mov	r3, r1
 1227 00de 2046     		mov	r0, r4
 1228 00e0 2946     		mov	r1, r5
 1229 00e2 FFF7FEFF 		bl	__aeabi_dmul
 1230              	.LVL172:
 1231 00e6 0022     		movs	r2, #0
 1232 00e8 2D4B     		ldr	r3, .L57+20
 1233 00ea FFF7FEFF 		bl	__aeabi_dadd
 1234              	.LVL173:
 1235 00ee 8046     		mov	r8, r0
 1236              	.LVL174:
 1237 00f0 8946     		mov	r9, r1
 1238              	.LVL175:
 259:rhea\drivers\BME280/BME280.c ****     var6 = var3 * var4 * (var5 * var6);
 1239              		.loc 1 259 0
 1240 00f2 DDE90223 		ldrd	r2, [sp, #8]
 1241 00f6 DDE90001 		ldrd	r0, [sp]
 1242 00fa FFF7FEFF 		bl	__aeabi_dmul
 1243              	.LVL176:
ARM GAS  C:\Users\GYULAI~1\AppData\Local\Temp\cclBQTHO.s 			page 28


 1244 00fe 0646     		mov	r6, r0
 1245              	.LVL177:
 1246 0100 0F46     		mov	r7, r1
 1247 0102 4246     		mov	r2, r8
 1248 0104 4B46     		mov	r3, r9
 1249 0106 2046     		mov	r0, r4
 1250 0108 2946     		mov	r1, r5
 1251 010a FFF7FEFF 		bl	__aeabi_dmul
 1252              	.LVL178:
 1253 010e 0246     		mov	r2, r0
 1254 0110 0B46     		mov	r3, r1
 1255 0112 3046     		mov	r0, r6
 1256 0114 3946     		mov	r1, r7
 1257 0116 FFF7FEFF 		bl	__aeabi_dmul
 1258              	.LVL179:
 1259 011a 0446     		mov	r4, r0
 1260              	.LVL180:
 1261 011c 0D46     		mov	r5, r1
 1262              	.LVL181:
 260:rhea\drivers\BME280/BME280.c ****     humidity = var6 * (1.0 - ((double)BME280_RegistersLocal.dig_H1) * var6 / 524288.0);
 1263              		.loc 1 260 0
 1264 011e 9AF83400 		ldrb	r0, [r10, #52]	@ zero_extendqisi2
 1265 0122 FFF7FEFF 		bl	__aeabi_ui2d
 1266              	.LVL182:
 1267 0126 0246     		mov	r2, r0
 1268 0128 0B46     		mov	r3, r1
 1269 012a 2046     		mov	r0, r4
 1270 012c 2946     		mov	r1, r5
 1271 012e FFF7FEFF 		bl	__aeabi_dmul
 1272              	.LVL183:
 1273 0132 0022     		movs	r2, #0
 1274 0134 4FF07B53 		mov	r3, #1052770304
 1275 0138 FFF7FEFF 		bl	__aeabi_dmul
 1276              	.LVL184:
 1277 013c 0246     		mov	r2, r0
 1278 013e 0B46     		mov	r3, r1
 1279 0140 0020     		movs	r0, #0
 1280 0142 1749     		ldr	r1, .L57+20
 1281 0144 FFF7FEFF 		bl	__aeabi_dsub
 1282              	.LVL185:
 1283 0148 0246     		mov	r2, r0
 1284 014a 0B46     		mov	r3, r1
 1285 014c 2046     		mov	r0, r4
 1286 014e 2946     		mov	r1, r5
 1287 0150 FFF7FEFF 		bl	__aeabi_dmul
 1288              	.LVL186:
 1289 0154 0446     		mov	r4, r0
 1290              	.LVL187:
 1291 0156 0D46     		mov	r5, r1
 1292              	.LVL188:
 261:rhea\drivers\BME280/BME280.c **** 
 262:rhea\drivers\BME280/BME280.c ****     if      (humidity > humidity_max) humidity = humidity_max;
 1293              		.loc 1 262 0
 1294 0158 0022     		movs	r2, #0
 1295 015a 124B     		ldr	r3, .L57+24
 1296 015c FFF7FEFF 		bl	__aeabi_dcmpgt
 1297              	.LVL189:
ARM GAS  C:\Users\GYULAI~1\AppData\Local\Temp\cclBQTHO.s 			page 29


 1298 0160 38B9     		cbnz	r0, .L54
 263:rhea\drivers\BME280/BME280.c ****     else if (humidity < humidity_min) humidity = humidity_min;
 1299              		.loc 1 263 0
 1300 0162 0022     		movs	r2, #0
 1301 0164 0023     		movs	r3, #0
 1302 0166 2046     		mov	r0, r4
 1303 0168 2946     		mov	r1, r5
 1304 016a FFF7FEFF 		bl	__aeabi_dcmplt
 1305              	.LVL190:
 1306 016e 28B1     		cbz	r0, .L53
 1307 0170 02E0     		b	.L55
 1308              	.L54:
 262:rhea\drivers\BME280/BME280.c ****     else if (humidity < humidity_min) humidity = humidity_min;
 1309              		.loc 1 262 0
 1310 0172 0024     		movs	r4, #0
 1311              	.LVL191:
 1312 0174 0B4D     		ldr	r5, .L57+24
 1313 0176 01E0     		b	.L53
 1314              	.LVL192:
 1315              	.L55:
 1316              		.loc 1 263 0
 1317 0178 0024     		movs	r4, #0
 1318              	.LVL193:
 1319 017a 0025     		movs	r5, #0
 1320              	.L53:
 1321              	.LVL194:
 264:rhea\drivers\BME280/BME280.c **** 
 265:rhea\drivers\BME280/BME280.c ****     return humidity;
 1322              		.loc 1 265 0
 1323 017c 2046     		mov	r0, r4
 1324 017e 2946     		mov	r1, r5
 1325 0180 FFF7FEFF 		bl	__aeabi_d2uiz
 1326              	.LVL195:
 266:rhea\drivers\BME280/BME280.c **** }
 1327              		.loc 1 266 0
 1328 0184 C0B2     		uxtb	r0, r0
 1329 0186 04B0     		add	sp, sp, #16
 1330              		.cfi_def_cfa_offset 32
 1331              	.LVL196:
 1332              		@ sp needed
 1333 0188 BDE8F087 		pop	{r4, r5, r6, r7, r8, r9, r10, pc}
 1334              	.LVL197:
 1335              	.L58:
 1336              		.align	2
 1337              	.L57:
 1338 018c 00C0F240 		.word	1089650688
 1339 0190 00005040 		.word	1078984704
 1340 0194 0000103F 		.word	1058013184
 1341 0198 0000F03E 		.word	1055916032
 1342 019c 0000503E 		.word	1045430272
 1343 01a0 0000F03F 		.word	1072693248
 1344 01a4 00005940 		.word	1079574528
 1345 01a8 00000000 		.word	.LANCHOR0
 1346              		.cfi_endproc
 1347              	.LFE10:
 1348              		.size	BME280_GetHumidity, .-BME280_GetHumidity
 1349              		.section	.text.BME280_GetHumidityMode,"ax",%progbits
ARM GAS  C:\Users\GYULAI~1\AppData\Local\Temp\cclBQTHO.s 			page 30


 1350              		.align	2
 1351              		.global	BME280_GetHumidityMode
 1352              		.thumb
 1353              		.thumb_func
 1354              		.type	BME280_GetHumidityMode, %function
 1355              	BME280_GetHumidityMode:
 1356              	.LFB12:
 267:rhea\drivers\BME280/BME280.c **** 
 268:rhea\drivers\BME280/BME280.c **** uint8_t BME280_GetMeasurementDelay(void) {
 269:rhea\drivers\BME280/BME280.c **** 
 270:rhea\drivers\BME280/BME280.c ****     // Reading current configuration
 271:rhea\drivers\BME280/BME280.c ****     uint8_t temperature_ovrs = BME280_GetTemperatureMode();
 272:rhea\drivers\BME280/BME280.c ****     uint8_t pressure_ovrs = BME280_GetPressureMode();
 273:rhea\drivers\BME280/BME280.c ****     uint8_t humidity_ovrs = BME280_GetHumidityMode();
 274:rhea\drivers\BME280/BME280.c **** 
 275:rhea\drivers\BME280/BME280.c ****     // Parsing configuration
 276:rhea\drivers\BME280/BME280.c ****     switch(temperature_ovrs) {
 277:rhea\drivers\BME280/BME280.c ****     case BME280_TEMPERATURE_OVERSAMPLING_1X:  temperature_ovrs = 1; break;
 278:rhea\drivers\BME280/BME280.c ****     case BME280_TEMPERATURE_OVERSAMPLING_2X:  temperature_ovrs = 2; break;
 279:rhea\drivers\BME280/BME280.c ****     case BME280_TEMPERATURE_OVERSAMPLING_4X:  temperature_ovrs = 4; break;
 280:rhea\drivers\BME280/BME280.c ****     case BME280_TEMPERATURE_OVERSAMPLING_8X:  temperature_ovrs = 8; break;
 281:rhea\drivers\BME280/BME280.c ****     case BME280_TEMPERATURE_OVERSAMPLING_16X: temperature_ovrs = 16; break;
 282:rhea\drivers\BME280/BME280.c ****     case BME280_TEMPERATURE_DISABLED:         temperature_ovrs = 0; break;
 283:rhea\drivers\BME280/BME280.c ****     };
 284:rhea\drivers\BME280/BME280.c **** 
 285:rhea\drivers\BME280/BME280.c ****     switch(pressure_ovrs) {
 286:rhea\drivers\BME280/BME280.c ****     case BME280_PRESSURE_OVERSAMPLING_1X:  pressure_ovrs = 1; break;
 287:rhea\drivers\BME280/BME280.c ****     case BME280_PRESSURE_OVERSAMPLING_2X:  pressure_ovrs = 2; break;
 288:rhea\drivers\BME280/BME280.c ****     case BME280_PRESSURE_OVERSAMPLING_4X:  pressure_ovrs = 4; break;
 289:rhea\drivers\BME280/BME280.c ****     case BME280_PRESSURE_OVERSAMPLING_8X:  pressure_ovrs = 8; break;
 290:rhea\drivers\BME280/BME280.c ****     case BME280_PRESSURE_OVERSAMPLING_16X: pressure_ovrs = 16; break;
 291:rhea\drivers\BME280/BME280.c ****     case BME280_PRESSURE_DISABLED:         pressure_ovrs = 0; break;
 292:rhea\drivers\BME280/BME280.c ****     };
 293:rhea\drivers\BME280/BME280.c **** 
 294:rhea\drivers\BME280/BME280.c ****     switch(humidity_ovrs) {
 295:rhea\drivers\BME280/BME280.c ****     case BME280_HUMIDITY_OVERSAMPLING_1X:  humidity_ovrs = 1; break;
 296:rhea\drivers\BME280/BME280.c ****     case BME280_HUMIDITY_OVERSAMPLING_2X:  humidity_ovrs = 2; break;
 297:rhea\drivers\BME280/BME280.c ****     case BME280_HUMIDITY_OVERSAMPLING_4X:  humidity_ovrs = 4; break;
 298:rhea\drivers\BME280/BME280.c ****     case BME280_HUMIDITY_OVERSAMPLING_8X:  humidity_ovrs = 8; break;
 299:rhea\drivers\BME280/BME280.c ****     case BME280_HUMIDITY_OVERSAMPLING_16X: humidity_ovrs = 16; break;
 300:rhea\drivers\BME280/BME280.c ****     case BME280_HUMIDITY_DISABLED:         humidity_ovrs = 0; break;
 301:rhea\drivers\BME280/BME280.c ****     };
 302:rhea\drivers\BME280/BME280.c **** 
 303:rhea\drivers\BME280/BME280.c ****     // Calculating measurement delay components (values from the official datasheet)
 304:rhea\drivers\BME280/BME280.c ****     double temperature_delay = temperature_ovrs ? 2.3f * temperature_ovrs : 0;
 305:rhea\drivers\BME280/BME280.c ****     double pressure_delay = pressure_ovrs ? 2.3f * pressure_ovrs + 0.575 : 0;
 306:rhea\drivers\BME280/BME280.c ****     double humidity_delay = humidity_ovrs ? 2.3f * humidity_ovrs + 0.575 : 0;
 307:rhea\drivers\BME280/BME280.c **** 
 308:rhea\drivers\BME280/BME280.c ****     return 1.25 + temperature_delay + pressure_delay + humidity_delay;
 309:rhea\drivers\BME280/BME280.c **** }
 310:rhea\drivers\BME280/BME280.c **** 
 311:rhea\drivers\BME280/BME280.c **** uint8_t BME280_GetHumidityMode(void) {
 1357              		.loc 1 311 0
 1358              		.cfi_startproc
 1359              		@ args = 0, pretend = 0, frame = 0
 1360              		@ frame_needed = 0, uses_anonymous_args = 0
 1361              		@ link register save eliminated.
ARM GAS  C:\Users\GYULAI~1\AppData\Local\Temp\cclBQTHO.s 			page 31


 312:rhea\drivers\BME280/BME280.c **** 
 313:rhea\drivers\BME280/BME280.c ****     // Returning OSRS_H bits of CTRL_HUM register
 314:rhea\drivers\BME280/BME280.c ****     return BME280_RegistersLocal.CTRL_HUM & BME280_CTRL_HUM_OSRS_H;
 1362              		.loc 1 314 0
 1363 0000 024B     		ldr	r3, .L60
 1364 0002 187E     		ldrb	r0, [r3, #24]	@ zero_extendqisi2
 315:rhea\drivers\BME280/BME280.c **** }
 1365              		.loc 1 315 0
 1366 0004 00F00700 		and	r0, r0, #7
 1367 0008 7047     		bx	lr
 1368              	.L61:
 1369 000a 00BF     		.align	2
 1370              	.L60:
 1371 000c 00000000 		.word	.LANCHOR0
 1372              		.cfi_endproc
 1373              	.LFE12:
 1374              		.size	BME280_GetHumidityMode, .-BME280_GetHumidityMode
 1375              		.section	.text.BME280_SetHumidityMode,"ax",%progbits
 1376              		.align	2
 1377              		.global	BME280_SetHumidityMode
 1378              		.thumb
 1379              		.thumb_func
 1380              		.type	BME280_SetHumidityMode, %function
 1381              	BME280_SetHumidityMode:
 1382              	.LFB13:
 316:rhea\drivers\BME280/BME280.c **** 
 317:rhea\drivers\BME280/BME280.c **** void BME280_SetHumidityMode(uint8_t mode) {
 1383              		.loc 1 317 0
 1384              		.cfi_startproc
 1385              		@ args = 0, pretend = 0, frame = 0
 1386              		@ frame_needed = 0, uses_anonymous_args = 0
 1387              	.LVL198:
 1388 0000 08B5     		push	{r3, lr}
 1389              		.cfi_def_cfa_offset 8
 1390              		.cfi_offset 3, -8
 1391              		.cfi_offset 14, -4
 318:rhea\drivers\BME280/BME280.c **** 
 319:rhea\drivers\BME280/BME280.c ****     // Writing OSRS_H bits of CTRL_HUM register
 320:rhea\drivers\BME280/BME280.c ****     BME280_RegistersLocal.CTRL_HUM &= BME280_CTRL_HUM_OSRS_H;
 1392              		.loc 1 320 0
 1393 0002 064A     		ldr	r2, .L64
 1394 0004 137E     		ldrb	r3, [r2, #24]	@ zero_extendqisi2
 1395 0006 03F00703 		and	r3, r3, #7
 321:rhea\drivers\BME280/BME280.c ****     BME280_RegistersLocal.CTRL_HUM |= mode;
 1396              		.loc 1 321 0
 1397 000a 1843     		orrs	r0, r0, r3
 1398              	.LVL199:
 1399 000c 02F8180F 		strb	r0, [r2, #24]!
 322:rhea\drivers\BME280/BME280.c ****     
 323:rhea\drivers\BME280/BME280.c ****     // Writing changes to the device
 324:rhea\drivers\BME280/BME280.c ****     BME280_I2CWriter(BME280_I2C_ADDR, BME280_CTRL_HUM, &BME280_RegistersLocal.CTRL_HUM, 1);
 1400              		.loc 1 324 0
 1401 0010 0123     		movs	r3, #1
 1402 0012 F221     		movs	r1, #242
 1403 0014 7620     		movs	r0, #118
 1404 0016 FFF7FEFF 		bl	BME280_I2CWriter
 1405              	.LVL200:
ARM GAS  C:\Users\GYULAI~1\AppData\Local\Temp\cclBQTHO.s 			page 32


 1406 001a 08BD     		pop	{r3, pc}
 1407              	.L65:
 1408              		.align	2
 1409              	.L64:
 1410 001c 00000000 		.word	.LANCHOR0
 1411              		.cfi_endproc
 1412              	.LFE13:
 1413              		.size	BME280_SetHumidityMode, .-BME280_SetHumidityMode
 1414              		.section	.text.BME280_GetTemperatureMode,"ax",%progbits
 1415              		.align	2
 1416              		.global	BME280_GetTemperatureMode
 1417              		.thumb
 1418              		.thumb_func
 1419              		.type	BME280_GetTemperatureMode, %function
 1420              	BME280_GetTemperatureMode:
 1421              	.LFB14:
 325:rhea\drivers\BME280/BME280.c **** }
 326:rhea\drivers\BME280/BME280.c **** 
 327:rhea\drivers\BME280/BME280.c **** uint8_t BME280_GetTemperatureMode(void) {
 1422              		.loc 1 327 0
 1423              		.cfi_startproc
 1424              		@ args = 0, pretend = 0, frame = 0
 1425              		@ frame_needed = 0, uses_anonymous_args = 0
 1426              		@ link register save eliminated.
 328:rhea\drivers\BME280/BME280.c **** 
 329:rhea\drivers\BME280/BME280.c ****     // Returning OSRS_T bits of CTRL_MEAS register
 330:rhea\drivers\BME280/BME280.c ****     return BME280_RegistersLocal.CTRL_MEAS & BME280_CTRL_MEAS_OSRS_T;
 1427              		.loc 1 330 0
 1428 0000 024B     		ldr	r3, .L67
 1429 0002 987E     		ldrb	r0, [r3, #26]	@ zero_extendqisi2
 331:rhea\drivers\BME280/BME280.c **** }
 1430              		.loc 1 331 0
 1431 0004 00F0E000 		and	r0, r0, #224
 1432 0008 7047     		bx	lr
 1433              	.L68:
 1434 000a 00BF     		.align	2
 1435              	.L67:
 1436 000c 00000000 		.word	.LANCHOR0
 1437              		.cfi_endproc
 1438              	.LFE14:
 1439              		.size	BME280_GetTemperatureMode, .-BME280_GetTemperatureMode
 1440              		.section	.text.BME280_SetTemperatureMode,"ax",%progbits
 1441              		.align	2
 1442              		.global	BME280_SetTemperatureMode
 1443              		.thumb
 1444              		.thumb_func
 1445              		.type	BME280_SetTemperatureMode, %function
 1446              	BME280_SetTemperatureMode:
 1447              	.LFB15:
 332:rhea\drivers\BME280/BME280.c **** 
 333:rhea\drivers\BME280/BME280.c **** void BME280_SetTemperatureMode(uint8_t mode) {
 1448              		.loc 1 333 0
 1449              		.cfi_startproc
 1450              		@ args = 0, pretend = 0, frame = 0
 1451              		@ frame_needed = 0, uses_anonymous_args = 0
 1452              	.LVL201:
 1453 0000 08B5     		push	{r3, lr}
ARM GAS  C:\Users\GYULAI~1\AppData\Local\Temp\cclBQTHO.s 			page 33


 1454              		.cfi_def_cfa_offset 8
 1455              		.cfi_offset 3, -8
 1456              		.cfi_offset 14, -4
 334:rhea\drivers\BME280/BME280.c **** 
 335:rhea\drivers\BME280/BME280.c ****     // Writing OSRS_T bits of CTRL_MEAS register
 336:rhea\drivers\BME280/BME280.c ****     BME280_RegistersLocal.CTRL_MEAS &= BME280_CTRL_MEAS_OSRS_T;
 1457              		.loc 1 336 0
 1458 0002 064A     		ldr	r2, .L71
 1459 0004 937E     		ldrb	r3, [r2, #26]	@ zero_extendqisi2
 1460 0006 03F0E003 		and	r3, r3, #224
 337:rhea\drivers\BME280/BME280.c ****     BME280_RegistersLocal.CTRL_MEAS |= mode;
 1461              		.loc 1 337 0
 1462 000a 1843     		orrs	r0, r0, r3
 1463              	.LVL202:
 1464 000c 02F81A0F 		strb	r0, [r2, #26]!
 338:rhea\drivers\BME280/BME280.c ****     
 339:rhea\drivers\BME280/BME280.c ****     // Writing changes to the device
 340:rhea\drivers\BME280/BME280.c ****     BME280_I2CWriter(BME280_I2C_ADDR, BME280_CTRL_MEAS, &BME280_RegistersLocal.CTRL_MEAS, 1);
 1465              		.loc 1 340 0
 1466 0010 0123     		movs	r3, #1
 1467 0012 F421     		movs	r1, #244
 1468 0014 7620     		movs	r0, #118
 1469 0016 FFF7FEFF 		bl	BME280_I2CWriter
 1470              	.LVL203:
 1471 001a 08BD     		pop	{r3, pc}
 1472              	.L72:
 1473              		.align	2
 1474              	.L71:
 1475 001c 00000000 		.word	.LANCHOR0
 1476              		.cfi_endproc
 1477              	.LFE15:
 1478              		.size	BME280_SetTemperatureMode, .-BME280_SetTemperatureMode
 1479              		.section	.text.BME280_GetPressureMode,"ax",%progbits
 1480              		.align	2
 1481              		.global	BME280_GetPressureMode
 1482              		.thumb
 1483              		.thumb_func
 1484              		.type	BME280_GetPressureMode, %function
 1485              	BME280_GetPressureMode:
 1486              	.LFB16:
 341:rhea\drivers\BME280/BME280.c **** }
 342:rhea\drivers\BME280/BME280.c **** 
 343:rhea\drivers\BME280/BME280.c **** uint8_t BME280_GetPressureMode(void) {
 1487              		.loc 1 343 0
 1488              		.cfi_startproc
 1489              		@ args = 0, pretend = 0, frame = 0
 1490              		@ frame_needed = 0, uses_anonymous_args = 0
 1491              		@ link register save eliminated.
 344:rhea\drivers\BME280/BME280.c **** 
 345:rhea\drivers\BME280/BME280.c ****     // Returning OSRS_P bits of CTRL_MEAS register
 346:rhea\drivers\BME280/BME280.c ****     return BME280_RegistersLocal.CTRL_MEAS & BME280_CTRL_MEAS_OSRS_P;
 1492              		.loc 1 346 0
 1493 0000 024B     		ldr	r3, .L74
 1494 0002 987E     		ldrb	r0, [r3, #26]	@ zero_extendqisi2
 347:rhea\drivers\BME280/BME280.c **** }
 1495              		.loc 1 347 0
 1496 0004 00F01C00 		and	r0, r0, #28
ARM GAS  C:\Users\GYULAI~1\AppData\Local\Temp\cclBQTHO.s 			page 34


 1497 0008 7047     		bx	lr
 1498              	.L75:
 1499 000a 00BF     		.align	2
 1500              	.L74:
 1501 000c 00000000 		.word	.LANCHOR0
 1502              		.cfi_endproc
 1503              	.LFE16:
 1504              		.size	BME280_GetPressureMode, .-BME280_GetPressureMode
 1505              		.global	__aeabi_f2d
 1506              		.section	.text.BME280_GetMeasurementDelay,"ax",%progbits
 1507              		.align	2
 1508              		.global	BME280_GetMeasurementDelay
 1509              		.thumb
 1510              		.thumb_func
 1511              		.type	BME280_GetMeasurementDelay, %function
 1512              	BME280_GetMeasurementDelay:
 1513              	.LFB11:
 268:rhea\drivers\BME280/BME280.c **** 
 1514              		.loc 1 268 0
 1515              		.cfi_startproc
 1516              		@ args = 0, pretend = 0, frame = 0
 1517              		@ frame_needed = 0, uses_anonymous_args = 0
 1518 0000 2DE9F843 		push	{r3, r4, r5, r6, r7, r8, r9, lr}
 1519              		.cfi_def_cfa_offset 32
 1520              		.cfi_offset 3, -32
 1521              		.cfi_offset 4, -28
 1522              		.cfi_offset 5, -24
 1523              		.cfi_offset 6, -20
 1524              		.cfi_offset 7, -16
 1525              		.cfi_offset 8, -12
 1526              		.cfi_offset 9, -8
 1527              		.cfi_offset 14, -4
 271:rhea\drivers\BME280/BME280.c ****     uint8_t pressure_ovrs = BME280_GetPressureMode();
 1528              		.loc 1 271 0
 1529 0004 FFF7FEFF 		bl	BME280_GetTemperatureMode
 1530              	.LVL204:
 1531 0008 0446     		mov	r4, r0
 1532              	.LVL205:
 272:rhea\drivers\BME280/BME280.c ****     uint8_t humidity_ovrs = BME280_GetHumidityMode();
 1533              		.loc 1 272 0
 1534 000a FFF7FEFF 		bl	BME280_GetPressureMode
 1535              	.LVL206:
 1536 000e 0646     		mov	r6, r0
 1537              	.LVL207:
 273:rhea\drivers\BME280/BME280.c **** 
 1538              		.loc 1 273 0
 1539 0010 FFF7FEFF 		bl	BME280_GetHumidityMode
 1540              	.LVL208:
 1541 0014 0546     		mov	r5, r0
 1542              	.LVL209:
 276:rhea\drivers\BME280/BME280.c ****     case BME280_TEMPERATURE_OVERSAMPLING_1X:  temperature_ovrs = 1; break;
 1543              		.loc 1 276 0
 1544 0016 402C     		cmp	r4, #64
 1545 0018 0BD0     		beq	.L78
 1546 001a 03D8     		bhi	.L79
 1547 001c 94B1     		cbz	r4, .L81
 1548 001e 202C     		cmp	r4, #32
ARM GAS  C:\Users\GYULAI~1\AppData\Local\Temp\cclBQTHO.s 			page 35


 1549 0020 0FD0     		beq	.L100
 1550 0022 0FE0     		b	.L81
 1551              	.L79:
 1552 0024 802C     		cmp	r4, #128
 1553 0026 08D0     		beq	.L82
 1554 0028 A02C     		cmp	r4, #160
 1555 002a 08D0     		beq	.L83
 1556 002c 602C     		cmp	r4, #96
 1557 002e 09D1     		bne	.L81
 1558 0030 01E0     		b	.L84
 1559              	.L78:
 1560              	.LVL210:
 278:rhea\drivers\BME280/BME280.c ****     case BME280_TEMPERATURE_OVERSAMPLING_4X:  temperature_ovrs = 4; break;
 1561              		.loc 1 278 0
 1562 0032 0224     		movs	r4, #2
 1563 0034 06E0     		b	.L81
 1564              	.LVL211:
 1565              	.L84:
 279:rhea\drivers\BME280/BME280.c ****     case BME280_TEMPERATURE_OVERSAMPLING_8X:  temperature_ovrs = 8; break;
 1566              		.loc 1 279 0
 1567 0036 0424     		movs	r4, #4
 1568 0038 04E0     		b	.L81
 1569              	.LVL212:
 1570              	.L82:
 280:rhea\drivers\BME280/BME280.c ****     case BME280_TEMPERATURE_OVERSAMPLING_16X: temperature_ovrs = 16; break;
 1571              		.loc 1 280 0
 1572 003a 0824     		movs	r4, #8
 1573 003c 02E0     		b	.L81
 1574              	.LVL213:
 1575              	.L83:
 281:rhea\drivers\BME280/BME280.c ****     case BME280_TEMPERATURE_DISABLED:         temperature_ovrs = 0; break;
 1576              		.loc 1 281 0
 1577 003e 1024     		movs	r4, #16
 1578 0040 00E0     		b	.L81
 1579              	.LVL214:
 1580              	.L100:
 277:rhea\drivers\BME280/BME280.c ****     case BME280_TEMPERATURE_OVERSAMPLING_2X:  temperature_ovrs = 2; break;
 1581              		.loc 1 277 0
 1582 0042 0124     		movs	r4, #1
 1583              	.LVL215:
 1584              	.L81:
 285:rhea\drivers\BME280/BME280.c ****     case BME280_PRESSURE_OVERSAMPLING_1X:  pressure_ovrs = 1; break;
 1585              		.loc 1 285 0
 1586 0044 142E     		cmp	r6, #20
 1587 0046 15D8     		bhi	.L88
 1588 0048 DFE806F0 		tbb	[pc, r6]
 1589              	.L87:
 1590 004c 14       		.byte	(.L88-.L87)/2
 1591 004d 14       		.byte	(.L88-.L87)/2
 1592 004e 14       		.byte	(.L88-.L87)/2
 1593 004f 14       		.byte	(.L88-.L87)/2
 1594 0050 13       		.byte	(.L101-.L87)/2
 1595 0051 14       		.byte	(.L88-.L87)/2
 1596 0052 14       		.byte	(.L88-.L87)/2
 1597 0053 14       		.byte	(.L88-.L87)/2
 1598 0054 0B       		.byte	(.L89-.L87)/2
 1599 0055 14       		.byte	(.L88-.L87)/2
ARM GAS  C:\Users\GYULAI~1\AppData\Local\Temp\cclBQTHO.s 			page 36


 1600 0056 14       		.byte	(.L88-.L87)/2
 1601 0057 14       		.byte	(.L88-.L87)/2
 1602 0058 0D       		.byte	(.L90-.L87)/2
 1603 0059 14       		.byte	(.L88-.L87)/2
 1604 005a 14       		.byte	(.L88-.L87)/2
 1605 005b 14       		.byte	(.L88-.L87)/2
 1606 005c 0F       		.byte	(.L91-.L87)/2
 1607 005d 14       		.byte	(.L88-.L87)/2
 1608 005e 14       		.byte	(.L88-.L87)/2
 1609 005f 14       		.byte	(.L88-.L87)/2
 1610 0060 11       		.byte	(.L92-.L87)/2
 1611 0061 00       		.p2align 1
 1612              	.L89:
 1613              	.LVL216:
 287:rhea\drivers\BME280/BME280.c ****     case BME280_PRESSURE_OVERSAMPLING_4X:  pressure_ovrs = 4; break;
 1614              		.loc 1 287 0
 1615 0062 0226     		movs	r6, #2
 1616 0064 06E0     		b	.L88
 1617              	.LVL217:
 1618              	.L90:
 288:rhea\drivers\BME280/BME280.c ****     case BME280_PRESSURE_OVERSAMPLING_8X:  pressure_ovrs = 8; break;
 1619              		.loc 1 288 0
 1620 0066 0426     		movs	r6, #4
 1621 0068 04E0     		b	.L88
 1622              	.LVL218:
 1623              	.L91:
 289:rhea\drivers\BME280/BME280.c ****     case BME280_PRESSURE_OVERSAMPLING_16X: pressure_ovrs = 16; break;
 1624              		.loc 1 289 0
 1625 006a 0826     		movs	r6, #8
 1626 006c 02E0     		b	.L88
 1627              	.LVL219:
 1628              	.L92:
 290:rhea\drivers\BME280/BME280.c ****     case BME280_PRESSURE_DISABLED:         pressure_ovrs = 0; break;
 1629              		.loc 1 290 0
 1630 006e 1026     		movs	r6, #16
 1631 0070 00E0     		b	.L88
 1632              	.LVL220:
 1633              	.L101:
 286:rhea\drivers\BME280/BME280.c ****     case BME280_PRESSURE_OVERSAMPLING_2X:  pressure_ovrs = 2; break;
 1634              		.loc 1 286 0
 1635 0072 0126     		movs	r6, #1
 1636              	.LVL221:
 1637              	.L88:
 294:rhea\drivers\BME280/BME280.c ****     case BME280_HUMIDITY_OVERSAMPLING_1X:  humidity_ovrs = 1; break;
 1638              		.loc 1 294 0
 1639 0074 042D     		cmp	r5, #4
 1640 0076 05D0     		beq	.L94
 1641 0078 052D     		cmp	r5, #5
 1642 007a 05D0     		beq	.L95
 1643 007c 032D     		cmp	r5, #3
 1644 007e 04D1     		bne	.L93
 1645              	.LVL222:
 297:rhea\drivers\BME280/BME280.c ****     case BME280_HUMIDITY_OVERSAMPLING_8X:  humidity_ovrs = 8; break;
 1646              		.loc 1 297 0
 1647 0080 0425     		movs	r5, #4
 1648 0082 02E0     		b	.L93
 1649              	.LVL223:
ARM GAS  C:\Users\GYULAI~1\AppData\Local\Temp\cclBQTHO.s 			page 37


 1650              	.L94:
 298:rhea\drivers\BME280/BME280.c ****     case BME280_HUMIDITY_OVERSAMPLING_16X: humidity_ovrs = 16; break;
 1651              		.loc 1 298 0
 1652 0084 0825     		movs	r5, #8
 1653 0086 00E0     		b	.L93
 1654              	.LVL224:
 1655              	.L95:
 299:rhea\drivers\BME280/BME280.c ****     case BME280_HUMIDITY_DISABLED:         humidity_ovrs = 0; break;
 1656              		.loc 1 299 0
 1657 0088 1025     		movs	r5, #16
 1658              	.LVL225:
 1659              	.L93:
 304:rhea\drivers\BME280/BME280.c ****     double pressure_delay = pressure_ovrs ? 2.3f * pressure_ovrs + 0.575 : 0;
 1660              		.loc 1 304 0
 1661 008a 54B1     		cbz	r4, .L102
 304:rhea\drivers\BME280/BME280.c ****     double pressure_delay = pressure_ovrs ? 2.3f * pressure_ovrs + 0.575 : 0;
 1662              		.loc 1 304 0 is_stmt 0 discriminator 1
 1663 008c 2046     		mov	r0, r4
 1664 008e FFF7FEFF 		bl	__aeabi_i2f
 1665              	.LVL226:
 1666 0092 2749     		ldr	r1, .L106+8
 1667 0094 FFF7FEFF 		bl	__aeabi_fmul
 1668              	.LVL227:
 1669 0098 FFF7FEFF 		bl	__aeabi_f2d
 1670              	.LVL228:
 1671 009c 8046     		mov	r8, r0
 1672 009e 8946     		mov	r9, r1
 1673 00a0 03E0     		b	.L97
 1674              	.L102:
 304:rhea\drivers\BME280/BME280.c ****     double pressure_delay = pressure_ovrs ? 2.3f * pressure_ovrs + 0.575 : 0;
 1675              		.loc 1 304 0
 1676 00a2 4FF00008 		mov	r8, #0
 1677 00a6 4FF00009 		mov	r9, #0
 1678              	.L97:
 1679              	.LVL229:
 305:rhea\drivers\BME280/BME280.c ****     double humidity_delay = humidity_ovrs ? 2.3f * humidity_ovrs + 0.575 : 0;
 1680              		.loc 1 305 0 is_stmt 1 discriminator 4
 1681 00aa 7EB1     		cbz	r6, .L103
 305:rhea\drivers\BME280/BME280.c ****     double humidity_delay = humidity_ovrs ? 2.3f * humidity_ovrs + 0.575 : 0;
 1682              		.loc 1 305 0 is_stmt 0 discriminator 1
 1683 00ac 3046     		mov	r0, r6
 1684 00ae FFF7FEFF 		bl	__aeabi_i2f
 1685              	.LVL230:
 1686 00b2 1F49     		ldr	r1, .L106+8
 1687 00b4 FFF7FEFF 		bl	__aeabi_fmul
 1688              	.LVL231:
 1689 00b8 FFF7FEFF 		bl	__aeabi_f2d
 1690              	.LVL232:
 1691 00bc 1AA3     		adr	r3, .L106
 1692 00be D3E90023 		ldrd	r2, [r3]
 1693 00c2 FFF7FEFF 		bl	__aeabi_dadd
 1694              	.LVL233:
 1695 00c6 0646     		mov	r6, r0
 1696              	.LVL234:
 1697 00c8 0F46     		mov	r7, r1
 1698 00ca 01E0     		b	.L98
 1699              	.LVL235:
ARM GAS  C:\Users\GYULAI~1\AppData\Local\Temp\cclBQTHO.s 			page 38


 1700              	.L103:
 305:rhea\drivers\BME280/BME280.c ****     double humidity_delay = humidity_ovrs ? 2.3f * humidity_ovrs + 0.575 : 0;
 1701              		.loc 1 305 0
 1702 00cc 0026     		movs	r6, #0
 1703              	.LVL236:
 1704 00ce 0027     		movs	r7, #0
 1705              	.L98:
 1706              	.LVL237:
 306:rhea\drivers\BME280/BME280.c **** 
 1707              		.loc 1 306 0 is_stmt 1 discriminator 4
 1708 00d0 7DB1     		cbz	r5, .L104
 306:rhea\drivers\BME280/BME280.c **** 
 1709              		.loc 1 306 0 is_stmt 0 discriminator 1
 1710 00d2 2846     		mov	r0, r5
 1711 00d4 FFF7FEFF 		bl	__aeabi_i2f
 1712              	.LVL238:
 1713 00d8 1549     		ldr	r1, .L106+8
 1714 00da FFF7FEFF 		bl	__aeabi_fmul
 1715              	.LVL239:
 1716 00de FFF7FEFF 		bl	__aeabi_f2d
 1717              	.LVL240:
 1718 00e2 11A3     		adr	r3, .L106
 1719 00e4 D3E90023 		ldrd	r2, [r3]
 1720 00e8 FFF7FEFF 		bl	__aeabi_dadd
 1721              	.LVL241:
 1722 00ec 0446     		mov	r4, r0
 1723              	.LVL242:
 1724 00ee 0D46     		mov	r5, r1
 1725              	.LVL243:
 1726 00f0 01E0     		b	.L99
 1727              	.LVL244:
 1728              	.L104:
 306:rhea\drivers\BME280/BME280.c **** 
 1729              		.loc 1 306 0
 1730 00f2 0024     		movs	r4, #0
 1731              	.LVL245:
 1732 00f4 0025     		movs	r5, #0
 1733              	.LVL246:
 1734              	.L99:
 308:rhea\drivers\BME280/BME280.c **** }
 1735              		.loc 1 308 0 is_stmt 1 discriminator 4
 1736 00f6 0022     		movs	r2, #0
 1737 00f8 0E4B     		ldr	r3, .L106+12
 1738 00fa 4046     		mov	r0, r8
 1739 00fc 4946     		mov	r1, r9
 1740 00fe FFF7FEFF 		bl	__aeabi_dadd
 1741              	.LVL247:
 1742 0102 0246     		mov	r2, r0
 1743 0104 0B46     		mov	r3, r1
 1744 0106 3046     		mov	r0, r6
 1745 0108 3946     		mov	r1, r7
 1746 010a FFF7FEFF 		bl	__aeabi_dadd
 1747              	.LVL248:
 1748 010e 0246     		mov	r2, r0
 1749 0110 0B46     		mov	r3, r1
 1750 0112 2046     		mov	r0, r4
 1751 0114 2946     		mov	r1, r5
ARM GAS  C:\Users\GYULAI~1\AppData\Local\Temp\cclBQTHO.s 			page 39


 1752 0116 FFF7FEFF 		bl	__aeabi_dadd
 1753              	.LVL249:
 1754 011a FFF7FEFF 		bl	__aeabi_d2uiz
 1755              	.LVL250:
 309:rhea\drivers\BME280/BME280.c **** 
 1756              		.loc 1 309 0 discriminator 4
 1757 011e C0B2     		uxtb	r0, r0
 1758 0120 BDE8F883 		pop	{r3, r4, r5, r6, r7, r8, r9, pc}
 1759              	.LVL251:
 1760              	.L107:
 1761 0124 AFF30080 		.align	3
 1762              	.L106:
 1763 0128 66666666 		.word	1717986918
 1764 012c 6666E23F 		.word	1071801958
 1765 0130 33331340 		.word	1075000115
 1766 0134 0000F43F 		.word	1072955392
 1767              		.cfi_endproc
 1768              	.LFE11:
 1769              		.size	BME280_GetMeasurementDelay, .-BME280_GetMeasurementDelay
 1770              		.section	.text.BME280_SetPressureMode,"ax",%progbits
 1771              		.align	2
 1772              		.global	BME280_SetPressureMode
 1773              		.thumb
 1774              		.thumb_func
 1775              		.type	BME280_SetPressureMode, %function
 1776              	BME280_SetPressureMode:
 1777              	.LFB17:
 348:rhea\drivers\BME280/BME280.c **** 
 349:rhea\drivers\BME280/BME280.c **** void BME280_SetPressureMode(uint8_t mode) {
 1778              		.loc 1 349 0
 1779              		.cfi_startproc
 1780              		@ args = 0, pretend = 0, frame = 0
 1781              		@ frame_needed = 0, uses_anonymous_args = 0
 1782              	.LVL252:
 1783 0000 08B5     		push	{r3, lr}
 1784              		.cfi_def_cfa_offset 8
 1785              		.cfi_offset 3, -8
 1786              		.cfi_offset 14, -4
 350:rhea\drivers\BME280/BME280.c **** 
 351:rhea\drivers\BME280/BME280.c ****     // Writing OSRS_P bits of CTRL_MEAS register
 352:rhea\drivers\BME280/BME280.c ****     BME280_RegistersLocal.CTRL_MEAS &= BME280_CTRL_MEAS_OSRS_P;
 1787              		.loc 1 352 0
 1788 0002 064A     		ldr	r2, .L110
 1789 0004 937E     		ldrb	r3, [r2, #26]	@ zero_extendqisi2
 1790 0006 03F01C03 		and	r3, r3, #28
 353:rhea\drivers\BME280/BME280.c ****     BME280_RegistersLocal.CTRL_MEAS |= mode;
 1791              		.loc 1 353 0
 1792 000a 1843     		orrs	r0, r0, r3
 1793              	.LVL253:
 1794 000c 02F81A0F 		strb	r0, [r2, #26]!
 354:rhea\drivers\BME280/BME280.c ****     
 355:rhea\drivers\BME280/BME280.c ****     // Writing changes to the device
 356:rhea\drivers\BME280/BME280.c ****     BME280_I2CWriter(BME280_I2C_ADDR, BME280_CTRL_MEAS, &BME280_RegistersLocal.CTRL_MEAS, 1);
 1795              		.loc 1 356 0
 1796 0010 0123     		movs	r3, #1
 1797 0012 F421     		movs	r1, #244
 1798 0014 7620     		movs	r0, #118
ARM GAS  C:\Users\GYULAI~1\AppData\Local\Temp\cclBQTHO.s 			page 40


 1799 0016 FFF7FEFF 		bl	BME280_I2CWriter
 1800              	.LVL254:
 1801 001a 08BD     		pop	{r3, pc}
 1802              	.L111:
 1803              		.align	2
 1804              	.L110:
 1805 001c 00000000 		.word	.LANCHOR0
 1806              		.cfi_endproc
 1807              	.LFE17:
 1808              		.size	BME280_SetPressureMode, .-BME280_SetPressureMode
 1809              		.section	.text.BME280_IsMeasuring,"ax",%progbits
 1810              		.align	2
 1811              		.global	BME280_IsMeasuring
 1812              		.thumb
 1813              		.thumb_func
 1814              		.type	BME280_IsMeasuring, %function
 1815              	BME280_IsMeasuring:
 1816              	.LFB18:
 357:rhea\drivers\BME280/BME280.c **** }
 358:rhea\drivers\BME280/BME280.c **** 
 359:rhea\drivers\BME280/BME280.c **** uint8_t BME280_IsMeasuring(void) {
 1817              		.loc 1 359 0
 1818              		.cfi_startproc
 1819              		@ args = 0, pretend = 0, frame = 0
 1820              		@ frame_needed = 0, uses_anonymous_args = 0
 1821 0000 10B5     		push	{r4, lr}
 1822              		.cfi_def_cfa_offset 8
 1823              		.cfi_offset 4, -8
 1824              		.cfi_offset 14, -4
 360:rhea\drivers\BME280/BME280.c ****     
 361:rhea\drivers\BME280/BME280.c ****     // Reading STATUS register
 362:rhea\drivers\BME280/BME280.c ****     BME280_I2CReader(BME280_I2C_ADDR, BME280_STATUS, &BME280_RegistersLocal.STATUS, 1);
 1825              		.loc 1 362 0
 1826 0002 064C     		ldr	r4, .L114
 1827 0004 0123     		movs	r3, #1
 1828 0006 04F11902 		add	r2, r4, #25
 1829 000a F321     		movs	r1, #243
 1830 000c 7620     		movs	r0, #118
 1831 000e FFF7FEFF 		bl	BME280_I2CReader
 1832              	.LVL255:
 363:rhea\drivers\BME280/BME280.c **** 
 364:rhea\drivers\BME280/BME280.c ****     // Returning MEASURING bits of STATUS register
 365:rhea\drivers\BME280/BME280.c ****     return BME280_RegistersLocal.STATUS & BME280_STATUS_MEASURING;
 1833              		.loc 1 365 0
 1834 0012 607E     		ldrb	r0, [r4, #25]	@ zero_extendqisi2
 366:rhea\drivers\BME280/BME280.c **** }
 1835              		.loc 1 366 0
 1836 0014 00F00800 		and	r0, r0, #8
 1837 0018 10BD     		pop	{r4, pc}
 1838              	.L115:
 1839 001a 00BF     		.align	2
 1840              	.L114:
 1841 001c 00000000 		.word	.LANCHOR0
 1842              		.cfi_endproc
 1843              	.LFE18:
 1844              		.size	BME280_IsMeasuring, .-BME280_IsMeasuring
 1845              		.section	.text.BME280_IsUpdating,"ax",%progbits
ARM GAS  C:\Users\GYULAI~1\AppData\Local\Temp\cclBQTHO.s 			page 41


 1846              		.align	2
 1847              		.global	BME280_IsUpdating
 1848              		.thumb
 1849              		.thumb_func
 1850              		.type	BME280_IsUpdating, %function
 1851              	BME280_IsUpdating:
 1852              	.LFB19:
 367:rhea\drivers\BME280/BME280.c **** 
 368:rhea\drivers\BME280/BME280.c **** uint8_t BME280_IsUpdating(void) {
 1853              		.loc 1 368 0
 1854              		.cfi_startproc
 1855              		@ args = 0, pretend = 0, frame = 0
 1856              		@ frame_needed = 0, uses_anonymous_args = 0
 1857 0000 10B5     		push	{r4, lr}
 1858              		.cfi_def_cfa_offset 8
 1859              		.cfi_offset 4, -8
 1860              		.cfi_offset 14, -4
 369:rhea\drivers\BME280/BME280.c ****     
 370:rhea\drivers\BME280/BME280.c ****     // Reading STATUS register
 371:rhea\drivers\BME280/BME280.c ****     BME280_I2CReader(BME280_I2C_ADDR, BME280_STATUS, &BME280_RegistersLocal.STATUS, 1);
 1861              		.loc 1 371 0
 1862 0002 064C     		ldr	r4, .L118
 1863 0004 0123     		movs	r3, #1
 1864 0006 04F11902 		add	r2, r4, #25
 1865 000a F321     		movs	r1, #243
 1866 000c 7620     		movs	r0, #118
 1867 000e FFF7FEFF 		bl	BME280_I2CReader
 1868              	.LVL256:
 372:rhea\drivers\BME280/BME280.c **** 
 373:rhea\drivers\BME280/BME280.c ****     // Returning IM_UPDATE bit of STATUS register
 374:rhea\drivers\BME280/BME280.c ****     return BME280_RegistersLocal.STATUS & BME280_STATUS_IM_UPDATE;
 1869              		.loc 1 374 0
 1870 0012 607E     		ldrb	r0, [r4, #25]	@ zero_extendqisi2
 375:rhea\drivers\BME280/BME280.c **** }
 1871              		.loc 1 375 0
 1872 0014 00F00100 		and	r0, r0, #1
 1873 0018 10BD     		pop	{r4, pc}
 1874              	.L119:
 1875 001a 00BF     		.align	2
 1876              	.L118:
 1877 001c 00000000 		.word	.LANCHOR0
 1878              		.cfi_endproc
 1879              	.LFE19:
 1880              		.size	BME280_IsUpdating, .-BME280_IsUpdating
 1881              		.section	.text.BME280_GetMeasurementMode,"ax",%progbits
 1882              		.align	2
 1883              		.global	BME280_GetMeasurementMode
 1884              		.thumb
 1885              		.thumb_func
 1886              		.type	BME280_GetMeasurementMode, %function
 1887              	BME280_GetMeasurementMode:
 1888              	.LFB20:
 376:rhea\drivers\BME280/BME280.c **** 
 377:rhea\drivers\BME280/BME280.c **** uint8_t BME280_GetMeasurementMode(void) {
 1889              		.loc 1 377 0
 1890              		.cfi_startproc
 1891              		@ args = 0, pretend = 0, frame = 0
ARM GAS  C:\Users\GYULAI~1\AppData\Local\Temp\cclBQTHO.s 			page 42


 1892              		@ frame_needed = 0, uses_anonymous_args = 0
 1893              		@ link register save eliminated.
 378:rhea\drivers\BME280/BME280.c **** 
 379:rhea\drivers\BME280/BME280.c ****     // Reading MODE bits of CTRL_MEAS register
 380:rhea\drivers\BME280/BME280.c ****     return BME280_RegistersLocal.CTRL_MEAS & BME280_CTRL_MEAS_MODE;
 1894              		.loc 1 380 0
 1895 0000 024B     		ldr	r3, .L121
 1896 0002 987E     		ldrb	r0, [r3, #26]	@ zero_extendqisi2
 381:rhea\drivers\BME280/BME280.c **** }
 1897              		.loc 1 381 0
 1898 0004 00F00300 		and	r0, r0, #3
 1899 0008 7047     		bx	lr
 1900              	.L122:
 1901 000a 00BF     		.align	2
 1902              	.L121:
 1903 000c 00000000 		.word	.LANCHOR0
 1904              		.cfi_endproc
 1905              	.LFE20:
 1906              		.size	BME280_GetMeasurementMode, .-BME280_GetMeasurementMode
 1907              		.section	.text.BME280_SetMeasurementMode,"ax",%progbits
 1908              		.align	2
 1909              		.global	BME280_SetMeasurementMode
 1910              		.thumb
 1911              		.thumb_func
 1912              		.type	BME280_SetMeasurementMode, %function
 1913              	BME280_SetMeasurementMode:
 1914              	.LFB21:
 382:rhea\drivers\BME280/BME280.c **** 
 383:rhea\drivers\BME280/BME280.c **** void BME280_SetMeasurementMode(uint8_t mode) {
 1915              		.loc 1 383 0
 1916              		.cfi_startproc
 1917              		@ args = 0, pretend = 0, frame = 0
 1918              		@ frame_needed = 0, uses_anonymous_args = 0
 1919              	.LVL257:
 1920 0000 08B5     		push	{r3, lr}
 1921              		.cfi_def_cfa_offset 8
 1922              		.cfi_offset 3, -8
 1923              		.cfi_offset 14, -4
 384:rhea\drivers\BME280/BME280.c **** 
 385:rhea\drivers\BME280/BME280.c ****     // Writing MODE bits of CTRL_MEAS register
 386:rhea\drivers\BME280/BME280.c ****     BME280_RegistersLocal.CTRL_MEAS &= ~BME280_CTRL_MEAS_MODE;
 1924              		.loc 1 386 0
 1925 0002 064A     		ldr	r2, .L125
 1926 0004 937E     		ldrb	r3, [r2, #26]	@ zero_extendqisi2
 1927 0006 03F0FC03 		and	r3, r3, #252
 387:rhea\drivers\BME280/BME280.c ****     BME280_RegistersLocal.CTRL_MEAS |= mode;
 1928              		.loc 1 387 0
 1929 000a 1843     		orrs	r0, r0, r3
 1930              	.LVL258:
 1931 000c 02F81A0F 		strb	r0, [r2, #26]!
 388:rhea\drivers\BME280/BME280.c ****     
 389:rhea\drivers\BME280/BME280.c ****     // Writing changes to the device
 390:rhea\drivers\BME280/BME280.c ****     BME280_I2CWriter(BME280_I2C_ADDR, BME280_CTRL_MEAS, &BME280_RegistersLocal.CTRL_MEAS, 1);
 1932              		.loc 1 390 0
 1933 0010 0123     		movs	r3, #1
 1934 0012 F421     		movs	r1, #244
 1935 0014 7620     		movs	r0, #118
ARM GAS  C:\Users\GYULAI~1\AppData\Local\Temp\cclBQTHO.s 			page 43


 1936 0016 FFF7FEFF 		bl	BME280_I2CWriter
 1937              	.LVL259:
 1938 001a 08BD     		pop	{r3, pc}
 1939              	.L126:
 1940              		.align	2
 1941              	.L125:
 1942 001c 00000000 		.word	.LANCHOR0
 1943              		.cfi_endproc
 1944              	.LFE21:
 1945              		.size	BME280_SetMeasurementMode, .-BME280_SetMeasurementMode
 1946              		.section	.text.BME280_GetStandbyTime,"ax",%progbits
 1947              		.align	2
 1948              		.global	BME280_GetStandbyTime
 1949              		.thumb
 1950              		.thumb_func
 1951              		.type	BME280_GetStandbyTime, %function
 1952              	BME280_GetStandbyTime:
 1953              	.LFB22:
 391:rhea\drivers\BME280/BME280.c **** }
 392:rhea\drivers\BME280/BME280.c **** 
 393:rhea\drivers\BME280/BME280.c **** uint8_t BME280_GetStandbyTime(void) {
 1954              		.loc 1 393 0
 1955              		.cfi_startproc
 1956              		@ args = 0, pretend = 0, frame = 0
 1957              		@ frame_needed = 0, uses_anonymous_args = 0
 1958              		@ link register save eliminated.
 394:rhea\drivers\BME280/BME280.c **** 
 395:rhea\drivers\BME280/BME280.c ****     // Reading T_SB bits of CONFIG register
 396:rhea\drivers\BME280/BME280.c ****     return BME280_RegistersLocal.CONFIG & BME280_CONFIG_T_SB;
 1959              		.loc 1 396 0
 1960 0000 024B     		ldr	r3, .L128
 1961 0002 D87E     		ldrb	r0, [r3, #27]	@ zero_extendqisi2
 397:rhea\drivers\BME280/BME280.c **** }
 1962              		.loc 1 397 0
 1963 0004 00F0E000 		and	r0, r0, #224
 1964 0008 7047     		bx	lr
 1965              	.L129:
 1966 000a 00BF     		.align	2
 1967              	.L128:
 1968 000c 00000000 		.word	.LANCHOR0
 1969              		.cfi_endproc
 1970              	.LFE22:
 1971              		.size	BME280_GetStandbyTime, .-BME280_GetStandbyTime
 1972              		.section	.text.BME280_SetStandbyTime,"ax",%progbits
 1973              		.align	2
 1974              		.global	BME280_SetStandbyTime
 1975              		.thumb
 1976              		.thumb_func
 1977              		.type	BME280_SetStandbyTime, %function
 1978              	BME280_SetStandbyTime:
 1979              	.LFB23:
 398:rhea\drivers\BME280/BME280.c **** 
 399:rhea\drivers\BME280/BME280.c **** void BME280_SetStandbyTime(uint8_t standby) {
 1980              		.loc 1 399 0
 1981              		.cfi_startproc
 1982              		@ args = 0, pretend = 0, frame = 0
 1983              		@ frame_needed = 0, uses_anonymous_args = 0
ARM GAS  C:\Users\GYULAI~1\AppData\Local\Temp\cclBQTHO.s 			page 44


 1984              	.LVL260:
 1985 0000 08B5     		push	{r3, lr}
 1986              		.cfi_def_cfa_offset 8
 1987              		.cfi_offset 3, -8
 1988              		.cfi_offset 14, -4
 400:rhea\drivers\BME280/BME280.c **** 
 401:rhea\drivers\BME280/BME280.c ****     // Writing T_SB bits of CONFIG register
 402:rhea\drivers\BME280/BME280.c ****     BME280_RegistersLocal.CONFIG &= ~BME280_CONFIG_T_SB;
 1989              		.loc 1 402 0
 1990 0002 064A     		ldr	r2, .L132
 1991 0004 D37E     		ldrb	r3, [r2, #27]	@ zero_extendqisi2
 1992 0006 03F01F03 		and	r3, r3, #31
 403:rhea\drivers\BME280/BME280.c ****     BME280_RegistersLocal.CONFIG |= standby;
 1993              		.loc 1 403 0
 1994 000a 1843     		orrs	r0, r0, r3
 1995              	.LVL261:
 1996 000c 02F81B0F 		strb	r0, [r2, #27]!
 404:rhea\drivers\BME280/BME280.c ****     
 405:rhea\drivers\BME280/BME280.c ****     // Writing changes to the device
 406:rhea\drivers\BME280/BME280.c ****     BME280_I2CWriter(BME280_I2C_ADDR, BME280_CONFIG, &BME280_RegistersLocal.CONFIG, 1);
 1997              		.loc 1 406 0
 1998 0010 0123     		movs	r3, #1
 1999 0012 F521     		movs	r1, #245
 2000 0014 7620     		movs	r0, #118
 2001 0016 FFF7FEFF 		bl	BME280_I2CWriter
 2002              	.LVL262:
 2003 001a 08BD     		pop	{r3, pc}
 2004              	.L133:
 2005              		.align	2
 2006              	.L132:
 2007 001c 00000000 		.word	.LANCHOR0
 2008              		.cfi_endproc
 2009              	.LFE23:
 2010              		.size	BME280_SetStandbyTime, .-BME280_SetStandbyTime
 2011              		.section	.text.BME280_GetFilterMode,"ax",%progbits
 2012              		.align	2
 2013              		.global	BME280_GetFilterMode
 2014              		.thumb
 2015              		.thumb_func
 2016              		.type	BME280_GetFilterMode, %function
 2017              	BME280_GetFilterMode:
 2018              	.LFB24:
 407:rhea\drivers\BME280/BME280.c **** }
 408:rhea\drivers\BME280/BME280.c **** 
 409:rhea\drivers\BME280/BME280.c **** uint8_t BME280_GetFilterMode(void) {
 2019              		.loc 1 409 0
 2020              		.cfi_startproc
 2021              		@ args = 0, pretend = 0, frame = 0
 2022              		@ frame_needed = 0, uses_anonymous_args = 0
 2023              		@ link register save eliminated.
 410:rhea\drivers\BME280/BME280.c **** 
 411:rhea\drivers\BME280/BME280.c ****     // Reading FILTER bits of CONFIG register
 412:rhea\drivers\BME280/BME280.c ****     return BME280_RegistersLocal.CONFIG & BME280_CONFIG_FILTER;
 2024              		.loc 1 412 0
 2025 0000 024B     		ldr	r3, .L135
 2026 0002 D87E     		ldrb	r0, [r3, #27]	@ zero_extendqisi2
 413:rhea\drivers\BME280/BME280.c **** }
ARM GAS  C:\Users\GYULAI~1\AppData\Local\Temp\cclBQTHO.s 			page 45


 2027              		.loc 1 413 0
 2028 0004 00F01C00 		and	r0, r0, #28
 2029 0008 7047     		bx	lr
 2030              	.L136:
 2031 000a 00BF     		.align	2
 2032              	.L135:
 2033 000c 00000000 		.word	.LANCHOR0
 2034              		.cfi_endproc
 2035              	.LFE24:
 2036              		.size	BME280_GetFilterMode, .-BME280_GetFilterMode
 2037              		.section	.text.BME280_SetFilterMode,"ax",%progbits
 2038              		.align	2
 2039              		.global	BME280_SetFilterMode
 2040              		.thumb
 2041              		.thumb_func
 2042              		.type	BME280_SetFilterMode, %function
 2043              	BME280_SetFilterMode:
 2044              	.LFB25:
 414:rhea\drivers\BME280/BME280.c **** 
 415:rhea\drivers\BME280/BME280.c **** void BME280_SetFilterMode(uint8_t mode) {
 2045              		.loc 1 415 0
 2046              		.cfi_startproc
 2047              		@ args = 0, pretend = 0, frame = 0
 2048              		@ frame_needed = 0, uses_anonymous_args = 0
 2049              	.LVL263:
 2050 0000 08B5     		push	{r3, lr}
 2051              		.cfi_def_cfa_offset 8
 2052              		.cfi_offset 3, -8
 2053              		.cfi_offset 14, -4
 416:rhea\drivers\BME280/BME280.c **** 
 417:rhea\drivers\BME280/BME280.c ****     // Writing FILTER bits of CONFIG register
 418:rhea\drivers\BME280/BME280.c ****     BME280_RegistersLocal.CONFIG &= ~BME280_CONFIG_FILTER;
 2054              		.loc 1 418 0
 2055 0002 064A     		ldr	r2, .L139
 2056 0004 D37E     		ldrb	r3, [r2, #27]	@ zero_extendqisi2
 2057 0006 03F0E303 		and	r3, r3, #227
 419:rhea\drivers\BME280/BME280.c ****     BME280_RegistersLocal.CONFIG |= mode;
 2058              		.loc 1 419 0
 2059 000a 1843     		orrs	r0, r0, r3
 2060              	.LVL264:
 2061 000c 02F81B0F 		strb	r0, [r2, #27]!
 420:rhea\drivers\BME280/BME280.c ****     
 421:rhea\drivers\BME280/BME280.c ****     // Writing changes to the device
 422:rhea\drivers\BME280/BME280.c ****     BME280_I2CWriter(BME280_I2C_ADDR, BME280_CONFIG, &BME280_RegistersLocal.CONFIG, 1);
 2062              		.loc 1 422 0
 2063 0010 0123     		movs	r3, #1
 2064 0012 F521     		movs	r1, #245
 2065 0014 7620     		movs	r0, #118
 2066 0016 FFF7FEFF 		bl	BME280_I2CWriter
 2067              	.LVL265:
 2068 001a 08BD     		pop	{r3, pc}
 2069              	.L140:
 2070              		.align	2
 2071              	.L139:
 2072 001c 00000000 		.word	.LANCHOR0
 2073              		.cfi_endproc
 2074              	.LFE25:
ARM GAS  C:\Users\GYULAI~1\AppData\Local\Temp\cclBQTHO.s 			page 46


 2075              		.size	BME280_SetFilterMode, .-BME280_SetFilterMode
 2076              		.section	.text.BME280_EnableSPI3Wire,"ax",%progbits
 2077              		.align	2
 2078              		.global	BME280_EnableSPI3Wire
 2079              		.thumb
 2080              		.thumb_func
 2081              		.type	BME280_EnableSPI3Wire, %function
 2082              	BME280_EnableSPI3Wire:
 2083              	.LFB26:
 423:rhea\drivers\BME280/BME280.c **** }
 424:rhea\drivers\BME280/BME280.c **** 
 425:rhea\drivers\BME280/BME280.c **** void BME280_EnableSPI3Wire(void) {
 2084              		.loc 1 425 0
 2085              		.cfi_startproc
 2086              		@ args = 0, pretend = 0, frame = 0
 2087              		@ frame_needed = 0, uses_anonymous_args = 0
 2088 0000 08B5     		push	{r3, lr}
 2089              		.cfi_def_cfa_offset 8
 2090              		.cfi_offset 3, -8
 2091              		.cfi_offset 14, -4
 426:rhea\drivers\BME280/BME280.c **** 
 427:rhea\drivers\BME280/BME280.c ****     // Setting SPI3W_EN bit of CONFIG register
 428:rhea\drivers\BME280/BME280.c ****     BME280_RegistersLocal.CONFIG |= BME280_CONFIG_SPI3W_EN;
 2092              		.loc 1 428 0
 2093 0002 064A     		ldr	r2, .L143
 2094 0004 D37E     		ldrb	r3, [r2, #27]	@ zero_extendqisi2
 2095 0006 43F00103 		orr	r3, r3, #1
 2096 000a 02F81B3F 		strb	r3, [r2, #27]!
 429:rhea\drivers\BME280/BME280.c ****     
 430:rhea\drivers\BME280/BME280.c ****     // Writing changes to the device
 431:rhea\drivers\BME280/BME280.c ****     BME280_I2CWriter(BME280_I2C_ADDR, BME280_CONFIG, &BME280_RegistersLocal.CONFIG, 1);
 2097              		.loc 1 431 0
 2098 000e 0123     		movs	r3, #1
 2099 0010 F521     		movs	r1, #245
 2100 0012 7620     		movs	r0, #118
 2101 0014 FFF7FEFF 		bl	BME280_I2CWriter
 2102              	.LVL266:
 2103 0018 08BD     		pop	{r3, pc}
 2104              	.L144:
 2105 001a 00BF     		.align	2
 2106              	.L143:
 2107 001c 00000000 		.word	.LANCHOR0
 2108              		.cfi_endproc
 2109              	.LFE26:
 2110              		.size	BME280_EnableSPI3Wire, .-BME280_EnableSPI3Wire
 2111              		.section	.text.BME280_DisableSPI3Wire,"ax",%progbits
 2112              		.align	2
 2113              		.global	BME280_DisableSPI3Wire
 2114              		.thumb
 2115              		.thumb_func
 2116              		.type	BME280_DisableSPI3Wire, %function
 2117              	BME280_DisableSPI3Wire:
 2118              	.LFB27:
 432:rhea\drivers\BME280/BME280.c **** }
 433:rhea\drivers\BME280/BME280.c **** 
 434:rhea\drivers\BME280/BME280.c **** void BME280_DisableSPI3Wire(void) {
 2119              		.loc 1 434 0
ARM GAS  C:\Users\GYULAI~1\AppData\Local\Temp\cclBQTHO.s 			page 47


 2120              		.cfi_startproc
 2121              		@ args = 0, pretend = 0, frame = 0
 2122              		@ frame_needed = 0, uses_anonymous_args = 0
 2123 0000 08B5     		push	{r3, lr}
 2124              		.cfi_def_cfa_offset 8
 2125              		.cfi_offset 3, -8
 2126              		.cfi_offset 14, -4
 435:rhea\drivers\BME280/BME280.c **** 
 436:rhea\drivers\BME280/BME280.c ****     // Clearing SPI3W_EN bit of CONFIG register
 437:rhea\drivers\BME280/BME280.c ****     BME280_RegistersLocal.CONFIG &= ~BME280_CONFIG_SPI3W_EN;
 2127              		.loc 1 437 0
 2128 0002 064A     		ldr	r2, .L147
 2129 0004 D37E     		ldrb	r3, [r2, #27]	@ zero_extendqisi2
 2130 0006 23F00103 		bic	r3, r3, #1
 2131 000a 02F81B3F 		strb	r3, [r2, #27]!
 438:rhea\drivers\BME280/BME280.c ****     
 439:rhea\drivers\BME280/BME280.c ****     // Writing changes to the device
 440:rhea\drivers\BME280/BME280.c ****     BME280_I2CWriter(BME280_I2C_ADDR, BME280_CONFIG, &BME280_RegistersLocal.CONFIG, 1);
 2132              		.loc 1 440 0
 2133 000e 0123     		movs	r3, #1
 2134 0010 F521     		movs	r1, #245
 2135 0012 7620     		movs	r0, #118
 2136 0014 FFF7FEFF 		bl	BME280_I2CWriter
 2137              	.LVL267:
 2138 0018 08BD     		pop	{r3, pc}
 2139              	.L148:
 2140 001a 00BF     		.align	2
 2141              	.L147:
 2142 001c 00000000 		.word	.LANCHOR0
 2143              		.cfi_endproc
 2144              	.LFE27:
 2145              		.size	BME280_DisableSPI3Wire, .-BME280_DisableSPI3Wire
 2146              		.section	.text.BME280_IsSPI3WireEnabled,"ax",%progbits
 2147              		.align	2
 2148              		.global	BME280_IsSPI3WireEnabled
 2149              		.thumb
 2150              		.thumb_func
 2151              		.type	BME280_IsSPI3WireEnabled, %function
 2152              	BME280_IsSPI3WireEnabled:
 2153              	.LFB28:
 441:rhea\drivers\BME280/BME280.c **** }
 442:rhea\drivers\BME280/BME280.c **** 
 443:rhea\drivers\BME280/BME280.c **** uint8_t BME280_IsSPI3WireEnabled() {
 2154              		.loc 1 443 0
 2155              		.cfi_startproc
 2156              		@ args = 0, pretend = 0, frame = 0
 2157              		@ frame_needed = 0, uses_anonymous_args = 0
 2158              		@ link register save eliminated.
 444:rhea\drivers\BME280/BME280.c **** 
 445:rhea\drivers\BME280/BME280.c ****     // Reading SPI3W_EN bit of CONFIG register
 446:rhea\drivers\BME280/BME280.c ****     return BME280_RegistersLocal.CONFIG & BME280_CONFIG_SPI3W_EN;
 2159              		.loc 1 446 0
 2160 0000 024B     		ldr	r3, .L150
 2161 0002 D87E     		ldrb	r0, [r3, #27]	@ zero_extendqisi2
 447:rhea\drivers\BME280/BME280.c **** }
 2162              		.loc 1 447 0
 2163 0004 00F00100 		and	r0, r0, #1
ARM GAS  C:\Users\GYULAI~1\AppData\Local\Temp\cclBQTHO.s 			page 48


 2164 0008 7047     		bx	lr
 2165              	.L151:
 2166 000a 00BF     		.align	2
 2167              	.L150:
 2168 000c 00000000 		.word	.LANCHOR0
 2169              		.cfi_endproc
 2170              	.LFE28:
 2171              		.size	BME280_IsSPI3WireEnabled, .-BME280_IsSPI3WireEnabled
 2172              		.bss
 2173              		.align	2
 2174              		.set	.LANCHOR0,. + 0
 2175              		.type	BME280_I2CController, %object
 2176              		.size	BME280_I2CController, 16
 2177              	BME280_I2CController:
 2178 0000 00000000 		.space	16
 2178      00000000 
 2178      00000000 
 2178      00000000 
 2179              		.type	BME280_RegistersLocal, %object
 2180              		.size	BME280_RegistersLocal, 49
 2181              	BME280_RegistersLocal:
 2182 0010 00000000 		.space	49
 2182      00000000 
 2182      00000000 
 2182      00000000 
 2182      00000000 
 2183              		.text
 2184              	.Letext0:
 2185              		.file 2 "e:\\cypress\\psoc creator\\4.2\\psoc creator\\import\\gnu\\arm\\5.4.1\\arm-none-eabi\\inc
 2186              		.file 3 "e:\\cypress\\psoc creator\\4.2\\psoc creator\\import\\gnu\\arm\\5.4.1\\arm-none-eabi\\inc
 2187              		.file 4 "rhea\\drivers\\BME280\\BME280.h"
 2188              		.section	.debug_info,"",%progbits
 2189              	.Ldebug_info0:
 2190 0000 870C0000 		.4byte	0xc87
 2191 0004 0400     		.2byte	0x4
 2192 0006 00000000 		.4byte	.Ldebug_abbrev0
 2193 000a 04       		.byte	0x4
 2194 000b 01       		.uleb128 0x1
 2195 000c 1B060000 		.4byte	.LASF123
 2196 0010 0C       		.byte	0xc
 2197 0011 E4030000 		.4byte	.LASF124
 2198 0015 33020000 		.4byte	.LASF125
 2199 0019 00000000 		.4byte	.Ldebug_ranges0+0
 2200 001d 00000000 		.4byte	0
 2201 0021 00000000 		.4byte	.Ldebug_line0
 2202 0025 02       		.uleb128 0x2
 2203 0026 2E040000 		.4byte	.LASF0
 2204 002a 02       		.byte	0x2
 2205 002b 1B       		.byte	0x1b
 2206 002c 30000000 		.4byte	0x30
 2207 0030 03       		.uleb128 0x3
 2208 0031 01       		.byte	0x1
 2209 0032 06       		.byte	0x6
 2210 0033 6B030000 		.4byte	.LASF2
 2211 0037 02       		.uleb128 0x2
 2212 0038 AF020000 		.4byte	.LASF1
 2213 003c 02       		.byte	0x2
ARM GAS  C:\Users\GYULAI~1\AppData\Local\Temp\cclBQTHO.s 			page 49


 2214 003d 1D       		.byte	0x1d
 2215 003e 42000000 		.4byte	0x42
 2216 0042 03       		.uleb128 0x3
 2217 0043 01       		.byte	0x1
 2218 0044 08       		.byte	0x8
 2219 0045 39030000 		.4byte	.LASF3
 2220 0049 02       		.uleb128 0x2
 2221 004a 5C050000 		.4byte	.LASF4
 2222 004e 02       		.byte	0x2
 2223 004f 29       		.byte	0x29
 2224 0050 54000000 		.4byte	0x54
 2225 0054 03       		.uleb128 0x3
 2226 0055 02       		.byte	0x2
 2227 0056 05       		.byte	0x5
 2228 0057 5F000000 		.4byte	.LASF5
 2229 005b 02       		.uleb128 0x2
 2230 005c FC000000 		.4byte	.LASF6
 2231 0060 02       		.byte	0x2
 2232 0061 2B       		.byte	0x2b
 2233 0062 66000000 		.4byte	0x66
 2234 0066 03       		.uleb128 0x3
 2235 0067 02       		.byte	0x2
 2236 0068 07       		.byte	0x7
 2237 0069 1B040000 		.4byte	.LASF7
 2238 006d 02       		.uleb128 0x2
 2239 006e 38050000 		.4byte	.LASF8
 2240 0072 02       		.byte	0x2
 2241 0073 3F       		.byte	0x3f
 2242 0074 78000000 		.4byte	0x78
 2243 0078 03       		.uleb128 0x3
 2244 0079 04       		.byte	0x4
 2245 007a 05       		.byte	0x5
 2246 007b 7F020000 		.4byte	.LASF9
 2247 007f 02       		.uleb128 0x2
 2248 0080 DD000000 		.4byte	.LASF10
 2249 0084 02       		.byte	0x2
 2250 0085 41       		.byte	0x41
 2251 0086 8A000000 		.4byte	0x8a
 2252 008a 03       		.uleb128 0x3
 2253 008b 04       		.byte	0x4
 2254 008c 07       		.byte	0x7
 2255 008d E1040000 		.4byte	.LASF11
 2256 0091 03       		.uleb128 0x3
 2257 0092 08       		.byte	0x8
 2258 0093 05       		.byte	0x5
 2259 0094 02020000 		.4byte	.LASF12
 2260 0098 03       		.uleb128 0x3
 2261 0099 08       		.byte	0x8
 2262 009a 07       		.byte	0x7
 2263 009b 77030000 		.4byte	.LASF13
 2264 009f 04       		.uleb128 0x4
 2265 00a0 04       		.byte	0x4
 2266 00a1 05       		.byte	0x5
 2267 00a2 696E7400 		.ascii	"int\000"
 2268 00a6 03       		.uleb128 0x3
 2269 00a7 04       		.byte	0x4
 2270 00a8 07       		.byte	0x7
ARM GAS  C:\Users\GYULAI~1\AppData\Local\Temp\cclBQTHO.s 			page 50


 2271 00a9 A4030000 		.4byte	.LASF14
 2272 00ad 02       		.uleb128 0x2
 2273 00ae 2A000000 		.4byte	.LASF15
 2274 00b2 03       		.byte	0x3
 2275 00b3 14       		.byte	0x14
 2276 00b4 25000000 		.4byte	0x25
 2277 00b8 02       		.uleb128 0x2
 2278 00b9 5C010000 		.4byte	.LASF16
 2279 00bd 03       		.byte	0x3
 2280 00be 18       		.byte	0x18
 2281 00bf 37000000 		.4byte	0x37
 2282 00c3 02       		.uleb128 0x2
 2283 00c4 7F040000 		.4byte	.LASF17
 2284 00c8 03       		.byte	0x3
 2285 00c9 20       		.byte	0x20
 2286 00ca 49000000 		.4byte	0x49
 2287 00ce 02       		.uleb128 0x2
 2288 00cf B1030000 		.4byte	.LASF18
 2289 00d3 03       		.byte	0x3
 2290 00d4 24       		.byte	0x24
 2291 00d5 5B000000 		.4byte	0x5b
 2292 00d9 02       		.uleb128 0x2
 2293 00da 53040000 		.4byte	.LASF19
 2294 00de 03       		.byte	0x3
 2295 00df 2C       		.byte	0x2c
 2296 00e0 6D000000 		.4byte	0x6d
 2297 00e4 02       		.uleb128 0x2
 2298 00e5 8E030000 		.4byte	.LASF20
 2299 00e9 03       		.byte	0x3
 2300 00ea 30       		.byte	0x30
 2301 00eb 7F000000 		.4byte	0x7f
 2302 00ef 05       		.uleb128 0x5
 2303 00f0 77000000 		.4byte	.LASF25
 2304 00f4 10       		.byte	0x10
 2305 00f5 04       		.byte	0x4
 2306 00f6 39       		.byte	0x39
 2307 00f7 2C010000 		.4byte	0x12c
 2308 00fb 06       		.uleb128 0x6
 2309 00fc 13030000 		.4byte	.LASF21
 2310 0100 04       		.byte	0x4
 2311 0101 40       		.byte	0x40
 2312 0102 3C010000 		.4byte	0x13c
 2313 0106 00       		.byte	0
 2314 0107 06       		.uleb128 0x6
 2315 0108 B9060000 		.4byte	.LASF22
 2316 010c 04       		.byte	0x4
 2317 010d 45       		.byte	0x45
 2318 010e 43010000 		.4byte	0x143
 2319 0112 04       		.byte	0x4
 2320 0113 06       		.uleb128 0x6
 2321 0114 4C050000 		.4byte	.LASF23
 2322 0118 04       		.byte	0x4
 2323 0119 4B       		.byte	0x4b
 2324 011a 54010000 		.4byte	0x154
 2325 011e 08       		.byte	0x8
 2326 011f 06       		.uleb128 0x6
 2327 0120 47030000 		.4byte	.LASF24
ARM GAS  C:\Users\GYULAI~1\AppData\Local\Temp\cclBQTHO.s 			page 51


 2328 0124 04       		.byte	0x4
 2329 0125 52       		.byte	0x52
 2330 0126 69010000 		.4byte	0x169
 2331 012a 0C       		.byte	0xc
 2332 012b 00       		.byte	0
 2333 012c 07       		.uleb128 0x7
 2334 012d 3C010000 		.4byte	0x13c
 2335 0131 08       		.uleb128 0x8
 2336 0132 B8000000 		.4byte	0xb8
 2337 0136 08       		.uleb128 0x8
 2338 0137 B8000000 		.4byte	0xb8
 2339 013b 00       		.byte	0
 2340 013c 09       		.uleb128 0x9
 2341 013d 04       		.byte	0x4
 2342 013e 2C010000 		.4byte	0x12c
 2343 0142 0A       		.uleb128 0xa
 2344 0143 09       		.uleb128 0x9
 2345 0144 04       		.byte	0x4
 2346 0145 42010000 		.4byte	0x142
 2347 0149 07       		.uleb128 0x7
 2348 014a 54010000 		.4byte	0x154
 2349 014e 08       		.uleb128 0x8
 2350 014f B8000000 		.4byte	0xb8
 2351 0153 00       		.byte	0
 2352 0154 09       		.uleb128 0x9
 2353 0155 04       		.byte	0x4
 2354 0156 49010000 		.4byte	0x149
 2355 015a 0B       		.uleb128 0xb
 2356 015b B8000000 		.4byte	0xb8
 2357 015f 69010000 		.4byte	0x169
 2358 0163 08       		.uleb128 0x8
 2359 0164 B8000000 		.4byte	0xb8
 2360 0168 00       		.byte	0
 2361 0169 09       		.uleb128 0x9
 2362 016a 04       		.byte	0x4
 2363 016b 5A010000 		.4byte	0x15a
 2364 016f 02       		.uleb128 0x2
 2365 0170 77000000 		.4byte	.LASF25
 2366 0174 04       		.byte	0x4
 2367 0175 54       		.byte	0x54
 2368 0176 EF000000 		.4byte	0xef
 2369 017a 05       		.uleb128 0x5
 2370 017b 23030000 		.4byte	.LASF26
 2371 017f 31       		.byte	0x31
 2372 0180 04       		.byte	0x4
 2373 0181 6D       		.byte	0x6d
 2374 0182 FB020000 		.4byte	0x2fb
 2375 0186 06       		.uleb128 0x6
 2376 0187 BC010000 		.4byte	.LASF27
 2377 018b 04       		.byte	0x4
 2378 018c 70       		.byte	0x70
 2379 018d B8000000 		.4byte	0xb8
 2380 0191 00       		.byte	0
 2381 0192 06       		.uleb128 0x6
 2382 0193 A5020000 		.4byte	.LASF28
 2383 0197 04       		.byte	0x4
 2384 0198 71       		.byte	0x71
ARM GAS  C:\Users\GYULAI~1\AppData\Local\Temp\cclBQTHO.s 			page 52


 2385 0199 B8000000 		.4byte	0xb8
 2386 019d 01       		.byte	0x1
 2387 019e 06       		.uleb128 0x6
 2388 019f CE040000 		.4byte	.LASF29
 2389 01a3 04       		.byte	0x4
 2390 01a4 72       		.byte	0x72
 2391 01a5 B8000000 		.4byte	0xb8
 2392 01a9 02       		.byte	0x2
 2393 01aa 06       		.uleb128 0x6
 2394 01ab 2A020000 		.4byte	.LASF30
 2395 01af 04       		.byte	0x4
 2396 01b0 73       		.byte	0x73
 2397 01b1 B8000000 		.4byte	0xb8
 2398 01b5 03       		.byte	0x3
 2399 01b6 06       		.uleb128 0x6
 2400 01b7 7A010000 		.4byte	.LASF31
 2401 01bb 04       		.byte	0x4
 2402 01bc 74       		.byte	0x74
 2403 01bd B8000000 		.4byte	0xb8
 2404 01c1 04       		.byte	0x4
 2405 01c2 06       		.uleb128 0x6
 2406 01c3 F8010000 		.4byte	.LASF32
 2407 01c7 04       		.byte	0x4
 2408 01c8 75       		.byte	0x75
 2409 01c9 B8000000 		.4byte	0xb8
 2410 01cd 05       		.byte	0x5
 2411 01ce 06       		.uleb128 0x6
 2412 01cf 87040000 		.4byte	.LASF33
 2413 01d3 04       		.byte	0x4
 2414 01d4 76       		.byte	0x76
 2415 01d5 B8000000 		.4byte	0xb8
 2416 01d9 06       		.byte	0x6
 2417 01da 06       		.uleb128 0x6
 2418 01db D9040000 		.4byte	.LASF34
 2419 01df 04       		.byte	0x4
 2420 01e0 77       		.byte	0x77
 2421 01e1 B8000000 		.4byte	0xb8
 2422 01e5 07       		.byte	0x7
 2423 01e6 06       		.uleb128 0x6
 2424 01e7 4A040000 		.4byte	.LASF35
 2425 01eb 04       		.byte	0x4
 2426 01ec 7B       		.byte	0x7b
 2427 01ed B8000000 		.4byte	0xb8
 2428 01f1 08       		.byte	0x8
 2429 01f2 06       		.uleb128 0x6
 2430 01f3 78020000 		.4byte	.LASF36
 2431 01f7 04       		.byte	0x4
 2432 01f8 7C       		.byte	0x7c
 2433 01f9 B8000000 		.4byte	0xb8
 2434 01fd 09       		.byte	0x9
 2435 01fe 06       		.uleb128 0x6
 2436 01ff CF060000 		.4byte	.LASF37
 2437 0203 04       		.byte	0x4
 2438 0204 7D       		.byte	0x7d
 2439 0205 B8000000 		.4byte	0xb8
 2440 0209 0A       		.byte	0xa
 2441 020a 06       		.uleb128 0x6
ARM GAS  C:\Users\GYULAI~1\AppData\Local\Temp\cclBQTHO.s 			page 53


 2442 020b C8060000 		.4byte	.LASF38
 2443 020f 04       		.byte	0x4
 2444 0210 80       		.byte	0x80
 2445 0211 B8000000 		.4byte	0xb8
 2446 0215 0B       		.byte	0xb
 2447 0216 06       		.uleb128 0x6
 2448 0217 01050000 		.4byte	.LASF39
 2449 021b 04       		.byte	0x4
 2450 021c 86       		.byte	0x86
 2451 021d CE000000 		.4byte	0xce
 2452 0221 0C       		.byte	0xc
 2453 0222 06       		.uleb128 0x6
 2454 0223 08050000 		.4byte	.LASF40
 2455 0227 04       		.byte	0x4
 2456 0228 87       		.byte	0x87
 2457 0229 C3000000 		.4byte	0xc3
 2458 022d 0E       		.byte	0xe
 2459 022e 06       		.uleb128 0x6
 2460 022f 0F050000 		.4byte	.LASF41
 2461 0233 04       		.byte	0x4
 2462 0234 88       		.byte	0x88
 2463 0235 C3000000 		.4byte	0xc3
 2464 0239 10       		.byte	0x10
 2465 023a 06       		.uleb128 0x6
 2466 023b 96040000 		.4byte	.LASF42
 2467 023f 04       		.byte	0x4
 2468 0240 89       		.byte	0x89
 2469 0241 CE000000 		.4byte	0xce
 2470 0245 12       		.byte	0x12
 2471 0246 06       		.uleb128 0x6
 2472 0247 9D040000 		.4byte	.LASF43
 2473 024b 04       		.byte	0x4
 2474 024c 8A       		.byte	0x8a
 2475 024d C3000000 		.4byte	0xc3
 2476 0251 14       		.byte	0x14
 2477 0252 06       		.uleb128 0x6
 2478 0253 A4040000 		.4byte	.LASF44
 2479 0257 04       		.byte	0x4
 2480 0258 8B       		.byte	0x8b
 2481 0259 C3000000 		.4byte	0xc3
 2482 025d 16       		.byte	0x16
 2483 025e 06       		.uleb128 0x6
 2484 025f AB040000 		.4byte	.LASF45
 2485 0263 04       		.byte	0x4
 2486 0264 8C       		.byte	0x8c
 2487 0265 C3000000 		.4byte	0xc3
 2488 0269 18       		.byte	0x18
 2489 026a 06       		.uleb128 0x6
 2490 026b B2040000 		.4byte	.LASF46
 2491 026f 04       		.byte	0x4
 2492 0270 8D       		.byte	0x8d
 2493 0271 C3000000 		.4byte	0xc3
 2494 0275 1A       		.byte	0x1a
 2495 0276 06       		.uleb128 0x6
 2496 0277 B9040000 		.4byte	.LASF47
 2497 027b 04       		.byte	0x4
 2498 027c 8E       		.byte	0x8e
ARM GAS  C:\Users\GYULAI~1\AppData\Local\Temp\cclBQTHO.s 			page 54


 2499 027d C3000000 		.4byte	0xc3
 2500 0281 1C       		.byte	0x1c
 2501 0282 06       		.uleb128 0x6
 2502 0283 C0040000 		.4byte	.LASF48
 2503 0287 04       		.byte	0x4
 2504 0288 8F       		.byte	0x8f
 2505 0289 C3000000 		.4byte	0xc3
 2506 028d 1E       		.byte	0x1e
 2507 028e 06       		.uleb128 0x6
 2508 028f C7040000 		.4byte	.LASF49
 2509 0293 04       		.byte	0x4
 2510 0294 90       		.byte	0x90
 2511 0295 C3000000 		.4byte	0xc3
 2512 0299 20       		.byte	0x20
 2513 029a 06       		.uleb128 0x6
 2514 029b E4010000 		.4byte	.LASF50
 2515 029f 04       		.byte	0x4
 2516 02a0 91       		.byte	0x91
 2517 02a1 C3000000 		.4byte	0xc3
 2518 02a5 22       		.byte	0x22
 2519 02a6 06       		.uleb128 0x6
 2520 02a7 BA030000 		.4byte	.LASF51
 2521 02ab 04       		.byte	0x4
 2522 02ac 92       		.byte	0x92
 2523 02ad B8000000 		.4byte	0xb8
 2524 02b1 24       		.byte	0x24
 2525 02b2 06       		.uleb128 0x6
 2526 02b3 C1030000 		.4byte	.LASF52
 2527 02b7 04       		.byte	0x4
 2528 02b8 93       		.byte	0x93
 2529 02b9 C3000000 		.4byte	0xc3
 2530 02bd 25       		.byte	0x25
 2531 02be 06       		.uleb128 0x6
 2532 02bf C8030000 		.4byte	.LASF53
 2533 02c3 04       		.byte	0x4
 2534 02c4 94       		.byte	0x94
 2535 02c5 B8000000 		.4byte	0xb8
 2536 02c9 27       		.byte	0x27
 2537 02ca 06       		.uleb128 0x6
 2538 02cb CF030000 		.4byte	.LASF54
 2539 02cf 04       		.byte	0x4
 2540 02d0 95       		.byte	0x95
 2541 02d1 C3000000 		.4byte	0xc3
 2542 02d5 28       		.byte	0x28
 2543 02d6 06       		.uleb128 0x6
 2544 02d7 D6030000 		.4byte	.LASF55
 2545 02db 04       		.byte	0x4
 2546 02dc 96       		.byte	0x96
 2547 02dd C3000000 		.4byte	0xc3
 2548 02e1 2A       		.byte	0x2a
 2549 02e2 06       		.uleb128 0x6
 2550 02e3 DD030000 		.4byte	.LASF56
 2551 02e7 04       		.byte	0x4
 2552 02e8 97       		.byte	0x97
 2553 02e9 AD000000 		.4byte	0xad
 2554 02ed 2C       		.byte	0x2c
 2555 02ee 06       		.uleb128 0x6
ARM GAS  C:\Users\GYULAI~1\AppData\Local\Temp\cclBQTHO.s 			page 55


 2556 02ef 9E020000 		.4byte	.LASF57
 2557 02f3 04       		.byte	0x4
 2558 02f4 98       		.byte	0x98
 2559 02f5 D9000000 		.4byte	0xd9
 2560 02f9 2D       		.byte	0x2d
 2561 02fa 00       		.byte	0
 2562 02fb 02       		.uleb128 0x2
 2563 02fc 23030000 		.4byte	.LASF26
 2564 0300 04       		.byte	0x4
 2565 0301 9D       		.byte	0x9d
 2566 0302 7A010000 		.4byte	0x17a
 2567 0306 0C       		.uleb128 0xc
 2568 0307 60020000 		.4byte	.LASF58
 2569 030b 01       		.byte	0x1
 2570 030c 2F       		.byte	0x2f
 2571 030d 00000000 		.4byte	.LFB0
 2572 0311 1C000000 		.4byte	.LFE0-.LFB0
 2573 0315 01       		.uleb128 0x1
 2574 0316 9C       		.byte	0x9c
 2575 0317 2A030000 		.4byte	0x32a
 2576 031b 0D       		.uleb128 0xd
 2577 031c B1010000 		.4byte	.LASF60
 2578 0320 01       		.byte	0x1
 2579 0321 2F       		.byte	0x2f
 2580 0322 6F010000 		.4byte	0x16f
 2581 0326 02       		.uleb128 0x2
 2582 0327 91       		.byte	0x91
 2583 0328 68       		.sleb128 -24
 2584 0329 00       		.byte	0
 2585 032a 0E       		.uleb128 0xe
 2586 032b 0A060000 		.4byte	.LASF59
 2587 032f 01       		.byte	0x1
 2588 0330 33       		.byte	0x33
 2589 0331 00000000 		.4byte	.LFB1
 2590 0335 50000000 		.4byte	.LFE1-.LFB1
 2591 0339 01       		.uleb128 0x1
 2592 033a 9C       		.byte	0x9c
 2593 033b EF030000 		.4byte	0x3ef
 2594 033f 0F       		.uleb128 0xf
 2595 0340 96020000 		.4byte	.LASF61
 2596 0344 01       		.byte	0x1
 2597 0345 33       		.byte	0x33
 2598 0346 B8000000 		.4byte	0xb8
 2599 034a 00000000 		.4byte	.LLST0
 2600 034e 0F       		.uleb128 0xf
 2601 034f F3040000 		.4byte	.LASF62
 2602 0353 01       		.byte	0x1
 2603 0354 33       		.byte	0x33
 2604 0355 B8000000 		.4byte	0xb8
 2605 0359 21000000 		.4byte	.LLST1
 2606 035d 0F       		.uleb128 0xf
 2607 035e 8F040000 		.4byte	.LASF63
 2608 0362 01       		.byte	0x1
 2609 0363 33       		.byte	0x33
 2610 0364 EF030000 		.4byte	0x3ef
 2611 0368 42000000 		.4byte	.LLST2
 2612 036c 0F       		.uleb128 0xf
ARM GAS  C:\Users\GYULAI~1\AppData\Local\Temp\cclBQTHO.s 			page 56


 2613 036d 88050000 		.4byte	.LASF64
 2614 0371 01       		.byte	0x1
 2615 0372 33       		.byte	0x33
 2616 0373 B8000000 		.4byte	0xb8
 2617 0377 6E000000 		.4byte	.LLST3
 2618 037b 10       		.uleb128 0x10
 2619 037c 22000000 		.4byte	.LBB2
 2620 0380 1E000000 		.4byte	.LBE2-.LBB2
 2621 0384 B8030000 		.4byte	0x3b8
 2622 0388 11       		.uleb128 0x11
 2623 0389 6900     		.ascii	"i\000"
 2624 038b 01       		.byte	0x1
 2625 038c 3F       		.byte	0x3f
 2626 038d B8000000 		.4byte	0xb8
 2627 0391 8F000000 		.4byte	.LLST4
 2628 0395 12       		.uleb128 0x12
 2629 0396 36000000 		.4byte	.LVL7
 2630 039a 13       		.uleb128 0x13
 2631 039b 01       		.uleb128 0x1
 2632 039c 50       		.byte	0x50
 2633 039d 18       		.uleb128 0x18
 2634 039e 31       		.byte	0x31
 2635 039f 30       		.byte	0x30
 2636 03a0 75       		.byte	0x75
 2637 03a1 7F       		.sleb128 -1
 2638 03a2 74       		.byte	0x74
 2639 03a3 00       		.sleb128 0
 2640 03a4 75       		.byte	0x75
 2641 03a5 7F       		.sleb128 -1
 2642 03a6 2A       		.byte	0x2a
 2643 03a7 28       		.byte	0x28
 2644 03a8 0100     		.2byte	0x1
 2645 03aa 16       		.byte	0x16
 2646 03ab 13       		.byte	0x13
 2647 03ac 74       		.byte	0x74
 2648 03ad 00       		.sleb128 0
 2649 03ae 75       		.byte	0x75
 2650 03af 7F       		.sleb128 -1
 2651 03b0 2D       		.byte	0x2d
 2652 03b1 28       		.byte	0x28
 2653 03b2 0100     		.2byte	0x1
 2654 03b4 16       		.byte	0x16
 2655 03b5 13       		.byte	0x13
 2656 03b6 00       		.byte	0
 2657 03b7 00       		.byte	0
 2658 03b8 14       		.uleb128 0x14
 2659 03b9 14000000 		.4byte	.LVL3
 2660 03bd CD030000 		.4byte	0x3cd
 2661 03c1 13       		.uleb128 0x13
 2662 03c2 01       		.uleb128 0x1
 2663 03c3 50       		.byte	0x50
 2664 03c4 02       		.uleb128 0x2
 2665 03c5 77       		.byte	0x77
 2666 03c6 00       		.sleb128 0
 2667 03c7 13       		.uleb128 0x13
 2668 03c8 01       		.uleb128 0x1
 2669 03c9 51       		.byte	0x51
ARM GAS  C:\Users\GYULAI~1\AppData\Local\Temp\cclBQTHO.s 			page 57


 2670 03ca 01       		.uleb128 0x1
 2671 03cb 30       		.byte	0x30
 2672 03cc 00       		.byte	0
 2673 03cd 14       		.uleb128 0x14
 2674 03ce 1A000000 		.4byte	.LVL4
 2675 03d2 DD030000 		.4byte	0x3dd
 2676 03d6 13       		.uleb128 0x13
 2677 03d7 01       		.uleb128 0x1
 2678 03d8 50       		.byte	0x50
 2679 03d9 02       		.uleb128 0x2
 2680 03da 78       		.byte	0x78
 2681 03db 00       		.sleb128 0
 2682 03dc 00       		.byte	0
 2683 03dd 12       		.uleb128 0x12
 2684 03de 22000000 		.4byte	.LVL5
 2685 03e2 13       		.uleb128 0x13
 2686 03e3 01       		.uleb128 0x1
 2687 03e4 50       		.byte	0x50
 2688 03e5 02       		.uleb128 0x2
 2689 03e6 77       		.byte	0x77
 2690 03e7 00       		.sleb128 0
 2691 03e8 13       		.uleb128 0x13
 2692 03e9 01       		.uleb128 0x1
 2693 03ea 51       		.byte	0x51
 2694 03eb 01       		.uleb128 0x1
 2695 03ec 31       		.byte	0x31
 2696 03ed 00       		.byte	0
 2697 03ee 00       		.byte	0
 2698 03ef 09       		.uleb128 0x9
 2699 03f0 04       		.byte	0x4
 2700 03f1 42000000 		.4byte	0x42
 2701 03f5 0E       		.uleb128 0xe
 2702 03f6 5B040000 		.4byte	.LASF65
 2703 03fa 01       		.byte	0x1
 2704 03fb 47       		.byte	0x47
 2705 03fc 00000000 		.4byte	.LFB2
 2706 0400 44000000 		.4byte	.LFE2-.LFB2
 2707 0404 01       		.uleb128 0x1
 2708 0405 9C       		.byte	0x9c
 2709 0406 79040000 		.4byte	0x479
 2710 040a 0F       		.uleb128 0xf
 2711 040b 96020000 		.4byte	.LASF61
 2712 040f 01       		.byte	0x1
 2713 0410 47       		.byte	0x47
 2714 0411 B8000000 		.4byte	0xb8
 2715 0415 B9000000 		.4byte	.LLST5
 2716 0419 0F       		.uleb128 0xf
 2717 041a F3040000 		.4byte	.LASF62
 2718 041e 01       		.byte	0x1
 2719 041f 47       		.byte	0x47
 2720 0420 B8000000 		.4byte	0xb8
 2721 0424 DA000000 		.4byte	.LLST6
 2722 0428 0F       		.uleb128 0xf
 2723 0429 8F040000 		.4byte	.LASF63
 2724 042d 01       		.byte	0x1
 2725 042e 47       		.byte	0x47
 2726 042f 79040000 		.4byte	0x479
ARM GAS  C:\Users\GYULAI~1\AppData\Local\Temp\cclBQTHO.s 			page 58


 2727 0433 1C010000 		.4byte	.LLST7
 2728 0437 0F       		.uleb128 0xf
 2729 0438 88050000 		.4byte	.LASF64
 2730 043c 01       		.byte	0x1
 2731 043d 47       		.byte	0x47
 2732 043e B8000000 		.4byte	0xb8
 2733 0442 48010000 		.4byte	.LLST8
 2734 0446 10       		.uleb128 0x10
 2735 0447 12000000 		.4byte	.LBB3
 2736 044b 22000000 		.4byte	.LBE3-.LBB3
 2737 044f 6D040000 		.4byte	0x46d
 2738 0453 11       		.uleb128 0x11
 2739 0454 6900     		.ascii	"i\000"
 2740 0456 01       		.byte	0x1
 2741 0457 4D       		.byte	0x4d
 2742 0458 B8000000 		.4byte	0xb8
 2743 045c 69010000 		.4byte	.LLST9
 2744 0460 12       		.uleb128 0x12
 2745 0461 22000000 		.4byte	.LVL18
 2746 0465 13       		.uleb128 0x13
 2747 0466 01       		.uleb128 0x1
 2748 0467 50       		.byte	0x50
 2749 0468 02       		.uleb128 0x2
 2750 0469 75       		.byte	0x75
 2751 046a 00       		.sleb128 0
 2752 046b 00       		.byte	0
 2753 046c 00       		.byte	0
 2754 046d 12       		.uleb128 0x12
 2755 046e 12000000 		.4byte	.LVL15
 2756 0472 13       		.uleb128 0x13
 2757 0473 01       		.uleb128 0x1
 2758 0474 51       		.byte	0x51
 2759 0475 01       		.uleb128 0x1
 2760 0476 30       		.byte	0x30
 2761 0477 00       		.byte	0
 2762 0478 00       		.byte	0
 2763 0479 09       		.uleb128 0x9
 2764 047a 04       		.byte	0x4
 2765 047b 7F040000 		.4byte	0x47f
 2766 047f 15       		.uleb128 0x15
 2767 0480 42000000 		.4byte	0x42
 2768 0484 0C       		.uleb128 0xc
 2769 0485 EB010000 		.4byte	.LASF66
 2770 0489 01       		.byte	0x1
 2771 048a 83       		.byte	0x83
 2772 048b 00000000 		.4byte	.LFB4
 2773 048f 1C000000 		.4byte	.LFE4-.LFB4
 2774 0493 01       		.uleb128 0x1
 2775 0494 9C       		.byte	0x9c
 2776 0495 C9040000 		.4byte	0x4c9
 2777 0499 16       		.uleb128 0x16
 2778 049a 42050000 		.4byte	.LASF67
 2779 049e 01       		.byte	0x1
 2780 049f 86       		.byte	0x86
 2781 04a0 C9040000 		.4byte	0x4c9
 2782 04a4 02       		.uleb128 0x2
 2783 04a5 91       		.byte	0x91
ARM GAS  C:\Users\GYULAI~1\AppData\Local\Temp\cclBQTHO.s 			page 59


 2784 04a6 77       		.sleb128 -9
 2785 04a7 17       		.uleb128 0x17
 2786 04a8 16000000 		.4byte	.LVL25
 2787 04ac F5030000 		.4byte	0x3f5
 2788 04b0 13       		.uleb128 0x13
 2789 04b1 01       		.uleb128 0x1
 2790 04b2 50       		.byte	0x50
 2791 04b3 02       		.uleb128 0x2
 2792 04b4 08       		.byte	0x8
 2793 04b5 76       		.byte	0x76
 2794 04b6 13       		.uleb128 0x13
 2795 04b7 01       		.uleb128 0x1
 2796 04b8 51       		.byte	0x51
 2797 04b9 02       		.uleb128 0x2
 2798 04ba 09       		.byte	0x9
 2799 04bb E0       		.byte	0xe0
 2800 04bc 13       		.uleb128 0x13
 2801 04bd 01       		.uleb128 0x1
 2802 04be 52       		.byte	0x52
 2803 04bf 02       		.uleb128 0x2
 2804 04c0 91       		.byte	0x91
 2805 04c1 77       		.sleb128 -9
 2806 04c2 13       		.uleb128 0x13
 2807 04c3 01       		.uleb128 0x1
 2808 04c4 53       		.byte	0x53
 2809 04c5 01       		.uleb128 0x1
 2810 04c6 31       		.byte	0x31
 2811 04c7 00       		.byte	0
 2812 04c8 00       		.byte	0
 2813 04c9 15       		.uleb128 0x15
 2814 04ca B8000000 		.4byte	0xb8
 2815 04ce 0C       		.uleb128 0xc
 2816 04cf D0020000 		.4byte	.LASF68
 2817 04d3 01       		.byte	0x1
 2818 04d4 5A       		.byte	0x5a
 2819 04d5 00000000 		.4byte	.LFB3
 2820 04d9 30010000 		.4byte	.LFE3-.LFB3
 2821 04dd 01       		.uleb128 0x1
 2822 04de 9C       		.byte	0x9c
 2823 04df 85050000 		.4byte	0x585
 2824 04e3 18       		.uleb128 0x18
 2825 04e4 494400   		.ascii	"ID\000"
 2826 04e7 01       		.byte	0x1
 2827 04e8 5D       		.byte	0x5d
 2828 04e9 B8000000 		.4byte	0xb8
 2829 04ed 02       		.uleb128 0x2
 2830 04ee 91       		.byte	0x91
 2831 04ef 77       		.sleb128 -9
 2832 04f0 16       		.uleb128 0x16
 2833 04f1 24070000 		.4byte	.LASF69
 2834 04f5 01       		.byte	0x1
 2835 04f6 62       		.byte	0x62
 2836 04f7 85050000 		.4byte	0x585
 2837 04fb 02       		.uleb128 0x2
 2838 04fc 91       		.byte	0x91
 2839 04fd 5C       		.sleb128 -36
 2840 04fe 16       		.uleb128 0x16
ARM GAS  C:\Users\GYULAI~1\AppData\Local\Temp\cclBQTHO.s 			page 60


 2841 04ff A3010000 		.4byte	.LASF70
 2842 0503 01       		.byte	0x1
 2843 0504 63       		.byte	0x63
 2844 0505 9C050000 		.4byte	0x59c
 2845 0509 02       		.uleb128 0x2
 2846 050a 91       		.byte	0x91
 2847 050b 54       		.sleb128 -44
 2848 050c 19       		.uleb128 0x19
 2849 050d 16000000 		.4byte	.LVL26
 2850 0511 2A030000 		.4byte	0x32a
 2851 0515 31050000 		.4byte	0x531
 2852 0519 13       		.uleb128 0x13
 2853 051a 01       		.uleb128 0x1
 2854 051b 50       		.byte	0x50
 2855 051c 02       		.uleb128 0x2
 2856 051d 08       		.byte	0x8
 2857 051e 76       		.byte	0x76
 2858 051f 13       		.uleb128 0x13
 2859 0520 01       		.uleb128 0x1
 2860 0521 51       		.byte	0x51
 2861 0522 02       		.uleb128 0x2
 2862 0523 09       		.byte	0x9
 2863 0524 D0       		.byte	0xd0
 2864 0525 13       		.uleb128 0x13
 2865 0526 01       		.uleb128 0x1
 2866 0527 52       		.byte	0x52
 2867 0528 02       		.uleb128 0x2
 2868 0529 91       		.byte	0x91
 2869 052a 77       		.sleb128 -9
 2870 052b 13       		.uleb128 0x13
 2871 052c 01       		.uleb128 0x1
 2872 052d 53       		.byte	0x53
 2873 052e 01       		.uleb128 0x1
 2874 052f 31       		.byte	0x31
 2875 0530 00       		.byte	0
 2876 0531 19       		.uleb128 0x19
 2877 0532 22000000 		.4byte	.LVL27
 2878 0536 2A030000 		.4byte	0x32a
 2879 053a 56050000 		.4byte	0x556
 2880 053e 13       		.uleb128 0x13
 2881 053f 01       		.uleb128 0x1
 2882 0540 50       		.byte	0x50
 2883 0541 02       		.uleb128 0x2
 2884 0542 08       		.byte	0x8
 2885 0543 76       		.byte	0x76
 2886 0544 13       		.uleb128 0x13
 2887 0545 01       		.uleb128 0x1
 2888 0546 51       		.byte	0x51
 2889 0547 02       		.uleb128 0x2
 2890 0548 09       		.byte	0x9
 2891 0549 88       		.byte	0x88
 2892 054a 13       		.uleb128 0x13
 2893 054b 01       		.uleb128 0x1
 2894 054c 52       		.byte	0x52
 2895 054d 02       		.uleb128 0x2
 2896 054e 91       		.byte	0x91
 2897 054f 5C       		.sleb128 -36
ARM GAS  C:\Users\GYULAI~1\AppData\Local\Temp\cclBQTHO.s 			page 61


 2898 0550 13       		.uleb128 0x13
 2899 0551 01       		.uleb128 0x1
 2900 0552 53       		.byte	0x53
 2901 0553 01       		.uleb128 0x1
 2902 0554 4A       		.byte	0x4a
 2903 0555 00       		.byte	0
 2904 0556 19       		.uleb128 0x19
 2905 0557 2E000000 		.4byte	.LVL28
 2906 055b 2A030000 		.4byte	0x32a
 2907 055f 7B050000 		.4byte	0x57b
 2908 0563 13       		.uleb128 0x13
 2909 0564 01       		.uleb128 0x1
 2910 0565 50       		.byte	0x50
 2911 0566 02       		.uleb128 0x2
 2912 0567 08       		.byte	0x8
 2913 0568 76       		.byte	0x76
 2914 0569 13       		.uleb128 0x13
 2915 056a 01       		.uleb128 0x1
 2916 056b 51       		.byte	0x51
 2917 056c 02       		.uleb128 0x2
 2918 056d 09       		.byte	0x9
 2919 056e E1       		.byte	0xe1
 2920 056f 13       		.uleb128 0x13
 2921 0570 01       		.uleb128 0x1
 2922 0571 52       		.byte	0x52
 2923 0572 02       		.uleb128 0x2
 2924 0573 91       		.byte	0x91
 2925 0574 54       		.sleb128 -44
 2926 0575 13       		.uleb128 0x13
 2927 0576 01       		.uleb128 0x1
 2928 0577 53       		.byte	0x53
 2929 0578 01       		.uleb128 0x1
 2930 0579 37       		.byte	0x37
 2931 057a 00       		.byte	0
 2932 057b 1A       		.uleb128 0x1a
 2933 057c 24010000 		.4byte	.LVL29
 2934 0580 84040000 		.4byte	0x484
 2935 0584 00       		.byte	0
 2936 0585 1B       		.uleb128 0x1b
 2937 0586 B8000000 		.4byte	0xb8
 2938 058a 95050000 		.4byte	0x595
 2939 058e 1C       		.uleb128 0x1c
 2940 058f 95050000 		.4byte	0x595
 2941 0593 19       		.byte	0x19
 2942 0594 00       		.byte	0
 2943 0595 03       		.uleb128 0x3
 2944 0596 04       		.byte	0x4
 2945 0597 07       		.byte	0x7
 2946 0598 69000000 		.4byte	.LASF71
 2947 059c 1B       		.uleb128 0x1b
 2948 059d B8000000 		.4byte	0xb8
 2949 05a1 AC050000 		.4byte	0x5ac
 2950 05a5 1C       		.uleb128 0x1c
 2951 05a6 95050000 		.4byte	0x595
 2952 05aa 06       		.byte	0x6
 2953 05ab 00       		.byte	0
 2954 05ac 0C       		.uleb128 0xc
ARM GAS  C:\Users\GYULAI~1\AppData\Local\Temp\cclBQTHO.s 			page 62


 2955 05ad 31000000 		.4byte	.LASF72
 2956 05b1 01       		.byte	0x1
 2957 05b2 8A       		.byte	0x8a
 2958 05b3 00000000 		.4byte	.LFB5
 2959 05b7 28000000 		.4byte	.LFE5-.LFB5
 2960 05bb 01       		.uleb128 0x1
 2961 05bc 9C       		.byte	0x9c
 2962 05bd 08060000 		.4byte	0x608
 2963 05c1 19       		.uleb128 0x19
 2964 05c2 12000000 		.4byte	.LVL30
 2965 05c6 2A030000 		.4byte	0x32a
 2966 05ca E6050000 		.4byte	0x5e6
 2967 05ce 13       		.uleb128 0x13
 2968 05cf 01       		.uleb128 0x1
 2969 05d0 50       		.byte	0x50
 2970 05d1 02       		.uleb128 0x2
 2971 05d2 08       		.byte	0x8
 2972 05d3 76       		.byte	0x76
 2973 05d4 13       		.uleb128 0x13
 2974 05d5 01       		.uleb128 0x1
 2975 05d6 51       		.byte	0x51
 2976 05d7 02       		.uleb128 0x2
 2977 05d8 09       		.byte	0x9
 2978 05d9 F7       		.byte	0xf7
 2979 05da 13       		.uleb128 0x13
 2980 05db 01       		.uleb128 0x1
 2981 05dc 52       		.byte	0x52
 2982 05dd 02       		.uleb128 0x2
 2983 05de 74       		.byte	0x74
 2984 05df 10       		.sleb128 16
 2985 05e0 13       		.uleb128 0x13
 2986 05e1 01       		.uleb128 0x1
 2987 05e2 53       		.byte	0x53
 2988 05e3 01       		.uleb128 0x1
 2989 05e4 38       		.byte	0x38
 2990 05e5 00       		.byte	0
 2991 05e6 17       		.uleb128 0x17
 2992 05e7 20000000 		.4byte	.LVL31
 2993 05eb 2A030000 		.4byte	0x32a
 2994 05ef 13       		.uleb128 0x13
 2995 05f0 01       		.uleb128 0x1
 2996 05f1 50       		.byte	0x50
 2997 05f2 02       		.uleb128 0x2
 2998 05f3 08       		.byte	0x8
 2999 05f4 76       		.byte	0x76
 3000 05f5 13       		.uleb128 0x13
 3001 05f6 01       		.uleb128 0x1
 3002 05f7 51       		.byte	0x51
 3003 05f8 02       		.uleb128 0x2
 3004 05f9 09       		.byte	0x9
 3005 05fa F2       		.byte	0xf2
 3006 05fb 13       		.uleb128 0x13
 3007 05fc 01       		.uleb128 0x1
 3008 05fd 52       		.byte	0x52
 3009 05fe 02       		.uleb128 0x2
 3010 05ff 74       		.byte	0x74
 3011 0600 18       		.sleb128 24
ARM GAS  C:\Users\GYULAI~1\AppData\Local\Temp\cclBQTHO.s 			page 63


 3012 0601 13       		.uleb128 0x13
 3013 0602 01       		.uleb128 0x1
 3014 0603 53       		.byte	0x53
 3015 0604 01       		.uleb128 0x1
 3016 0605 34       		.byte	0x34
 3017 0606 00       		.byte	0
 3018 0607 00       		.byte	0
 3019 0608 0C       		.uleb128 0xc
 3020 0609 C6010000 		.4byte	.LASF73
 3021 060d 01       		.byte	0x1
 3022 060e 93       		.byte	0x93
 3023 060f 00000000 		.4byte	.LFB6
 3024 0613 14000000 		.4byte	.LFE6-.LFB6
 3025 0617 01       		.uleb128 0x1
 3026 0618 9C       		.byte	0x9c
 3027 0619 42060000 		.4byte	0x642
 3028 061d 17       		.uleb128 0x17
 3029 061e 0E000000 		.4byte	.LVL32
 3030 0622 F5030000 		.4byte	0x3f5
 3031 0626 13       		.uleb128 0x13
 3032 0627 01       		.uleb128 0x1
 3033 0628 50       		.byte	0x50
 3034 0629 02       		.uleb128 0x2
 3035 062a 08       		.byte	0x8
 3036 062b 76       		.byte	0x76
 3037 062c 13       		.uleb128 0x13
 3038 062d 01       		.uleb128 0x1
 3039 062e 51       		.byte	0x51
 3040 062f 02       		.uleb128 0x2
 3041 0630 09       		.byte	0x9
 3042 0631 F2       		.byte	0xf2
 3043 0632 13       		.uleb128 0x13
 3044 0633 01       		.uleb128 0x1
 3045 0634 52       		.byte	0x52
 3046 0635 05       		.uleb128 0x5
 3047 0636 03       		.byte	0x3
 3048 0637 18000000 		.4byte	.LANCHOR0+24
 3049 063b 13       		.uleb128 0x13
 3050 063c 01       		.uleb128 0x1
 3051 063d 53       		.byte	0x53
 3052 063e 01       		.uleb128 0x1
 3053 063f 34       		.byte	0x34
 3054 0640 00       		.byte	0
 3055 0641 00       		.byte	0
 3056 0642 1D       		.uleb128 0x1d
 3057 0643 C0000000 		.4byte	.LASF82
 3058 0647 01       		.byte	0x1
 3059 0648 99       		.byte	0x99
 3060 0649 AD000000 		.4byte	0xad
 3061 064d 00000000 		.4byte	.LFB7
 3062 0651 2C010000 		.4byte	.LFE7-.LFB7
 3063 0655 01       		.uleb128 0x1
 3064 0656 9C       		.byte	0x9c
 3065 0657 D8060000 		.4byte	0x6d8
 3066 065b 0F       		.uleb128 0xf
 3067 065c DC010000 		.4byte	.LASF74
 3068 0660 01       		.byte	0x1
ARM GAS  C:\Users\GYULAI~1\AppData\Local\Temp\cclBQTHO.s 			page 64


 3069 0661 99       		.byte	0x99
 3070 0662 B8000000 		.4byte	0xb8
 3071 0666 93010000 		.4byte	.LLST10
 3072 066a 1E       		.uleb128 0x1e
 3073 066b 22000000 		.4byte	.LASF75
 3074 066f 01       		.byte	0x1
 3075 0670 9F       		.byte	0x9f
 3076 0671 E4000000 		.4byte	0xe4
 3077 0675 B4010000 		.4byte	.LLST11
 3078 0679 1E       		.uleb128 0x1e
 3079 067a 72000000 		.4byte	.LASF76
 3080 067e 01       		.byte	0x1
 3081 067f A6       		.byte	0xa6
 3082 0680 D8060000 		.4byte	0x6d8
 3083 0684 D9010000 		.4byte	.LLST12
 3084 0688 1E       		.uleb128 0x1e
 3085 0689 92000000 		.4byte	.LASF77
 3086 068d 01       		.byte	0x1
 3087 068e A7       		.byte	0xa7
 3088 068f D8060000 		.4byte	0x6d8
 3089 0693 01020000 		.4byte	.LLST13
 3090 0697 1E       		.uleb128 0x1e
 3091 0698 16050000 		.4byte	.LASF78
 3092 069c 01       		.byte	0x1
 3093 069d A8       		.byte	0xa8
 3094 069e D8060000 		.4byte	0x6d8
 3095 06a2 29020000 		.4byte	.LLST14
 3096 06a6 1F       		.uleb128 0x1f
 3097 06a7 12000000 		.4byte	.LASF79
 3098 06ab 01       		.byte	0x1
 3099 06ac A9       		.byte	0xa9
 3100 06ad D8060000 		.4byte	0x6d8
 3101 06b1 08       		.byte	0x8
 3102 06b2 00000000 		.4byte	0
 3103 06b6 000044C0 		.4byte	0xc0440000
 3104 06ba 1F       		.uleb128 0x1f
 3105 06bb A9060000 		.4byte	.LASF80
 3106 06bf 01       		.byte	0x1
 3107 06c0 AA       		.byte	0xaa
 3108 06c1 D8060000 		.4byte	0x6d8
 3109 06c5 08       		.byte	0x8
 3110 06c6 00000000 		.4byte	0
 3111 06ca 00405540 		.4byte	0x40554000
 3112 06ce 1A       		.uleb128 0x1a
 3113 06cf 0A000000 		.4byte	.LVL34
 3114 06d3 AC050000 		.4byte	0x5ac
 3115 06d7 00       		.byte	0
 3116 06d8 03       		.uleb128 0x3
 3117 06d9 08       		.byte	0x8
 3118 06da 04       		.byte	0x4
 3119 06db E3050000 		.4byte	.LASF81
 3120 06df 1D       		.uleb128 0x1d
 3121 06e0 EE060000 		.4byte	.LASF83
 3122 06e4 01       		.byte	0x1
 3123 06e5 B9       		.byte	0xb9
 3124 06e6 AD000000 		.4byte	0xad
 3125 06ea 00000000 		.4byte	.LFB8
ARM GAS  C:\Users\GYULAI~1\AppData\Local\Temp\cclBQTHO.s 			page 65


 3126 06ee 24000000 		.4byte	.LFE8-.LFB8
 3127 06f2 01       		.uleb128 0x1
 3128 06f3 9C       		.byte	0x9c
 3129 06f4 11070000 		.4byte	0x711
 3130 06f8 0F       		.uleb128 0xf
 3131 06f9 DC010000 		.4byte	.LASF74
 3132 06fd 01       		.byte	0x1
 3133 06fe B9       		.byte	0xb9
 3134 06ff B8000000 		.4byte	0xb8
 3135 0703 61020000 		.4byte	.LLST15
 3136 0707 1A       		.uleb128 0x1a
 3137 0708 06000000 		.4byte	.LVL68
 3138 070c 42060000 		.4byte	0x642
 3139 0710 00       		.byte	0
 3140 0711 1D       		.uleb128 0x1d
 3141 0712 38010000 		.4byte	.LASF84
 3142 0716 01       		.byte	0x1
 3143 0717 BF       		.byte	0xbf
 3144 0718 E4000000 		.4byte	0xe4
 3145 071c 00000000 		.4byte	.LFB9
 3146 0720 84020000 		.4byte	.LFE9-.LFB9
 3147 0724 01       		.uleb128 0x1
 3148 0725 9C       		.byte	0x9c
 3149 0726 B6070000 		.4byte	0x7b6
 3150 072a 0F       		.uleb128 0xf
 3151 072b DC010000 		.4byte	.LASF74
 3152 072f 01       		.byte	0x1
 3153 0730 BF       		.byte	0xbf
 3154 0731 B8000000 		.4byte	0xb8
 3155 0735 82020000 		.4byte	.LLST16
 3156 0739 1E       		.uleb128 0x1e
 3157 073a 22000000 		.4byte	.LASF75
 3158 073e 01       		.byte	0x1
 3159 073f C5       		.byte	0xc5
 3160 0740 E4000000 		.4byte	0xe4
 3161 0744 A3020000 		.4byte	.LLST17
 3162 0748 1E       		.uleb128 0x1e
 3163 0749 72000000 		.4byte	.LASF76
 3164 074d 01       		.byte	0x1
 3165 074e CC       		.byte	0xcc
 3166 074f D8060000 		.4byte	0x6d8
 3167 0753 B6020000 		.4byte	.LLST18
 3168 0757 1E       		.uleb128 0x1e
 3169 0758 92000000 		.4byte	.LASF77
 3170 075c 01       		.byte	0x1
 3171 075d CD       		.byte	0xcd
 3172 075e D8060000 		.4byte	0x6d8
 3173 0762 FE020000 		.4byte	.LLST19
 3174 0766 1E       		.uleb128 0x1e
 3175 0767 E8000000 		.4byte	.LASF85
 3176 076b 01       		.byte	0x1
 3177 076c CE       		.byte	0xce
 3178 076d D8060000 		.4byte	0x6d8
 3179 0771 46030000 		.4byte	.LLST20
 3180 0775 1E       		.uleb128 0x1e
 3181 0776 83010000 		.4byte	.LASF86
 3182 077a 01       		.byte	0x1
ARM GAS  C:\Users\GYULAI~1\AppData\Local\Temp\cclBQTHO.s 			page 66


 3183 077b CF       		.byte	0xcf
 3184 077c D8060000 		.4byte	0x6d8
 3185 0780 5E030000 		.4byte	.LLST21
 3186 0784 1F       		.uleb128 0x1f
 3187 0785 FD050000 		.4byte	.LASF87
 3188 0789 01       		.byte	0x1
 3189 078a D0       		.byte	0xd0
 3190 078b D8060000 		.4byte	0x6d8
 3191 078f 08       		.byte	0x8
 3192 0790 00000000 		.4byte	0
 3193 0794 004CDD40 		.4byte	0x40dd4c00
 3194 0798 1F       		.uleb128 0x1f
 3195 0799 2B050000 		.4byte	.LASF88
 3196 079d 01       		.byte	0x1
 3197 079e D1       		.byte	0xd1
 3198 079f D8060000 		.4byte	0x6d8
 3199 07a3 08       		.byte	0x8
 3200 07a4 00000000 		.4byte	0
 3201 07a8 00DBFA40 		.4byte	0x40fadb00
 3202 07ac 1A       		.uleb128 0x1a
 3203 07ad 0A000000 		.4byte	.LVL74
 3204 07b1 AC050000 		.4byte	0x5ac
 3205 07b5 00       		.byte	0
 3206 07b6 1D       		.uleb128 0x1d
 3207 07b7 37040000 		.4byte	.LASF89
 3208 07bb 01       		.byte	0x1
 3209 07bc E7       		.byte	0xe7
 3210 07bd B8000000 		.4byte	0xb8
 3211 07c1 00000000 		.4byte	.LFB10
 3212 07c5 AC010000 		.4byte	.LFE10-.LFB10
 3213 07c9 01       		.uleb128 0x1
 3214 07ca 9C       		.byte	0x9c
 3215 07cb 88080000 		.4byte	0x888
 3216 07cf 0F       		.uleb128 0xf
 3217 07d0 DC010000 		.4byte	.LASF74
 3218 07d4 01       		.byte	0x1
 3219 07d5 E7       		.byte	0xe7
 3220 07d6 B8000000 		.4byte	0xb8
 3221 07da A6030000 		.4byte	.LLST22
 3222 07de 1E       		.uleb128 0x1e
 3223 07df 22000000 		.4byte	.LASF75
 3224 07e3 01       		.byte	0x1
 3225 07e4 ED       		.byte	0xed
 3226 07e5 E4000000 		.4byte	0xe4
 3227 07e9 C7030000 		.4byte	.LLST23
 3228 07ed 1E       		.uleb128 0x1e
 3229 07ee 22050000 		.4byte	.LASF90
 3230 07f2 01       		.byte	0x1
 3231 07f3 F3       		.byte	0xf3
 3232 07f4 D8060000 		.4byte	0x6d8
 3233 07f8 DA030000 		.4byte	.LLST24
 3234 07fc 1F       		.uleb128 0x1f
 3235 07fd 97030000 		.4byte	.LASF91
 3236 0801 01       		.byte	0x1
 3237 0802 F4       		.byte	0xf4
 3238 0803 D8060000 		.4byte	0x6d8
 3239 0807 08       		.byte	0x8
ARM GAS  C:\Users\GYULAI~1\AppData\Local\Temp\cclBQTHO.s 			page 67


 3240 0808 00000000 		.4byte	0
 3241 080c 00000000 		.4byte	0
 3242 0810 1F       		.uleb128 0x1f
 3243 0811 06030000 		.4byte	.LASF92
 3244 0815 01       		.byte	0x1
 3245 0816 F5       		.byte	0xf5
 3246 0817 D8060000 		.4byte	0x6d8
 3247 081b 08       		.byte	0x8
 3248 081c 00000000 		.4byte	0
 3249 0820 00005940 		.4byte	0x40590000
 3250 0824 1E       		.uleb128 0x1e
 3251 0825 72000000 		.4byte	.LASF76
 3252 0829 01       		.byte	0x1
 3253 082a F6       		.byte	0xf6
 3254 082b D8060000 		.4byte	0x6d8
 3255 082f 12040000 		.4byte	.LLST25
 3256 0833 1E       		.uleb128 0x1e
 3257 0834 92000000 		.4byte	.LASF77
 3258 0838 01       		.byte	0x1
 3259 0839 F7       		.byte	0xf7
 3260 083a D8060000 		.4byte	0x6d8
 3261 083e 2A040000 		.4byte	.LLST26
 3262 0842 1E       		.uleb128 0x1e
 3263 0843 E8000000 		.4byte	.LASF85
 3264 0847 01       		.byte	0x1
 3265 0848 F8       		.byte	0xf8
 3266 0849 D8060000 		.4byte	0x6d8
 3267 084d 42040000 		.4byte	.LLST27
 3268 0851 1E       		.uleb128 0x1e
 3269 0852 ED000000 		.4byte	.LASF93
 3270 0856 01       		.byte	0x1
 3271 0857 F9       		.byte	0xf9
 3272 0858 D8060000 		.4byte	0x6d8
 3273 085c 7E040000 		.4byte	.LLST28
 3274 0860 1E       		.uleb128 0x1e
 3275 0861 F2000000 		.4byte	.LASF94
 3276 0865 01       		.byte	0x1
 3277 0866 FA       		.byte	0xfa
 3278 0867 D8060000 		.4byte	0x6d8
 3279 086b AE040000 		.4byte	.LLST29
 3280 086f 1E       		.uleb128 0x1e
 3281 0870 F7000000 		.4byte	.LASF95
 3282 0874 01       		.byte	0x1
 3283 0875 FB       		.byte	0xfb
 3284 0876 D8060000 		.4byte	0x6d8
 3285 087a C6040000 		.4byte	.LLST30
 3286 087e 1A       		.uleb128 0x1a
 3287 087f 0C000000 		.4byte	.LVL143
 3288 0883 AC050000 		.4byte	0x5ac
 3289 0887 00       		.byte	0
 3290 0888 20       		.uleb128 0x20
 3291 0889 B9020000 		.4byte	.LASF98
 3292 088d 01       		.byte	0x1
 3293 088e 3701     		.2byte	0x137
 3294 0890 B8000000 		.4byte	0xb8
 3295 0894 00000000 		.4byte	.LFB12
 3296 0898 10000000 		.4byte	.LFE12-.LFB12
ARM GAS  C:\Users\GYULAI~1\AppData\Local\Temp\cclBQTHO.s 			page 68


 3297 089c 01       		.uleb128 0x1
 3298 089d 9C       		.byte	0x9c
 3299 089e 21       		.uleb128 0x21
 3300 089f BD050000 		.4byte	.LASF96
 3301 08a3 01       		.byte	0x1
 3302 08a4 3D01     		.2byte	0x13d
 3303 08a6 00000000 		.4byte	.LFB13
 3304 08aa 20000000 		.4byte	.LFE13-.LFB13
 3305 08ae 01       		.uleb128 0x1
 3306 08af 9C       		.byte	0x9c
 3307 08b0 E9080000 		.4byte	0x8e9
 3308 08b4 22       		.uleb128 0x22
 3309 08b5 7A040000 		.4byte	.LASF97
 3310 08b9 01       		.byte	0x1
 3311 08ba 3D01     		.2byte	0x13d
 3312 08bc B8000000 		.4byte	0xb8
 3313 08c0 EE040000 		.4byte	.LLST31
 3314 08c4 17       		.uleb128 0x17
 3315 08c5 1A000000 		.4byte	.LVL200
 3316 08c9 F5030000 		.4byte	0x3f5
 3317 08cd 13       		.uleb128 0x13
 3318 08ce 01       		.uleb128 0x1
 3319 08cf 50       		.byte	0x50
 3320 08d0 02       		.uleb128 0x2
 3321 08d1 08       		.byte	0x8
 3322 08d2 76       		.byte	0x76
 3323 08d3 13       		.uleb128 0x13
 3324 08d4 01       		.uleb128 0x1
 3325 08d5 51       		.byte	0x51
 3326 08d6 02       		.uleb128 0x2
 3327 08d7 09       		.byte	0x9
 3328 08d8 F2       		.byte	0xf2
 3329 08d9 13       		.uleb128 0x13
 3330 08da 01       		.uleb128 0x1
 3331 08db 52       		.byte	0x52
 3332 08dc 05       		.uleb128 0x5
 3333 08dd 03       		.byte	0x3
 3334 08de 18000000 		.4byte	.LANCHOR0+24
 3335 08e2 13       		.uleb128 0x13
 3336 08e3 01       		.uleb128 0x1
 3337 08e4 53       		.byte	0x53
 3338 08e5 01       		.uleb128 0x1
 3339 08e6 31       		.byte	0x31
 3340 08e7 00       		.byte	0
 3341 08e8 00       		.byte	0
 3342 08e9 20       		.uleb128 0x20
 3343 08ea 01040000 		.4byte	.LASF99
 3344 08ee 01       		.byte	0x1
 3345 08ef 4701     		.2byte	0x147
 3346 08f1 B8000000 		.4byte	0xb8
 3347 08f5 00000000 		.4byte	.LFB14
 3348 08f9 10000000 		.4byte	.LFE14-.LFB14
 3349 08fd 01       		.uleb128 0x1
 3350 08fe 9C       		.byte	0x9c
 3351 08ff 21       		.uleb128 0x21
 3352 0900 10020000 		.4byte	.LASF100
 3353 0904 01       		.byte	0x1
ARM GAS  C:\Users\GYULAI~1\AppData\Local\Temp\cclBQTHO.s 			page 69


 3354 0905 4D01     		.2byte	0x14d
 3355 0907 00000000 		.4byte	.LFB15
 3356 090b 20000000 		.4byte	.LFE15-.LFB15
 3357 090f 01       		.uleb128 0x1
 3358 0910 9C       		.byte	0x9c
 3359 0911 4A090000 		.4byte	0x94a
 3360 0915 22       		.uleb128 0x22
 3361 0916 7A040000 		.4byte	.LASF97
 3362 091a 01       		.byte	0x1
 3363 091b 4D01     		.2byte	0x14d
 3364 091d B8000000 		.4byte	0xb8
 3365 0921 0F050000 		.4byte	.LLST32
 3366 0925 17       		.uleb128 0x17
 3367 0926 1A000000 		.4byte	.LVL203
 3368 092a F5030000 		.4byte	0x3f5
 3369 092e 13       		.uleb128 0x13
 3370 092f 01       		.uleb128 0x1
 3371 0930 50       		.byte	0x50
 3372 0931 02       		.uleb128 0x2
 3373 0932 08       		.byte	0x8
 3374 0933 76       		.byte	0x76
 3375 0934 13       		.uleb128 0x13
 3376 0935 01       		.uleb128 0x1
 3377 0936 51       		.byte	0x51
 3378 0937 02       		.uleb128 0x2
 3379 0938 09       		.byte	0x9
 3380 0939 F4       		.byte	0xf4
 3381 093a 13       		.uleb128 0x13
 3382 093b 01       		.uleb128 0x1
 3383 093c 52       		.byte	0x52
 3384 093d 05       		.uleb128 0x5
 3385 093e 03       		.byte	0x3
 3386 093f 1A000000 		.4byte	.LANCHOR0+26
 3387 0943 13       		.uleb128 0x13
 3388 0944 01       		.uleb128 0x1
 3389 0945 53       		.byte	0x53
 3390 0946 01       		.uleb128 0x1
 3391 0947 31       		.byte	0x31
 3392 0948 00       		.byte	0
 3393 0949 00       		.byte	0
 3394 094a 20       		.uleb128 0x20
 3395 094b 97000000 		.4byte	.LASF101
 3396 094f 01       		.byte	0x1
 3397 0950 5701     		.2byte	0x157
 3398 0952 B8000000 		.4byte	0xb8
 3399 0956 00000000 		.4byte	.LFB16
 3400 095a 10000000 		.4byte	.LFE16-.LFB16
 3401 095e 01       		.uleb128 0x1
 3402 095f 9C       		.byte	0x9c
 3403 0960 23       		.uleb128 0x23
 3404 0961 DC020000 		.4byte	.LASF102
 3405 0965 01       		.byte	0x1
 3406 0966 0C01     		.2byte	0x10c
 3407 0968 B8000000 		.4byte	0xb8
 3408 096c 00000000 		.4byte	.LFB11
 3409 0970 38010000 		.4byte	.LFE11-.LFB11
 3410 0974 01       		.uleb128 0x1
ARM GAS  C:\Users\GYULAI~1\AppData\Local\Temp\cclBQTHO.s 			page 70


 3411 0975 9C       		.byte	0x9c
 3412 0976 F6090000 		.4byte	0x9f6
 3413 097a 24       		.uleb128 0x24
 3414 097b 4B010000 		.4byte	.LASF103
 3415 097f 01       		.byte	0x1
 3416 0980 0F01     		.2byte	0x10f
 3417 0982 B8000000 		.4byte	0xb8
 3418 0986 30050000 		.4byte	.LLST33
 3419 098a 24       		.uleb128 0x24
 3420 098b 6C040000 		.4byte	.LASF104
 3421 098f 01       		.byte	0x1
 3422 0990 1001     		.2byte	0x110
 3423 0992 B8000000 		.4byte	0xb8
 3424 0996 89050000 		.4byte	.LLST34
 3425 099a 24       		.uleb128 0x24
 3426 099b 88020000 		.4byte	.LASF105
 3427 099f 01       		.byte	0x1
 3428 09a0 1101     		.2byte	0x111
 3429 09a2 B8000000 		.4byte	0xb8
 3430 09a6 E2050000 		.4byte	.LLST35
 3431 09aa 24       		.uleb128 0x24
 3432 09ab 00000000 		.4byte	.LASF106
 3433 09af 01       		.byte	0x1
 3434 09b0 3001     		.2byte	0x130
 3435 09b2 D8060000 		.4byte	0x6d8
 3436 09b6 2F060000 		.4byte	.LLST36
 3437 09ba 24       		.uleb128 0x24
 3438 09bb D4050000 		.4byte	.LASF107
 3439 09bf 01       		.byte	0x1
 3440 09c0 3101     		.2byte	0x131
 3441 09c2 D8060000 		.4byte	0x6d8
 3442 09c6 47060000 		.4byte	.LLST37
 3443 09ca 24       		.uleb128 0x24
 3444 09cb F7020000 		.4byte	.LASF108
 3445 09cf 01       		.byte	0x1
 3446 09d0 3201     		.2byte	0x132
 3447 09d2 D8060000 		.4byte	0x6d8
 3448 09d6 5F060000 		.4byte	.LLST38
 3449 09da 1A       		.uleb128 0x1a
 3450 09db 08000000 		.4byte	.LVL204
 3451 09df E9080000 		.4byte	0x8e9
 3452 09e3 1A       		.uleb128 0x1a
 3453 09e4 0E000000 		.4byte	.LVL206
 3454 09e8 4A090000 		.4byte	0x94a
 3455 09ec 1A       		.uleb128 0x1a
 3456 09ed 14000000 		.4byte	.LVL208
 3457 09f1 88080000 		.4byte	0x888
 3458 09f5 00       		.byte	0
 3459 09f6 21       		.uleb128 0x21
 3460 09f7 8C010000 		.4byte	.LASF109
 3461 09fb 01       		.byte	0x1
 3462 09fc 5D01     		.2byte	0x15d
 3463 09fe 00000000 		.4byte	.LFB17
 3464 0a02 20000000 		.4byte	.LFE17-.LFB17
 3465 0a06 01       		.uleb128 0x1
 3466 0a07 9C       		.byte	0x9c
 3467 0a08 410A0000 		.4byte	0xa41
ARM GAS  C:\Users\GYULAI~1\AppData\Local\Temp\cclBQTHO.s 			page 71


 3468 0a0c 22       		.uleb128 0x22
 3469 0a0d 7A040000 		.4byte	.LASF97
 3470 0a11 01       		.byte	0x1
 3471 0a12 5D01     		.2byte	0x15d
 3472 0a14 B8000000 		.4byte	0xb8
 3473 0a18 77060000 		.4byte	.LLST39
 3474 0a1c 17       		.uleb128 0x17
 3475 0a1d 1A000000 		.4byte	.LVL254
 3476 0a21 F5030000 		.4byte	0x3f5
 3477 0a25 13       		.uleb128 0x13
 3478 0a26 01       		.uleb128 0x1
 3479 0a27 50       		.byte	0x50
 3480 0a28 02       		.uleb128 0x2
 3481 0a29 08       		.byte	0x8
 3482 0a2a 76       		.byte	0x76
 3483 0a2b 13       		.uleb128 0x13
 3484 0a2c 01       		.uleb128 0x1
 3485 0a2d 51       		.byte	0x51
 3486 0a2e 02       		.uleb128 0x2
 3487 0a2f 09       		.byte	0x9
 3488 0a30 F4       		.byte	0xf4
 3489 0a31 13       		.uleb128 0x13
 3490 0a32 01       		.uleb128 0x1
 3491 0a33 52       		.byte	0x52
 3492 0a34 05       		.uleb128 0x5
 3493 0a35 03       		.byte	0x3
 3494 0a36 1A000000 		.4byte	.LANCHOR0+26
 3495 0a3a 13       		.uleb128 0x13
 3496 0a3b 01       		.uleb128 0x1
 3497 0a3c 53       		.byte	0x53
 3498 0a3d 01       		.uleb128 0x1
 3499 0a3e 31       		.byte	0x31
 3500 0a3f 00       		.byte	0
 3501 0a40 00       		.byte	0
 3502 0a41 25       		.uleb128 0x25
 3503 0a42 EA050000 		.4byte	.LASF110
 3504 0a46 01       		.byte	0x1
 3505 0a47 6701     		.2byte	0x167
 3506 0a49 B8000000 		.4byte	0xb8
 3507 0a4d 00000000 		.4byte	.LFB18
 3508 0a51 20000000 		.4byte	.LFE18-.LFB18
 3509 0a55 01       		.uleb128 0x1
 3510 0a56 9C       		.byte	0x9c
 3511 0a57 7D0A0000 		.4byte	0xa7d
 3512 0a5b 17       		.uleb128 0x17
 3513 0a5c 12000000 		.4byte	.LVL255
 3514 0a60 2A030000 		.4byte	0x32a
 3515 0a64 13       		.uleb128 0x13
 3516 0a65 01       		.uleb128 0x1
 3517 0a66 50       		.byte	0x50
 3518 0a67 02       		.uleb128 0x2
 3519 0a68 08       		.byte	0x8
 3520 0a69 76       		.byte	0x76
 3521 0a6a 13       		.uleb128 0x13
 3522 0a6b 01       		.uleb128 0x1
 3523 0a6c 51       		.byte	0x51
 3524 0a6d 02       		.uleb128 0x2
ARM GAS  C:\Users\GYULAI~1\AppData\Local\Temp\cclBQTHO.s 			page 72


 3525 0a6e 09       		.byte	0x9
 3526 0a6f F3       		.byte	0xf3
 3527 0a70 13       		.uleb128 0x13
 3528 0a71 01       		.uleb128 0x1
 3529 0a72 52       		.byte	0x52
 3530 0a73 02       		.uleb128 0x2
 3531 0a74 74       		.byte	0x74
 3532 0a75 19       		.sleb128 25
 3533 0a76 13       		.uleb128 0x13
 3534 0a77 01       		.uleb128 0x1
 3535 0a78 53       		.byte	0x53
 3536 0a79 01       		.uleb128 0x1
 3537 0a7a 31       		.byte	0x31
 3538 0a7b 00       		.byte	0
 3539 0a7c 00       		.byte	0
 3540 0a7d 25       		.uleb128 0x25
 3541 0a7e AE000000 		.4byte	.LASF111
 3542 0a82 01       		.byte	0x1
 3543 0a83 7001     		.2byte	0x170
 3544 0a85 B8000000 		.4byte	0xb8
 3545 0a89 00000000 		.4byte	.LFB19
 3546 0a8d 20000000 		.4byte	.LFE19-.LFB19
 3547 0a91 01       		.uleb128 0x1
 3548 0a92 9C       		.byte	0x9c
 3549 0a93 B90A0000 		.4byte	0xab9
 3550 0a97 17       		.uleb128 0x17
 3551 0a98 12000000 		.4byte	.LVL256
 3552 0a9c 2A030000 		.4byte	0x32a
 3553 0aa0 13       		.uleb128 0x13
 3554 0aa1 01       		.uleb128 0x1
 3555 0aa2 50       		.byte	0x50
 3556 0aa3 02       		.uleb128 0x2
 3557 0aa4 08       		.byte	0x8
 3558 0aa5 76       		.byte	0x76
 3559 0aa6 13       		.uleb128 0x13
 3560 0aa7 01       		.uleb128 0x1
 3561 0aa8 51       		.byte	0x51
 3562 0aa9 02       		.uleb128 0x2
 3563 0aaa 09       		.byte	0x9
 3564 0aab F3       		.byte	0xf3
 3565 0aac 13       		.uleb128 0x13
 3566 0aad 01       		.uleb128 0x1
 3567 0aae 52       		.byte	0x52
 3568 0aaf 02       		.uleb128 0x2
 3569 0ab0 74       		.byte	0x74
 3570 0ab1 19       		.sleb128 25
 3571 0ab2 13       		.uleb128 0x13
 3572 0ab3 01       		.uleb128 0x1
 3573 0ab4 53       		.byte	0x53
 3574 0ab5 01       		.uleb128 0x1
 3575 0ab6 31       		.byte	0x31
 3576 0ab7 00       		.byte	0
 3577 0ab8 00       		.byte	0
 3578 0ab9 20       		.uleb128 0x20
 3579 0aba 6E050000 		.4byte	.LASF112
 3580 0abe 01       		.byte	0x1
 3581 0abf 7901     		.2byte	0x179
ARM GAS  C:\Users\GYULAI~1\AppData\Local\Temp\cclBQTHO.s 			page 73


 3582 0ac1 B8000000 		.4byte	0xb8
 3583 0ac5 00000000 		.4byte	.LFB20
 3584 0ac9 10000000 		.4byte	.LFE20-.LFB20
 3585 0acd 01       		.uleb128 0x1
 3586 0ace 9C       		.byte	0x9c
 3587 0acf 21       		.uleb128 0x21
 3588 0ad0 07010000 		.4byte	.LASF113
 3589 0ad4 01       		.byte	0x1
 3590 0ad5 7F01     		.2byte	0x17f
 3591 0ad7 00000000 		.4byte	.LFB21
 3592 0adb 20000000 		.4byte	.LFE21-.LFB21
 3593 0adf 01       		.uleb128 0x1
 3594 0ae0 9C       		.byte	0x9c
 3595 0ae1 1A0B0000 		.4byte	0xb1a
 3596 0ae5 22       		.uleb128 0x22
 3597 0ae6 7A040000 		.4byte	.LASF97
 3598 0aea 01       		.byte	0x1
 3599 0aeb 7F01     		.2byte	0x17f
 3600 0aed B8000000 		.4byte	0xb8
 3601 0af1 98060000 		.4byte	.LLST40
 3602 0af5 17       		.uleb128 0x17
 3603 0af6 1A000000 		.4byte	.LVL259
 3604 0afa F5030000 		.4byte	0x3f5
 3605 0afe 13       		.uleb128 0x13
 3606 0aff 01       		.uleb128 0x1
 3607 0b00 50       		.byte	0x50
 3608 0b01 02       		.uleb128 0x2
 3609 0b02 08       		.byte	0x8
 3610 0b03 76       		.byte	0x76
 3611 0b04 13       		.uleb128 0x13
 3612 0b05 01       		.uleb128 0x1
 3613 0b06 51       		.byte	0x51
 3614 0b07 02       		.uleb128 0x2
 3615 0b08 09       		.byte	0x9
 3616 0b09 F4       		.byte	0xf4
 3617 0b0a 13       		.uleb128 0x13
 3618 0b0b 01       		.uleb128 0x1
 3619 0b0c 52       		.byte	0x52
 3620 0b0d 05       		.uleb128 0x5
 3621 0b0e 03       		.byte	0x3
 3622 0b0f 1A000000 		.4byte	.LANCHOR0+26
 3623 0b13 13       		.uleb128 0x13
 3624 0b14 01       		.uleb128 0x1
 3625 0b15 53       		.byte	0x53
 3626 0b16 01       		.uleb128 0x1
 3627 0b17 31       		.byte	0x31
 3628 0b18 00       		.byte	0
 3629 0b19 00       		.byte	0
 3630 0b1a 20       		.uleb128 0x20
 3631 0b1b 64010000 		.4byte	.LASF114
 3632 0b1f 01       		.byte	0x1
 3633 0b20 8901     		.2byte	0x189
 3634 0b22 B8000000 		.4byte	0xb8
 3635 0b26 00000000 		.4byte	.LFB22
 3636 0b2a 10000000 		.4byte	.LFE22-.LFB22
 3637 0b2e 01       		.uleb128 0x1
 3638 0b2f 9C       		.byte	0x9c
ARM GAS  C:\Users\GYULAI~1\AppData\Local\Temp\cclBQTHO.s 			page 74


 3639 0b30 21       		.uleb128 0x21
 3640 0b31 31070000 		.4byte	.LASF115
 3641 0b35 01       		.byte	0x1
 3642 0b36 8F01     		.2byte	0x18f
 3643 0b38 00000000 		.4byte	.LFB23
 3644 0b3c 20000000 		.4byte	.LFE23-.LFB23
 3645 0b40 01       		.uleb128 0x1
 3646 0b41 9C       		.byte	0x9c
 3647 0b42 7B0B0000 		.4byte	0xb7b
 3648 0b46 22       		.uleb128 0x22
 3649 0b47 66050000 		.4byte	.LASF116
 3650 0b4b 01       		.byte	0x1
 3651 0b4c 8F01     		.2byte	0x18f
 3652 0b4e B8000000 		.4byte	0xb8
 3653 0b52 B9060000 		.4byte	.LLST41
 3654 0b56 17       		.uleb128 0x17
 3655 0b57 1A000000 		.4byte	.LVL262
 3656 0b5b F5030000 		.4byte	0x3f5
 3657 0b5f 13       		.uleb128 0x13
 3658 0b60 01       		.uleb128 0x1
 3659 0b61 50       		.byte	0x50
 3660 0b62 02       		.uleb128 0x2
 3661 0b63 08       		.byte	0x8
 3662 0b64 76       		.byte	0x76
 3663 0b65 13       		.uleb128 0x13
 3664 0b66 01       		.uleb128 0x1
 3665 0b67 51       		.byte	0x51
 3666 0b68 02       		.uleb128 0x2
 3667 0b69 09       		.byte	0x9
 3668 0b6a F5       		.byte	0xf5
 3669 0b6b 13       		.uleb128 0x13
 3670 0b6c 01       		.uleb128 0x1
 3671 0b6d 52       		.byte	0x52
 3672 0b6e 05       		.uleb128 0x5
 3673 0b6f 03       		.byte	0x3
 3674 0b70 1B000000 		.4byte	.LANCHOR0+27
 3675 0b74 13       		.uleb128 0x13
 3676 0b75 01       		.uleb128 0x1
 3677 0b76 53       		.byte	0x53
 3678 0b77 01       		.uleb128 0x1
 3679 0b78 31       		.byte	0x31
 3680 0b79 00       		.byte	0
 3681 0b7a 00       		.byte	0
 3682 0b7b 20       		.uleb128 0x20
 3683 0b7c D9060000 		.4byte	.LASF117
 3684 0b80 01       		.byte	0x1
 3685 0b81 9901     		.2byte	0x199
 3686 0b83 B8000000 		.4byte	0xb8
 3687 0b87 00000000 		.4byte	.LFB24
 3688 0b8b 10000000 		.4byte	.LFE24-.LFB24
 3689 0b8f 01       		.uleb128 0x1
 3690 0b90 9C       		.byte	0x9c
 3691 0b91 21       		.uleb128 0x21
 3692 0b92 92050000 		.4byte	.LASF118
 3693 0b96 01       		.byte	0x1
 3694 0b97 9F01     		.2byte	0x19f
 3695 0b99 00000000 		.4byte	.LFB25
ARM GAS  C:\Users\GYULAI~1\AppData\Local\Temp\cclBQTHO.s 			page 75


 3696 0b9d 20000000 		.4byte	.LFE25-.LFB25
 3697 0ba1 01       		.uleb128 0x1
 3698 0ba2 9C       		.byte	0x9c
 3699 0ba3 DC0B0000 		.4byte	0xbdc
 3700 0ba7 22       		.uleb128 0x22
 3701 0ba8 7A040000 		.4byte	.LASF97
 3702 0bac 01       		.byte	0x1
 3703 0bad 9F01     		.2byte	0x19f
 3704 0baf B8000000 		.4byte	0xb8
 3705 0bb3 DA060000 		.4byte	.LLST42
 3706 0bb7 17       		.uleb128 0x17
 3707 0bb8 1A000000 		.4byte	.LVL265
 3708 0bbc F5030000 		.4byte	0x3f5
 3709 0bc0 13       		.uleb128 0x13
 3710 0bc1 01       		.uleb128 0x1
 3711 0bc2 50       		.byte	0x50
 3712 0bc3 02       		.uleb128 0x2
 3713 0bc4 08       		.byte	0x8
 3714 0bc5 76       		.byte	0x76
 3715 0bc6 13       		.uleb128 0x13
 3716 0bc7 01       		.uleb128 0x1
 3717 0bc8 51       		.byte	0x51
 3718 0bc9 02       		.uleb128 0x2
 3719 0bca 09       		.byte	0x9
 3720 0bcb F5       		.byte	0xf5
 3721 0bcc 13       		.uleb128 0x13
 3722 0bcd 01       		.uleb128 0x1
 3723 0bce 52       		.byte	0x52
 3724 0bcf 05       		.uleb128 0x5
 3725 0bd0 03       		.byte	0x3
 3726 0bd1 1B000000 		.4byte	.LANCHOR0+27
 3727 0bd5 13       		.uleb128 0x13
 3728 0bd6 01       		.uleb128 0x1
 3729 0bd7 53       		.byte	0x53
 3730 0bd8 01       		.uleb128 0x1
 3731 0bd9 31       		.byte	0x31
 3732 0bda 00       		.byte	0
 3733 0bdb 00       		.byte	0
 3734 0bdc 21       		.uleb128 0x21
 3735 0bdd A7050000 		.4byte	.LASF119
 3736 0be1 01       		.byte	0x1
 3737 0be2 A901     		.2byte	0x1a9
 3738 0be4 00000000 		.4byte	.LFB26
 3739 0be8 20000000 		.4byte	.LFE26-.LFB26
 3740 0bec 01       		.uleb128 0x1
 3741 0bed 9C       		.byte	0x9c
 3742 0bee 170C0000 		.4byte	0xc17
 3743 0bf2 17       		.uleb128 0x17
 3744 0bf3 18000000 		.4byte	.LVL266
 3745 0bf7 F5030000 		.4byte	0x3f5
 3746 0bfb 13       		.uleb128 0x13
 3747 0bfc 01       		.uleb128 0x1
 3748 0bfd 50       		.byte	0x50
 3749 0bfe 02       		.uleb128 0x2
 3750 0bff 08       		.byte	0x8
 3751 0c00 76       		.byte	0x76
 3752 0c01 13       		.uleb128 0x13
ARM GAS  C:\Users\GYULAI~1\AppData\Local\Temp\cclBQTHO.s 			page 76


 3753 0c02 01       		.uleb128 0x1
 3754 0c03 51       		.byte	0x51
 3755 0c04 02       		.uleb128 0x2
 3756 0c05 09       		.byte	0x9
 3757 0c06 F5       		.byte	0xf5
 3758 0c07 13       		.uleb128 0x13
 3759 0c08 01       		.uleb128 0x1
 3760 0c09 52       		.byte	0x52
 3761 0c0a 05       		.uleb128 0x5
 3762 0c0b 03       		.byte	0x3
 3763 0c0c 1B000000 		.4byte	.LANCHOR0+27
 3764 0c10 13       		.uleb128 0x13
 3765 0c11 01       		.uleb128 0x1
 3766 0c12 53       		.byte	0x53
 3767 0c13 01       		.uleb128 0x1
 3768 0c14 31       		.byte	0x31
 3769 0c15 00       		.byte	0
 3770 0c16 00       		.byte	0
 3771 0c17 21       		.uleb128 0x21
 3772 0c18 21010000 		.4byte	.LASF120
 3773 0c1c 01       		.byte	0x1
 3774 0c1d B201     		.2byte	0x1b2
 3775 0c1f 00000000 		.4byte	.LFB27
 3776 0c23 20000000 		.4byte	.LFE27-.LFB27
 3777 0c27 01       		.uleb128 0x1
 3778 0c28 9C       		.byte	0x9c
 3779 0c29 520C0000 		.4byte	0xc52
 3780 0c2d 17       		.uleb128 0x17
 3781 0c2e 18000000 		.4byte	.LVL267
 3782 0c32 F5030000 		.4byte	0x3f5
 3783 0c36 13       		.uleb128 0x13
 3784 0c37 01       		.uleb128 0x1
 3785 0c38 50       		.byte	0x50
 3786 0c39 02       		.uleb128 0x2
 3787 0c3a 08       		.byte	0x8
 3788 0c3b 76       		.byte	0x76
 3789 0c3c 13       		.uleb128 0x13
 3790 0c3d 01       		.uleb128 0x1
 3791 0c3e 51       		.byte	0x51
 3792 0c3f 02       		.uleb128 0x2
 3793 0c40 09       		.byte	0x9
 3794 0c41 F5       		.byte	0xf5
 3795 0c42 13       		.uleb128 0x13
 3796 0c43 01       		.uleb128 0x1
 3797 0c44 52       		.byte	0x52
 3798 0c45 05       		.uleb128 0x5
 3799 0c46 03       		.byte	0x3
 3800 0c47 1B000000 		.4byte	.LANCHOR0+27
 3801 0c4b 13       		.uleb128 0x13
 3802 0c4c 01       		.uleb128 0x1
 3803 0c4d 53       		.byte	0x53
 3804 0c4e 01       		.uleb128 0x1
 3805 0c4f 31       		.byte	0x31
 3806 0c50 00       		.byte	0
 3807 0c51 00       		.byte	0
 3808 0c52 26       		.uleb128 0x26
 3809 0c53 46000000 		.4byte	.LASF126
ARM GAS  C:\Users\GYULAI~1\AppData\Local\Temp\cclBQTHO.s 			page 77


 3810 0c57 01       		.byte	0x1
 3811 0c58 BB01     		.2byte	0x1bb
 3812 0c5a B8000000 		.4byte	0xb8
 3813 0c5e 00000000 		.4byte	.LFB28
 3814 0c62 10000000 		.4byte	.LFE28-.LFB28
 3815 0c66 01       		.uleb128 0x1
 3816 0c67 9C       		.byte	0x9c
 3817 0c68 16       		.uleb128 0x16
 3818 0c69 56030000 		.4byte	.LASF121
 3819 0c6d 01       		.byte	0x1
 3820 0c6e 2A       		.byte	0x2a
 3821 0c6f 6F010000 		.4byte	0x16f
 3822 0c73 05       		.uleb128 0x5
 3823 0c74 03       		.byte	0x3
 3824 0c75 00000000 		.4byte	BME280_I2CController
 3825 0c79 16       		.uleb128 0x16
 3826 0c7a 0E070000 		.4byte	.LASF122
 3827 0c7e 01       		.byte	0x1
 3828 0c7f 2D       		.byte	0x2d
 3829 0c80 FB020000 		.4byte	0x2fb
 3830 0c84 05       		.uleb128 0x5
 3831 0c85 03       		.byte	0x3
 3832 0c86 10000000 		.4byte	BME280_RegistersLocal
 3833 0c8a 00       		.byte	0
 3834              		.section	.debug_abbrev,"",%progbits
 3835              	.Ldebug_abbrev0:
 3836 0000 01       		.uleb128 0x1
 3837 0001 11       		.uleb128 0x11
 3838 0002 01       		.byte	0x1
 3839 0003 25       		.uleb128 0x25
 3840 0004 0E       		.uleb128 0xe
 3841 0005 13       		.uleb128 0x13
 3842 0006 0B       		.uleb128 0xb
 3843 0007 03       		.uleb128 0x3
 3844 0008 0E       		.uleb128 0xe
 3845 0009 1B       		.uleb128 0x1b
 3846 000a 0E       		.uleb128 0xe
 3847 000b 55       		.uleb128 0x55
 3848 000c 17       		.uleb128 0x17
 3849 000d 11       		.uleb128 0x11
 3850 000e 01       		.uleb128 0x1
 3851 000f 10       		.uleb128 0x10
 3852 0010 17       		.uleb128 0x17
 3853 0011 00       		.byte	0
 3854 0012 00       		.byte	0
 3855 0013 02       		.uleb128 0x2
 3856 0014 16       		.uleb128 0x16
 3857 0015 00       		.byte	0
 3858 0016 03       		.uleb128 0x3
 3859 0017 0E       		.uleb128 0xe
 3860 0018 3A       		.uleb128 0x3a
 3861 0019 0B       		.uleb128 0xb
 3862 001a 3B       		.uleb128 0x3b
 3863 001b 0B       		.uleb128 0xb
 3864 001c 49       		.uleb128 0x49
 3865 001d 13       		.uleb128 0x13
 3866 001e 00       		.byte	0
ARM GAS  C:\Users\GYULAI~1\AppData\Local\Temp\cclBQTHO.s 			page 78


 3867 001f 00       		.byte	0
 3868 0020 03       		.uleb128 0x3
 3869 0021 24       		.uleb128 0x24
 3870 0022 00       		.byte	0
 3871 0023 0B       		.uleb128 0xb
 3872 0024 0B       		.uleb128 0xb
 3873 0025 3E       		.uleb128 0x3e
 3874 0026 0B       		.uleb128 0xb
 3875 0027 03       		.uleb128 0x3
 3876 0028 0E       		.uleb128 0xe
 3877 0029 00       		.byte	0
 3878 002a 00       		.byte	0
 3879 002b 04       		.uleb128 0x4
 3880 002c 24       		.uleb128 0x24
 3881 002d 00       		.byte	0
 3882 002e 0B       		.uleb128 0xb
 3883 002f 0B       		.uleb128 0xb
 3884 0030 3E       		.uleb128 0x3e
 3885 0031 0B       		.uleb128 0xb
 3886 0032 03       		.uleb128 0x3
 3887 0033 08       		.uleb128 0x8
 3888 0034 00       		.byte	0
 3889 0035 00       		.byte	0
 3890 0036 05       		.uleb128 0x5
 3891 0037 13       		.uleb128 0x13
 3892 0038 01       		.byte	0x1
 3893 0039 03       		.uleb128 0x3
 3894 003a 0E       		.uleb128 0xe
 3895 003b 0B       		.uleb128 0xb
 3896 003c 0B       		.uleb128 0xb
 3897 003d 3A       		.uleb128 0x3a
 3898 003e 0B       		.uleb128 0xb
 3899 003f 3B       		.uleb128 0x3b
 3900 0040 0B       		.uleb128 0xb
 3901 0041 01       		.uleb128 0x1
 3902 0042 13       		.uleb128 0x13
 3903 0043 00       		.byte	0
 3904 0044 00       		.byte	0
 3905 0045 06       		.uleb128 0x6
 3906 0046 0D       		.uleb128 0xd
 3907 0047 00       		.byte	0
 3908 0048 03       		.uleb128 0x3
 3909 0049 0E       		.uleb128 0xe
 3910 004a 3A       		.uleb128 0x3a
 3911 004b 0B       		.uleb128 0xb
 3912 004c 3B       		.uleb128 0x3b
 3913 004d 0B       		.uleb128 0xb
 3914 004e 49       		.uleb128 0x49
 3915 004f 13       		.uleb128 0x13
 3916 0050 38       		.uleb128 0x38
 3917 0051 0B       		.uleb128 0xb
 3918 0052 00       		.byte	0
 3919 0053 00       		.byte	0
 3920 0054 07       		.uleb128 0x7
 3921 0055 15       		.uleb128 0x15
 3922 0056 01       		.byte	0x1
 3923 0057 27       		.uleb128 0x27
ARM GAS  C:\Users\GYULAI~1\AppData\Local\Temp\cclBQTHO.s 			page 79


 3924 0058 19       		.uleb128 0x19
 3925 0059 01       		.uleb128 0x1
 3926 005a 13       		.uleb128 0x13
 3927 005b 00       		.byte	0
 3928 005c 00       		.byte	0
 3929 005d 08       		.uleb128 0x8
 3930 005e 05       		.uleb128 0x5
 3931 005f 00       		.byte	0
 3932 0060 49       		.uleb128 0x49
 3933 0061 13       		.uleb128 0x13
 3934 0062 00       		.byte	0
 3935 0063 00       		.byte	0
 3936 0064 09       		.uleb128 0x9
 3937 0065 0F       		.uleb128 0xf
 3938 0066 00       		.byte	0
 3939 0067 0B       		.uleb128 0xb
 3940 0068 0B       		.uleb128 0xb
 3941 0069 49       		.uleb128 0x49
 3942 006a 13       		.uleb128 0x13
 3943 006b 00       		.byte	0
 3944 006c 00       		.byte	0
 3945 006d 0A       		.uleb128 0xa
 3946 006e 15       		.uleb128 0x15
 3947 006f 00       		.byte	0
 3948 0070 27       		.uleb128 0x27
 3949 0071 19       		.uleb128 0x19
 3950 0072 00       		.byte	0
 3951 0073 00       		.byte	0
 3952 0074 0B       		.uleb128 0xb
 3953 0075 15       		.uleb128 0x15
 3954 0076 01       		.byte	0x1
 3955 0077 27       		.uleb128 0x27
 3956 0078 19       		.uleb128 0x19
 3957 0079 49       		.uleb128 0x49
 3958 007a 13       		.uleb128 0x13
 3959 007b 01       		.uleb128 0x1
 3960 007c 13       		.uleb128 0x13
 3961 007d 00       		.byte	0
 3962 007e 00       		.byte	0
 3963 007f 0C       		.uleb128 0xc
 3964 0080 2E       		.uleb128 0x2e
 3965 0081 01       		.byte	0x1
 3966 0082 3F       		.uleb128 0x3f
 3967 0083 19       		.uleb128 0x19
 3968 0084 03       		.uleb128 0x3
 3969 0085 0E       		.uleb128 0xe
 3970 0086 3A       		.uleb128 0x3a
 3971 0087 0B       		.uleb128 0xb
 3972 0088 3B       		.uleb128 0x3b
 3973 0089 0B       		.uleb128 0xb
 3974 008a 27       		.uleb128 0x27
 3975 008b 19       		.uleb128 0x19
 3976 008c 11       		.uleb128 0x11
 3977 008d 01       		.uleb128 0x1
 3978 008e 12       		.uleb128 0x12
 3979 008f 06       		.uleb128 0x6
 3980 0090 40       		.uleb128 0x40
ARM GAS  C:\Users\GYULAI~1\AppData\Local\Temp\cclBQTHO.s 			page 80


 3981 0091 18       		.uleb128 0x18
 3982 0092 9742     		.uleb128 0x2117
 3983 0094 19       		.uleb128 0x19
 3984 0095 01       		.uleb128 0x1
 3985 0096 13       		.uleb128 0x13
 3986 0097 00       		.byte	0
 3987 0098 00       		.byte	0
 3988 0099 0D       		.uleb128 0xd
 3989 009a 05       		.uleb128 0x5
 3990 009b 00       		.byte	0
 3991 009c 03       		.uleb128 0x3
 3992 009d 0E       		.uleb128 0xe
 3993 009e 3A       		.uleb128 0x3a
 3994 009f 0B       		.uleb128 0xb
 3995 00a0 3B       		.uleb128 0x3b
 3996 00a1 0B       		.uleb128 0xb
 3997 00a2 49       		.uleb128 0x49
 3998 00a3 13       		.uleb128 0x13
 3999 00a4 02       		.uleb128 0x2
 4000 00a5 18       		.uleb128 0x18
 4001 00a6 00       		.byte	0
 4002 00a7 00       		.byte	0
 4003 00a8 0E       		.uleb128 0xe
 4004 00a9 2E       		.uleb128 0x2e
 4005 00aa 01       		.byte	0x1
 4006 00ab 3F       		.uleb128 0x3f
 4007 00ac 19       		.uleb128 0x19
 4008 00ad 03       		.uleb128 0x3
 4009 00ae 0E       		.uleb128 0xe
 4010 00af 3A       		.uleb128 0x3a
 4011 00b0 0B       		.uleb128 0xb
 4012 00b1 3B       		.uleb128 0x3b
 4013 00b2 0B       		.uleb128 0xb
 4014 00b3 27       		.uleb128 0x27
 4015 00b4 19       		.uleb128 0x19
 4016 00b5 11       		.uleb128 0x11
 4017 00b6 01       		.uleb128 0x1
 4018 00b7 12       		.uleb128 0x12
 4019 00b8 06       		.uleb128 0x6
 4020 00b9 40       		.uleb128 0x40
 4021 00ba 18       		.uleb128 0x18
 4022 00bb 9642     		.uleb128 0x2116
 4023 00bd 19       		.uleb128 0x19
 4024 00be 01       		.uleb128 0x1
 4025 00bf 13       		.uleb128 0x13
 4026 00c0 00       		.byte	0
 4027 00c1 00       		.byte	0
 4028 00c2 0F       		.uleb128 0xf
 4029 00c3 05       		.uleb128 0x5
 4030 00c4 00       		.byte	0
 4031 00c5 03       		.uleb128 0x3
 4032 00c6 0E       		.uleb128 0xe
 4033 00c7 3A       		.uleb128 0x3a
 4034 00c8 0B       		.uleb128 0xb
 4035 00c9 3B       		.uleb128 0x3b
 4036 00ca 0B       		.uleb128 0xb
 4037 00cb 49       		.uleb128 0x49
ARM GAS  C:\Users\GYULAI~1\AppData\Local\Temp\cclBQTHO.s 			page 81


 4038 00cc 13       		.uleb128 0x13
 4039 00cd 02       		.uleb128 0x2
 4040 00ce 17       		.uleb128 0x17
 4041 00cf 00       		.byte	0
 4042 00d0 00       		.byte	0
 4043 00d1 10       		.uleb128 0x10
 4044 00d2 0B       		.uleb128 0xb
 4045 00d3 01       		.byte	0x1
 4046 00d4 11       		.uleb128 0x11
 4047 00d5 01       		.uleb128 0x1
 4048 00d6 12       		.uleb128 0x12
 4049 00d7 06       		.uleb128 0x6
 4050 00d8 01       		.uleb128 0x1
 4051 00d9 13       		.uleb128 0x13
 4052 00da 00       		.byte	0
 4053 00db 00       		.byte	0
 4054 00dc 11       		.uleb128 0x11
 4055 00dd 34       		.uleb128 0x34
 4056 00de 00       		.byte	0
 4057 00df 03       		.uleb128 0x3
 4058 00e0 08       		.uleb128 0x8
 4059 00e1 3A       		.uleb128 0x3a
 4060 00e2 0B       		.uleb128 0xb
 4061 00e3 3B       		.uleb128 0x3b
 4062 00e4 0B       		.uleb128 0xb
 4063 00e5 49       		.uleb128 0x49
 4064 00e6 13       		.uleb128 0x13
 4065 00e7 02       		.uleb128 0x2
 4066 00e8 17       		.uleb128 0x17
 4067 00e9 00       		.byte	0
 4068 00ea 00       		.byte	0
 4069 00eb 12       		.uleb128 0x12
 4070 00ec 898201   		.uleb128 0x4109
 4071 00ef 01       		.byte	0x1
 4072 00f0 11       		.uleb128 0x11
 4073 00f1 01       		.uleb128 0x1
 4074 00f2 00       		.byte	0
 4075 00f3 00       		.byte	0
 4076 00f4 13       		.uleb128 0x13
 4077 00f5 8A8201   		.uleb128 0x410a
 4078 00f8 00       		.byte	0
 4079 00f9 02       		.uleb128 0x2
 4080 00fa 18       		.uleb128 0x18
 4081 00fb 9142     		.uleb128 0x2111
 4082 00fd 18       		.uleb128 0x18
 4083 00fe 00       		.byte	0
 4084 00ff 00       		.byte	0
 4085 0100 14       		.uleb128 0x14
 4086 0101 898201   		.uleb128 0x4109
 4087 0104 01       		.byte	0x1
 4088 0105 11       		.uleb128 0x11
 4089 0106 01       		.uleb128 0x1
 4090 0107 01       		.uleb128 0x1
 4091 0108 13       		.uleb128 0x13
 4092 0109 00       		.byte	0
 4093 010a 00       		.byte	0
 4094 010b 15       		.uleb128 0x15
ARM GAS  C:\Users\GYULAI~1\AppData\Local\Temp\cclBQTHO.s 			page 82


 4095 010c 26       		.uleb128 0x26
 4096 010d 00       		.byte	0
 4097 010e 49       		.uleb128 0x49
 4098 010f 13       		.uleb128 0x13
 4099 0110 00       		.byte	0
 4100 0111 00       		.byte	0
 4101 0112 16       		.uleb128 0x16
 4102 0113 34       		.uleb128 0x34
 4103 0114 00       		.byte	0
 4104 0115 03       		.uleb128 0x3
 4105 0116 0E       		.uleb128 0xe
 4106 0117 3A       		.uleb128 0x3a
 4107 0118 0B       		.uleb128 0xb
 4108 0119 3B       		.uleb128 0x3b
 4109 011a 0B       		.uleb128 0xb
 4110 011b 49       		.uleb128 0x49
 4111 011c 13       		.uleb128 0x13
 4112 011d 02       		.uleb128 0x2
 4113 011e 18       		.uleb128 0x18
 4114 011f 00       		.byte	0
 4115 0120 00       		.byte	0
 4116 0121 17       		.uleb128 0x17
 4117 0122 898201   		.uleb128 0x4109
 4118 0125 01       		.byte	0x1
 4119 0126 11       		.uleb128 0x11
 4120 0127 01       		.uleb128 0x1
 4121 0128 31       		.uleb128 0x31
 4122 0129 13       		.uleb128 0x13
 4123 012a 00       		.byte	0
 4124 012b 00       		.byte	0
 4125 012c 18       		.uleb128 0x18
 4126 012d 34       		.uleb128 0x34
 4127 012e 00       		.byte	0
 4128 012f 03       		.uleb128 0x3
 4129 0130 08       		.uleb128 0x8
 4130 0131 3A       		.uleb128 0x3a
 4131 0132 0B       		.uleb128 0xb
 4132 0133 3B       		.uleb128 0x3b
 4133 0134 0B       		.uleb128 0xb
 4134 0135 49       		.uleb128 0x49
 4135 0136 13       		.uleb128 0x13
 4136 0137 02       		.uleb128 0x2
 4137 0138 18       		.uleb128 0x18
 4138 0139 00       		.byte	0
 4139 013a 00       		.byte	0
 4140 013b 19       		.uleb128 0x19
 4141 013c 898201   		.uleb128 0x4109
 4142 013f 01       		.byte	0x1
 4143 0140 11       		.uleb128 0x11
 4144 0141 01       		.uleb128 0x1
 4145 0142 31       		.uleb128 0x31
 4146 0143 13       		.uleb128 0x13
 4147 0144 01       		.uleb128 0x1
 4148 0145 13       		.uleb128 0x13
 4149 0146 00       		.byte	0
 4150 0147 00       		.byte	0
 4151 0148 1A       		.uleb128 0x1a
ARM GAS  C:\Users\GYULAI~1\AppData\Local\Temp\cclBQTHO.s 			page 83


 4152 0149 898201   		.uleb128 0x4109
 4153 014c 00       		.byte	0
 4154 014d 11       		.uleb128 0x11
 4155 014e 01       		.uleb128 0x1
 4156 014f 31       		.uleb128 0x31
 4157 0150 13       		.uleb128 0x13
 4158 0151 00       		.byte	0
 4159 0152 00       		.byte	0
 4160 0153 1B       		.uleb128 0x1b
 4161 0154 01       		.uleb128 0x1
 4162 0155 01       		.byte	0x1
 4163 0156 49       		.uleb128 0x49
 4164 0157 13       		.uleb128 0x13
 4165 0158 01       		.uleb128 0x1
 4166 0159 13       		.uleb128 0x13
 4167 015a 00       		.byte	0
 4168 015b 00       		.byte	0
 4169 015c 1C       		.uleb128 0x1c
 4170 015d 21       		.uleb128 0x21
 4171 015e 00       		.byte	0
 4172 015f 49       		.uleb128 0x49
 4173 0160 13       		.uleb128 0x13
 4174 0161 2F       		.uleb128 0x2f
 4175 0162 0B       		.uleb128 0xb
 4176 0163 00       		.byte	0
 4177 0164 00       		.byte	0
 4178 0165 1D       		.uleb128 0x1d
 4179 0166 2E       		.uleb128 0x2e
 4180 0167 01       		.byte	0x1
 4181 0168 3F       		.uleb128 0x3f
 4182 0169 19       		.uleb128 0x19
 4183 016a 03       		.uleb128 0x3
 4184 016b 0E       		.uleb128 0xe
 4185 016c 3A       		.uleb128 0x3a
 4186 016d 0B       		.uleb128 0xb
 4187 016e 3B       		.uleb128 0x3b
 4188 016f 0B       		.uleb128 0xb
 4189 0170 27       		.uleb128 0x27
 4190 0171 19       		.uleb128 0x19
 4191 0172 49       		.uleb128 0x49
 4192 0173 13       		.uleb128 0x13
 4193 0174 11       		.uleb128 0x11
 4194 0175 01       		.uleb128 0x1
 4195 0176 12       		.uleb128 0x12
 4196 0177 06       		.uleb128 0x6
 4197 0178 40       		.uleb128 0x40
 4198 0179 18       		.uleb128 0x18
 4199 017a 9642     		.uleb128 0x2116
 4200 017c 19       		.uleb128 0x19
 4201 017d 01       		.uleb128 0x1
 4202 017e 13       		.uleb128 0x13
 4203 017f 00       		.byte	0
 4204 0180 00       		.byte	0
 4205 0181 1E       		.uleb128 0x1e
 4206 0182 34       		.uleb128 0x34
 4207 0183 00       		.byte	0
 4208 0184 03       		.uleb128 0x3
ARM GAS  C:\Users\GYULAI~1\AppData\Local\Temp\cclBQTHO.s 			page 84


 4209 0185 0E       		.uleb128 0xe
 4210 0186 3A       		.uleb128 0x3a
 4211 0187 0B       		.uleb128 0xb
 4212 0188 3B       		.uleb128 0x3b
 4213 0189 0B       		.uleb128 0xb
 4214 018a 49       		.uleb128 0x49
 4215 018b 13       		.uleb128 0x13
 4216 018c 02       		.uleb128 0x2
 4217 018d 17       		.uleb128 0x17
 4218 018e 00       		.byte	0
 4219 018f 00       		.byte	0
 4220 0190 1F       		.uleb128 0x1f
 4221 0191 34       		.uleb128 0x34
 4222 0192 00       		.byte	0
 4223 0193 03       		.uleb128 0x3
 4224 0194 0E       		.uleb128 0xe
 4225 0195 3A       		.uleb128 0x3a
 4226 0196 0B       		.uleb128 0xb
 4227 0197 3B       		.uleb128 0x3b
 4228 0198 0B       		.uleb128 0xb
 4229 0199 49       		.uleb128 0x49
 4230 019a 13       		.uleb128 0x13
 4231 019b 1C       		.uleb128 0x1c
 4232 019c 0A       		.uleb128 0xa
 4233 019d 00       		.byte	0
 4234 019e 00       		.byte	0
 4235 019f 20       		.uleb128 0x20
 4236 01a0 2E       		.uleb128 0x2e
 4237 01a1 00       		.byte	0
 4238 01a2 3F       		.uleb128 0x3f
 4239 01a3 19       		.uleb128 0x19
 4240 01a4 03       		.uleb128 0x3
 4241 01a5 0E       		.uleb128 0xe
 4242 01a6 3A       		.uleb128 0x3a
 4243 01a7 0B       		.uleb128 0xb
 4244 01a8 3B       		.uleb128 0x3b
 4245 01a9 05       		.uleb128 0x5
 4246 01aa 27       		.uleb128 0x27
 4247 01ab 19       		.uleb128 0x19
 4248 01ac 49       		.uleb128 0x49
 4249 01ad 13       		.uleb128 0x13
 4250 01ae 11       		.uleb128 0x11
 4251 01af 01       		.uleb128 0x1
 4252 01b0 12       		.uleb128 0x12
 4253 01b1 06       		.uleb128 0x6
 4254 01b2 40       		.uleb128 0x40
 4255 01b3 18       		.uleb128 0x18
 4256 01b4 9742     		.uleb128 0x2117
 4257 01b6 19       		.uleb128 0x19
 4258 01b7 00       		.byte	0
 4259 01b8 00       		.byte	0
 4260 01b9 21       		.uleb128 0x21
 4261 01ba 2E       		.uleb128 0x2e
 4262 01bb 01       		.byte	0x1
 4263 01bc 3F       		.uleb128 0x3f
 4264 01bd 19       		.uleb128 0x19
 4265 01be 03       		.uleb128 0x3
ARM GAS  C:\Users\GYULAI~1\AppData\Local\Temp\cclBQTHO.s 			page 85


 4266 01bf 0E       		.uleb128 0xe
 4267 01c0 3A       		.uleb128 0x3a
 4268 01c1 0B       		.uleb128 0xb
 4269 01c2 3B       		.uleb128 0x3b
 4270 01c3 05       		.uleb128 0x5
 4271 01c4 27       		.uleb128 0x27
 4272 01c5 19       		.uleb128 0x19
 4273 01c6 11       		.uleb128 0x11
 4274 01c7 01       		.uleb128 0x1
 4275 01c8 12       		.uleb128 0x12
 4276 01c9 06       		.uleb128 0x6
 4277 01ca 40       		.uleb128 0x40
 4278 01cb 18       		.uleb128 0x18
 4279 01cc 9742     		.uleb128 0x2117
 4280 01ce 19       		.uleb128 0x19
 4281 01cf 01       		.uleb128 0x1
 4282 01d0 13       		.uleb128 0x13
 4283 01d1 00       		.byte	0
 4284 01d2 00       		.byte	0
 4285 01d3 22       		.uleb128 0x22
 4286 01d4 05       		.uleb128 0x5
 4287 01d5 00       		.byte	0
 4288 01d6 03       		.uleb128 0x3
 4289 01d7 0E       		.uleb128 0xe
 4290 01d8 3A       		.uleb128 0x3a
 4291 01d9 0B       		.uleb128 0xb
 4292 01da 3B       		.uleb128 0x3b
 4293 01db 05       		.uleb128 0x5
 4294 01dc 49       		.uleb128 0x49
 4295 01dd 13       		.uleb128 0x13
 4296 01de 02       		.uleb128 0x2
 4297 01df 17       		.uleb128 0x17
 4298 01e0 00       		.byte	0
 4299 01e1 00       		.byte	0
 4300 01e2 23       		.uleb128 0x23
 4301 01e3 2E       		.uleb128 0x2e
 4302 01e4 01       		.byte	0x1
 4303 01e5 3F       		.uleb128 0x3f
 4304 01e6 19       		.uleb128 0x19
 4305 01e7 03       		.uleb128 0x3
 4306 01e8 0E       		.uleb128 0xe
 4307 01e9 3A       		.uleb128 0x3a
 4308 01ea 0B       		.uleb128 0xb
 4309 01eb 3B       		.uleb128 0x3b
 4310 01ec 05       		.uleb128 0x5
 4311 01ed 27       		.uleb128 0x27
 4312 01ee 19       		.uleb128 0x19
 4313 01ef 49       		.uleb128 0x49
 4314 01f0 13       		.uleb128 0x13
 4315 01f1 11       		.uleb128 0x11
 4316 01f2 01       		.uleb128 0x1
 4317 01f3 12       		.uleb128 0x12
 4318 01f4 06       		.uleb128 0x6
 4319 01f5 40       		.uleb128 0x40
 4320 01f6 18       		.uleb128 0x18
 4321 01f7 9642     		.uleb128 0x2116
 4322 01f9 19       		.uleb128 0x19
ARM GAS  C:\Users\GYULAI~1\AppData\Local\Temp\cclBQTHO.s 			page 86


 4323 01fa 01       		.uleb128 0x1
 4324 01fb 13       		.uleb128 0x13
 4325 01fc 00       		.byte	0
 4326 01fd 00       		.byte	0
 4327 01fe 24       		.uleb128 0x24
 4328 01ff 34       		.uleb128 0x34
 4329 0200 00       		.byte	0
 4330 0201 03       		.uleb128 0x3
 4331 0202 0E       		.uleb128 0xe
 4332 0203 3A       		.uleb128 0x3a
 4333 0204 0B       		.uleb128 0xb
 4334 0205 3B       		.uleb128 0x3b
 4335 0206 05       		.uleb128 0x5
 4336 0207 49       		.uleb128 0x49
 4337 0208 13       		.uleb128 0x13
 4338 0209 02       		.uleb128 0x2
 4339 020a 17       		.uleb128 0x17
 4340 020b 00       		.byte	0
 4341 020c 00       		.byte	0
 4342 020d 25       		.uleb128 0x25
 4343 020e 2E       		.uleb128 0x2e
 4344 020f 01       		.byte	0x1
 4345 0210 3F       		.uleb128 0x3f
 4346 0211 19       		.uleb128 0x19
 4347 0212 03       		.uleb128 0x3
 4348 0213 0E       		.uleb128 0xe
 4349 0214 3A       		.uleb128 0x3a
 4350 0215 0B       		.uleb128 0xb
 4351 0216 3B       		.uleb128 0x3b
 4352 0217 05       		.uleb128 0x5
 4353 0218 27       		.uleb128 0x27
 4354 0219 19       		.uleb128 0x19
 4355 021a 49       		.uleb128 0x49
 4356 021b 13       		.uleb128 0x13
 4357 021c 11       		.uleb128 0x11
 4358 021d 01       		.uleb128 0x1
 4359 021e 12       		.uleb128 0x12
 4360 021f 06       		.uleb128 0x6
 4361 0220 40       		.uleb128 0x40
 4362 0221 18       		.uleb128 0x18
 4363 0222 9742     		.uleb128 0x2117
 4364 0224 19       		.uleb128 0x19
 4365 0225 01       		.uleb128 0x1
 4366 0226 13       		.uleb128 0x13
 4367 0227 00       		.byte	0
 4368 0228 00       		.byte	0
 4369 0229 26       		.uleb128 0x26
 4370 022a 2E       		.uleb128 0x2e
 4371 022b 00       		.byte	0
 4372 022c 3F       		.uleb128 0x3f
 4373 022d 19       		.uleb128 0x19
 4374 022e 03       		.uleb128 0x3
 4375 022f 0E       		.uleb128 0xe
 4376 0230 3A       		.uleb128 0x3a
 4377 0231 0B       		.uleb128 0xb
 4378 0232 3B       		.uleb128 0x3b
 4379 0233 05       		.uleb128 0x5
ARM GAS  C:\Users\GYULAI~1\AppData\Local\Temp\cclBQTHO.s 			page 87


 4380 0234 49       		.uleb128 0x49
 4381 0235 13       		.uleb128 0x13
 4382 0236 11       		.uleb128 0x11
 4383 0237 01       		.uleb128 0x1
 4384 0238 12       		.uleb128 0x12
 4385 0239 06       		.uleb128 0x6
 4386 023a 40       		.uleb128 0x40
 4387 023b 18       		.uleb128 0x18
 4388 023c 9742     		.uleb128 0x2117
 4389 023e 19       		.uleb128 0x19
 4390 023f 00       		.byte	0
 4391 0240 00       		.byte	0
 4392 0241 00       		.byte	0
 4393              		.section	.debug_loc,"",%progbits
 4394              	.Ldebug_loc0:
 4395              	.LLST0:
 4396 0000 00000000 		.4byte	.LVL0
 4397 0004 13000000 		.4byte	.LVL3-1
 4398 0008 0100     		.2byte	0x1
 4399 000a 50       		.byte	0x50
 4400 000b 13000000 		.4byte	.LVL3-1
 4401 000f 50000000 		.4byte	.LFE1
 4402 0013 0400     		.2byte	0x4
 4403 0015 F3       		.byte	0xf3
 4404 0016 01       		.uleb128 0x1
 4405 0017 50       		.byte	0x50
 4406 0018 9F       		.byte	0x9f
 4407 0019 00000000 		.4byte	0
 4408 001d 00000000 		.4byte	0
 4409              	.LLST1:
 4410 0021 00000000 		.4byte	.LVL0
 4411 0025 12000000 		.4byte	.LVL2
 4412 0029 0100     		.2byte	0x1
 4413 002b 51       		.byte	0x51
 4414 002c 12000000 		.4byte	.LVL2
 4415 0030 50000000 		.4byte	.LFE1
 4416 0034 0400     		.2byte	0x4
 4417 0036 F3       		.byte	0xf3
 4418 0037 01       		.uleb128 0x1
 4419 0038 51       		.byte	0x51
 4420 0039 9F       		.byte	0x9f
 4421 003a 00000000 		.4byte	0
 4422 003e 00000000 		.4byte	0
 4423              	.LLST2:
 4424 0042 00000000 		.4byte	.LVL0
 4425 0046 13000000 		.4byte	.LVL3-1
 4426 004a 0100     		.2byte	0x1
 4427 004c 52       		.byte	0x52
 4428 004d 13000000 		.4byte	.LVL3-1
 4429 0051 4A000000 		.4byte	.LVL11
 4430 0055 0100     		.2byte	0x1
 4431 0057 56       		.byte	0x56
 4432 0058 4A000000 		.4byte	.LVL11
 4433 005c 50000000 		.4byte	.LFE1
 4434 0060 0400     		.2byte	0x4
 4435 0062 F3       		.byte	0xf3
 4436 0063 01       		.uleb128 0x1
ARM GAS  C:\Users\GYULAI~1\AppData\Local\Temp\cclBQTHO.s 			page 88


 4437 0064 52       		.byte	0x52
 4438 0065 9F       		.byte	0x9f
 4439 0066 00000000 		.4byte	0
 4440 006a 00000000 		.4byte	0
 4441              	.LLST3:
 4442 006e 00000000 		.4byte	.LVL0
 4443 0072 10000000 		.4byte	.LVL1
 4444 0076 0100     		.2byte	0x1
 4445 0078 53       		.byte	0x53
 4446 0079 10000000 		.4byte	.LVL1
 4447 007d 50000000 		.4byte	.LFE1
 4448 0081 0400     		.2byte	0x4
 4449 0083 F3       		.byte	0xf3
 4450 0084 01       		.uleb128 0x1
 4451 0085 53       		.byte	0x53
 4452 0086 9F       		.byte	0x9f
 4453 0087 00000000 		.4byte	0
 4454 008b 00000000 		.4byte	0
 4455              	.LLST4:
 4456 008f 22000000 		.4byte	.LVL5
 4457 0093 26000000 		.4byte	.LVL6
 4458 0097 0200     		.2byte	0x2
 4459 0099 30       		.byte	0x30
 4460 009a 9F       		.byte	0x9f
 4461 009b 26000000 		.4byte	.LVL6
 4462 009f 3A000000 		.4byte	.LVL8
 4463 00a3 0100     		.2byte	0x1
 4464 00a5 54       		.byte	0x54
 4465 00a6 3C000000 		.4byte	.LVL9
 4466 00aa 4A000000 		.4byte	.LVL11
 4467 00ae 0100     		.2byte	0x1
 4468 00b0 54       		.byte	0x54
 4469 00b1 00000000 		.4byte	0
 4470 00b5 00000000 		.4byte	0
 4471              	.LLST5:
 4472 00b9 00000000 		.4byte	.LVL12
 4473 00bd 11000000 		.4byte	.LVL15-1
 4474 00c1 0100     		.2byte	0x1
 4475 00c3 50       		.byte	0x50
 4476 00c4 11000000 		.4byte	.LVL15-1
 4477 00c8 44000000 		.4byte	.LFE2
 4478 00cc 0400     		.2byte	0x4
 4479 00ce F3       		.byte	0xf3
 4480 00cf 01       		.uleb128 0x1
 4481 00d0 50       		.byte	0x50
 4482 00d1 9F       		.byte	0x9f
 4483 00d2 00000000 		.4byte	0
 4484 00d6 00000000 		.4byte	0
 4485              	.LLST6:
 4486 00da 00000000 		.4byte	.LVL12
 4487 00de 10000000 		.4byte	.LVL14
 4488 00e2 0100     		.2byte	0x1
 4489 00e4 51       		.byte	0x51
 4490 00e5 10000000 		.4byte	.LVL14
 4491 00e9 16000000 		.4byte	.LVL16
 4492 00ed 0400     		.2byte	0x4
 4493 00ef F3       		.byte	0xf3
ARM GAS  C:\Users\GYULAI~1\AppData\Local\Temp\cclBQTHO.s 			page 89


 4494 00f0 01       		.uleb128 0x1
 4495 00f1 51       		.byte	0x51
 4496 00f2 9F       		.byte	0x9f
 4497 00f3 16000000 		.4byte	.LVL16
 4498 00f7 1E000000 		.4byte	.LVL17
 4499 00fb 0100     		.2byte	0x1
 4500 00fd 55       		.byte	0x55
 4501 00fe 1E000000 		.4byte	.LVL17
 4502 0102 30000000 		.4byte	.LVL22
 4503 0106 0100     		.2byte	0x1
 4504 0108 57       		.byte	0x57
 4505 0109 30000000 		.4byte	.LVL22
 4506 010d 3E000000 		.4byte	.LVL24
 4507 0111 0100     		.2byte	0x1
 4508 0113 55       		.byte	0x55
 4509 0114 00000000 		.4byte	0
 4510 0118 00000000 		.4byte	0
 4511              	.LLST7:
 4512 011c 00000000 		.4byte	.LVL12
 4513 0120 11000000 		.4byte	.LVL15-1
 4514 0124 0100     		.2byte	0x1
 4515 0126 52       		.byte	0x52
 4516 0127 11000000 		.4byte	.LVL15-1
 4517 012b 3E000000 		.4byte	.LVL24
 4518 012f 0100     		.2byte	0x1
 4519 0131 59       		.byte	0x59
 4520 0132 3E000000 		.4byte	.LVL24
 4521 0136 44000000 		.4byte	.LFE2
 4522 013a 0400     		.2byte	0x4
 4523 013c F3       		.byte	0xf3
 4524 013d 01       		.uleb128 0x1
 4525 013e 52       		.byte	0x52
 4526 013f 9F       		.byte	0x9f
 4527 0140 00000000 		.4byte	0
 4528 0144 00000000 		.4byte	0
 4529              	.LLST8:
 4530 0148 00000000 		.4byte	.LVL12
 4531 014c 0C000000 		.4byte	.LVL13
 4532 0150 0100     		.2byte	0x1
 4533 0152 53       		.byte	0x53
 4534 0153 0C000000 		.4byte	.LVL13
 4535 0157 44000000 		.4byte	.LFE2
 4536 015b 0400     		.2byte	0x4
 4537 015d F3       		.byte	0xf3
 4538 015e 01       		.uleb128 0x1
 4539 015f 53       		.byte	0x53
 4540 0160 9F       		.byte	0x9f
 4541 0161 00000000 		.4byte	0
 4542 0165 00000000 		.4byte	0
 4543              	.LLST9:
 4544 0169 12000000 		.4byte	.LVL15
 4545 016d 16000000 		.4byte	.LVL16
 4546 0171 0200     		.2byte	0x2
 4547 0173 30       		.byte	0x30
 4548 0174 9F       		.byte	0x9f
 4549 0175 16000000 		.4byte	.LVL16
 4550 0179 2C000000 		.4byte	.LVL20
ARM GAS  C:\Users\GYULAI~1\AppData\Local\Temp\cclBQTHO.s 			page 90


 4551 017d 0100     		.2byte	0x1
 4552 017f 54       		.byte	0x54
 4553 0180 2E000000 		.4byte	.LVL21
 4554 0184 3E000000 		.4byte	.LVL24
 4555 0188 0100     		.2byte	0x1
 4556 018a 54       		.byte	0x54
 4557 018b 00000000 		.4byte	0
 4558 018f 00000000 		.4byte	0
 4559              	.LLST10:
 4560 0193 00000000 		.4byte	.LVL33
 4561 0197 09000000 		.4byte	.LVL34-1
 4562 019b 0100     		.2byte	0x1
 4563 019d 50       		.byte	0x50
 4564 019e 09000000 		.4byte	.LVL34-1
 4565 01a2 2C010000 		.4byte	.LFE7
 4566 01a6 0400     		.2byte	0x4
 4567 01a8 F3       		.byte	0xf3
 4568 01a9 01       		.uleb128 0x1
 4569 01aa 50       		.byte	0x50
 4570 01ab 9F       		.byte	0x9f
 4571 01ac 00000000 		.4byte	0
 4572 01b0 00000000 		.4byte	0
 4573              	.LLST11:
 4574 01b4 18000000 		.4byte	.LVL35
 4575 01b8 1C000000 		.4byte	.LVL36
 4576 01bc 0800     		.2byte	0x8
 4577 01be 70       		.byte	0x70
 4578 01bf 00       		.sleb128 0
 4579 01c0 3C       		.byte	0x3c
 4580 01c1 24       		.byte	0x24
 4581 01c2 73       		.byte	0x73
 4582 01c3 00       		.sleb128 0
 4583 01c4 21       		.byte	0x21
 4584 01c5 9F       		.byte	0x9f
 4585 01c6 1C000000 		.4byte	.LVL36
 4586 01ca 1F000000 		.4byte	.LVL37-1
 4587 01ce 0100     		.2byte	0x1
 4588 01d0 50       		.byte	0x50
 4589 01d1 00000000 		.4byte	0
 4590 01d5 00000000 		.4byte	0
 4591              	.LLST12:
 4592 01d9 52000000 		.4byte	.LVL42
 4593 01dd 68000000 		.4byte	.LVL45
 4594 01e1 0600     		.2byte	0x6
 4595 01e3 56       		.byte	0x56
 4596 01e4 93       		.byte	0x93
 4597 01e5 04       		.uleb128 0x4
 4598 01e6 57       		.byte	0x57
 4599 01e7 93       		.byte	0x93
 4600 01e8 04       		.uleb128 0x4
 4601 01e9 6A000000 		.4byte	.LVL46
 4602 01ed C0000000 		.4byte	.LVL55
 4603 01f1 0600     		.2byte	0x6
 4604 01f3 56       		.byte	0x56
 4605 01f4 93       		.byte	0x93
 4606 01f5 04       		.uleb128 0x4
 4607 01f6 57       		.byte	0x57
ARM GAS  C:\Users\GYULAI~1\AppData\Local\Temp\cclBQTHO.s 			page 91


 4608 01f7 93       		.byte	0x93
 4609 01f8 04       		.uleb128 0x4
 4610 01f9 00000000 		.4byte	0
 4611 01fd 00000000 		.4byte	0
 4612              	.LLST13:
 4613 0201 92000000 		.4byte	.LVL49
 4614 0205 99000000 		.4byte	.LVL50-1
 4615 0209 0600     		.2byte	0x6
 4616 020b 50       		.byte	0x50
 4617 020c 93       		.byte	0x93
 4618 020d 04       		.uleb128 0x4
 4619 020e 51       		.byte	0x51
 4620 020f 93       		.byte	0x93
 4621 0210 04       		.uleb128 0x4
 4622 0211 B2000000 		.4byte	.LVL52
 4623 0215 B8000000 		.4byte	.LVL53
 4624 0219 0600     		.2byte	0x6
 4625 021b 50       		.byte	0x50
 4626 021c 93       		.byte	0x93
 4627 021d 04       		.uleb128 0x4
 4628 021e 51       		.byte	0x51
 4629 021f 93       		.byte	0x93
 4630 0220 04       		.uleb128 0x4
 4631 0221 00000000 		.4byte	0
 4632 0225 00000000 		.4byte	0
 4633              	.LLST14:
 4634 0229 DA000000 		.4byte	.LVL58
 4635 022d F6000000 		.4byte	.LVL61
 4636 0231 0600     		.2byte	0x6
 4637 0233 54       		.byte	0x54
 4638 0234 93       		.byte	0x93
 4639 0235 04       		.uleb128 0x4
 4640 0236 55       		.byte	0x55
 4641 0237 93       		.byte	0x93
 4642 0238 04       		.uleb128 0x4
 4643 0239 FA000000 		.4byte	.LVL62
 4644 023d FC000000 		.4byte	.LVL63
 4645 0241 0600     		.2byte	0x6
 4646 0243 54       		.byte	0x54
 4647 0244 93       		.byte	0x93
 4648 0245 04       		.uleb128 0x4
 4649 0246 55       		.byte	0x55
 4650 0247 93       		.byte	0x93
 4651 0248 04       		.uleb128 0x4
 4652 0249 FE000000 		.4byte	.LVL64
 4653 024d 0C010000 		.4byte	.LVL66
 4654 0251 0600     		.2byte	0x6
 4655 0253 54       		.byte	0x54
 4656 0254 93       		.byte	0x93
 4657 0255 04       		.uleb128 0x4
 4658 0256 55       		.byte	0x55
 4659 0257 93       		.byte	0x93
 4660 0258 04       		.uleb128 0x4
 4661 0259 00000000 		.4byte	0
 4662 025d 00000000 		.4byte	0
 4663              	.LLST15:
 4664 0261 00000000 		.4byte	.LVL67
ARM GAS  C:\Users\GYULAI~1\AppData\Local\Temp\cclBQTHO.s 			page 92


 4665 0265 05000000 		.4byte	.LVL68-1
 4666 0269 0100     		.2byte	0x1
 4667 026b 50       		.byte	0x50
 4668 026c 05000000 		.4byte	.LVL68-1
 4669 0270 24000000 		.4byte	.LFE8
 4670 0274 0400     		.2byte	0x4
 4671 0276 F3       		.byte	0xf3
 4672 0277 01       		.uleb128 0x1
 4673 0278 50       		.byte	0x50
 4674 0279 9F       		.byte	0x9f
 4675 027a 00000000 		.4byte	0
 4676 027e 00000000 		.4byte	0
 4677              	.LLST16:
 4678 0282 00000000 		.4byte	.LVL73
 4679 0286 09000000 		.4byte	.LVL74-1
 4680 028a 0100     		.2byte	0x1
 4681 028c 50       		.byte	0x50
 4682 028d 09000000 		.4byte	.LVL74-1
 4683 0291 84020000 		.4byte	.LFE9
 4684 0295 0400     		.2byte	0x4
 4685 0297 F3       		.byte	0xf3
 4686 0298 01       		.uleb128 0x1
 4687 0299 50       		.byte	0x50
 4688 029a 9F       		.byte	0x9f
 4689 029b 00000000 		.4byte	0
 4690 029f 00000000 		.4byte	0
 4691              	.LLST17:
 4692 02a3 1C000000 		.4byte	.LVL75
 4693 02a7 0A020000 		.4byte	.LVL134
 4694 02ab 0100     		.2byte	0x1
 4695 02ad 55       		.byte	0x55
 4696 02ae 00000000 		.4byte	0
 4697 02b2 00000000 		.4byte	0
 4698              	.LLST18:
 4699 02b6 38000000 		.4byte	.LVL79
 4700 02ba 12010000 		.4byte	.LVL102
 4701 02be 0600     		.2byte	0x6
 4702 02c0 56       		.byte	0x56
 4703 02c1 93       		.byte	0x93
 4704 02c2 04       		.uleb128 0x4
 4705 02c3 57       		.byte	0x57
 4706 02c4 93       		.byte	0x93
 4707 02c5 04       		.uleb128 0x4
 4708 02c6 12010000 		.4byte	.LVL102
 4709 02ca 1B010000 		.4byte	.LVL103-1
 4710 02ce 0600     		.2byte	0x6
 4711 02d0 50       		.byte	0x50
 4712 02d1 93       		.byte	0x93
 4713 02d2 04       		.uleb128 0x4
 4714 02d3 51       		.byte	0x51
 4715 02d4 93       		.byte	0x93
 4716 02d5 04       		.uleb128 0x4
 4717 02d6 3E010000 		.4byte	.LVL108
 4718 02da AE010000 		.4byte	.LVL122
 4719 02de 0600     		.2byte	0x6
 4720 02e0 58       		.byte	0x58
 4721 02e1 93       		.byte	0x93
ARM GAS  C:\Users\GYULAI~1\AppData\Local\Temp\cclBQTHO.s 			page 93


 4722 02e2 04       		.uleb128 0x4
 4723 02e3 59       		.byte	0x59
 4724 02e4 93       		.byte	0x93
 4725 02e5 04       		.uleb128 0x4
 4726 02e6 B0010000 		.4byte	.LVL123
 4727 02ea DC010000 		.4byte	.LVL129
 4728 02ee 0600     		.2byte	0x6
 4729 02f0 58       		.byte	0x58
 4730 02f1 93       		.byte	0x93
 4731 02f2 04       		.uleb128 0x4
 4732 02f3 59       		.byte	0x59
 4733 02f4 93       		.byte	0x93
 4734 02f5 04       		.uleb128 0x4
 4735 02f6 00000000 		.4byte	0
 4736 02fa 00000000 		.4byte	0
 4737              	.LLST19:
 4738 02fe 66000000 		.4byte	.LVL84
 4739 0302 8E000000 		.4byte	.LVL88
 4740 0306 0600     		.2byte	0x6
 4741 0308 58       		.byte	0x58
 4742 0309 93       		.byte	0x93
 4743 030a 04       		.uleb128 0x4
 4744 030b 59       		.byte	0x59
 4745 030c 93       		.byte	0x93
 4746 030d 04       		.uleb128 0x4
 4747 030e 8E000000 		.4byte	.LVL88
 4748 0312 95000000 		.4byte	.LVL89-1
 4749 0316 0600     		.2byte	0x6
 4750 0318 50       		.byte	0x50
 4751 0319 93       		.byte	0x93
 4752 031a 04       		.uleb128 0x4
 4753 031b 51       		.byte	0x51
 4754 031c 93       		.byte	0x93
 4755 031d 04       		.uleb128 0x4
 4756 031e BA000000 		.4byte	.LVL93
 4757 0322 CE010000 		.4byte	.LVL126
 4758 0326 0600     		.2byte	0x6
 4759 0328 5A       		.byte	0x5a
 4760 0329 93       		.byte	0x93
 4761 032a 04       		.uleb128 0x4
 4762 032b 5B       		.byte	0x5b
 4763 032c 93       		.byte	0x93
 4764 032d 04       		.uleb128 0x4
 4765 032e CE010000 		.4byte	.LVL126
 4766 0332 D4010000 		.4byte	.LVL127
 4767 0336 0600     		.2byte	0x6
 4768 0338 50       		.byte	0x50
 4769 0339 93       		.byte	0x93
 4770 033a 04       		.uleb128 0x4
 4771 033b 51       		.byte	0x51
 4772 033c 93       		.byte	0x93
 4773 033d 04       		.uleb128 0x4
 4774 033e 00000000 		.4byte	0
 4775 0342 00000000 		.4byte	0
 4776              	.LLST20:
 4777 0346 E8000000 		.4byte	.LVL98
 4778 034a 3C010000 		.4byte	.LVL107
ARM GAS  C:\Users\GYULAI~1\AppData\Local\Temp\cclBQTHO.s 			page 94


 4779 034e 0600     		.2byte	0x6
 4780 0350 58       		.byte	0x58
 4781 0351 93       		.byte	0x93
 4782 0352 04       		.uleb128 0x4
 4783 0353 59       		.byte	0x59
 4784 0354 93       		.byte	0x93
 4785 0355 04       		.uleb128 0x4
 4786 0356 00000000 		.4byte	0
 4787 035a 00000000 		.4byte	0
 4788              	.LLST21:
 4789 035e 54010000 		.4byte	.LVL111
 4790 0362 80010000 		.4byte	.LVL116
 4791 0366 0600     		.2byte	0x6
 4792 0368 56       		.byte	0x56
 4793 0369 93       		.byte	0x93
 4794 036a 04       		.uleb128 0x4
 4795 036b 57       		.byte	0x57
 4796 036c 93       		.byte	0x93
 4797 036d 04       		.uleb128 0x4
 4798 036e 82010000 		.4byte	.LVL117
 4799 0372 0A020000 		.4byte	.LVL134
 4800 0376 0600     		.2byte	0x6
 4801 0378 56       		.byte	0x56
 4802 0379 93       		.byte	0x93
 4803 037a 04       		.uleb128 0x4
 4804 037b 57       		.byte	0x57
 4805 037c 93       		.byte	0x93
 4806 037d 04       		.uleb128 0x4
 4807 037e 0A020000 		.4byte	.LVL134
 4808 0382 2E020000 		.4byte	.LVL137
 4809 0386 0600     		.2byte	0x6
 4810 0388 54       		.byte	0x54
 4811 0389 93       		.byte	0x93
 4812 038a 04       		.uleb128 0x4
 4813 038b 55       		.byte	0x55
 4814 038c 93       		.byte	0x93
 4815 038d 04       		.uleb128 0x4
 4816 038e 30020000 		.4byte	.LVL138
 4817 0392 42020000 		.4byte	.LVL141
 4818 0396 0600     		.2byte	0x6
 4819 0398 54       		.byte	0x54
 4820 0399 93       		.byte	0x93
 4821 039a 04       		.uleb128 0x4
 4822 039b 55       		.byte	0x55
 4823 039c 93       		.byte	0x93
 4824 039d 04       		.uleb128 0x4
 4825 039e 00000000 		.4byte	0
 4826 03a2 00000000 		.4byte	0
 4827              	.LLST22:
 4828 03a6 00000000 		.4byte	.LVL142
 4829 03aa 0B000000 		.4byte	.LVL143-1
 4830 03ae 0100     		.2byte	0x1
 4831 03b0 50       		.byte	0x50
 4832 03b1 0B000000 		.4byte	.LVL143-1
 4833 03b5 AC010000 		.4byte	.LFE10
 4834 03b9 0400     		.2byte	0x4
 4835 03bb F3       		.byte	0xf3
ARM GAS  C:\Users\GYULAI~1\AppData\Local\Temp\cclBQTHO.s 			page 95


 4836 03bc 01       		.uleb128 0x1
 4837 03bd 50       		.byte	0x50
 4838 03be 9F       		.byte	0x9f
 4839 03bf 00000000 		.4byte	0
 4840 03c3 00000000 		.4byte	0
 4841              	.LLST23:
 4842 03c7 1C000000 		.4byte	.LVL144
 4843 03cb F0000000 		.4byte	.LVL174
 4844 03cf 0100     		.2byte	0x1
 4845 03d1 58       		.byte	0x58
 4846 03d2 00000000 		.4byte	0
 4847 03d6 00000000 		.4byte	0
 4848              	.LLST24:
 4849 03da 58010000 		.4byte	.LVL188
 4850 03de 74010000 		.4byte	.LVL191
 4851 03e2 0600     		.2byte	0x6
 4852 03e4 54       		.byte	0x54
 4853 03e5 93       		.byte	0x93
 4854 03e6 04       		.uleb128 0x4
 4855 03e7 55       		.byte	0x55
 4856 03e8 93       		.byte	0x93
 4857 03e9 04       		.uleb128 0x4
 4858 03ea 78010000 		.4byte	.LVL192
 4859 03ee 7A010000 		.4byte	.LVL193
 4860 03f2 0600     		.2byte	0x6
 4861 03f4 54       		.byte	0x54
 4862 03f5 93       		.byte	0x93
 4863 03f6 04       		.uleb128 0x4
 4864 03f7 55       		.byte	0x55
 4865 03f8 93       		.byte	0x93
 4866 03f9 04       		.uleb128 0x4
 4867 03fa 7C010000 		.4byte	.LVL194
 4868 03fe 8C010000 		.4byte	.LVL197
 4869 0402 0600     		.2byte	0x6
 4870 0404 54       		.byte	0x54
 4871 0405 93       		.byte	0x93
 4872 0406 04       		.uleb128 0x4
 4873 0407 55       		.byte	0x55
 4874 0408 93       		.byte	0x93
 4875 0409 04       		.uleb128 0x4
 4876 040a 00000000 		.4byte	0
 4877 040e 00000000 		.4byte	0
 4878              	.LLST25:
 4879 0412 30000000 		.4byte	.LVL147
 4880 0416 00010000 		.4byte	.LVL177
 4881 041a 0600     		.2byte	0x6
 4882 041c 56       		.byte	0x56
 4883 041d 93       		.byte	0x93
 4884 041e 04       		.uleb128 0x4
 4885 041f 57       		.byte	0x57
 4886 0420 93       		.byte	0x93
 4887 0421 04       		.uleb128 0x4
 4888 0422 00000000 		.4byte	0
 4889 0426 00000000 		.4byte	0
 4890              	.LLST26:
 4891 042a 70000000 		.4byte	.LVL154
 4892 042e BC000000 		.4byte	.LVL167
ARM GAS  C:\Users\GYULAI~1\AppData\Local\Temp\cclBQTHO.s 			page 96


 4893 0432 0600     		.2byte	0x6
 4894 0434 54       		.byte	0x54
 4895 0435 93       		.byte	0x93
 4896 0436 04       		.uleb128 0x4
 4897 0437 55       		.byte	0x55
 4898 0438 93       		.byte	0x93
 4899 0439 04       		.uleb128 0x4
 4900 043a 00000000 		.4byte	0
 4901 043e 00000000 		.4byte	0
 4902              	.LLST27:
 4903 0442 82000000 		.4byte	.LVL157
 4904 0446 86000000 		.4byte	.LVL158
 4905 044a 0600     		.2byte	0x6
 4906 044c 50       		.byte	0x50
 4907 044d 93       		.byte	0x93
 4908 044e 04       		.uleb128 0x4
 4909 044f 51       		.byte	0x51
 4910 0450 93       		.byte	0x93
 4911 0451 04       		.uleb128 0x4
 4912 0452 86000000 		.4byte	.LVL158
 4913 0456 88010000 		.4byte	.LVL196
 4914 045a 0200     		.2byte	0x2
 4915 045c 7D       		.byte	0x7d
 4916 045d 00       		.sleb128 0
 4917 045e 88010000 		.4byte	.LVL196
 4918 0462 8C010000 		.4byte	.LVL197
 4919 0466 0200     		.2byte	0x2
 4920 0468 91       		.byte	0x91
 4921 0469 50       		.sleb128 -48
 4922 046a 8C010000 		.4byte	.LVL197
 4923 046e AC010000 		.4byte	.LFE10
 4924 0472 0200     		.2byte	0x2
 4925 0474 7D       		.byte	0x7d
 4926 0475 50       		.sleb128 -48
 4927 0476 00000000 		.4byte	0
 4928 047a 00000000 		.4byte	0
 4929              	.LLST28:
 4930 047e 96000000 		.4byte	.LVL161
 4931 0482 9A000000 		.4byte	.LVL162
 4932 0486 0600     		.2byte	0x6
 4933 0488 50       		.byte	0x50
 4934 0489 93       		.byte	0x93
 4935 048a 04       		.uleb128 0x4
 4936 048b 51       		.byte	0x51
 4937 048c 93       		.byte	0x93
 4938 048d 04       		.uleb128 0x4
 4939 048e 9A000000 		.4byte	.LVL162
 4940 0492 8C010000 		.4byte	.LVL197
 4941 0496 0200     		.2byte	0x2
 4942 0498 91       		.byte	0x91
 4943 0499 58       		.sleb128 -40
 4944 049a 8C010000 		.4byte	.LVL197
 4945 049e AC010000 		.4byte	.LFE10
 4946 04a2 0200     		.2byte	0x2
 4947 04a4 7D       		.byte	0x7d
 4948 04a5 58       		.sleb128 -40
 4949 04a6 00000000 		.4byte	0
ARM GAS  C:\Users\GYULAI~1\AppData\Local\Temp\cclBQTHO.s 			page 97


 4950 04aa 00000000 		.4byte	0
 4951              	.LLST29:
 4952 04ae BE000000 		.4byte	.LVL168
 4953 04b2 1C010000 		.4byte	.LVL180
 4954 04b6 0600     		.2byte	0x6
 4955 04b8 54       		.byte	0x54
 4956 04b9 93       		.byte	0x93
 4957 04ba 04       		.uleb128 0x4
 4958 04bb 55       		.byte	0x55
 4959 04bc 93       		.byte	0x93
 4960 04bd 04       		.uleb128 0x4
 4961 04be 00000000 		.4byte	0
 4962 04c2 00000000 		.4byte	0
 4963              	.LLST30:
 4964 04c6 F2000000 		.4byte	.LVL175
 4965 04ca 1E010000 		.4byte	.LVL181
 4966 04ce 0600     		.2byte	0x6
 4967 04d0 58       		.byte	0x58
 4968 04d1 93       		.byte	0x93
 4969 04d2 04       		.uleb128 0x4
 4970 04d3 59       		.byte	0x59
 4971 04d4 93       		.byte	0x93
 4972 04d5 04       		.uleb128 0x4
 4973 04d6 1E010000 		.4byte	.LVL181
 4974 04da 56010000 		.4byte	.LVL187
 4975 04de 0600     		.2byte	0x6
 4976 04e0 54       		.byte	0x54
 4977 04e1 93       		.byte	0x93
 4978 04e2 04       		.uleb128 0x4
 4979 04e3 55       		.byte	0x55
 4980 04e4 93       		.byte	0x93
 4981 04e5 04       		.uleb128 0x4
 4982 04e6 00000000 		.4byte	0
 4983 04ea 00000000 		.4byte	0
 4984              	.LLST31:
 4985 04ee 00000000 		.4byte	.LVL198
 4986 04f2 0C000000 		.4byte	.LVL199
 4987 04f6 0100     		.2byte	0x1
 4988 04f8 50       		.byte	0x50
 4989 04f9 0C000000 		.4byte	.LVL199
 4990 04fd 20000000 		.4byte	.LFE13
 4991 0501 0400     		.2byte	0x4
 4992 0503 F3       		.byte	0xf3
 4993 0504 01       		.uleb128 0x1
 4994 0505 50       		.byte	0x50
 4995 0506 9F       		.byte	0x9f
 4996 0507 00000000 		.4byte	0
 4997 050b 00000000 		.4byte	0
 4998              	.LLST32:
 4999 050f 00000000 		.4byte	.LVL201
 5000 0513 0C000000 		.4byte	.LVL202
 5001 0517 0100     		.2byte	0x1
 5002 0519 50       		.byte	0x50
 5003 051a 0C000000 		.4byte	.LVL202
 5004 051e 20000000 		.4byte	.LFE15
 5005 0522 0400     		.2byte	0x4
 5006 0524 F3       		.byte	0xf3
ARM GAS  C:\Users\GYULAI~1\AppData\Local\Temp\cclBQTHO.s 			page 98


 5007 0525 01       		.uleb128 0x1
 5008 0526 50       		.byte	0x50
 5009 0527 9F       		.byte	0x9f
 5010 0528 00000000 		.4byte	0
 5011 052c 00000000 		.4byte	0
 5012              	.LLST33:
 5013 0530 0A000000 		.4byte	.LVL205
 5014 0534 32000000 		.4byte	.LVL210
 5015 0538 0100     		.2byte	0x1
 5016 053a 54       		.byte	0x54
 5017 053b 32000000 		.4byte	.LVL210
 5018 053f 36000000 		.4byte	.LVL211
 5019 0543 0200     		.2byte	0x2
 5020 0545 32       		.byte	0x32
 5021 0546 9F       		.byte	0x9f
 5022 0547 36000000 		.4byte	.LVL211
 5023 054b 3A000000 		.4byte	.LVL212
 5024 054f 0200     		.2byte	0x2
 5025 0551 34       		.byte	0x34
 5026 0552 9F       		.byte	0x9f
 5027 0553 3A000000 		.4byte	.LVL212
 5028 0557 3E000000 		.4byte	.LVL213
 5029 055b 0200     		.2byte	0x2
 5030 055d 38       		.byte	0x38
 5031 055e 9F       		.byte	0x9f
 5032 055f 3E000000 		.4byte	.LVL213
 5033 0563 42000000 		.4byte	.LVL214
 5034 0567 0200     		.2byte	0x2
 5035 0569 40       		.byte	0x40
 5036 056a 9F       		.byte	0x9f
 5037 056b 42000000 		.4byte	.LVL214
 5038 056f EE000000 		.4byte	.LVL242
 5039 0573 0100     		.2byte	0x1
 5040 0575 54       		.byte	0x54
 5041 0576 F2000000 		.4byte	.LVL244
 5042 057a F4000000 		.4byte	.LVL245
 5043 057e 0100     		.2byte	0x1
 5044 0580 54       		.byte	0x54
 5045 0581 00000000 		.4byte	0
 5046 0585 00000000 		.4byte	0
 5047              	.LLST34:
 5048 0589 10000000 		.4byte	.LVL207
 5049 058d 62000000 		.4byte	.LVL216
 5050 0591 0100     		.2byte	0x1
 5051 0593 56       		.byte	0x56
 5052 0594 62000000 		.4byte	.LVL216
 5053 0598 66000000 		.4byte	.LVL217
 5054 059c 0200     		.2byte	0x2
 5055 059e 32       		.byte	0x32
 5056 059f 9F       		.byte	0x9f
 5057 05a0 66000000 		.4byte	.LVL217
 5058 05a4 6A000000 		.4byte	.LVL218
 5059 05a8 0200     		.2byte	0x2
 5060 05aa 34       		.byte	0x34
 5061 05ab 9F       		.byte	0x9f
 5062 05ac 6A000000 		.4byte	.LVL218
 5063 05b0 6E000000 		.4byte	.LVL219
ARM GAS  C:\Users\GYULAI~1\AppData\Local\Temp\cclBQTHO.s 			page 99


 5064 05b4 0200     		.2byte	0x2
 5065 05b6 38       		.byte	0x38
 5066 05b7 9F       		.byte	0x9f
 5067 05b8 6E000000 		.4byte	.LVL219
 5068 05bc 72000000 		.4byte	.LVL220
 5069 05c0 0200     		.2byte	0x2
 5070 05c2 40       		.byte	0x40
 5071 05c3 9F       		.byte	0x9f
 5072 05c4 72000000 		.4byte	.LVL220
 5073 05c8 C8000000 		.4byte	.LVL234
 5074 05cc 0100     		.2byte	0x1
 5075 05ce 56       		.byte	0x56
 5076 05cf CC000000 		.4byte	.LVL235
 5077 05d3 CE000000 		.4byte	.LVL236
 5078 05d7 0100     		.2byte	0x1
 5079 05d9 56       		.byte	0x56
 5080 05da 00000000 		.4byte	0
 5081 05de 00000000 		.4byte	0
 5082              	.LLST35:
 5083 05e2 16000000 		.4byte	.LVL209
 5084 05e6 80000000 		.4byte	.LVL222
 5085 05ea 0100     		.2byte	0x1
 5086 05ec 55       		.byte	0x55
 5087 05ed 80000000 		.4byte	.LVL222
 5088 05f1 84000000 		.4byte	.LVL223
 5089 05f5 0200     		.2byte	0x2
 5090 05f7 34       		.byte	0x34
 5091 05f8 9F       		.byte	0x9f
 5092 05f9 84000000 		.4byte	.LVL223
 5093 05fd 88000000 		.4byte	.LVL224
 5094 0601 0200     		.2byte	0x2
 5095 0603 38       		.byte	0x38
 5096 0604 9F       		.byte	0x9f
 5097 0605 88000000 		.4byte	.LVL224
 5098 0609 8A000000 		.4byte	.LVL225
 5099 060d 0200     		.2byte	0x2
 5100 060f 40       		.byte	0x40
 5101 0610 9F       		.byte	0x9f
 5102 0611 8A000000 		.4byte	.LVL225
 5103 0615 F0000000 		.4byte	.LVL243
 5104 0619 0100     		.2byte	0x1
 5105 061b 55       		.byte	0x55
 5106 061c F2000000 		.4byte	.LVL244
 5107 0620 F6000000 		.4byte	.LVL246
 5108 0624 0100     		.2byte	0x1
 5109 0626 55       		.byte	0x55
 5110 0627 00000000 		.4byte	0
 5111 062b 00000000 		.4byte	0
 5112              	.LLST36:
 5113 062f AA000000 		.4byte	.LVL229
 5114 0633 24010000 		.4byte	.LVL251
 5115 0637 0600     		.2byte	0x6
 5116 0639 58       		.byte	0x58
 5117 063a 93       		.byte	0x93
 5118 063b 04       		.uleb128 0x4
 5119 063c 59       		.byte	0x59
 5120 063d 93       		.byte	0x93
ARM GAS  C:\Users\GYULAI~1\AppData\Local\Temp\cclBQTHO.s 			page 100


 5121 063e 04       		.uleb128 0x4
 5122 063f 00000000 		.4byte	0
 5123 0643 00000000 		.4byte	0
 5124              	.LLST37:
 5125 0647 D0000000 		.4byte	.LVL237
 5126 064b 24010000 		.4byte	.LVL251
 5127 064f 0600     		.2byte	0x6
 5128 0651 56       		.byte	0x56
 5129 0652 93       		.byte	0x93
 5130 0653 04       		.uleb128 0x4
 5131 0654 57       		.byte	0x57
 5132 0655 93       		.byte	0x93
 5133 0656 04       		.uleb128 0x4
 5134 0657 00000000 		.4byte	0
 5135 065b 00000000 		.4byte	0
 5136              	.LLST38:
 5137 065f F6000000 		.4byte	.LVL246
 5138 0663 24010000 		.4byte	.LVL251
 5139 0667 0600     		.2byte	0x6
 5140 0669 54       		.byte	0x54
 5141 066a 93       		.byte	0x93
 5142 066b 04       		.uleb128 0x4
 5143 066c 55       		.byte	0x55
 5144 066d 93       		.byte	0x93
 5145 066e 04       		.uleb128 0x4
 5146 066f 00000000 		.4byte	0
 5147 0673 00000000 		.4byte	0
 5148              	.LLST39:
 5149 0677 00000000 		.4byte	.LVL252
 5150 067b 0C000000 		.4byte	.LVL253
 5151 067f 0100     		.2byte	0x1
 5152 0681 50       		.byte	0x50
 5153 0682 0C000000 		.4byte	.LVL253
 5154 0686 20000000 		.4byte	.LFE17
 5155 068a 0400     		.2byte	0x4
 5156 068c F3       		.byte	0xf3
 5157 068d 01       		.uleb128 0x1
 5158 068e 50       		.byte	0x50
 5159 068f 9F       		.byte	0x9f
 5160 0690 00000000 		.4byte	0
 5161 0694 00000000 		.4byte	0
 5162              	.LLST40:
 5163 0698 00000000 		.4byte	.LVL257
 5164 069c 0C000000 		.4byte	.LVL258
 5165 06a0 0100     		.2byte	0x1
 5166 06a2 50       		.byte	0x50
 5167 06a3 0C000000 		.4byte	.LVL258
 5168 06a7 20000000 		.4byte	.LFE21
 5169 06ab 0400     		.2byte	0x4
 5170 06ad F3       		.byte	0xf3
 5171 06ae 01       		.uleb128 0x1
 5172 06af 50       		.byte	0x50
 5173 06b0 9F       		.byte	0x9f
 5174 06b1 00000000 		.4byte	0
 5175 06b5 00000000 		.4byte	0
 5176              	.LLST41:
 5177 06b9 00000000 		.4byte	.LVL260
ARM GAS  C:\Users\GYULAI~1\AppData\Local\Temp\cclBQTHO.s 			page 101


 5178 06bd 0C000000 		.4byte	.LVL261
 5179 06c1 0100     		.2byte	0x1
 5180 06c3 50       		.byte	0x50
 5181 06c4 0C000000 		.4byte	.LVL261
 5182 06c8 20000000 		.4byte	.LFE23
 5183 06cc 0400     		.2byte	0x4
 5184 06ce F3       		.byte	0xf3
 5185 06cf 01       		.uleb128 0x1
 5186 06d0 50       		.byte	0x50
 5187 06d1 9F       		.byte	0x9f
 5188 06d2 00000000 		.4byte	0
 5189 06d6 00000000 		.4byte	0
 5190              	.LLST42:
 5191 06da 00000000 		.4byte	.LVL263
 5192 06de 0C000000 		.4byte	.LVL264
 5193 06e2 0100     		.2byte	0x1
 5194 06e4 50       		.byte	0x50
 5195 06e5 0C000000 		.4byte	.LVL264
 5196 06e9 20000000 		.4byte	.LFE25
 5197 06ed 0400     		.2byte	0x4
 5198 06ef F3       		.byte	0xf3
 5199 06f0 01       		.uleb128 0x1
 5200 06f1 50       		.byte	0x50
 5201 06f2 9F       		.byte	0x9f
 5202 06f3 00000000 		.4byte	0
 5203 06f7 00000000 		.4byte	0
 5204              		.section	.debug_aranges,"",%progbits
 5205 0000 FC000000 		.4byte	0xfc
 5206 0004 0200     		.2byte	0x2
 5207 0006 00000000 		.4byte	.Ldebug_info0
 5208 000a 04       		.byte	0x4
 5209 000b 00       		.byte	0
 5210 000c 0000     		.2byte	0
 5211 000e 0000     		.2byte	0
 5212 0010 00000000 		.4byte	.LFB0
 5213 0014 1C000000 		.4byte	.LFE0-.LFB0
 5214 0018 00000000 		.4byte	.LFB1
 5215 001c 50000000 		.4byte	.LFE1-.LFB1
 5216 0020 00000000 		.4byte	.LFB2
 5217 0024 44000000 		.4byte	.LFE2-.LFB2
 5218 0028 00000000 		.4byte	.LFB4
 5219 002c 1C000000 		.4byte	.LFE4-.LFB4
 5220 0030 00000000 		.4byte	.LFB3
 5221 0034 30010000 		.4byte	.LFE3-.LFB3
 5222 0038 00000000 		.4byte	.LFB5
 5223 003c 28000000 		.4byte	.LFE5-.LFB5
 5224 0040 00000000 		.4byte	.LFB6
 5225 0044 14000000 		.4byte	.LFE6-.LFB6
 5226 0048 00000000 		.4byte	.LFB7
 5227 004c 2C010000 		.4byte	.LFE7-.LFB7
 5228 0050 00000000 		.4byte	.LFB8
 5229 0054 24000000 		.4byte	.LFE8-.LFB8
 5230 0058 00000000 		.4byte	.LFB9
 5231 005c 84020000 		.4byte	.LFE9-.LFB9
 5232 0060 00000000 		.4byte	.LFB10
 5233 0064 AC010000 		.4byte	.LFE10-.LFB10
 5234 0068 00000000 		.4byte	.LFB12
ARM GAS  C:\Users\GYULAI~1\AppData\Local\Temp\cclBQTHO.s 			page 102


 5235 006c 10000000 		.4byte	.LFE12-.LFB12
 5236 0070 00000000 		.4byte	.LFB13
 5237 0074 20000000 		.4byte	.LFE13-.LFB13
 5238 0078 00000000 		.4byte	.LFB14
 5239 007c 10000000 		.4byte	.LFE14-.LFB14
 5240 0080 00000000 		.4byte	.LFB15
 5241 0084 20000000 		.4byte	.LFE15-.LFB15
 5242 0088 00000000 		.4byte	.LFB16
 5243 008c 10000000 		.4byte	.LFE16-.LFB16
 5244 0090 00000000 		.4byte	.LFB11
 5245 0094 38010000 		.4byte	.LFE11-.LFB11
 5246 0098 00000000 		.4byte	.LFB17
 5247 009c 20000000 		.4byte	.LFE17-.LFB17
 5248 00a0 00000000 		.4byte	.LFB18
 5249 00a4 20000000 		.4byte	.LFE18-.LFB18
 5250 00a8 00000000 		.4byte	.LFB19
 5251 00ac 20000000 		.4byte	.LFE19-.LFB19
 5252 00b0 00000000 		.4byte	.LFB20
 5253 00b4 10000000 		.4byte	.LFE20-.LFB20
 5254 00b8 00000000 		.4byte	.LFB21
 5255 00bc 20000000 		.4byte	.LFE21-.LFB21
 5256 00c0 00000000 		.4byte	.LFB22
 5257 00c4 10000000 		.4byte	.LFE22-.LFB22
 5258 00c8 00000000 		.4byte	.LFB23
 5259 00cc 20000000 		.4byte	.LFE23-.LFB23
 5260 00d0 00000000 		.4byte	.LFB24
 5261 00d4 10000000 		.4byte	.LFE24-.LFB24
 5262 00d8 00000000 		.4byte	.LFB25
 5263 00dc 20000000 		.4byte	.LFE25-.LFB25
 5264 00e0 00000000 		.4byte	.LFB26
 5265 00e4 20000000 		.4byte	.LFE26-.LFB26
 5266 00e8 00000000 		.4byte	.LFB27
 5267 00ec 20000000 		.4byte	.LFE27-.LFB27
 5268 00f0 00000000 		.4byte	.LFB28
 5269 00f4 10000000 		.4byte	.LFE28-.LFB28
 5270 00f8 00000000 		.4byte	0
 5271 00fc 00000000 		.4byte	0
 5272              		.section	.debug_ranges,"",%progbits
 5273              	.Ldebug_ranges0:
 5274 0000 00000000 		.4byte	.LFB0
 5275 0004 1C000000 		.4byte	.LFE0
 5276 0008 00000000 		.4byte	.LFB1
 5277 000c 50000000 		.4byte	.LFE1
 5278 0010 00000000 		.4byte	.LFB2
 5279 0014 44000000 		.4byte	.LFE2
 5280 0018 00000000 		.4byte	.LFB4
 5281 001c 1C000000 		.4byte	.LFE4
 5282 0020 00000000 		.4byte	.LFB3
 5283 0024 30010000 		.4byte	.LFE3
 5284 0028 00000000 		.4byte	.LFB5
 5285 002c 28000000 		.4byte	.LFE5
 5286 0030 00000000 		.4byte	.LFB6
 5287 0034 14000000 		.4byte	.LFE6
 5288 0038 00000000 		.4byte	.LFB7
 5289 003c 2C010000 		.4byte	.LFE7
 5290 0040 00000000 		.4byte	.LFB8
 5291 0044 24000000 		.4byte	.LFE8
ARM GAS  C:\Users\GYULAI~1\AppData\Local\Temp\cclBQTHO.s 			page 103


 5292 0048 00000000 		.4byte	.LFB9
 5293 004c 84020000 		.4byte	.LFE9
 5294 0050 00000000 		.4byte	.LFB10
 5295 0054 AC010000 		.4byte	.LFE10
 5296 0058 00000000 		.4byte	.LFB12
 5297 005c 10000000 		.4byte	.LFE12
 5298 0060 00000000 		.4byte	.LFB13
 5299 0064 20000000 		.4byte	.LFE13
 5300 0068 00000000 		.4byte	.LFB14
 5301 006c 10000000 		.4byte	.LFE14
 5302 0070 00000000 		.4byte	.LFB15
 5303 0074 20000000 		.4byte	.LFE15
 5304 0078 00000000 		.4byte	.LFB16
 5305 007c 10000000 		.4byte	.LFE16
 5306 0080 00000000 		.4byte	.LFB11
 5307 0084 38010000 		.4byte	.LFE11
 5308 0088 00000000 		.4byte	.LFB17
 5309 008c 20000000 		.4byte	.LFE17
 5310 0090 00000000 		.4byte	.LFB18
 5311 0094 20000000 		.4byte	.LFE18
 5312 0098 00000000 		.4byte	.LFB19
 5313 009c 20000000 		.4byte	.LFE19
 5314 00a0 00000000 		.4byte	.LFB20
 5315 00a4 10000000 		.4byte	.LFE20
 5316 00a8 00000000 		.4byte	.LFB21
 5317 00ac 20000000 		.4byte	.LFE21
 5318 00b0 00000000 		.4byte	.LFB22
 5319 00b4 10000000 		.4byte	.LFE22
 5320 00b8 00000000 		.4byte	.LFB23
 5321 00bc 20000000 		.4byte	.LFE23
 5322 00c0 00000000 		.4byte	.LFB24
 5323 00c4 10000000 		.4byte	.LFE24
 5324 00c8 00000000 		.4byte	.LFB25
 5325 00cc 20000000 		.4byte	.LFE25
 5326 00d0 00000000 		.4byte	.LFB26
 5327 00d4 20000000 		.4byte	.LFE26
 5328 00d8 00000000 		.4byte	.LFB27
 5329 00dc 20000000 		.4byte	.LFE27
 5330 00e0 00000000 		.4byte	.LFB28
 5331 00e4 10000000 		.4byte	.LFE28
 5332 00e8 00000000 		.4byte	0
 5333 00ec 00000000 		.4byte	0
 5334              		.section	.debug_line,"",%progbits
 5335              	.Ldebug_line0:
 5336 0000 11040000 		.section	.debug_str,"MS",%progbits,1
 5336      02001401 
 5336      00000201 
 5336      FB0E0D00 
 5336      01010101 
 5337              	.LASF106:
 5338 0000 74656D70 		.ascii	"temperature_delay\000"
 5338      65726174 
 5338      7572655F 
 5338      64656C61 
 5338      7900
 5339              	.LASF79:
 5340 0012 74656D70 		.ascii	"temperature_min\000"
ARM GAS  C:\Users\GYULAI~1\AppData\Local\Temp\cclBQTHO.s 			page 104


 5340      65726174 
 5340      7572655F 
 5340      6D696E00 
 5341              	.LASF75:
 5342 0022 72656744 		.ascii	"regData\000"
 5342      61746100 
 5343              	.LASF15:
 5344 002a 696E7438 		.ascii	"int8_t\000"
 5344      5F7400
 5345              	.LASF72:
 5346 0031 424D4532 		.ascii	"BME280_ReadRegisters\000"
 5346      38305F52 
 5346      65616452 
 5346      65676973 
 5346      74657273 
 5347              	.LASF126:
 5348 0046 424D4532 		.ascii	"BME280_IsSPI3WireEnabled\000"
 5348      38305F49 
 5348      73535049 
 5348      33576972 
 5348      65456E61 
 5349              	.LASF5:
 5350 005f 73686F72 		.ascii	"short int\000"
 5350      7420696E 
 5350      7400
 5351              	.LASF71:
 5352 0069 73697A65 		.ascii	"sizetype\000"
 5352      74797065 
 5352      00
 5353              	.LASF76:
 5354 0072 76617231 		.ascii	"var1\000"
 5354      00
 5355              	.LASF25:
 5356 0077 424D4532 		.ascii	"BME280_I2CControllerStruct\000"
 5356      38305F49 
 5356      3243436F 
 5356      6E74726F 
 5356      6C6C6572 
 5357              	.LASF77:
 5358 0092 76617232 		.ascii	"var2\000"
 5358      00
 5359              	.LASF101:
 5360 0097 424D4532 		.ascii	"BME280_GetPressureMode\000"
 5360      38305F47 
 5360      65745072 
 5360      65737375 
 5360      72654D6F 
 5361              	.LASF111:
 5362 00ae 424D4532 		.ascii	"BME280_IsUpdating\000"
 5362      38305F49 
 5362      73557064 
 5362      6174696E 
 5362      6700
 5363              	.LASF82:
 5364 00c0 424D4532 		.ascii	"BME280_GetTemperatureCelsius\000"
 5364      38305F47 
 5364      65745465 
ARM GAS  C:\Users\GYULAI~1\AppData\Local\Temp\cclBQTHO.s 			page 105


 5364      6D706572 
 5364      61747572 
 5365              	.LASF10:
 5366 00dd 5F5F7569 		.ascii	"__uint32_t\000"
 5366      6E743332 
 5366      5F7400
 5367              	.LASF85:
 5368 00e8 76617233 		.ascii	"var3\000"
 5368      00
 5369              	.LASF93:
 5370 00ed 76617234 		.ascii	"var4\000"
 5370      00
 5371              	.LASF94:
 5372 00f2 76617235 		.ascii	"var5\000"
 5372      00
 5373              	.LASF95:
 5374 00f7 76617236 		.ascii	"var6\000"
 5374      00
 5375              	.LASF6:
 5376 00fc 5F5F7569 		.ascii	"__uint16_t\000"
 5376      6E743136 
 5376      5F7400
 5377              	.LASF113:
 5378 0107 424D4532 		.ascii	"BME280_SetMeasurementMode\000"
 5378      38305F53 
 5378      65744D65 
 5378      61737572 
 5378      656D656E 
 5379              	.LASF120:
 5380 0121 424D4532 		.ascii	"BME280_DisableSPI3Wire\000"
 5380      38305F44 
 5380      69736162 
 5380      6C655350 
 5380      49335769 
 5381              	.LASF84:
 5382 0138 424D4532 		.ascii	"BME280_GetPressure\000"
 5382      38305F47 
 5382      65745072 
 5382      65737375 
 5382      726500
 5383              	.LASF103:
 5384 014b 74656D70 		.ascii	"temperature_ovrs\000"
 5384      65726174 
 5384      7572655F 
 5384      6F767273 
 5384      00
 5385              	.LASF16:
 5386 015c 75696E74 		.ascii	"uint8_t\000"
 5386      385F7400 
 5387              	.LASF114:
 5388 0164 424D4532 		.ascii	"BME280_GetStandbyTime\000"
 5388      38305F47 
 5388      65745374 
 5388      616E6462 
 5388      7954696D 
 5389              	.LASF31:
 5390 017a 54454D50 		.ascii	"TEMP_LSB\000"
ARM GAS  C:\Users\GYULAI~1\AppData\Local\Temp\cclBQTHO.s 			page 106


 5390      5F4C5342 
 5390      00
 5391              	.LASF86:
 5392 0183 70726573 		.ascii	"pressure\000"
 5392      73757265 
 5392      00
 5393              	.LASF109:
 5394 018c 424D4532 		.ascii	"BME280_SetPressureMode\000"
 5394      38305F53 
 5394      65745072 
 5394      65737375 
 5394      72654D6F 
 5395              	.LASF70:
 5396 01a3 63616C69 		.ascii	"calibDataHigh\000"
 5396      62446174 
 5396      61486967 
 5396      6800
 5397              	.LASF60:
 5398 01b1 636F6E74 		.ascii	"controller\000"
 5398      726F6C6C 
 5398      657200
 5399              	.LASF27:
 5400 01bc 50524553 		.ascii	"PRESS_MSB\000"
 5400      535F4D53 
 5400      4200
 5401              	.LASF73:
 5402 01c6 424D4532 		.ascii	"BME280_WriteRegisters\000"
 5402      38305F57 
 5402      72697465 
 5402      52656769 
 5402      73746572 
 5403              	.LASF74:
 5404 01dc 72656164 		.ascii	"readNow\000"
 5404      4E6F7700 
 5405              	.LASF50:
 5406 01e4 6469675F 		.ascii	"dig_P9\000"
 5406      503900
 5407              	.LASF66:
 5408 01eb 424D4532 		.ascii	"BME280_Reset\000"
 5408      38305F52 
 5408      65736574 
 5408      00
 5409              	.LASF32:
 5410 01f8 54454D50 		.ascii	"TEMP_XLSB\000"
 5410      5F584C53 
 5410      4200
 5411              	.LASF12:
 5412 0202 6C6F6E67 		.ascii	"long long int\000"
 5412      206C6F6E 
 5412      6720696E 
 5412      7400
 5413              	.LASF100:
 5414 0210 424D4532 		.ascii	"BME280_SetTemperatureMode\000"
 5414      38305F53 
 5414      65745465 
 5414      6D706572 
 5414      61747572 
ARM GAS  C:\Users\GYULAI~1\AppData\Local\Temp\cclBQTHO.s 			page 107


 5415              	.LASF30:
 5416 022a 54454D50 		.ascii	"TEMP_MSB\000"
 5416      5F4D5342 
 5416      00
 5417              	.LASF125:
 5418 0233 453A5C43 		.ascii	"E:\\Cypress\\Projects\\RheaWorkspace\\Rhea.cydsn\000"
 5418      79707265 
 5418      73735C50 
 5418      726F6A65 
 5418      6374735C 
 5419              	.LASF58:
 5420 0260 424D4532 		.ascii	"BME280_SetI2CController\000"
 5420      38305F53 
 5420      65744932 
 5420      43436F6E 
 5420      74726F6C 
 5421              	.LASF36:
 5422 0278 53544154 		.ascii	"STATUS\000"
 5422      555300
 5423              	.LASF9:
 5424 027f 6C6F6E67 		.ascii	"long int\000"
 5424      20696E74 
 5424      00
 5425              	.LASF105:
 5426 0288 68756D69 		.ascii	"humidity_ovrs\000"
 5426      64697479 
 5426      5F6F7672 
 5426      7300
 5427              	.LASF61:
 5428 0296 61646472 		.ascii	"address\000"
 5428      65737300 
 5429              	.LASF57:
 5430 029e 745F6669 		.ascii	"t_fine\000"
 5430      6E6500
 5431              	.LASF28:
 5432 02a5 50524553 		.ascii	"PRESS_LSB\000"
 5432      535F4C53 
 5432      4200
 5433              	.LASF1:
 5434 02af 5F5F7569 		.ascii	"__uint8_t\000"
 5434      6E74385F 
 5434      7400
 5435              	.LASF98:
 5436 02b9 424D4532 		.ascii	"BME280_GetHumidityMode\000"
 5436      38305F47 
 5436      65744875 
 5436      6D696469 
 5436      74794D6F 
 5437              	.LASF68:
 5438 02d0 424D4532 		.ascii	"BME280_Init\000"
 5438      38305F49 
 5438      6E697400 
 5439              	.LASF102:
 5440 02dc 424D4532 		.ascii	"BME280_GetMeasurementDelay\000"
 5440      38305F47 
 5440      65744D65 
 5440      61737572 
ARM GAS  C:\Users\GYULAI~1\AppData\Local\Temp\cclBQTHO.s 			page 108


 5440      656D656E 
 5441              	.LASF108:
 5442 02f7 68756D69 		.ascii	"humidity_delay\000"
 5442      64697479 
 5442      5F64656C 
 5442      617900
 5443              	.LASF92:
 5444 0306 68756D69 		.ascii	"humidity_max\000"
 5444      64697479 
 5444      5F6D6178 
 5444      00
 5445              	.LASF21:
 5446 0313 4D617374 		.ascii	"MasterSendStart\000"
 5446      65725365 
 5446      6E645374 
 5446      61727400 
 5447              	.LASF26:
 5448 0323 424D4532 		.ascii	"BME280_RegisterStruct\000"
 5448      38305F52 
 5448      65676973 
 5448      74657253 
 5448      74727563 
 5449              	.LASF3:
 5450 0339 756E7369 		.ascii	"unsigned char\000"
 5450      676E6564 
 5450      20636861 
 5450      7200
 5451              	.LASF24:
 5452 0347 4D617374 		.ascii	"MasterReadByte\000"
 5452      65725265 
 5452      61644279 
 5452      746500
 5453              	.LASF121:
 5454 0356 424D4532 		.ascii	"BME280_I2CController\000"
 5454      38305F49 
 5454      3243436F 
 5454      6E74726F 
 5454      6C6C6572 
 5455              	.LASF2:
 5456 036b 7369676E 		.ascii	"signed char\000"
 5456      65642063 
 5456      68617200 
 5457              	.LASF13:
 5458 0377 6C6F6E67 		.ascii	"long long unsigned int\000"
 5458      206C6F6E 
 5458      6720756E 
 5458      7369676E 
 5458      65642069 
 5459              	.LASF20:
 5460 038e 75696E74 		.ascii	"uint32_t\000"
 5460      33325F74 
 5460      00
 5461              	.LASF91:
 5462 0397 68756D69 		.ascii	"humidity_min\000"
 5462      64697479 
 5462      5F6D696E 
 5462      00
ARM GAS  C:\Users\GYULAI~1\AppData\Local\Temp\cclBQTHO.s 			page 109


 5463              	.LASF14:
 5464 03a4 756E7369 		.ascii	"unsigned int\000"
 5464      676E6564 
 5464      20696E74 
 5464      00
 5465              	.LASF18:
 5466 03b1 75696E74 		.ascii	"uint16_t\000"
 5466      31365F74 
 5466      00
 5467              	.LASF51:
 5468 03ba 6469675F 		.ascii	"dig_H1\000"
 5468      483100
 5469              	.LASF52:
 5470 03c1 6469675F 		.ascii	"dig_H2\000"
 5470      483200
 5471              	.LASF53:
 5472 03c8 6469675F 		.ascii	"dig_H3\000"
 5472      483300
 5473              	.LASF54:
 5474 03cf 6469675F 		.ascii	"dig_H4\000"
 5474      483400
 5475              	.LASF55:
 5476 03d6 6469675F 		.ascii	"dig_H5\000"
 5476      483500
 5477              	.LASF56:
 5478 03dd 6469675F 		.ascii	"dig_H6\000"
 5478      483600
 5479              	.LASF124:
 5480 03e4 72686561 		.ascii	"rhea\\drivers\\BME280\\BME280.c\000"
 5480      5C647269 
 5480      76657273 
 5480      5C424D45 
 5480      3238305C 
 5481              	.LASF99:
 5482 0401 424D4532 		.ascii	"BME280_GetTemperatureMode\000"
 5482      38305F47 
 5482      65745465 
 5482      6D706572 
 5482      61747572 
 5483              	.LASF7:
 5484 041b 73686F72 		.ascii	"short unsigned int\000"
 5484      7420756E 
 5484      7369676E 
 5484      65642069 
 5484      6E7400
 5485              	.LASF0:
 5486 042e 5F5F696E 		.ascii	"__int8_t\000"
 5486      74385F74 
 5486      00
 5487              	.LASF89:
 5488 0437 424D4532 		.ascii	"BME280_GetHumidity\000"
 5488      38305F47 
 5488      65744875 
 5488      6D696469 
 5488      747900
 5489              	.LASF35:
 5490 044a 4354524C 		.ascii	"CTRL_HUM\000"
ARM GAS  C:\Users\GYULAI~1\AppData\Local\Temp\cclBQTHO.s 			page 110


 5490      5F48554D 
 5490      00
 5491              	.LASF19:
 5492 0453 696E7433 		.ascii	"int32_t\000"
 5492      325F7400 
 5493              	.LASF65:
 5494 045b 424D4532 		.ascii	"BME280_I2CWriter\000"
 5494      38305F49 
 5494      32435772 
 5494      69746572 
 5494      00
 5495              	.LASF104:
 5496 046c 70726573 		.ascii	"pressure_ovrs\000"
 5496      73757265 
 5496      5F6F7672 
 5496      7300
 5497              	.LASF97:
 5498 047a 6D6F6465 		.ascii	"mode\000"
 5498      00
 5499              	.LASF17:
 5500 047f 696E7431 		.ascii	"int16_t\000"
 5500      365F7400 
 5501              	.LASF33:
 5502 0487 48554D5F 		.ascii	"HUM_MSB\000"
 5502      4D534200 
 5503              	.LASF63:
 5504 048f 62756666 		.ascii	"buffer\000"
 5504      657200
 5505              	.LASF42:
 5506 0496 6469675F 		.ascii	"dig_P1\000"
 5506      503100
 5507              	.LASF43:
 5508 049d 6469675F 		.ascii	"dig_P2\000"
 5508      503200
 5509              	.LASF44:
 5510 04a4 6469675F 		.ascii	"dig_P3\000"
 5510      503300
 5511              	.LASF45:
 5512 04ab 6469675F 		.ascii	"dig_P4\000"
 5512      503400
 5513              	.LASF46:
 5514 04b2 6469675F 		.ascii	"dig_P5\000"
 5514      503500
 5515              	.LASF47:
 5516 04b9 6469675F 		.ascii	"dig_P6\000"
 5516      503600
 5517              	.LASF48:
 5518 04c0 6469675F 		.ascii	"dig_P7\000"
 5518      503700
 5519              	.LASF49:
 5520 04c7 6469675F 		.ascii	"dig_P8\000"
 5520      503800
 5521              	.LASF29:
 5522 04ce 50524553 		.ascii	"PRESS_XLSB\000"
 5522      535F584C 
 5522      534200
 5523              	.LASF34:
ARM GAS  C:\Users\GYULAI~1\AppData\Local\Temp\cclBQTHO.s 			page 111


 5524 04d9 48554D5F 		.ascii	"HUM_LSB\000"
 5524      4C534200 
 5525              	.LASF11:
 5526 04e1 6C6F6E67 		.ascii	"long unsigned int\000"
 5526      20756E73 
 5526      69676E65 
 5526      6420696E 
 5526      7400
 5527              	.LASF62:
 5528 04f3 64657669 		.ascii	"deviceAddress\000"
 5528      63654164 
 5528      64726573 
 5528      7300
 5529              	.LASF39:
 5530 0501 6469675F 		.ascii	"dig_T1\000"
 5530      543100
 5531              	.LASF40:
 5532 0508 6469675F 		.ascii	"dig_T2\000"
 5532      543200
 5533              	.LASF41:
 5534 050f 6469675F 		.ascii	"dig_T3\000"
 5534      543300
 5535              	.LASF78:
 5536 0516 74656D70 		.ascii	"temperature\000"
 5536      65726174 
 5536      75726500 
 5537              	.LASF90:
 5538 0522 68756D69 		.ascii	"humidity\000"
 5538      64697479 
 5538      00
 5539              	.LASF88:
 5540 052b 70726573 		.ascii	"pressure_max\000"
 5540      73757265 
 5540      5F6D6178 
 5540      00
 5541              	.LASF8:
 5542 0538 5F5F696E 		.ascii	"__int32_t\000"
 5542      7433325F 
 5542      7400
 5543              	.LASF67:
 5544 0542 72657365 		.ascii	"resetWord\000"
 5544      74576F72 
 5544      6400
 5545              	.LASF23:
 5546 054c 4D617374 		.ascii	"MasterWriteByte\000"
 5546      65725772 
 5546      69746542 
 5546      79746500 
 5547              	.LASF4:
 5548 055c 5F5F696E 		.ascii	"__int16_t\000"
 5548      7431365F 
 5548      7400
 5549              	.LASF116:
 5550 0566 7374616E 		.ascii	"standby\000"
 5550      64627900 
 5551              	.LASF112:
 5552 056e 424D4532 		.ascii	"BME280_GetMeasurementMode\000"
ARM GAS  C:\Users\GYULAI~1\AppData\Local\Temp\cclBQTHO.s 			page 112


 5552      38305F47 
 5552      65744D65 
 5552      61737572 
 5552      656D656E 
 5553              	.LASF64:
 5554 0588 62797465 		.ascii	"byteCount\000"
 5554      436F756E 
 5554      7400
 5555              	.LASF118:
 5556 0592 424D4532 		.ascii	"BME280_SetFilterMode\000"
 5556      38305F53 
 5556      65744669 
 5556      6C746572 
 5556      4D6F6465 
 5557              	.LASF119:
 5558 05a7 424D4532 		.ascii	"BME280_EnableSPI3Wire\000"
 5558      38305F45 
 5558      6E61626C 
 5558      65535049 
 5558      33576972 
 5559              	.LASF96:
 5560 05bd 424D4532 		.ascii	"BME280_SetHumidityMode\000"
 5560      38305F53 
 5560      65744875 
 5560      6D696469 
 5560      74794D6F 
 5561              	.LASF107:
 5562 05d4 70726573 		.ascii	"pressure_delay\000"
 5562      73757265 
 5562      5F64656C 
 5562      617900
 5563              	.LASF81:
 5564 05e3 646F7562 		.ascii	"double\000"
 5564      6C6500
 5565              	.LASF110:
 5566 05ea 424D4532 		.ascii	"BME280_IsMeasuring\000"
 5566      38305F49 
 5566      734D6561 
 5566      73757269 
 5566      6E6700
 5567              	.LASF87:
 5568 05fd 70726573 		.ascii	"pressure_min\000"
 5568      73757265 
 5568      5F6D696E 
 5568      00
 5569              	.LASF59:
 5570 060a 424D4532 		.ascii	"BME280_I2CReader\000"
 5570      38305F49 
 5570      32435265 
 5570      61646572 
 5570      00
 5571              	.LASF123:
 5572 061b 474E5520 		.ascii	"GNU C11 5.4.1 20160609 (release) [ARM/embedded-5-br"
 5572      43313120 
 5572      352E342E 
 5572      31203230 
 5572      31363036 
ARM GAS  C:\Users\GYULAI~1\AppData\Local\Temp\cclBQTHO.s 			page 113


 5573 064e 616E6368 		.ascii	"anch revision 237715] -mcpu=cortex-m3 -mthumb -g -O"
 5573      20726576 
 5573      6973696F 
 5573      6E203233 
 5573      37373135 
 5574 0681 67202D66 		.ascii	"g -ffunction-sections -ffat-lto-objects\000"
 5574      66756E63 
 5574      74696F6E 
 5574      2D736563 
 5574      74696F6E 
 5575              	.LASF80:
 5576 06a9 74656D70 		.ascii	"temperature_max\000"
 5576      65726174 
 5576      7572655F 
 5576      6D617800 
 5577              	.LASF22:
 5578 06b9 4D617374 		.ascii	"MasterSendStop\000"
 5578      65725365 
 5578      6E645374 
 5578      6F7000
 5579              	.LASF38:
 5580 06c8 434F4E46 		.ascii	"CONFIG\000"
 5580      494700
 5581              	.LASF37:
 5582 06cf 4354524C 		.ascii	"CTRL_MEAS\000"
 5582      5F4D4541 
 5582      5300
 5583              	.LASF117:
 5584 06d9 424D4532 		.ascii	"BME280_GetFilterMode\000"
 5584      38305F47 
 5584      65744669 
 5584      6C746572 
 5584      4D6F6465 
 5585              	.LASF83:
 5586 06ee 424D4532 		.ascii	"BME280_GetTemperatureFahrenheit\000"
 5586      38305F47 
 5586      65745465 
 5586      6D706572 
 5586      61747572 
 5587              	.LASF122:
 5588 070e 424D4532 		.ascii	"BME280_RegistersLocal\000"
 5588      38305F52 
 5588      65676973 
 5588      74657273 
 5588      4C6F6361 
 5589              	.LASF69:
 5590 0724 63616C69 		.ascii	"calibDataLow\000"
 5590      62446174 
 5590      614C6F77 
 5590      00
 5591              	.LASF115:
 5592 0731 424D4532 		.ascii	"BME280_SetStandbyTime\000"
 5592      38305F53 
 5592      65745374 
 5592      616E6462 
 5592      7954696D 
 5593              		.ident	"GCC: (GNU Tools for ARM Embedded Processors) 5.4.1 20160609 (release) [ARM/embedded-5-bran
ARM GAS  C:\Users\GYULAI~1\AppData\Local\Temp\cclBQTHO.s 			page 114


