ARM GAS  C:\Users\GYULAI~1\AppData\Local\Temp\cclBQTHO.s 			page 1


   1              		.syntax unified
   2              		.cpu cortex-m3
   3              		.fpu softvfp
   4              		.eabi_attribute 20, 1
   5              		.eabi_attribute 21, 1
   6              		.eabi_attribute 23, 3
   7              		.eabi_attribute 24, 1
   8              		.eabi_attribute 25, 1
   9              		.eabi_attribute 26, 1
  10              		.eabi_attribute 30, 1
  11              		.eabi_attribute 34, 1
  12              		.eabi_attribute 18, 4
  13              		.thumb
  14              		.syntax unified
  15              		.file	"BME280.c"
  16              		.text
  17              	.Ltext0:
  18              		.cfi_sections	.debug_frame
  19              		.section	.text.BME280_SetI2CController,"ax",%progbits
  20              		.align	2
  21              		.global	BME280_SetI2CController
  22              		.thumb
  23              		.thumb_func
  24              		.type	BME280_SetI2CController, %function
  25              	BME280_SetI2CController:
  26              	.LFB0:
  27              		.file 1 "rhea\\drivers\\BME280\\BME280.c"
   1:rhea\drivers\BME280/BME280.c **** /*********************************************************************************
   2:rhea\drivers\BME280/BME280.c ****  * Copyright (c) 2020 Peter Gyulai
   3:rhea\drivers\BME280/BME280.c ****  *
   4:rhea\drivers\BME280/BME280.c ****  * Permission is hereby granted, free of charge, to any person obtaining a copy
   5:rhea\drivers\BME280/BME280.c ****  * of this software and associated documentation files (the "Software"), to deal
   6:rhea\drivers\BME280/BME280.c ****  * in the Software without restriction, including without limitation the rights
   7:rhea\drivers\BME280/BME280.c ****  * to use, copy, modify, merge, publish, distribute, sublicense, and/or sell
   8:rhea\drivers\BME280/BME280.c ****  * copies of the Software, and to permit persons to whom the Software is
   9:rhea\drivers\BME280/BME280.c ****  * furnished to do so, subject to the following conditions:
  10:rhea\drivers\BME280/BME280.c ****  *
  11:rhea\drivers\BME280/BME280.c ****  * The above copyright notice and this permission notice shall be included in all
  12:rhea\drivers\BME280/BME280.c ****  * copies or substantial portions of the Software.
  13:rhea\drivers\BME280/BME280.c ****  *
  14:rhea\drivers\BME280/BME280.c ****  * THE SOFTWARE IS PROVIDED "AS IS", WITHOUT WARRANTY OF ANY KIND,
  15:rhea\drivers\BME280/BME280.c ****  * EXPRESS OR IMPLIED, INCLUDING BUT NOT LIMITED TO THE WARRANTIES OF
  16:rhea\drivers\BME280/BME280.c ****  * MERCHANTABILITY, FITNESS FOR A PARTICULAR PURPOSE AND NONINFRINGEMENT.
  17:rhea\drivers\BME280/BME280.c ****  * IN NO EVENT SHALL THE AUTHORS OR COPYRIGHT HOLDERS BE LIABLE FOR ANY CLAIM,
  18:rhea\drivers\BME280/BME280.c ****  * DAMAGES OR OTHER LIABILITY, WHETHER IN AN ACTION OF CONTRACT, TORT OR
  19:rhea\drivers\BME280/BME280.c ****  * OTHERWISE, ARISING FROM, OUT OF OR IN CONNECTION WITH THE SOFTWARE OR THE USE
  20:rhea\drivers\BME280/BME280.c ****  * OR OTHER DEALINGS IN THE SOFTWARE.
  21:rhea\drivers\BME280/BME280.c **** **********************************************************************************/
  22:rhea\drivers\BME280/BME280.c **** 
  23:rhea\drivers\BME280/BME280.c **** /**
  24:rhea\drivers\BME280/BME280.c ****  * @file    BME280.c
  25:rhea\drivers\BME280/BME280.c ****  * @author  Peter Gyulai
  26:rhea\drivers\BME280/BME280.c ****  * @version 1.1.0
  27:rhea\drivers\BME280/BME280.c ****  * @date    2020.04.14
  28:rhea\drivers\BME280/BME280.c ****  * @brief   Library implementation.
  29:rhea\drivers\BME280/BME280.c ****  * @details
  30:rhea\drivers\BME280/BME280.c ****  * This file contains the function definitions and static variable definitions used
ARM GAS  C:\Users\GYULAI~1\AppData\Local\Temp\cclBQTHO.s 			page 2


  31:rhea\drivers\BME280/BME280.c ****  * by the BME280 driver library.
  32:rhea\drivers\BME280/BME280.c ****  */
  33:rhea\drivers\BME280/BME280.c **** 
  34:rhea\drivers\BME280/BME280.c **** // Doxygen documentation duplication suppression
  35:rhea\drivers\BME280/BME280.c **** #ifndef DOXYGEN_SHOULD_SKIP_THIS
  36:rhea\drivers\BME280/BME280.c **** 
  37:rhea\drivers\BME280/BME280.c **** // Project includes
  38:rhea\drivers\BME280/BME280.c **** #include "BME280.h"
  39:rhea\drivers\BME280/BME280.c **** 
  40:rhea\drivers\BME280/BME280.c **** 
  41:rhea\drivers\BME280/BME280.c **** // // Structure holding function pointers to I2C handlers
  42:rhea\drivers\BME280/BME280.c **** static BME280_I2CControllerStruct BME280_I2CController;
  43:rhea\drivers\BME280/BME280.c **** 
  44:rhea\drivers\BME280/BME280.c **** // Static instance holding a local copy of the BME280's registers
  45:rhea\drivers\BME280/BME280.c **** static BME280_RegisterStruct BME280_RegistersLocal;
  46:rhea\drivers\BME280/BME280.c **** 
  47:rhea\drivers\BME280/BME280.c **** void BME280_SetI2CController(BME280_I2CControllerStruct controller) {
  28              		.loc 1 47 0
  29              		.cfi_startproc
  30              		@ args = 0, pretend = 0, frame = 16
  31              		@ frame_needed = 0, uses_anonymous_args = 0
  32              		@ link register save eliminated.
  33 0000 30B4     		push	{r4, r5}
  34              		.cfi_def_cfa_offset 8
  35              		.cfi_offset 4, -8
  36              		.cfi_offset 5, -4
  37 0002 84B0     		sub	sp, sp, #16
  38              		.cfi_def_cfa_offset 24
  39 0004 8DE80F00 		stmia	sp, {r0, r1, r2, r3}
  48:rhea\drivers\BME280/BME280.c **** 	BME280_I2CController = controller;
  40              		.loc 1 48 0
  41 0008 034D     		ldr	r5, .L3
  42 000a 9DE80F00 		ldmia	sp, {r0, r1, r2, r3}
  43 000e 85E80F00 		stmia	r5, {r0, r1, r2, r3}
  49:rhea\drivers\BME280/BME280.c **** }
  44              		.loc 1 49 0
  45 0012 04B0     		add	sp, sp, #16
  46              		.cfi_def_cfa_offset 8
  47              		@ sp needed
  48 0014 30BC     		pop	{r4, r5}
  49              		.cfi_restore 5
  50              		.cfi_restore 4
  51              		.cfi_def_cfa_offset 0
  52 0016 7047     		bx	lr
  53              	.L4:
  54              		.align	2
  55              	.L3:
  56 0018 00000000 		.word	.LANCHOR0
  57              		.cfi_endproc
  58              	.LFE0:
  59              		.size	BME280_SetI2CController, .-BME280_SetI2CController
  60              		.section	.text.BME280_I2CReader,"ax",%progbits
  61              		.align	2
  62              		.global	BME280_I2CReader
  63              		.thumb
  64              		.thumb_func
  65              		.type	BME280_I2CReader, %function
ARM GAS  C:\Users\GYULAI~1\AppData\Local\Temp\cclBQTHO.s 			page 3


  66              	BME280_I2CReader:
  67              	.LFB1:
  50:rhea\drivers\BME280/BME280.c **** 
  51:rhea\drivers\BME280/BME280.c **** void BME280_I2CReader(uint8_t address, uint8_t deviceAddress, unsigned char * buffer, uint8_t byteC
  68              		.loc 1 51 0
  69              		.cfi_startproc
  70              		@ args = 0, pretend = 0, frame = 0
  71              		@ frame_needed = 0, uses_anonymous_args = 0
  72              	.LVL0:
  73 0000 2DE9F041 		push	{r4, r5, r6, r7, r8, lr}
  74              		.cfi_def_cfa_offset 24
  75              		.cfi_offset 4, -24
  76              		.cfi_offset 5, -20
  77              		.cfi_offset 6, -16
  78              		.cfi_offset 7, -12
  79              		.cfi_offset 8, -8
  80              		.cfi_offset 14, -4
  81 0004 0746     		mov	r7, r0
  82 0006 8846     		mov	r8, r1
  83 0008 1646     		mov	r6, r2
  84 000a 1D46     		mov	r5, r3
  52:rhea\drivers\BME280/BME280.c ****     
  53:rhea\drivers\BME280/BME280.c ****     // Selecting the device for write
  54:rhea\drivers\BME280/BME280.c ****     BME280_I2CController.MasterSendStart(address, 0);
  85              		.loc 1 54 0
  86 000c 0F4C     		ldr	r4, .L9
  87 000e 2368     		ldr	r3, [r4]
  88              	.LVL1:
  89 0010 0021     		movs	r1, #0
  90              	.LVL2:
  91 0012 9847     		blx	r3
  92              	.LVL3:
  55:rhea\drivers\BME280/BME280.c ****     
  56:rhea\drivers\BME280/BME280.c ****     // Writing first device address to read
  57:rhea\drivers\BME280/BME280.c ****     BME280_I2CController.MasterWriteByte(deviceAddress);
  93              		.loc 1 57 0
  94 0014 A368     		ldr	r3, [r4, #8]
  95 0016 4046     		mov	r0, r8
  96 0018 9847     		blx	r3
  97              	.LVL4:
  58:rhea\drivers\BME280/BME280.c ****     
  59:rhea\drivers\BME280/BME280.c ****     // Selecting the device for read
  60:rhea\drivers\BME280/BME280.c ****     BME280_I2CController.MasterSendStart(address, 1);
  98              		.loc 1 60 0
  99 001a 2368     		ldr	r3, [r4]
 100 001c 0121     		movs	r1, #1
 101 001e 3846     		mov	r0, r7
 102 0020 9847     		blx	r3
 103              	.LVL5:
 104              	.LBB2:
  61:rhea\drivers\BME280/BME280.c ****     
  62:rhea\drivers\BME280/BME280.c ****     // Reading bytes from the device
  63:rhea\drivers\BME280/BME280.c ****     for(uint8_t i = 0; i < byteCount; i++) {
 105              		.loc 1 63 0
 106 0022 0024     		movs	r4, #0
 107 0024 0AE0     		b	.L6
 108              	.LVL6:
ARM GAS  C:\Users\GYULAI~1\AppData\Local\Temp\cclBQTHO.s 			page 4


 109              	.L7:
  64:rhea\drivers\BME280/BME280.c ****         buffer[i] = BME280_I2CController.MasterReadByte(i < byteCount - 1 ? 1 : 0);   
 110              		.loc 1 64 0 discriminator 3
 111 0026 094B     		ldr	r3, .L9
 112 0028 DB68     		ldr	r3, [r3, #12]
 113 002a 681E     		subs	r0, r5, #1
 114 002c 8442     		cmp	r4, r0
 115 002e ACBF     		ite	ge
 116 0030 0020     		movge	r0, #0
 117 0032 0120     		movlt	r0, #1
 118 0034 9847     		blx	r3
 119              	.LVL7:
 120 0036 3055     		strb	r0, [r6, r4]
  63:rhea\drivers\BME280/BME280.c ****         buffer[i] = BME280_I2CController.MasterReadByte(i < byteCount - 1 ? 1 : 0);   
 121              		.loc 1 63 0 discriminator 3
 122 0038 0134     		adds	r4, r4, #1
 123              	.LVL8:
 124 003a E4B2     		uxtb	r4, r4
 125              	.LVL9:
 126              	.L6:
  63:rhea\drivers\BME280/BME280.c ****         buffer[i] = BME280_I2CController.MasterReadByte(i < byteCount - 1 ? 1 : 0);   
 127              		.loc 1 63 0 is_stmt 0 discriminator 1
 128 003c AC42     		cmp	r4, r5
 129 003e F2D3     		bcc	.L7
 130              	.LBE2:
  65:rhea\drivers\BME280/BME280.c ****     }
  66:rhea\drivers\BME280/BME280.c ****     
  67:rhea\drivers\BME280/BME280.c ****     // Sending STOP 
  68:rhea\drivers\BME280/BME280.c ****     BME280_I2CController.MasterSendStop();
 131              		.loc 1 68 0 is_stmt 1
 132 0040 024B     		ldr	r3, .L9
 133 0042 5B68     		ldr	r3, [r3, #4]
 134 0044 9847     		blx	r3
 135              	.LVL10:
 136 0046 BDE8F081 		pop	{r4, r5, r6, r7, r8, pc}
 137              	.LVL11:
 138              	.L10:
 139 004a 00BF     		.align	2
 140              	.L9:
 141 004c 00000000 		.word	.LANCHOR0
 142              		.cfi_endproc
 143              	.LFE1:
 144              		.size	BME280_I2CReader, .-BME280_I2CReader
 145              		.section	.text.BME280_I2CWriter,"ax",%progbits
 146              		.align	2
 147              		.global	BME280_I2CWriter
 148              		.thumb
 149              		.thumb_func
 150              		.type	BME280_I2CWriter, %function
 151              	BME280_I2CWriter:
 152              	.LFB2:
  69:rhea\drivers\BME280/BME280.c **** }
  70:rhea\drivers\BME280/BME280.c **** 
  71:rhea\drivers\BME280/BME280.c **** void BME280_I2CWriter(uint8_t address, uint8_t deviceAddress, const unsigned char * buffer, uint8_t
 153              		.loc 1 71 0
 154              		.cfi_startproc
 155              		@ args = 0, pretend = 0, frame = 0
ARM GAS  C:\Users\GYULAI~1\AppData\Local\Temp\cclBQTHO.s 			page 5


 156              		@ frame_needed = 0, uses_anonymous_args = 0
 157              	.LVL12:
 158 0000 2DE9F843 		push	{r3, r4, r5, r6, r7, r8, r9, lr}
 159              		.cfi_def_cfa_offset 32
 160              		.cfi_offset 3, -32
 161              		.cfi_offset 4, -28
 162              		.cfi_offset 5, -24
 163              		.cfi_offset 6, -20
 164              		.cfi_offset 7, -16
 165              		.cfi_offset 8, -12
 166              		.cfi_offset 9, -8
 167              		.cfi_offset 14, -4
 168 0004 0D46     		mov	r5, r1
 169 0006 9146     		mov	r9, r2
 170 0008 9846     		mov	r8, r3
  72:rhea\drivers\BME280/BME280.c ****     
  73:rhea\drivers\BME280/BME280.c ****     // Selecting the device for write
  74:rhea\drivers\BME280/BME280.c ****     BME280_I2CController.MasterSendStart(address, 0);
 171              		.loc 1 74 0
 172 000a 0D4B     		ldr	r3, .L15
 173              	.LVL13:
 174 000c 1B68     		ldr	r3, [r3]
 175 000e 0021     		movs	r1, #0
 176              	.LVL14:
 177 0010 9847     		blx	r3
 178              	.LVL15:
 179              	.LBB3:
  75:rhea\drivers\BME280/BME280.c ****     
  76:rhea\drivers\BME280/BME280.c ****     // Writing bytes to the device
  77:rhea\drivers\BME280/BME280.c ****     for(uint8_t i = 0; i < byteCount; i++) {
 180              		.loc 1 77 0
 181 0012 0024     		movs	r4, #0
 182 0014 0CE0     		b	.L12
 183              	.LVL16:
 184              	.L13:
  78:rhea\drivers\BME280/BME280.c ****         
  79:rhea\drivers\BME280/BME280.c ****         // Sending device address to write
  80:rhea\drivers\BME280/BME280.c ****         BME280_I2CController.MasterWriteByte(deviceAddress++);
 185              		.loc 1 80 0 discriminator 3
 186 0016 0A4E     		ldr	r6, .L15
 187 0018 B368     		ldr	r3, [r6, #8]
 188 001a 6F1C     		adds	r7, r5, #1
 189 001c FFB2     		uxtb	r7, r7
 190              	.LVL17:
 191 001e 2846     		mov	r0, r5
 192 0020 9847     		blx	r3
 193              	.LVL18:
  81:rhea\drivers\BME280/BME280.c ****         
  82:rhea\drivers\BME280/BME280.c ****         // Sending byte to write
  83:rhea\drivers\BME280/BME280.c ****         BME280_I2CController.MasterWriteByte(buffer[i]);
 194              		.loc 1 83 0 discriminator 3
 195 0022 B368     		ldr	r3, [r6, #8]
 196 0024 19F80400 		ldrb	r0, [r9, r4]	@ zero_extendqisi2
 197 0028 9847     		blx	r3
 198              	.LVL19:
  77:rhea\drivers\BME280/BME280.c ****         
 199              		.loc 1 77 0 discriminator 3
ARM GAS  C:\Users\GYULAI~1\AppData\Local\Temp\cclBQTHO.s 			page 6


 200 002a 0134     		adds	r4, r4, #1
 201              	.LVL20:
 202 002c E4B2     		uxtb	r4, r4
 203              	.LVL21:
  80:rhea\drivers\BME280/BME280.c ****         
 204              		.loc 1 80 0 discriminator 3
 205 002e 3D46     		mov	r5, r7
 206              	.LVL22:
 207              	.L12:
  77:rhea\drivers\BME280/BME280.c ****         
 208              		.loc 1 77 0 discriminator 1
 209 0030 4445     		cmp	r4, r8
 210 0032 F0D3     		bcc	.L13
 211              	.LBE3:
  84:rhea\drivers\BME280/BME280.c ****     }
  85:rhea\drivers\BME280/BME280.c ****     
  86:rhea\drivers\BME280/BME280.c ****     // Sending STOP 
  87:rhea\drivers\BME280/BME280.c ****     BME280_I2CController.MasterSendStop();
 212              		.loc 1 87 0
 213 0034 024B     		ldr	r3, .L15
 214 0036 5B68     		ldr	r3, [r3, #4]
 215 0038 9847     		blx	r3
 216              	.LVL23:
 217 003a BDE8F883 		pop	{r3, r4, r5, r6, r7, r8, r9, pc}
 218              	.LVL24:
 219              	.L16:
 220 003e 00BF     		.align	2
 221              	.L15:
 222 0040 00000000 		.word	.LANCHOR0
 223              		.cfi_endproc
 224              	.LFE2:
 225              		.size	BME280_I2CWriter, .-BME280_I2CWriter
 226              		.section	.text.BME280_Reset,"ax",%progbits
 227              		.align	2
 228              		.global	BME280_Reset
 229              		.thumb
 230              		.thumb_func
 231              		.type	BME280_Reset, %function
 232              	BME280_Reset:
 233              	.LFB4:
  88:rhea\drivers\BME280/BME280.c **** }
  89:rhea\drivers\BME280/BME280.c ****     
  90:rhea\drivers\BME280/BME280.c **** void BME280_Init(void) {
  91:rhea\drivers\BME280/BME280.c **** 
  92:rhea\drivers\BME280/BME280.c ****     // Reading & validating chip ID
  93:rhea\drivers\BME280/BME280.c ****     uint8_t ID = 0x00;
  94:rhea\drivers\BME280/BME280.c ****     BME280_I2CReader(BME280_I2C_ADDR, BME280_ID, &ID, 1);
  95:rhea\drivers\BME280/BME280.c ****         // Do assertion: ID == BME280_CHIP_ID
  96:rhea\drivers\BME280/BME280.c ****     
  97:rhea\drivers\BME280/BME280.c ****     // Reading calibration data
  98:rhea\drivers\BME280/BME280.c ****     uint8_t calibDataLow[BME280_CALIBRATION_REGS_LOW_COUNT];
  99:rhea\drivers\BME280/BME280.c ****     uint8_t calibDataHigh[BME280_CALIBRATION_REGS_HIGH_COUNT];
 100:rhea\drivers\BME280/BME280.c ****     BME280_I2CReader(BME280_I2C_ADDR, BME280_CALIBRATION_REGS_LOW, calibDataLow, BME280_CALIBRATION
 101:rhea\drivers\BME280/BME280.c ****     BME280_I2CReader(BME280_I2C_ADDR, BME280_CALIBRATION_REGS_HIGH, calibDataHigh, BME280_CALIBRATI
 102:rhea\drivers\BME280/BME280.c **** 
 103:rhea\drivers\BME280/BME280.c ****     // Setting temperature compensation parameters
 104:rhea\drivers\BME280/BME280.c ****     BME280_RegistersLocal.dig_T1 = (uint16_t) calibDataLow[0]  | (uint16_t) calibDataLow[1] << 8;
ARM GAS  C:\Users\GYULAI~1\AppData\Local\Temp\cclBQTHO.s 			page 7


 105:rhea\drivers\BME280/BME280.c ****     BME280_RegistersLocal.dig_T2 = (int16_t)  calibDataLow[2]  | (int16_t)  calibDataLow[3] << 8;
 106:rhea\drivers\BME280/BME280.c ****     BME280_RegistersLocal.dig_T3 = (int16_t)  calibDataLow[4]  | (int16_t)  calibDataLow[5] << 8;
 107:rhea\drivers\BME280/BME280.c **** 
 108:rhea\drivers\BME280/BME280.c ****     // Setting pressure compensation parameters
 109:rhea\drivers\BME280/BME280.c ****     BME280_RegistersLocal.dig_P1 = (uint16_t) calibDataLow[6]  | (uint16_t) calibDataLow[7] << 8;
 110:rhea\drivers\BME280/BME280.c ****     BME280_RegistersLocal.dig_P2 = (int16_t)  calibDataLow[8]  | (int16_t)  calibDataLow[9] << 8;
 111:rhea\drivers\BME280/BME280.c ****     BME280_RegistersLocal.dig_P3 = (int16_t)  calibDataLow[10] | (int16_t)  calibDataLow[11] << 8;
 112:rhea\drivers\BME280/BME280.c ****     BME280_RegistersLocal.dig_P4 = (int16_t)  calibDataLow[12] | (int16_t)  calibDataLow[13] << 8;
 113:rhea\drivers\BME280/BME280.c ****     BME280_RegistersLocal.dig_P5 = (int16_t)  calibDataLow[14] | (int16_t)  calibDataLow[15] << 8;
 114:rhea\drivers\BME280/BME280.c ****     BME280_RegistersLocal.dig_P6 = (int16_t)  calibDataLow[16] | (int16_t)  calibDataLow[17] << 8;
 115:rhea\drivers\BME280/BME280.c ****     BME280_RegistersLocal.dig_P7 = (int16_t)  calibDataLow[18] | (int16_t)  calibDataLow[19] << 8;
 116:rhea\drivers\BME280/BME280.c ****     BME280_RegistersLocal.dig_P8 = (int16_t)  calibDataLow[20] | (int16_t)  calibDataLow[21] << 8;
 117:rhea\drivers\BME280/BME280.c ****     BME280_RegistersLocal.dig_P9 = (int16_t)  calibDataLow[22] | (int16_t)  calibDataLow[23] << 8;
 118:rhea\drivers\BME280/BME280.c **** 
 119:rhea\drivers\BME280/BME280.c ****     // Setting humidity compensation parameters
 120:rhea\drivers\BME280/BME280.c ****     BME280_RegistersLocal.dig_H1 = (uint8_t)  calibDataLow[25];
 121:rhea\drivers\BME280/BME280.c ****     BME280_RegistersLocal.dig_H2 = (int16_t)  calibDataHigh[0]         | (int16_t) calibDataHigh[1]
 122:rhea\drivers\BME280/BME280.c ****     BME280_RegistersLocal.dig_H3 = (uint8_t)  calibDataHigh[2];
 123:rhea\drivers\BME280/BME280.c ****     BME280_RegistersLocal.dig_H4 = (int16_t) (calibDataHigh[4] | 0x0F) | (int16_t) calibDataHigh[3]
 124:rhea\drivers\BME280/BME280.c ****     BME280_RegistersLocal.dig_H5 = (int16_t) (calibDataHigh[4] | 0xF0) | (int16_t) calibDataHigh[5]
 125:rhea\drivers\BME280/BME280.c ****     BME280_RegistersLocal.dig_H6 = (int8_t)   calibDataHigh[6];
 126:rhea\drivers\BME280/BME280.c **** 
 127:rhea\drivers\BME280/BME280.c ****     // Performing software reset
 128:rhea\drivers\BME280/BME280.c ****     BME280_Reset();
 129:rhea\drivers\BME280/BME280.c **** }
 130:rhea\drivers\BME280/BME280.c **** 
 131:rhea\drivers\BME280/BME280.c **** void BME280_Reset(void) {
 234              		.loc 1 131 0
 235              		.cfi_startproc
 236              		@ args = 0, pretend = 0, frame = 8
 237              		@ frame_needed = 0, uses_anonymous_args = 0
 238 0000 00B5     		push	{lr}
 239              		.cfi_def_cfa_offset 4
 240              		.cfi_offset 14, -4
 241 0002 83B0     		sub	sp, sp, #12
 242              		.cfi_def_cfa_offset 16
 132:rhea\drivers\BME280/BME280.c **** 
 133:rhea\drivers\BME280/BME280.c ****     // Writing reset word to RESET register
 134:rhea\drivers\BME280/BME280.c ****     const uint8_t resetWord = BME280_RESET_WORD;
 243              		.loc 1 134 0
 244 0004 02AA     		add	r2, sp, #8
 245 0006 B623     		movs	r3, #182
 246 0008 02F8013D 		strb	r3, [r2, #-1]!
 135:rhea\drivers\BME280/BME280.c ****     BME280_I2CWriter(BME280_I2C_ADDR, BME280_RESET, &resetWord, 1);
 247              		.loc 1 135 0
 248 000c 0123     		movs	r3, #1
 249 000e E021     		movs	r1, #224
 250 0010 7620     		movs	r0, #118
 251 0012 FFF7FEFF 		bl	BME280_I2CWriter
 252              	.LVL25:
 136:rhea\drivers\BME280/BME280.c **** }
 253              		.loc 1 136 0
 254 0016 03B0     		add	sp, sp, #12
 255              		.cfi_def_cfa_offset 4
 256              		@ sp needed
 257 0018 5DF804FB 		ldr	pc, [sp], #4
 258              		.cfi_endproc
ARM GAS  C:\Users\GYULAI~1\AppData\Local\Temp\cclBQTHO.s 			page 8


 259              	.LFE4:
 260              		.size	BME280_Reset, .-BME280_Reset
 261              		.section	.text.BME280_Init,"ax",%progbits
 262              		.align	2
 263              		.global	BME280_Init
 264              		.thumb
 265              		.thumb_func
 266              		.type	BME280_Init, %function
 267              	BME280_Init:
 268              	.LFB3:
  90:rhea\drivers\BME280/BME280.c **** 
 269              		.loc 1 90 0
 270              		.cfi_startproc
 271              		@ args = 0, pretend = 0, frame = 40
 272              		@ frame_needed = 0, uses_anonymous_args = 0
 273 0000 00B5     		push	{lr}
 274              		.cfi_def_cfa_offset 4
 275              		.cfi_offset 14, -4
 276 0002 8BB0     		sub	sp, sp, #44
 277              		.cfi_def_cfa_offset 48
  93:rhea\drivers\BME280/BME280.c ****     BME280_I2CReader(BME280_I2C_ADDR, BME280_ID, &ID, 1);
 278              		.loc 1 93 0
 279 0004 0AAA     		add	r2, sp, #40
 280 0006 0023     		movs	r3, #0
 281 0008 02F8013D 		strb	r3, [r2, #-1]!
  94:rhea\drivers\BME280/BME280.c ****         // Do assertion: ID == BME280_CHIP_ID
 282              		.loc 1 94 0
 283 000c 0123     		movs	r3, #1
 284 000e D021     		movs	r1, #208
 285 0010 7620     		movs	r0, #118
 286 0012 FFF7FEFF 		bl	BME280_I2CReader
 287              	.LVL26:
 100:rhea\drivers\BME280/BME280.c ****     BME280_I2CReader(BME280_I2C_ADDR, BME280_CALIBRATION_REGS_HIGH, calibDataHigh, BME280_CALIBRATI
 288              		.loc 1 100 0
 289 0016 1A23     		movs	r3, #26
 290 0018 03AA     		add	r2, sp, #12
 291 001a 8821     		movs	r1, #136
 292 001c 7620     		movs	r0, #118
 293 001e FFF7FEFF 		bl	BME280_I2CReader
 294              	.LVL27:
 101:rhea\drivers\BME280/BME280.c **** 
 295              		.loc 1 101 0
 296 0022 0723     		movs	r3, #7
 297 0024 01AA     		add	r2, sp, #4
 298 0026 E121     		movs	r1, #225
 299 0028 7620     		movs	r0, #118
 300 002a FFF7FEFF 		bl	BME280_I2CReader
 301              	.LVL28:
 104:rhea\drivers\BME280/BME280.c ****     BME280_RegistersLocal.dig_T2 = (int16_t)  calibDataLow[2]  | (int16_t)  calibDataLow[3] << 8;
 302              		.loc 1 104 0
 303 002e 9DF80C20 		ldrb	r2, [sp, #12]	@ zero_extendqisi2
 304 0032 9DF80D10 		ldrb	r1, [sp, #13]	@ zero_extendqisi2
 305 0036 3D4B     		ldr	r3, .L21
 306 0038 42EA0122 		orr	r2, r2, r1, lsl #8
 307 003c 9A83     		strh	r2, [r3, #28]	@ movhi
 105:rhea\drivers\BME280/BME280.c ****     BME280_RegistersLocal.dig_T3 = (int16_t)  calibDataLow[4]  | (int16_t)  calibDataLow[5] << 8;
 308              		.loc 1 105 0
ARM GAS  C:\Users\GYULAI~1\AppData\Local\Temp\cclBQTHO.s 			page 9


 309 003e 9DF80E20 		ldrb	r2, [sp, #14]	@ zero_extendqisi2
 310 0042 9DF80F10 		ldrb	r1, [sp, #15]	@ zero_extendqisi2
 311 0046 42EA0122 		orr	r2, r2, r1, lsl #8
 312 004a DA83     		strh	r2, [r3, #30]	@ movhi
 106:rhea\drivers\BME280/BME280.c **** 
 313              		.loc 1 106 0
 314 004c 9DF81020 		ldrb	r2, [sp, #16]	@ zero_extendqisi2
 315 0050 9DF81110 		ldrb	r1, [sp, #17]	@ zero_extendqisi2
 316 0054 42EA0122 		orr	r2, r2, r1, lsl #8
 317 0058 1A84     		strh	r2, [r3, #32]	@ movhi
 109:rhea\drivers\BME280/BME280.c ****     BME280_RegistersLocal.dig_P2 = (int16_t)  calibDataLow[8]  | (int16_t)  calibDataLow[9] << 8;
 318              		.loc 1 109 0
 319 005a 9DF81220 		ldrb	r2, [sp, #18]	@ zero_extendqisi2
 320 005e 9DF81310 		ldrb	r1, [sp, #19]	@ zero_extendqisi2
 321 0062 42EA0122 		orr	r2, r2, r1, lsl #8
 322 0066 5A84     		strh	r2, [r3, #34]	@ movhi
 110:rhea\drivers\BME280/BME280.c ****     BME280_RegistersLocal.dig_P3 = (int16_t)  calibDataLow[10] | (int16_t)  calibDataLow[11] << 8;
 323              		.loc 1 110 0
 324 0068 9DF81420 		ldrb	r2, [sp, #20]	@ zero_extendqisi2
 325 006c 9DF81510 		ldrb	r1, [sp, #21]	@ zero_extendqisi2
 326 0070 42EA0122 		orr	r2, r2, r1, lsl #8
 327 0074 9A84     		strh	r2, [r3, #36]	@ movhi
 111:rhea\drivers\BME280/BME280.c ****     BME280_RegistersLocal.dig_P4 = (int16_t)  calibDataLow[12] | (int16_t)  calibDataLow[13] << 8;
 328              		.loc 1 111 0
 329 0076 9DF81620 		ldrb	r2, [sp, #22]	@ zero_extendqisi2
 330 007a 9DF81710 		ldrb	r1, [sp, #23]	@ zero_extendqisi2
 331 007e 42EA0122 		orr	r2, r2, r1, lsl #8
 332 0082 DA84     		strh	r2, [r3, #38]	@ movhi
 112:rhea\drivers\BME280/BME280.c ****     BME280_RegistersLocal.dig_P5 = (int16_t)  calibDataLow[14] | (int16_t)  calibDataLow[15] << 8;
 333              		.loc 1 112 0
 334 0084 9DF81820 		ldrb	r2, [sp, #24]	@ zero_extendqisi2
 335 0088 9DF81910 		ldrb	r1, [sp, #25]	@ zero_extendqisi2
 336 008c 42EA0122 		orr	r2, r2, r1, lsl #8
 337 0090 1A85     		strh	r2, [r3, #40]	@ movhi
 113:rhea\drivers\BME280/BME280.c ****     BME280_RegistersLocal.dig_P6 = (int16_t)  calibDataLow[16] | (int16_t)  calibDataLow[17] << 8;
 338              		.loc 1 113 0
 339 0092 9DF81A20 		ldrb	r2, [sp, #26]	@ zero_extendqisi2
 340 0096 9DF81B10 		ldrb	r1, [sp, #27]	@ zero_extendqisi2
 341 009a 42EA0122 		orr	r2, r2, r1, lsl #8
 342 009e 5A85     		strh	r2, [r3, #42]	@ movhi
 114:rhea\drivers\BME280/BME280.c ****     BME280_RegistersLocal.dig_P7 = (int16_t)  calibDataLow[18] | (int16_t)  calibDataLow[19] << 8;
 343              		.loc 1 114 0
 344 00a0 9DF81C20 		ldrb	r2, [sp, #28]	@ zero_extendqisi2
 345 00a4 9DF81D10 		ldrb	r1, [sp, #29]	@ zero_extendqisi2
 346 00a8 42EA0122 		orr	r2, r2, r1, lsl #8
 347 00ac 9A85     		strh	r2, [r3, #44]	@ movhi
 115:rhea\drivers\BME280/BME280.c ****     BME280_RegistersLocal.dig_P8 = (int16_t)  calibDataLow[20] | (int16_t)  calibDataLow[21] << 8;
 348              		.loc 1 115 0
 349 00ae 9DF81E20 		ldrb	r2, [sp, #30]	@ zero_extendqisi2
 350 00b2 9DF81F10 		ldrb	r1, [sp, #31]	@ zero_extendqisi2
 351 00b6 42EA0122 		orr	r2, r2, r1, lsl #8
 352 00ba DA85     		strh	r2, [r3, #46]	@ movhi
 116:rhea\drivers\BME280/BME280.c ****     BME280_RegistersLocal.dig_P9 = (int16_t)  calibDataLow[22] | (int16_t)  calibDataLow[23] << 8;
 353              		.loc 1 116 0
 354 00bc 9DF82020 		ldrb	r2, [sp, #32]	@ zero_extendqisi2
 355 00c0 9DF82110 		ldrb	r1, [sp, #33]	@ zero_extendqisi2
 356 00c4 42EA0122 		orr	r2, r2, r1, lsl #8
ARM GAS  C:\Users\GYULAI~1\AppData\Local\Temp\cclBQTHO.s 			page 10


 357 00c8 1A86     		strh	r2, [r3, #48]	@ movhi
 117:rhea\drivers\BME280/BME280.c **** 
 358              		.loc 1 117 0
 359 00ca 9DF82220 		ldrb	r2, [sp, #34]	@ zero_extendqisi2
 360 00ce 9DF82310 		ldrb	r1, [sp, #35]	@ zero_extendqisi2
 361 00d2 42EA0122 		orr	r2, r2, r1, lsl #8
 362 00d6 5A86     		strh	r2, [r3, #50]	@ movhi
 120:rhea\drivers\BME280/BME280.c ****     BME280_RegistersLocal.dig_H2 = (int16_t)  calibDataHigh[0]         | (int16_t) calibDataHigh[1]
 363              		.loc 1 120 0
 364 00d8 9DF82520 		ldrb	r2, [sp, #37]	@ zero_extendqisi2
 365 00dc 83F83420 		strb	r2, [r3, #52]
 121:rhea\drivers\BME280/BME280.c ****     BME280_RegistersLocal.dig_H3 = (uint8_t)  calibDataHigh[2];
 366              		.loc 1 121 0
 367 00e0 9DF80420 		ldrb	r2, [sp, #4]	@ zero_extendqisi2
 368 00e4 9DF80510 		ldrb	r1, [sp, #5]	@ zero_extendqisi2
 369 00e8 42EA0122 		orr	r2, r2, r1, lsl #8
 370 00ec A3F83520 		strh	r2, [r3, #53]	@ unaligned
 122:rhea\drivers\BME280/BME280.c ****     BME280_RegistersLocal.dig_H4 = (int16_t) (calibDataHigh[4] | 0x0F) | (int16_t) calibDataHigh[3]
 371              		.loc 1 122 0
 372 00f0 9DF80620 		ldrb	r2, [sp, #6]	@ zero_extendqisi2
 373 00f4 83F83720 		strb	r2, [r3, #55]
 123:rhea\drivers\BME280/BME280.c ****     BME280_RegistersLocal.dig_H5 = (int16_t) (calibDataHigh[4] | 0xF0) | (int16_t) calibDataHigh[5]
 374              		.loc 1 123 0
 375 00f8 9DF80820 		ldrb	r2, [sp, #8]	@ zero_extendqisi2
 376 00fc 9DF80700 		ldrb	r0, [sp, #7]	@ zero_extendqisi2
 377 0100 42F00F01 		orr	r1, r2, #15
 378 0104 41EA0011 		orr	r1, r1, r0, lsl #4
 379 0108 1987     		strh	r1, [r3, #56]	@ movhi
 124:rhea\drivers\BME280/BME280.c ****     BME280_RegistersLocal.dig_H6 = (int8_t)   calibDataHigh[6];
 380              		.loc 1 124 0
 381 010a 9DF80910 		ldrb	r1, [sp, #9]	@ zero_extendqisi2
 382 010e 42F0F002 		orr	r2, r2, #240
 383 0112 42EA0112 		orr	r2, r2, r1, lsl #4
 384 0116 5A87     		strh	r2, [r3, #58]	@ movhi
 125:rhea\drivers\BME280/BME280.c **** 
 385              		.loc 1 125 0
 386 0118 9DF90A20 		ldrsb	r2, [sp, #10]
 387 011c 83F83C20 		strb	r2, [r3, #60]
 128:rhea\drivers\BME280/BME280.c **** }
 388              		.loc 1 128 0
 389 0120 FFF7FEFF 		bl	BME280_Reset
 390              	.LVL29:
 129:rhea\drivers\BME280/BME280.c **** 
 391              		.loc 1 129 0
 392 0124 0BB0     		add	sp, sp, #44
 393              		.cfi_def_cfa_offset 4
 394              		@ sp needed
 395 0126 5DF804FB 		ldr	pc, [sp], #4
 396              	.L22:
 397 012a 00BF     		.align	2
 398              	.L21:
 399 012c 00000000 		.word	.LANCHOR0
 400              		.cfi_endproc
 401              	.LFE3:
 402              		.size	BME280_Init, .-BME280_Init
 403              		.section	.text.BME280_ReadRegisters,"ax",%progbits
 404              		.align	2
ARM GAS  C:\Users\GYULAI~1\AppData\Local\Temp\cclBQTHO.s 			page 11


 405              		.global	BME280_ReadRegisters
 406              		.thumb
 407              		.thumb_func
 408              		.type	BME280_ReadRegisters, %function
 409              	BME280_ReadRegisters:
 410              	.LFB5:
 137:rhea\drivers\BME280/BME280.c **** 
 138:rhea\drivers\BME280/BME280.c **** void BME280_ReadRegisters(void) {
 411              		.loc 1 138 0
 412              		.cfi_startproc
 413              		@ args = 0, pretend = 0, frame = 0
 414              		@ frame_needed = 0, uses_anonymous_args = 0
 415 0000 10B5     		push	{r4, lr}
 416              		.cfi_def_cfa_offset 8
 417              		.cfi_offset 4, -8
 418              		.cfi_offset 14, -4
 139:rhea\drivers\BME280/BME280.c **** 
 140:rhea\drivers\BME280/BME280.c ****     // Reading measurement registers [F7-FE]
 141:rhea\drivers\BME280/BME280.c ****     BME280_I2CReader(BME280_I2C_ADDR, BME280_PRESS_MSB, (uint8_t*) &BME280_RegistersLocal.PRESS_MSB
 419              		.loc 1 141 0
 420 0002 084C     		ldr	r4, .L25
 421 0004 0823     		movs	r3, #8
 422 0006 04F11002 		add	r2, r4, #16
 423 000a F721     		movs	r1, #247
 424 000c 7620     		movs	r0, #118
 425 000e FFF7FEFF 		bl	BME280_I2CReader
 426              	.LVL30:
 142:rhea\drivers\BME280/BME280.c **** 
 143:rhea\drivers\BME280/BME280.c ****     // Reading configuration registers [F2-F5]
 144:rhea\drivers\BME280/BME280.c ****     BME280_I2CReader(BME280_I2C_ADDR, BME280_CTRL_HUM, (uint8_t*) &BME280_RegistersLocal.CTRL_HUM, 
 427              		.loc 1 144 0
 428 0012 0423     		movs	r3, #4
 429 0014 04F11802 		add	r2, r4, #24
 430 0018 F221     		movs	r1, #242
 431 001a 7620     		movs	r0, #118
 432 001c FFF7FEFF 		bl	BME280_I2CReader
 433              	.LVL31:
 434 0020 10BD     		pop	{r4, pc}
 435              	.L26:
 436 0022 00BF     		.align	2
 437              	.L25:
 438 0024 00000000 		.word	.LANCHOR0
 439              		.cfi_endproc
 440              	.LFE5:
 441              		.size	BME280_ReadRegisters, .-BME280_ReadRegisters
 442              		.section	.text.BME280_WriteRegisters,"ax",%progbits
 443              		.align	2
 444              		.global	BME280_WriteRegisters
 445              		.thumb
 446              		.thumb_func
 447              		.type	BME280_WriteRegisters, %function
 448              	BME280_WriteRegisters:
 449              	.LFB6:
 145:rhea\drivers\BME280/BME280.c **** }
 146:rhea\drivers\BME280/BME280.c **** 
 147:rhea\drivers\BME280/BME280.c **** void BME280_WriteRegisters(void) {
 450              		.loc 1 147 0
ARM GAS  C:\Users\GYULAI~1\AppData\Local\Temp\cclBQTHO.s 			page 12


 451              		.cfi_startproc
 452              		@ args = 0, pretend = 0, frame = 0
 453              		@ frame_needed = 0, uses_anonymous_args = 0
 454 0000 08B5     		push	{r3, lr}
 455              		.cfi_def_cfa_offset 8
 456              		.cfi_offset 3, -8
 457              		.cfi_offset 14, -4
 148:rhea\drivers\BME280/BME280.c **** 
 149:rhea\drivers\BME280/BME280.c ****     // Writing configuration registers [F2-F5]
 150:rhea\drivers\BME280/BME280.c ****     BME280_I2CWriter(BME280_I2C_ADDR, BME280_CTRL_HUM, (const uint8_t*) &BME280_RegistersLocal.CTRL
 458              		.loc 1 150 0
 459 0002 0423     		movs	r3, #4
 460 0004 024A     		ldr	r2, .L29
 461 0006 F221     		movs	r1, #242
 462 0008 7620     		movs	r0, #118
 463 000a FFF7FEFF 		bl	BME280_I2CWriter
 464              	.LVL32:
 465 000e 08BD     		pop	{r3, pc}
 466              	.L30:
 467              		.align	2
 468              	.L29:
 469 0010 18000000 		.word	.LANCHOR0+24
 470              		.cfi_endproc
 471              	.LFE6:
 472              		.size	BME280_WriteRegisters, .-BME280_WriteRegisters
 473              		.global	__aeabi_ui2d
 474              		.global	__aeabi_dmul
 475              		.global	__aeabi_dsub
 476              		.global	__aeabi_i2d
 477              		.global	__aeabi_dadd
 478              		.global	__aeabi_d2iz
 479              		.global	__aeabi_ddiv
 480              		.global	__aeabi_dcmplt
 481              		.global	__aeabi_dcmpgt
 482              		.section	.text.BME280_GetTemperatureCelsius,"ax",%progbits
 483              		.align	2
 484              		.global	BME280_GetTemperatureCelsius
 485              		.thumb
 486              		.thumb_func
 487              		.type	BME280_GetTemperatureCelsius, %function
 488              	BME280_GetTemperatureCelsius:
 489              	.LFB7:
 151:rhea\drivers\BME280/BME280.c **** }
 152:rhea\drivers\BME280/BME280.c **** 
 153:rhea\drivers\BME280/BME280.c **** int8_t BME280_GetTemperatureCelsius(uint8_t readNow) {
 490              		.loc 1 153 0
 491              		.cfi_startproc
 492              		@ args = 0, pretend = 0, frame = 0
 493              		@ frame_needed = 0, uses_anonymous_args = 0
 494              	.LVL33:
 495 0000 2DE9F84F 		push	{r3, r4, r5, r6, r7, r8, r9, r10, fp, lr}
 496              		.cfi_def_cfa_offset 40
 497              		.cfi_offset 3, -40
 498              		.cfi_offset 4, -36
 499              		.cfi_offset 5, -32
 500              		.cfi_offset 6, -28
 501              		.cfi_offset 7, -24
ARM GAS  C:\Users\GYULAI~1\AppData\Local\Temp\cclBQTHO.s 			page 13


 502              		.cfi_offset 8, -20
 503              		.cfi_offset 9, -16
 504              		.cfi_offset 10, -12
 505              		.cfi_offset 11, -8
 506              		.cfi_offset 14, -4
 154:rhea\drivers\BME280/BME280.c **** 
 155:rhea\drivers\BME280/BME280.c ****     // Loading measurements registers from the device
 156:rhea\drivers\BME280/BME280.c ****     if(readNow) BME280_ReadRegisters();
 507              		.loc 1 156 0
 508 0004 08B1     		cbz	r0, .L32
 509              		.loc 1 156 0 is_stmt 0 discriminator 1
 510 0006 FFF7FEFF 		bl	BME280_ReadRegisters
 511              	.LVL34:
 512              	.L32:
 157:rhea\drivers\BME280/BME280.c ****     
 158:rhea\drivers\BME280/BME280.c ****     // Preparing measurement register data
 159:rhea\drivers\BME280/BME280.c ****     uint32_t regData = BME280_RegistersLocal.TEMP_XLSB >> 4 | 
 513              		.loc 1 159 0 is_stmt 1
 514 000a 404C     		ldr	r4, .L37
 515 000c 607D     		ldrb	r0, [r4, #21]	@ zero_extendqisi2
 160:rhea\drivers\BME280/BME280.c ****                        BME280_RegistersLocal.TEMP_LSB  << 4 | 
 516              		.loc 1 160 0
 517 000e 237D     		ldrb	r3, [r4, #20]	@ zero_extendqisi2
 518 0010 1B01     		lsls	r3, r3, #4
 159:rhea\drivers\BME280/BME280.c ****                        BME280_RegistersLocal.TEMP_LSB  << 4 | 
 519              		.loc 1 159 0
 520 0012 43EA1013 		orr	r3, r3, r0, lsr #4
 161:rhea\drivers\BME280/BME280.c ****                        BME280_RegistersLocal.TEMP_MSB  << 12;
 521              		.loc 1 161 0
 522 0016 E07C     		ldrb	r0, [r4, #19]	@ zero_extendqisi2
 523              	.LVL35:
 162:rhea\drivers\BME280/BME280.c **** 
 163:rhea\drivers\BME280/BME280.c ****     // Compensation algorithm from Bosch Sensortech
 164:rhea\drivers\BME280/BME280.c ****     // https://github.com/BoschSensortec/BME280_driver
 165:rhea\drivers\BME280/BME280.c **** 
 166:rhea\drivers\BME280/BME280.c ****     double var1;
 167:rhea\drivers\BME280/BME280.c ****     double var2;
 168:rhea\drivers\BME280/BME280.c ****     double temperature;
 169:rhea\drivers\BME280/BME280.c ****     double temperature_min = -40;
 170:rhea\drivers\BME280/BME280.c ****     double temperature_max = 85;
 171:rhea\drivers\BME280/BME280.c **** 
 172:rhea\drivers\BME280/BME280.c ****     var1 = ((double)regData) / 16384.0 - ((double)BME280_RegistersLocal.dig_T1) / 1024.0;
 524              		.loc 1 172 0
 525 0018 43EA0030 		orr	r0, r3, r0, lsl #12
 526              	.LVL36:
 527 001c FFF7FEFF 		bl	__aeabi_ui2d
 528              	.LVL37:
 529 0020 8046     		mov	r8, r0
 530 0022 8946     		mov	r9, r1
 531 0024 0022     		movs	r2, #0
 532 0026 3A4B     		ldr	r3, .L37+4
 533 0028 FFF7FEFF 		bl	__aeabi_dmul
 534              	.LVL38:
 535 002c 0646     		mov	r6, r0
 536 002e 0F46     		mov	r7, r1
 537 0030 A08B     		ldrh	r0, [r4, #28]
 538 0032 FFF7FEFF 		bl	__aeabi_ui2d
ARM GAS  C:\Users\GYULAI~1\AppData\Local\Temp\cclBQTHO.s 			page 14


 539              	.LVL39:
 540 0036 8246     		mov	r10, r0
 541 0038 8B46     		mov	fp, r1
 542 003a 0022     		movs	r2, #0
 543 003c 354B     		ldr	r3, .L37+8
 544 003e FFF7FEFF 		bl	__aeabi_dmul
 545              	.LVL40:
 546 0042 0246     		mov	r2, r0
 547 0044 0B46     		mov	r3, r1
 548 0046 3046     		mov	r0, r6
 549 0048 3946     		mov	r1, r7
 550 004a FFF7FEFF 		bl	__aeabi_dsub
 551              	.LVL41:
 552 004e 0646     		mov	r6, r0
 553 0050 0F46     		mov	r7, r1
 554              	.LVL42:
 173:rhea\drivers\BME280/BME280.c ****     var1 = var1 * ((double)BME280_RegistersLocal.dig_T2);
 555              		.loc 1 173 0
 556 0052 B4F91E00 		ldrsh	r0, [r4, #30]
 557 0056 FFF7FEFF 		bl	__aeabi_i2d
 558              	.LVL43:
 559 005a 0246     		mov	r2, r0
 560 005c 0B46     		mov	r3, r1
 561 005e 3046     		mov	r0, r6
 562 0060 3946     		mov	r1, r7
 563 0062 FFF7FEFF 		bl	__aeabi_dmul
 564              	.LVL44:
 565 0066 0646     		mov	r6, r0
 566              	.LVL45:
 567 0068 0F46     		mov	r7, r1
 568              	.LVL46:
 174:rhea\drivers\BME280/BME280.c ****     var2 = (((double)regData) / 131072.0 - ((double)BME280_RegistersLocal.dig_T1) / 8192.0);
 569              		.loc 1 174 0
 570 006a 0022     		movs	r2, #0
 571 006c 2A4B     		ldr	r3, .L37+12
 572 006e 4046     		mov	r0, r8
 573 0070 4946     		mov	r1, r9
 574 0072 FFF7FEFF 		bl	__aeabi_dmul
 575              	.LVL47:
 576 0076 8046     		mov	r8, r0
 577 0078 8946     		mov	r9, r1
 578 007a 0022     		movs	r2, #0
 579 007c 274B     		ldr	r3, .L37+16
 580 007e 5046     		mov	r0, r10
 581 0080 5946     		mov	r1, fp
 582 0082 FFF7FEFF 		bl	__aeabi_dmul
 583              	.LVL48:
 584 0086 0246     		mov	r2, r0
 585 0088 0B46     		mov	r3, r1
 586 008a 4046     		mov	r0, r8
 587 008c 4946     		mov	r1, r9
 588 008e FFF7FEFF 		bl	__aeabi_dsub
 589              	.LVL49:
 175:rhea\drivers\BME280/BME280.c ****     var2 = (var2 * var2) * ((double)BME280_RegistersLocal.dig_T3);
 590              		.loc 1 175 0
 591 0092 0246     		mov	r2, r0
 592 0094 0B46     		mov	r3, r1
ARM GAS  C:\Users\GYULAI~1\AppData\Local\Temp\cclBQTHO.s 			page 15


 593 0096 FFF7FEFF 		bl	__aeabi_dmul
 594              	.LVL50:
 595 009a 8046     		mov	r8, r0
 596 009c 8946     		mov	r9, r1
 597 009e B4F92000 		ldrsh	r0, [r4, #32]
 598 00a2 FFF7FEFF 		bl	__aeabi_i2d
 599              	.LVL51:
 600 00a6 0246     		mov	r2, r0
 601 00a8 0B46     		mov	r3, r1
 602 00aa 4046     		mov	r0, r8
 603 00ac 4946     		mov	r1, r9
 604 00ae FFF7FEFF 		bl	__aeabi_dmul
 605              	.LVL52:
 176:rhea\drivers\BME280/BME280.c ****     BME280_RegistersLocal.t_fine = (int32_t)(var1 + var2);
 606              		.loc 1 176 0
 607 00b2 0246     		mov	r2, r0
 608 00b4 0B46     		mov	r3, r1
 609 00b6 3046     		mov	r0, r6
 610              	.LVL53:
 611 00b8 3946     		mov	r1, r7
 612 00ba FFF7FEFF 		bl	__aeabi_dadd
 613              	.LVL54:
 614 00be 0646     		mov	r6, r0
 615              	.LVL55:
 616 00c0 0F46     		mov	r7, r1
 617 00c2 FFF7FEFF 		bl	__aeabi_d2iz
 618              	.LVL56:
 619 00c6 C4F83D00 		str	r0, [r4, #61]	@ unaligned
 177:rhea\drivers\BME280/BME280.c ****     temperature = (var1 + var2) / 5120.0;
 620              		.loc 1 177 0
 621 00ca 0022     		movs	r2, #0
 622 00cc 144B     		ldr	r3, .L37+20
 623 00ce 3046     		mov	r0, r6
 624 00d0 3946     		mov	r1, r7
 625 00d2 FFF7FEFF 		bl	__aeabi_ddiv
 626              	.LVL57:
 627 00d6 0446     		mov	r4, r0
 628 00d8 0D46     		mov	r5, r1
 629              	.LVL58:
 178:rhea\drivers\BME280/BME280.c **** 
 179:rhea\drivers\BME280/BME280.c ****     if      (temperature < temperature_min) temperature = temperature_min;
 630              		.loc 1 179 0
 631 00da 0022     		movs	r2, #0
 632 00dc 114B     		ldr	r3, .L37+24
 633 00de FFF7FEFF 		bl	__aeabi_dcmplt
 634              	.LVL59:
 635 00e2 38B9     		cbnz	r0, .L34
 180:rhea\drivers\BME280/BME280.c ****     else if (temperature > temperature_max) temperature = temperature_max;
 636              		.loc 1 180 0
 637 00e4 0022     		movs	r2, #0
 638 00e6 104B     		ldr	r3, .L37+28
 639 00e8 2046     		mov	r0, r4
 640 00ea 2946     		mov	r1, r5
 641 00ec FFF7FEFF 		bl	__aeabi_dcmpgt
 642              	.LVL60:
 643 00f0 18B9     		cbnz	r0, .L35
 644 00f2 04E0     		b	.L33
ARM GAS  C:\Users\GYULAI~1\AppData\Local\Temp\cclBQTHO.s 			page 16


 645              	.L34:
 179:rhea\drivers\BME280/BME280.c ****     else if (temperature > temperature_max) temperature = temperature_max;
 646              		.loc 1 179 0
 647 00f4 0024     		movs	r4, #0
 648              	.LVL61:
 649 00f6 0B4D     		ldr	r5, .L37+24
 650 00f8 01E0     		b	.L33
 651              	.LVL62:
 652              	.L35:
 653              		.loc 1 180 0
 654 00fa 0024     		movs	r4, #0
 655              	.LVL63:
 656 00fc 0A4D     		ldr	r5, .L37+28
 657              	.L33:
 658              	.LVL64:
 181:rhea\drivers\BME280/BME280.c **** 
 182:rhea\drivers\BME280/BME280.c ****     return temperature;
 659              		.loc 1 182 0
 660 00fe 2046     		mov	r0, r4
 661 0100 2946     		mov	r1, r5
 662 0102 FFF7FEFF 		bl	__aeabi_d2iz
 663              	.LVL65:
 183:rhea\drivers\BME280/BME280.c **** }
 664              		.loc 1 183 0
 665 0106 40B2     		sxtb	r0, r0
 666 0108 BDE8F88F 		pop	{r3, r4, r5, r6, r7, r8, r9, r10, fp, pc}
 667              	.LVL66:
 668              	.L38:
 669              		.align	2
 670              	.L37:
 671 010c 00000000 		.word	.LANCHOR0
 672 0110 0000103F 		.word	1058013184
 673 0114 0000503F 		.word	1062207488
 674 0118 0000E03E 		.word	1054867456
 675 011c 0000203F 		.word	1059061760
 676 0120 0000B440 		.word	1085538304
 677 0124 000044C0 		.word	-1069285376
 678 0128 00405540 		.word	1079328768
 679              		.cfi_endproc
 680              	.LFE7:
 681              		.size	BME280_GetTemperatureCelsius, .-BME280_GetTemperatureCelsius
 682              		.global	__aeabi_i2f
 683              		.global	__aeabi_fmul
 684              		.global	__aeabi_fadd
 685              		.global	__aeabi_f2iz
 686              		.section	.text.BME280_GetTemperatureFahrenheit,"ax",%progbits
 687              		.align	2
 688              		.global	BME280_GetTemperatureFahrenheit
 689              		.thumb
 690              		.thumb_func
 691              		.type	BME280_GetTemperatureFahrenheit, %function
 692              	BME280_GetTemperatureFahrenheit:
 693              	.LFB8:
 184:rhea\drivers\BME280/BME280.c **** 
 185:rhea\drivers\BME280/BME280.c **** int8_t BME280_GetTemperatureFahrenheit(uint8_t readNow) {
 694              		.loc 1 185 0
 695              		.cfi_startproc
ARM GAS  C:\Users\GYULAI~1\AppData\Local\Temp\cclBQTHO.s 			page 17


 696              		@ args = 0, pretend = 0, frame = 0
 697              		@ frame_needed = 0, uses_anonymous_args = 0
 698              	.LVL67:
 699 0000 08B5     		push	{r3, lr}
 700              		.cfi_def_cfa_offset 8
 701              		.cfi_offset 3, -8
 702              		.cfi_offset 14, -4
 186:rhea\drivers\BME280/BME280.c **** 
 187:rhea\drivers\BME280/BME280.c ****     // Converting results in degrees Celsius to degrees Fahrenheit
 188:rhea\drivers\BME280/BME280.c ****     return 1.8f * BME280_GetTemperatureCelsius(readNow) + 32;
 703              		.loc 1 188 0
 704 0002 FFF7FEFF 		bl	BME280_GetTemperatureCelsius
 705              	.LVL68:
 706 0006 FFF7FEFF 		bl	__aeabi_i2f
 707              	.LVL69:
 708 000a 0549     		ldr	r1, .L41
 709 000c FFF7FEFF 		bl	__aeabi_fmul
 710              	.LVL70:
 711 0010 4FF08441 		mov	r1, #1107296256
 712 0014 FFF7FEFF 		bl	__aeabi_fadd
 713              	.LVL71:
 714 0018 FFF7FEFF 		bl	__aeabi_f2iz
 715              	.LVL72:
 189:rhea\drivers\BME280/BME280.c **** }
 716              		.loc 1 189 0
 717 001c 40B2     		sxtb	r0, r0
 718 001e 08BD     		pop	{r3, pc}
 719              	.L42:
 720              		.align	2
 721              	.L41:
 722 0020 6666E63F 		.word	1072064102
 723              		.cfi_endproc
 724              	.LFE8:
 725              		.size	BME280_GetTemperatureFahrenheit, .-BME280_GetTemperatureFahrenheit
 726              		.global	__aeabi_d2uiz
 727              		.section	.text.BME280_GetPressure,"ax",%progbits
 728              		.align	2
 729              		.global	BME280_GetPressure
 730              		.thumb
 731              		.thumb_func
 732              		.type	BME280_GetPressure, %function
 733              	BME280_GetPressure:
 734              	.LFB9:
 190:rhea\drivers\BME280/BME280.c **** 
 191:rhea\drivers\BME280/BME280.c **** uint32_t BME280_GetPressure(uint8_t readNow) {
 735              		.loc 1 191 0
 736              		.cfi_startproc
 737              		@ args = 0, pretend = 0, frame = 0
 738              		@ frame_needed = 0, uses_anonymous_args = 0
 739              	.LVL73:
 740 0000 2DE9F84F 		push	{r3, r4, r5, r6, r7, r8, r9, r10, fp, lr}
 741              		.cfi_def_cfa_offset 40
 742              		.cfi_offset 3, -40
 743              		.cfi_offset 4, -36
 744              		.cfi_offset 5, -32
 745              		.cfi_offset 6, -28
 746              		.cfi_offset 7, -24
ARM GAS  C:\Users\GYULAI~1\AppData\Local\Temp\cclBQTHO.s 			page 18


 747              		.cfi_offset 8, -20
 748              		.cfi_offset 9, -16
 749              		.cfi_offset 10, -12
 750              		.cfi_offset 11, -8
 751              		.cfi_offset 14, -4
 192:rhea\drivers\BME280/BME280.c ****     
 193:rhea\drivers\BME280/BME280.c ****     // Loading measurements registers from the device
 194:rhea\drivers\BME280/BME280.c ****     if(readNow) BME280_ReadRegisters();
 752              		.loc 1 194 0
 753 0004 08B1     		cbz	r0, .L44
 754              		.loc 1 194 0 is_stmt 0 discriminator 1
 755 0006 FFF7FEFF 		bl	BME280_ReadRegisters
 756              	.LVL74:
 757              	.L44:
 195:rhea\drivers\BME280/BME280.c **** 
 196:rhea\drivers\BME280/BME280.c ****     // Preparing measurement register data
 197:rhea\drivers\BME280/BME280.c ****     uint32_t regData = BME280_RegistersLocal.PRESS_XLSB >> 4 | 
 758              		.loc 1 197 0 is_stmt 1
 759 000a 954C     		ldr	r4, .L49+24
 760 000c A37C     		ldrb	r3, [r4, #18]	@ zero_extendqisi2
 198:rhea\drivers\BME280/BME280.c ****                        BME280_RegistersLocal.PRESS_LSB  << 4 | 
 761              		.loc 1 198 0
 762 000e 657C     		ldrb	r5, [r4, #17]	@ zero_extendqisi2
 763 0010 2D01     		lsls	r5, r5, #4
 197:rhea\drivers\BME280/BME280.c ****                        BME280_RegistersLocal.PRESS_LSB  << 4 | 
 764              		.loc 1 197 0
 765 0012 45EA1313 		orr	r3, r5, r3, lsr #4
 199:rhea\drivers\BME280/BME280.c ****                        BME280_RegistersLocal.PRESS_MSB  << 12;
 766              		.loc 1 199 0
 767 0016 257C     		ldrb	r5, [r4, #16]	@ zero_extendqisi2
 198:rhea\drivers\BME280/BME280.c ****                        BME280_RegistersLocal.PRESS_LSB  << 4 | 
 768              		.loc 1 198 0
 769 0018 43EA0535 		orr	r5, r3, r5, lsl #12
 770              	.LVL75:
 200:rhea\drivers\BME280/BME280.c **** 
 201:rhea\drivers\BME280/BME280.c ****     // Compensation algorithm from Bosch Sensortech
 202:rhea\drivers\BME280/BME280.c ****     // https://github.com/BoschSensortec/BME280_driver
 203:rhea\drivers\BME280/BME280.c **** 
 204:rhea\drivers\BME280/BME280.c ****     double var1;
 205:rhea\drivers\BME280/BME280.c ****     double var2;
 206:rhea\drivers\BME280/BME280.c ****     double var3;
 207:rhea\drivers\BME280/BME280.c ****     double pressure;
 208:rhea\drivers\BME280/BME280.c ****     double pressure_min = 30000.0;
 209:rhea\drivers\BME280/BME280.c ****     double pressure_max = 110000.0;
 210:rhea\drivers\BME280/BME280.c **** 
 211:rhea\drivers\BME280/BME280.c ****     var1 = ((double)BME280_RegistersLocal.t_fine / 2.0) - 64000.0;
 771              		.loc 1 211 0
 772 001c D4F83D00 		ldr	r0, [r4, #61]	@ unaligned
 773 0020 FFF7FEFF 		bl	__aeabi_i2d
 774              	.LVL76:
 775 0024 0022     		movs	r2, #0
 776 0026 8F4B     		ldr	r3, .L49+28
 777 0028 FFF7FEFF 		bl	__aeabi_dmul
 778              	.LVL77:
 779 002c 0022     		movs	r2, #0
 780 002e 8E4B     		ldr	r3, .L49+32
 781 0030 FFF7FEFF 		bl	__aeabi_dsub
ARM GAS  C:\Users\GYULAI~1\AppData\Local\Temp\cclBQTHO.s 			page 19


 782              	.LVL78:
 783 0034 0646     		mov	r6, r0
 784 0036 0F46     		mov	r7, r1
 785              	.LVL79:
 212:rhea\drivers\BME280/BME280.c ****     var2 = var1 * var1 * ((double)BME280_RegistersLocal.dig_P6) / 32768.0;
 786              		.loc 1 212 0
 787 0038 0246     		mov	r2, r0
 788 003a 0B46     		mov	r3, r1
 789 003c FFF7FEFF 		bl	__aeabi_dmul
 790              	.LVL80:
 791 0040 8046     		mov	r8, r0
 792 0042 8946     		mov	r9, r1
 793 0044 B4F92C00 		ldrsh	r0, [r4, #44]
 794 0048 FFF7FEFF 		bl	__aeabi_i2d
 795              	.LVL81:
 796 004c 0246     		mov	r2, r0
 797 004e 0B46     		mov	r3, r1
 798 0050 4046     		mov	r0, r8
 799 0052 4946     		mov	r1, r9
 800 0054 FFF7FEFF 		bl	__aeabi_dmul
 801              	.LVL82:
 802 0058 0022     		movs	r2, #0
 803 005a 4FF07C53 		mov	r3, #1056964608
 804 005e FFF7FEFF 		bl	__aeabi_dmul
 805              	.LVL83:
 806 0062 8046     		mov	r8, r0
 807 0064 8946     		mov	r9, r1
 808              	.LVL84:
 213:rhea\drivers\BME280/BME280.c ****     var2 = var2 + var1 * ((double)BME280_RegistersLocal.dig_P5) * 2.0;
 809              		.loc 1 213 0
 810 0066 B4F92A00 		ldrsh	r0, [r4, #42]
 811 006a FFF7FEFF 		bl	__aeabi_i2d
 812              	.LVL85:
 813 006e 0246     		mov	r2, r0
 814 0070 0B46     		mov	r3, r1
 815 0072 3046     		mov	r0, r6
 816 0074 3946     		mov	r1, r7
 817 0076 FFF7FEFF 		bl	__aeabi_dmul
 818              	.LVL86:
 819 007a 0246     		mov	r2, r0
 820 007c 0B46     		mov	r3, r1
 821 007e FFF7FEFF 		bl	__aeabi_dadd
 822              	.LVL87:
 823 0082 0246     		mov	r2, r0
 824 0084 0B46     		mov	r3, r1
 825 0086 4046     		mov	r0, r8
 826 0088 4946     		mov	r1, r9
 827 008a FFF7FEFF 		bl	__aeabi_dadd
 828              	.LVL88:
 214:rhea\drivers\BME280/BME280.c ****     var2 = (var2 / 4.0) + (((double)BME280_RegistersLocal.dig_P4) * 65536.0);
 829              		.loc 1 214 0
 830 008e 0022     		movs	r2, #0
 831 0090 764B     		ldr	r3, .L49+36
 832 0092 FFF7FEFF 		bl	__aeabi_dmul
 833              	.LVL89:
 834 0096 8046     		mov	r8, r0
 835 0098 8946     		mov	r9, r1
ARM GAS  C:\Users\GYULAI~1\AppData\Local\Temp\cclBQTHO.s 			page 20


 836 009a B4F92800 		ldrsh	r0, [r4, #40]
 837 009e FFF7FEFF 		bl	__aeabi_i2d
 838              	.LVL90:
 839 00a2 0022     		movs	r2, #0
 840 00a4 724B     		ldr	r3, .L49+40
 841 00a6 FFF7FEFF 		bl	__aeabi_dmul
 842              	.LVL91:
 843 00aa 0246     		mov	r2, r0
 844 00ac 0B46     		mov	r3, r1
 845 00ae 4046     		mov	r0, r8
 846 00b0 4946     		mov	r1, r9
 847 00b2 FFF7FEFF 		bl	__aeabi_dadd
 848              	.LVL92:
 849 00b6 8246     		mov	r10, r0
 850 00b8 8B46     		mov	fp, r1
 851              	.LVL93:
 215:rhea\drivers\BME280/BME280.c ****     var3 = ((double)BME280_RegistersLocal.dig_P3) * var1 * var1 / 524288.0;
 852              		.loc 1 215 0
 853 00ba B4F92600 		ldrsh	r0, [r4, #38]
 854 00be FFF7FEFF 		bl	__aeabi_i2d
 855              	.LVL94:
 856 00c2 0246     		mov	r2, r0
 857 00c4 0B46     		mov	r3, r1
 858 00c6 3046     		mov	r0, r6
 859 00c8 3946     		mov	r1, r7
 860 00ca FFF7FEFF 		bl	__aeabi_dmul
 861              	.LVL95:
 862 00ce 0246     		mov	r2, r0
 863 00d0 0B46     		mov	r3, r1
 864 00d2 3046     		mov	r0, r6
 865 00d4 3946     		mov	r1, r7
 866 00d6 FFF7FEFF 		bl	__aeabi_dmul
 867              	.LVL96:
 868 00da 0022     		movs	r2, #0
 869 00dc 4FF07B53 		mov	r3, #1052770304
 870 00e0 FFF7FEFF 		bl	__aeabi_dmul
 871              	.LVL97:
 872 00e4 8046     		mov	r8, r0
 873 00e6 8946     		mov	r9, r1
 874              	.LVL98:
 216:rhea\drivers\BME280/BME280.c ****     var1 = (var3 + ((double)BME280_RegistersLocal.dig_P2) * var1) / 524288.0;
 875              		.loc 1 216 0
 876 00e8 B4F92400 		ldrsh	r0, [r4, #36]
 877 00ec FFF7FEFF 		bl	__aeabi_i2d
 878              	.LVL99:
 879 00f0 0246     		mov	r2, r0
 880 00f2 0B46     		mov	r3, r1
 881 00f4 3046     		mov	r0, r6
 882 00f6 3946     		mov	r1, r7
 883 00f8 FFF7FEFF 		bl	__aeabi_dmul
 884              	.LVL100:
 885 00fc 0246     		mov	r2, r0
 886 00fe 0B46     		mov	r3, r1
 887 0100 4046     		mov	r0, r8
 888 0102 4946     		mov	r1, r9
 889 0104 FFF7FEFF 		bl	__aeabi_dadd
 890              	.LVL101:
ARM GAS  C:\Users\GYULAI~1\AppData\Local\Temp\cclBQTHO.s 			page 21


 891 0108 0022     		movs	r2, #0
 892 010a 4FF07B53 		mov	r3, #1052770304
 893 010e FFF7FEFF 		bl	__aeabi_dmul
 894              	.LVL102:
 217:rhea\drivers\BME280/BME280.c ****     var1 = (1.0 + var1 / 32768.0) * ((double)BME280_RegistersLocal.dig_P1);
 895              		.loc 1 217 0
 896 0112 0022     		movs	r2, #0
 897 0114 4FF07C53 		mov	r3, #1056964608
 898 0118 FFF7FEFF 		bl	__aeabi_dmul
 899              	.LVL103:
 900 011c 0022     		movs	r2, #0
 901 011e 554B     		ldr	r3, .L49+44
 902 0120 FFF7FEFF 		bl	__aeabi_dadd
 903              	.LVL104:
 904 0124 0646     		mov	r6, r0
 905 0126 0F46     		mov	r7, r1
 906 0128 608C     		ldrh	r0, [r4, #34]
 907 012a FFF7FEFF 		bl	__aeabi_ui2d
 908              	.LVL105:
 909 012e 0246     		mov	r2, r0
 910 0130 0B46     		mov	r3, r1
 911 0132 3046     		mov	r0, r6
 912 0134 3946     		mov	r1, r7
 913 0136 FFF7FEFF 		bl	__aeabi_dmul
 914              	.LVL106:
 915 013a 8046     		mov	r8, r0
 916              	.LVL107:
 917 013c 8946     		mov	r9, r1
 918              	.LVL108:
 218:rhea\drivers\BME280/BME280.c **** 
 219:rhea\drivers\BME280/BME280.c ****     pressure = 1048576.0 - (double) regData;
 919              		.loc 1 219 0
 920 013e 2846     		mov	r0, r5
 921 0140 FFF7FEFF 		bl	__aeabi_ui2d
 922              	.LVL109:
 923 0144 0246     		mov	r2, r0
 924 0146 0B46     		mov	r3, r1
 925 0148 0020     		movs	r0, #0
 926 014a 4B49     		ldr	r1, .L49+48
 927 014c FFF7FEFF 		bl	__aeabi_dsub
 928              	.LVL110:
 929 0150 0646     		mov	r6, r0
 930 0152 0F46     		mov	r7, r1
 931              	.LVL111:
 220:rhea\drivers\BME280/BME280.c ****     pressure = (pressure - (var2 / 4096.0)) * 6250.0 / var1;
 932              		.loc 1 220 0
 933 0154 0022     		movs	r2, #0
 934 0156 494B     		ldr	r3, .L49+52
 935 0158 5046     		mov	r0, r10
 936 015a 5946     		mov	r1, fp
 937 015c FFF7FEFF 		bl	__aeabi_dmul
 938              	.LVL112:
 939 0160 0246     		mov	r2, r0
 940 0162 0B46     		mov	r3, r1
 941 0164 3046     		mov	r0, r6
 942 0166 3946     		mov	r1, r7
 943 0168 FFF7FEFF 		bl	__aeabi_dsub
ARM GAS  C:\Users\GYULAI~1\AppData\Local\Temp\cclBQTHO.s 			page 22


 944              	.LVL113:
 945 016c 36A3     		adr	r3, .L49
 946 016e D3E90023 		ldrd	r2, [r3]
 947 0172 FFF7FEFF 		bl	__aeabi_dmul
 948              	.LVL114:
 949 0176 4246     		mov	r2, r8
 950 0178 4B46     		mov	r3, r9
 951 017a FFF7FEFF 		bl	__aeabi_ddiv
 952              	.LVL115:
 953 017e 0646     		mov	r6, r0
 954              	.LVL116:
 955 0180 0F46     		mov	r7, r1
 956              	.LVL117:
 221:rhea\drivers\BME280/BME280.c ****     var1 = ((double)BME280_RegistersLocal.dig_P9) * pressure * pressure / 2147483648.0;
 957              		.loc 1 221 0
 958 0182 B4F93200 		ldrsh	r0, [r4, #50]
 959 0186 FFF7FEFF 		bl	__aeabi_i2d
 960              	.LVL118:
 961 018a 0246     		mov	r2, r0
 962 018c 0B46     		mov	r3, r1
 963 018e 3046     		mov	r0, r6
 964 0190 3946     		mov	r1, r7
 965 0192 FFF7FEFF 		bl	__aeabi_dmul
 966              	.LVL119:
 967 0196 0246     		mov	r2, r0
 968 0198 0B46     		mov	r3, r1
 969 019a 3046     		mov	r0, r6
 970 019c 3946     		mov	r1, r7
 971 019e FFF7FEFF 		bl	__aeabi_dmul
 972              	.LVL120:
 973 01a2 0022     		movs	r2, #0
 974 01a4 4FF07853 		mov	r3, #1040187392
 975 01a8 FFF7FEFF 		bl	__aeabi_dmul
 976              	.LVL121:
 977 01ac 8046     		mov	r8, r0
 978              	.LVL122:
 979 01ae 8946     		mov	r9, r1
 980              	.LVL123:
 222:rhea\drivers\BME280/BME280.c ****     var2 = pressure * ((double)BME280_RegistersLocal.dig_P8) / 32768.0;
 981              		.loc 1 222 0
 982 01b0 B4F93000 		ldrsh	r0, [r4, #48]
 983 01b4 FFF7FEFF 		bl	__aeabi_i2d
 984              	.LVL124:
 985 01b8 0246     		mov	r2, r0
 986 01ba 0B46     		mov	r3, r1
 987 01bc 3046     		mov	r0, r6
 988 01be 3946     		mov	r1, r7
 989 01c0 FFF7FEFF 		bl	__aeabi_dmul
 990              	.LVL125:
 991 01c4 0022     		movs	r2, #0
 992 01c6 4FF07C53 		mov	r3, #1056964608
 993 01ca FFF7FEFF 		bl	__aeabi_dmul
 994              	.LVL126:
 223:rhea\drivers\BME280/BME280.c ****     pressure = pressure + (var1 + var2 + ((double)BME280_RegistersLocal.dig_P7)) / 16.0;
 995              		.loc 1 223 0
 996 01ce 0246     		mov	r2, r0
 997 01d0 0B46     		mov	r3, r1
ARM GAS  C:\Users\GYULAI~1\AppData\Local\Temp\cclBQTHO.s 			page 23


 998 01d2 4046     		mov	r0, r8
 999              	.LVL127:
 1000 01d4 4946     		mov	r1, r9
 1001 01d6 FFF7FEFF 		bl	__aeabi_dadd
 1002              	.LVL128:
 1003 01da 8046     		mov	r8, r0
 1004              	.LVL129:
 1005 01dc 8946     		mov	r9, r1
 1006 01de B4F92E00 		ldrsh	r0, [r4, #46]
 1007 01e2 FFF7FEFF 		bl	__aeabi_i2d
 1008              	.LVL130:
 1009 01e6 0246     		mov	r2, r0
 1010 01e8 0B46     		mov	r3, r1
 1011 01ea 4046     		mov	r0, r8
 1012 01ec 4946     		mov	r1, r9
 1013 01ee FFF7FEFF 		bl	__aeabi_dadd
 1014              	.LVL131:
 1015 01f2 0022     		movs	r2, #0
 1016 01f4 224B     		ldr	r3, .L49+56
 1017 01f6 FFF7FEFF 		bl	__aeabi_dmul
 1018              	.LVL132:
 1019 01fa 0246     		mov	r2, r0
 1020 01fc 0B46     		mov	r3, r1
 1021 01fe 3046     		mov	r0, r6
 1022 0200 3946     		mov	r1, r7
 1023 0202 FFF7FEFF 		bl	__aeabi_dadd
 1024              	.LVL133:
 1025 0206 0446     		mov	r4, r0
 1026 0208 0D46     		mov	r5, r1
 1027              	.LVL134:
 224:rhea\drivers\BME280/BME280.c **** 
 225:rhea\drivers\BME280/BME280.c ****     if      (pressure < pressure_min) pressure = pressure_min;
 1028              		.loc 1 225 0
 1029 020a 11A3     		adr	r3, .L49+8
 1030 020c D3E90023 		ldrd	r2, [r3]
 1031 0210 FFF7FEFF 		bl	__aeabi_dcmplt
 1032              	.LVL135:
 1033 0214 40B9     		cbnz	r0, .L46
 226:rhea\drivers\BME280/BME280.c ****     else if (pressure > pressure_max) pressure = pressure_max;
 1034              		.loc 1 226 0
 1035 0216 10A3     		adr	r3, .L49+16
 1036 0218 D3E90023 		ldrd	r2, [r3]
 1037 021c 2046     		mov	r0, r4
 1038 021e 2946     		mov	r1, r5
 1039 0220 FFF7FEFF 		bl	__aeabi_dcmpgt
 1040              	.LVL136:
 1041 0224 20B9     		cbnz	r0, .L47
 1042 0226 06E0     		b	.L45
 1043              	.L46:
 225:rhea\drivers\BME280/BME280.c ****     else if (pressure > pressure_max) pressure = pressure_max;
 1044              		.loc 1 225 0
 1045 0228 09A5     		adr	r5, .L49+8
 1046 022a D5E90045 		ldrd	r4, [r5]
 1047              	.LVL137:
 1048 022e 02E0     		b	.L45
 1049              	.LVL138:
 1050              	.L47:
ARM GAS  C:\Users\GYULAI~1\AppData\Local\Temp\cclBQTHO.s 			page 24


 1051              		.loc 1 226 0
 1052 0230 09A5     		adr	r5, .L49+16
 1053 0232 D5E90045 		ldrd	r4, [r5]
 1054              	.LVL139:
 1055              	.L45:
 227:rhea\drivers\BME280/BME280.c **** 
 228:rhea\drivers\BME280/BME280.c ****     return pressure;
 1056              		.loc 1 228 0
 1057 0236 2046     		mov	r0, r4
 1058 0238 2946     		mov	r1, r5
 1059 023a FFF7FEFF 		bl	__aeabi_d2uiz
 1060              	.LVL140:
 229:rhea\drivers\BME280/BME280.c **** }
 1061              		.loc 1 229 0
 1062 023e BDE8F88F 		pop	{r3, r4, r5, r6, r7, r8, r9, r10, fp, pc}
 1063              	.LVL141:
 1064              	.L50:
 1065 0242 00BFAFF3 		.align	3
 1065      0080
 1066              	.L49:
 1067 0248 00000000 		.word	0
 1068 024c 006AB840 		.word	1085827584
 1069 0250 00000000 		.word	0
 1070 0254 004CDD40 		.word	1088244736
 1071 0258 00000000 		.word	0
 1072 025c 00DBFA40 		.word	1090181888
 1073 0260 00000000 		.word	.LANCHOR0
 1074 0264 0000E03F 		.word	1071644672
 1075 0268 0040EF40 		.word	1089421312
 1076 026c 0000D03F 		.word	1070596096
 1077 0270 0000F040 		.word	1089470464
 1078 0274 0000F03F 		.word	1072693248
 1079 0278 00003041 		.word	1093664768
 1080 027c 0000303F 		.word	1060110336
 1081 0280 0000B03F 		.word	1068498944
 1082              		.cfi_endproc
 1083              	.LFE9:
 1084              		.size	BME280_GetPressure, .-BME280_GetPressure
 1085              		.section	.text.BME280_GetHumidity,"ax",%progbits
 1086              		.align	2
 1087              		.global	BME280_GetHumidity
 1088              		.thumb
 1089              		.thumb_func
 1090              		.type	BME280_GetHumidity, %function
 1091              	BME280_GetHumidity:
 1092              	.LFB10:
 230:rhea\drivers\BME280/BME280.c **** 
 231:rhea\drivers\BME280/BME280.c **** uint8_t BME280_GetHumidity(uint8_t readNow) {
 1093              		.loc 1 231 0
 1094              		.cfi_startproc
 1095              		@ args = 0, pretend = 0, frame = 16
 1096              		@ frame_needed = 0, uses_anonymous_args = 0
 1097              	.LVL142:
 1098 0000 2DE9F047 		push	{r4, r5, r6, r7, r8, r9, r10, lr}
 1099              		.cfi_def_cfa_offset 32
 1100              		.cfi_offset 4, -32
 1101              		.cfi_offset 5, -28
ARM GAS  C:\Users\GYULAI~1\AppData\Local\Temp\cclBQTHO.s 			page 25


 1102              		.cfi_offset 6, -24
 1103              		.cfi_offset 7, -20
 1104              		.cfi_offset 8, -16
 1105              		.cfi_offset 9, -12
 1106              		.cfi_offset 10, -8
 1107              		.cfi_offset 14, -4
 1108 0004 84B0     		sub	sp, sp, #16
 1109              		.cfi_def_cfa_offset 48
 232:rhea\drivers\BME280/BME280.c ****     
 233:rhea\drivers\BME280/BME280.c ****     // Loading measurements registers from the device
 234:rhea\drivers\BME280/BME280.c ****     if(readNow) BME280_ReadRegisters();
 1110              		.loc 1 234 0
 1111 0006 08B1     		cbz	r0, .L52
 1112              		.loc 1 234 0 is_stmt 0 discriminator 1
 1113 0008 FFF7FEFF 		bl	BME280_ReadRegisters
 1114              	.LVL143:
 1115              	.L52:
 235:rhea\drivers\BME280/BME280.c **** 
 236:rhea\drivers\BME280/BME280.c ****     // Preparing measurement register data
 237:rhea\drivers\BME280/BME280.c ****     uint32_t regData = BME280_RegistersLocal.HUM_LSB | 
 1116              		.loc 1 237 0 is_stmt 1
 1117 000c DFF898A1 		ldr	r10, .L57+28
 1118 0010 9AF81730 		ldrb	r3, [r10, #23]	@ zero_extendqisi2
 238:rhea\drivers\BME280/BME280.c ****                        BME280_RegistersLocal.HUM_MSB << 8;
 1119              		.loc 1 238 0
 1120 0014 9AF81680 		ldrb	r8, [r10, #22]	@ zero_extendqisi2
 237:rhea\drivers\BME280/BME280.c ****                        BME280_RegistersLocal.HUM_MSB << 8;
 1121              		.loc 1 237 0
 1122 0018 43EA0828 		orr	r8, r3, r8, lsl #8
 1123              	.LVL144:
 239:rhea\drivers\BME280/BME280.c **** 
 240:rhea\drivers\BME280/BME280.c ****     // Compensation algorithm from Bosch Sensortech
 241:rhea\drivers\BME280/BME280.c ****     // https://github.com/BoschSensortec/BME280_driver
 242:rhea\drivers\BME280/BME280.c **** 
 243:rhea\drivers\BME280/BME280.c ****     double humidity;
 244:rhea\drivers\BME280/BME280.c ****     double humidity_min = 0.0;
 245:rhea\drivers\BME280/BME280.c ****     double humidity_max = 100.0;
 246:rhea\drivers\BME280/BME280.c ****     double var1;
 247:rhea\drivers\BME280/BME280.c ****     double var2;
 248:rhea\drivers\BME280/BME280.c ****     double var3;
 249:rhea\drivers\BME280/BME280.c ****     double var4;
 250:rhea\drivers\BME280/BME280.c ****     double var5;
 251:rhea\drivers\BME280/BME280.c ****     double var6;
 252:rhea\drivers\BME280/BME280.c **** 
 253:rhea\drivers\BME280/BME280.c ****     var1 = ((double)BME280_RegistersLocal.t_fine) - 76800.0;
 1124              		.loc 1 253 0
 1125 001c DAF83D00 		ldr	r0, [r10, #61]	@ unaligned
 1126 0020 FFF7FEFF 		bl	__aeabi_i2d
 1127              	.LVL145:
 1128 0024 0022     		movs	r2, #0
 1129 0026 594B     		ldr	r3, .L57
 1130 0028 FFF7FEFF 		bl	__aeabi_dsub
 1131              	.LVL146:
 1132 002c 0646     		mov	r6, r0
 1133 002e 0F46     		mov	r7, r1
 1134              	.LVL147:
 254:rhea\drivers\BME280/BME280.c ****     var2 = (((double)BME280_RegistersLocal.dig_H4) * 64.0 + (((double)BME280_RegistersLocal.dig_H5)
ARM GAS  C:\Users\GYULAI~1\AppData\Local\Temp\cclBQTHO.s 			page 26


 1135              		.loc 1 254 0
 1136 0030 BAF93800 		ldrsh	r0, [r10, #56]
 1137 0034 FFF7FEFF 		bl	__aeabi_i2d
 1138              	.LVL148:
 1139 0038 0022     		movs	r2, #0
 1140 003a 554B     		ldr	r3, .L57+4
 1141 003c FFF7FEFF 		bl	__aeabi_dmul
 1142              	.LVL149:
 1143 0040 0446     		mov	r4, r0
 1144 0042 0D46     		mov	r5, r1
 1145 0044 BAF93A00 		ldrsh	r0, [r10, #58]
 1146 0048 FFF7FEFF 		bl	__aeabi_i2d
 1147              	.LVL150:
 1148 004c 0022     		movs	r2, #0
 1149 004e 514B     		ldr	r3, .L57+8
 1150 0050 FFF7FEFF 		bl	__aeabi_dmul
 1151              	.LVL151:
 1152 0054 0246     		mov	r2, r0
 1153 0056 0B46     		mov	r3, r1
 1154 0058 3046     		mov	r0, r6
 1155 005a 3946     		mov	r1, r7
 1156 005c FFF7FEFF 		bl	__aeabi_dmul
 1157              	.LVL152:
 1158 0060 0246     		mov	r2, r0
 1159 0062 0B46     		mov	r3, r1
 1160 0064 2046     		mov	r0, r4
 1161 0066 2946     		mov	r1, r5
 1162 0068 FFF7FEFF 		bl	__aeabi_dadd
 1163              	.LVL153:
 1164 006c 0446     		mov	r4, r0
 1165 006e 0D46     		mov	r5, r1
 1166              	.LVL154:
 255:rhea\drivers\BME280/BME280.c ****     var3 = regData - var2;
 1167              		.loc 1 255 0
 1168 0070 4046     		mov	r0, r8
 1169 0072 FFF7FEFF 		bl	__aeabi_ui2d
 1170              	.LVL155:
 1171 0076 2246     		mov	r2, r4
 1172 0078 2B46     		mov	r3, r5
 1173 007a FFF7FEFF 		bl	__aeabi_dsub
 1174              	.LVL156:
 1175 007e CDE90001 		strd	r0, [sp]
 1176              	.LVL157:
 256:rhea\drivers\BME280/BME280.c ****     var4 = ((double)BME280_RegistersLocal.dig_H2) / 65536.0;
 1177              		.loc 1 256 0
 1178 0082 BAF93500 		ldrsh	r0, [r10, #53]	@ unaligned
 1179              	.LVL158:
 1180 0086 FFF7FEFF 		bl	__aeabi_i2d
 1181              	.LVL159:
 1182 008a 0022     		movs	r2, #0
 1183 008c 424B     		ldr	r3, .L57+12
 1184 008e FFF7FEFF 		bl	__aeabi_dmul
 1185              	.LVL160:
 1186 0092 CDE90201 		strd	r0, [sp, #8]
 1187              	.LVL161:
 257:rhea\drivers\BME280/BME280.c ****     var5 = (1.0 + (((double)BME280_RegistersLocal.dig_H3) / 67108864.0) * var1);
 1188              		.loc 1 257 0
ARM GAS  C:\Users\GYULAI~1\AppData\Local\Temp\cclBQTHO.s 			page 27


 1189 0096 9AF83700 		ldrb	r0, [r10, #55]	@ zero_extendqisi2
 1190              	.LVL162:
 1191 009a FFF7FEFF 		bl	__aeabi_ui2d
 1192              	.LVL163:
 1193 009e 0022     		movs	r2, #0
 1194 00a0 3E4B     		ldr	r3, .L57+16
 1195 00a2 FFF7FEFF 		bl	__aeabi_dmul
 1196              	.LVL164:
 1197 00a6 0246     		mov	r2, r0
 1198 00a8 0B46     		mov	r3, r1
 1199 00aa 3046     		mov	r0, r6
 1200 00ac 3946     		mov	r1, r7
 1201 00ae FFF7FEFF 		bl	__aeabi_dmul
 1202              	.LVL165:
 1203 00b2 0022     		movs	r2, #0
 1204 00b4 3A4B     		ldr	r3, .L57+20
 1205 00b6 FFF7FEFF 		bl	__aeabi_dadd
 1206              	.LVL166:
 1207 00ba 0446     		mov	r4, r0
 1208              	.LVL167:
 1209 00bc 0D46     		mov	r5, r1
 1210              	.LVL168:
 258:rhea\drivers\BME280/BME280.c ****     var6 = 1.0 + (((double)BME280_RegistersLocal.dig_H6) / 67108864.0) * var1 * var5;
 1211              		.loc 1 258 0
 1212 00be 9AF93C00 		ldrsb	r0, [r10, #60]
 1213 00c2 FFF7FEFF 		bl	__aeabi_i2d
 1214              	.LVL169:
 1215 00c6 0022     		movs	r2, #0
 1216 00c8 344B     		ldr	r3, .L57+16
 1217 00ca FFF7FEFF 		bl	__aeabi_dmul
 1218              	.LVL170:
 1219 00ce 0246     		mov	r2, r0
 1220 00d0 0B46     		mov	r3, r1
 1221 00d2 3046     		mov	r0, r6
 1222 00d4 3946     		mov	r1, r7
 1223 00d6 FFF7FEFF 		bl	__aeabi_dmul
 1224              	.LVL171:
 1225 00da 0246     		mov	r2, r0
 1226 00dc 0B46     		mov	r3, r1
 1227 00de 2046     		mov	r0, r4
 1228 00e0 2946     		mov	r1, r5
 1229 00e2 FFF7FEFF 		bl	__aeabi_dmul
 1230              	.LVL172:
 1231 00e6 0022     		movs	r2, #0
 1232 00e8 2D4B     		ldr	r3, .L57+20
 1233 00ea FFF7FEFF 		bl	__aeabi_dadd
 1234              	.LVL173:
 1235 00ee 8046     		mov	r8, r0
 1236              	.LVL174:
 1237 00f0 8946     		mov	r9, r1
 1238              	.LVL175:
 259:rhea\drivers\BME280/BME280.c ****     var6 = var3 * var4 * (var5 * var6);
 1239              		.loc 1 259 0
 1240 00f2 DDE90223 		ldrd	r2, [sp, #8]
 1241 00f6 DDE90001 		ldrd	r0, [sp]
 1242 00fa FFF7FEFF 		bl	__aeabi_dmul
 1243              	.LVL176:
ARM GAS  C:\Users\GYULAI~1\AppData\Local\Temp\cclBQTHO.s 			page 28


 1244 00fe 0646     		mov	r6, r0
 1245              	.LVL177:
 1246 0100 0F46     		mov	r7, r1
 1247 0102 4246     		mov	r2, r8
 1248 0104 4B46     		mov	r3, r9
 1249 0106 2046     		mov	r0, r4
 1250 0108 2946     		mov	r1, r5
 1251 010a FFF7FEFF 		bl	__aeabi_dmul
 1252              	.LVL178:
 1253 010e 0246     		mov	r2, r0
 1254 0110 0B46     		mov	r3, r1
 1255 0112 3046     		mov	r0, r6
 1256 0114 3946     		mov	r1, r7
 1257 0116 FFF7FEFF 		bl	__aeabi_dmul
 1258              	.LVL179:
 1259 011a 0446     		mov	r4, r0
 1260              	.LVL180:
 1261 011c 0D46     		mov	r5, r1
 1262              	.LVL181:
 260:rhea\drivers\BME280/BME280.c ****     humidity = var6 * (1.0 - ((double)BME280_RegistersLocal.dig_H1) * var6 / 524288.0);
 1263              		.loc 1 260 0
 1264 011e 9AF83400 		ldrb	r0, [r10, #52]	@ zero_extendqisi2
 1265 0122 FFF7FEFF 		bl	__aeabi_ui2d
 1266              	.LVL182:
 1267 0126 0246     		mov	r2, r0
 1268 0128 0B46     		mov	r3, r1
 1269 012a 2046     		mov	r0, r4
 1270 012c 2946     		mov	r1, r5
 1271 012e FFF7FEFF 		bl	__aeabi_dmul
 1272              	.LVL183:
 1273 0132 0022     		movs	r2, #0
 1274 0134 4FF07B53 		mov	r3, #1052770304
 1275 0138 FFF7FEFF 		bl	__aeabi_dmul
 1276              	.LVL184:
 1277 013c 0246     		mov	r2, r0
 1278 013e 0B46     		mov	r3, r1
 1279 0140 0020     		movs	r0, #0
 1280 0142 1749     		ldr	r1, .L57+20
 1281 0144 FFF7FEFF 		bl	__aeabi_dsub
 1282              	.LVL185:
 1283 0148 0246     		mov	r2, r0
 1284 014a 0B46     		mov	r3, r1
 1285 014c 2046     		mov	r0, r4
 1286 014e 2946     		mov	r1, r5
 1287 0150 FFF7FEFF 		bl	__aeabi_dmul
 1288              	.LVL186:
 1289 0154 0446     		mov	r4, r0
 1290              	.LVL187:
 1291 0156 0D46     		mov	r5, r1
 1292              	.LVL188:
 261:rhea\drivers\BME280/BME280.c **** 
 262:rhea\drivers\BME280/BME280.c ****     if      (humidity > humidity_max) humidity = humidity_max;
 1293              		.loc 1 262 0
 1294 0158 0022     		movs	r2, #0
 1295 015a 124B     		ldr	r3, .L57+24
 1296 015c FFF7FEFF 		bl	__aeabi_dcmpgt
 1297              	.LVL189:
ARM GAS  C:\Users\GYULAI~1\AppData\Local\Temp\cclBQTHO.s 			page 29


 1298 0160 38B9     		cbnz	r0, .L54
 263:rhea\drivers\BME280/BME280.c ****     else if (humidity < humidity_min) humidity = humidity_min;
 1299              		.loc 1 263 0
 1300 0162 0022     		movs	r2, #0
 1301 0164 0023     		movs	r3, #0
 1302 0166 2046     		mov	r0, r4
 1303 0168 2946     		mov	r1, r5
 1304 016a FFF7FEFF 		bl	__aeabi_dcmplt
 1305              	.LVL190:
 1306 016e 28B1     		cbz	r0, .L53
 1307 0170 02E0     		b	.L55
 1308              	.L54:
 262:rhea\drivers\BME280/BME280.c ****     else if (humidity < humidity_min) humidity = humidity_min;
 1309              		.loc 1 262 0
 1310 0172 0024     		movs	r4, #0
 1311              	.LVL191:
 1312 0174 0B4D     		ldr	r5, .L57+24
 1313 0176 01E0     		b	.L53
 1314              	.LVL192:
 1315              	.L55:
 1316              		.loc 1 263 0
 1317 0178 0024     		movs	r4, #0
 1318              	.LVL193:
 1319 017a 0025     		movs	r5, #0
 1320              	.L53:
 1321              	.LVL194:
 264:rhea\drivers\BME280/BME280.c **** 
 265:rhea\drivers\BME280/BME280.c ****     return humidity;
 1322              		.loc 1 265 0
 1323 017c 2046     		mov	r0, r4
 1324 017e 2946     		mov	r1, r5
 1325 0180 FFF7FEFF 		bl	__aeabi_d2uiz
 1326              	.LVL195:
 266:rhea\drivers\BME280/BME280.c **** }
 1327              		.loc 1 266 0
 1328 0184 C0B2     		uxtb	r0, r0
 1329 0186 04B0     		add	sp, sp, #16
 1330              		.cfi_def_cfa_offset 32
 1331              	.LVL196:
 1332              		@ sp needed
 1333 0188 BDE8F087 		pop	{r4, r5, r6, r7, r8, r9, r10, pc}
 1334              	.LVL197:
 1335              	.L58:
 1336              		.align	2
 1337              	.L57:
 1338 018c 00C0F240 		.word	1089650688
 1339 0190 00005040 		.word	1078984704
 1340 0194 0000103F 		.word	1058013184
 1341 0198 0000F03E 		.word	1055916032
 1342 019c 0000503E 		.word	1045430272
 1343 01a0 0000F03F 		.word	1072693248
 1344 01a4 00005940 		.word	1079574528
 1345 01a8 00000000 		.word	.LANCHOR0
 1346              		.cfi_endproc
 1347              	.LFE10:
 1348              		.size	BME280_GetHumidity, .-BME280_GetHumidity
 1349              		.section	.text.BME280_GetHumidityMode,"ax",%progbits
ARM GAS  C:\Users\GYULAI~1\AppData\Local\Temp\cclBQTHO.s 			page 30


 1350              		.align	2
 1351              		.global	BME280_GetHumidityMode
 1352              		.thumb
 1353              		.thumb_func
 1354              		.type	BME280_GetHumidityMode, %function
 1355              	BME280_GetHumidityMode:
 1356              	.LFB12:
 267:rhea\drivers\BME280/BME280.c **** 
 268:rhea\drivers\BME280/BME280.c **** uint8_t BME280_GetMeasurementDelay(void) {
 269:rhea\drivers\BME280/BME280.c **** 
 270:rhea\drivers\BME280/BME280.c ****     // Reading current configuration
 271:rhea\drivers\BME280/BME280.c ****     uint8_t temperature_ovrs = BME280_GetTemperatureMode();
 272:rhea\drivers\BME280/BME280.c ****     uint8_t pressure_ovrs = BME280_GetPressureMode();
 273:rhea\drivers\BME280/BME280.c ****     uint8_t humidity_ovrs = BME280_GetHumidityMode();
 274:rhea\drivers\BME280/BME280.c **** 
 275:rhea\drivers\BME280/BME280.c ****     // Parsing configuration
 276:rhea\drivers\BME280/BME280.c ****     switch(temperature_ovrs) {
 277:rhea\drivers\BME280/BME280.c ****     case BME280_TEMPERATURE_OVERSAMPLING_1X:  temperature_ovrs = 1; break;
 278:rhea\drivers\BME280/BME280.c ****     case BME280_TEMPERATURE_OVERSAMPLING_2X:  temperature_ovrs = 2; break;
 279:rhea\drivers\BME280/BME280.c ****     case BME280_TEMPERATURE_OVERSAMPLING_4X:  temperature_ovrs = 4; break;
 280:rhea\drivers\BME280/BME280.c ****     case BME280_TEMPERATURE_OVERSAMPLING_8X:  temperature_ovrs = 8; break;
 281:rhea\drivers\BME280/BME280.c ****     case BME280_TEMPERATURE_OVERSAMPLING_16X: temperature_ovrs = 16; break;
 282:rhea\drivers\BME280/BME280.c ****     case BME280_TEMPERATURE_DISABLED:         temperature_ovrs = 0; break;
 283:rhea\drivers\BME280/BME280.c ****     };
 284:rhea\drivers\BME280/BME280.c **** 
 285:rhea\drivers\BME280/BME280.c ****     switch(pressure_ovrs) {
 286:rhea\drivers\BME280/BME280.c ****     case BME280_PRESSURE_OVERSAMPLING_1X:  pressure_ovrs = 1; break;
 287:rhea\drivers\BME280/BME280.c ****     case BME280_PRESSURE_OVERSAMPLING_2X:  pressure_ovrs = 2; break;
 288:rhea\drivers\BME280/BME280.c ****     case BME280_PRESSURE_OVERSAMPLING_4X:  pressure_ovrs = 4; break;
 289:rhea\drivers\BME280/BME280.c ****     case BME280_PRESSURE_OVERSAMPLING_8X:  pressure_ovrs = 8; break;
 290:rhea\drivers\BME280/BME280.c ****     case BME280_PRESSURE_OVERSAMPLING_16X: pressure_ovrs = 16; break;
 291:rhea\drivers\BME280/BME280.c ****     case BME280_PRESSURE_DISABLED:         pressure_ovrs = 0; break;
 292:rhea\drivers\BME280/BME280.c ****     };
 293:rhea\drivers\BME280/BME280.c **** 
 294:rhea\drivers\BME280/BME280.c ****     switch(humidity_ovrs) {
 295:rhea\drivers\BME280/BME280.c ****     case BME280_HUMIDITY_OVERSAMPLING_1X:  humidity_ovrs = 1; break;
 296:rhea\drivers\BME280/BME280.c ****     case BME280_HUMIDITY_OVERSAMPLING_2X:  humidity_ovrs = 2; break;
 297:rhea\drivers\BME280/BME280.c ****     case BME280_HUMIDITY_OVERSAMPLING_4X:  humidity_ovrs = 4; break;
 298:rhea\drivers\BME280/BME280.c ****     case BME280_HUMIDITY_OVERSAMPLING_8X:  humidity_ovrs = 8; break;
 299:rhea\drivers\BME280/BME280.c ****     case BME280_HUMIDITY_OVERSAMPLING_16X: humidity_ovrs = 16; break;
 300:rhea\drivers\BME280/BME280.c ****     case BME280_HUMIDITY_DISABLED:         humidity_ovrs = 0; break;
 301:rhea\drivers\BME280/BME280.c ****     };
 302:rhea\drivers\BME280/BME280.c **** 
 303:rhea\drivers\BME280/BME280.c ****     // Calculating measurement delay components (values from the official datasheet)
 304:rhea\drivers\BME280/BME280.c ****     double temperature_delay = temperature_ovrs ? 2.3f * temperature_ovrs : 0;
 305:rhea\drivers\BME280/BME280.c ****     double pressure_delay = pressure_ovrs ? 2.3f * pressure_ovrs + 0.575 : 0;
 306:rhea\drivers\BME280/BME280.c ****     double humidity_delay = humidity_ovrs ? 2.3f * humidity_ovrs + 0.575 : 0;
 307:rhea\drivers\BME280/BME280.c **** 
 308:rhea\drivers\BME280/BME280.c ****     return 1.25 + temperature_delay + pressure_delay + humidity_delay;
 309:rhea\drivers\BME280/BME280.c **** }
 310:rhea\drivers\BME280/BME280.c **** 
 311:rhea\drivers\BME280/BME280.c **** uint8_t BME280_GetHumidityMode(void) {
 1357              		.loc 1 311 0
 1358              		.cfi_startproc
 1359              		@ args = 0, pretend = 0, frame = 0
 1360              		@ frame_needed = 0, uses_anonymous_args = 0
 1361              		@ link register save eliminated.
ARM GAS  C:\Users\GYULAI~1\AppData\Local\Temp\cclBQTHO.s 			page 31


 312:rhea\drivers\BME280/BME280.c **** 
 313:rhea\drivers\BME280/BME280.c ****     // Returning OSRS_H bits of CTRL_HUM register
 314:rhea\drivers\BME280/BME280.c ****     return BME280_RegistersLocal.CTRL_HUM & BME280_CTRL_HUM_OSRS_H;
 1362              		.loc 1 314 0
 1363 0000 024B     		ldr	r3, .L60
 1364 0002 187E     		ldrb	r0, [r3, #24]	@ zero_extendqisi2
 315:rhea\drivers\BME280/BME280.c **** }
 1365              		.loc 1 315 0
 1366 0004 00F00700 		and	r0, r0, #7
 1367 0008 7047     		bx	lr
 1368              	.L61:
 1369 000a 00BF     		.align	2
 1370              	.L60:
 1371 000c 00000000 		.word	.LANCHOR0
 1372              		.cfi_endproc
 1373              	.LFE12:
 1374              		.size	BME280_GetHumidityMode, .-BME280_GetHumidityMode
 1375              		.section	.text.BME280_SetHumidityMode,"ax",%progbits
 1376              		.align	2
 1377              		.global	BME280_SetHumidityMode
 1378              		.thumb
 1379              		.thumb_func
 1380              		.type	BME280_SetHumidityMode, %function
 1381              	BME280_SetHumidityMode:
 1382              	.LFB13:
 316:rhea\drivers\BME280/BME280.c **** 
 317:rhea\drivers\BME280/BME280.c **** void BME280_SetHumidityMode(uint8_t mode) {
 1383              		.loc 1 317 0
 1384              		.cfi_startproc
 1385              		@ args = 0, pretend = 0, frame = 0
 1386              		@ frame_needed = 0, uses_anonymous_args = 0
 1387              	.LVL198:
 1388 0000 08B5     		push	{r3, lr}
 1389              		.cfi_def_cfa_offset 8
 1390              		.cfi_offset 3, -8
 1391              		.cfi_offset 14, -4
 318:rhea\drivers\BME280/BME280.c **** 
 319:rhea\drivers\BME280/BME280.c ****     // Writing OSRS_H bits of CTRL_HUM register
 320:rhea\drivers\BME280/BME280.c ****     BME280_RegistersLocal.CTRL_HUM &= BME280_CTRL_HUM_OSRS_H;
 1392              		.loc 1 320 0
 1393 0002 064A     		ldr	r2, .L64
 1394 0004 137E     		ldrb	r3, [r2, #24]	@ zero_extendqisi2
 1395 0006 03F00703 		and	r3, r3, #7
 321:rhea\drivers\BME280/BME280.c ****     BME280_RegistersLocal.CTRL_HUM |= mode;
 1396              		.loc 1 321 0
 1397 000a 1843     		orrs	r0, r0, r3
 1398              	.LVL199:
 1399 000c 02F8180F 		strb	r0, [r2, #24]!
 322:rhea\drivers\BME280/BME280.c ****     
 323:rhea\drivers\BME280/BME280.c ****     // Writing changes to the device
 324:rhea\drivers\BME280/BME280.c ****     BME280_I2CWriter(BME280_I2C_ADDR, BME280_CTRL_HUM, &BME280_RegistersLocal.CTRL_HUM, 1);
 1400              		.loc 1 324 0
 1401 0010 0123     		movs	r3, #1
 1402 0012 F221     		movs	r1, #242
 1403 0014 7620     		movs	r0, #118
 1404 0016 FFF7FEFF 		bl	BME280_I2CWriter
 1405              	.LVL200:
ARM GAS  C:\Users\GYULAI~1\AppData\Local\Temp\cclBQTHO.s 			page 32


 1406 001a 08BD     		pop	{r3, pc}
 1407              	.L65:
 1408              		.align	2
 1409              	.L64:
 1410 001c 00000000 		.word	.LANCHOR0
 1411              		.cfi_endproc
 1412              	.LFE13:
 1413              		.size	BME280_SetHumidityMode, .-BME280_SetHumidityMode
 1414              		.section	.text.BME280_GetTemperatureMode,"ax",%progbits
 1415              		.align	2
 1416              		.global	BME280_GetTemperatureMode
 1417              		.thumb
 1418              		.thumb_func
 1419              		.type	BME280_GetTemperatureMode, %function
 1420              	BME280_GetTemperatureMode:
 1421              	.LFB14:
 325:rhea\drivers\BME280/BME280.c **** }
 326:rhea\drivers\BME280/BME280.c **** 
 327:rhea\drivers\BME280/BME280.c **** uint8_t BME280_GetTemperatureMode(void) {
 1422              		.loc 1 327 0
 1423              		.cfi_startproc
 1424              		@ args = 0, pretend = 0, frame = 0
 1425              		@ frame_needed = 0, uses_anonymous_args = 0
 1426              		@ link register save eliminated.
 328:rhea\drivers\BME280/BME280.c **** 
 329:rhea\drivers\BME280/BME280.c ****     // Returning OSRS_T bits of CTRL_MEAS register
 330:rhea\drivers\BME280/BME280.c ****     return BME280_RegistersLocal.CTRL_MEAS & BME280_CTRL_MEAS_OSRS_T;
 1427              		.loc 1 330 0
 1428 0000 024B     		ldr	r3, .L67
 1429 0002 987E     		ldrb	r0, [r3, #26]	@ zero_extendqisi2
 331:rhea\drivers\BME280/BME280.c **** }
 1430              		.loc 1 331 0
 1431 0004 00F0E000 		and	r0, r0, #224
 1432 0008 7047     		bx	lr
 1433              	.L68:
 1434 000a 00BF     		.align	2
 1435              	.L67:
 1436 000c 00000000 		.word	.LANCHOR0
 1437              		.cfi_endproc
 1438              	.LFE14:
 1439              		.size	BME280_GetTemperatureMode, .-BME280_GetTemperatureMode
 1440              		.section	.text.BME280_SetTemperatureMode,"ax",%progbits
 1441              		.align	2
 1442              		.global	BME280_SetTemperatureMode
 1443              		.thumb
 1444              		.thumb_func
 1445              		.type	BME280_SetTemperatureMode, %function
 1446              	BME280_SetTemperatureMode:
 1447              	.LFB15:
 332:rhea\drivers\BME280/BME280.c **** 
 333:rhea\drivers\BME280/BME280.c **** void BME280_SetTemperatureMode(uint8_t mode) {
 1448              		.loc 1 333 0
 1449              		.cfi_startproc
 1450              		@ args = 0, pretend = 0, frame = 0
 1451              		@ frame_needed = 0, uses_anonymous_args = 0
 1452              	.LVL201:
 1453 0000 08B5     		push	{r3, lr}
ARM GAS  C:\Users\GYULAI~1\AppData\Local\Temp\cclBQTHO.s 			page 33


 1454              		.cfi_def_cfa_offset 8
 1455              		.cfi_offset 3, -8
 1456              		.cfi_offset 14, -4
 334:rhea\drivers\BME280/BME280.c **** 
 335:rhea\drivers\BME280/BME280.c ****     // Writing OSRS_T bits of CTRL_MEAS register
 336:rhea\drivers\BME280/BME280.c ****     BME280_RegistersLocal.CTRL_MEAS &= BME280_CTRL_MEAS_OSRS_T;
 1457              		.loc 1 336 0
 1458 0002 064A     		ldr	r2, .L71
 1459 0004 937E     		ldrb	r3, [r2, #26]	@ zero_extendqisi2
 1460 0006 03F0E003 		and	r3, r3, #224
 337:rhea\drivers\BME280/BME280.c ****     BME280_RegistersLocal.CTRL_MEAS |= mode;
 1461              		.loc 1 337 0
 1462 000a 1843     		orrs	r0, r0, r3
 1463              	.LVL202:
 1464 000c 02F81A0F 		strb	r0, [r2, #26]!
 338:rhea\drivers\BME280/BME280.c ****     
 339:rhea\drivers\BME280/BME280.c ****     // Writing changes to the device
 340:rhea\drivers\BME280/BME280.c ****     BME280_I2CWriter(BME280_I2C_ADDR, BME280_CTRL_MEAS, &BME280_RegistersLocal.CTRL_MEAS, 1);
 1465              		.loc 1 340 0
 1466 0010 0123     		movs	r3, #1
 1467 0012 F421     		movs	r1, #244
 1468 0014 7620     		movs	r0, #118
 1469 0016 FFF7FEFF 		bl	BME280_I2CWriter
 1470              	.LVL203:
 1471 001a 08BD     		pop	{r3, pc}
 1472              	.L72:
 1473              		.align	2
 1474              	.L71:
 1475 001c 00000000 		.word	.LANCHOR0
 1476              		.cfi_endproc
 1477              	.LFE15:
 1478              		.size	BME280_SetTemperatureMode, .-BME280_SetTemperatureMode
 1479              		.section	.text.BME280_GetPressureMode,"ax",%progbits
 1480              		.align	2
 1481              		.global	BME280_GetPressureMode
 1482              		.thumb
 1483              		.thumb_func
 1484              		.type	BME280_GetPressureMode, %function
 1485              	BME280_GetPressureMode:
 1486              	.LFB16:
 341:rhea\drivers\BME280/BME280.c **** }
 342:rhea\drivers\BME280/BME280.c **** 
 343:rhea\drivers\BME280/BME280.c **** uint8_t BME280_GetPressureMode(void) {
 1487              		.loc 1 343 0
 1488              		.cfi_startproc
 1489              		@ args = 0, pretend = 0, frame = 0
 1490              		@ frame_needed = 0, uses_anonymous_args = 0
 1491              		@ link register save eliminated.
 344:rhea\drivers\BME280/BME280.c **** 
 345:rhea\drivers\BME280/BME280.c ****     // Returning OSRS_P bits of CTRL_MEAS register
 346:rhea\drivers\BME280/BME280.c ****     return BME280_RegistersLocal.CTRL_MEAS & BME280_CTRL_MEAS_OSRS_P;
 1492              		.loc 1 346 0
 1493 0000 024B     		ldr	r3, .L74
 1494 0002 987E     		ldrb	r0, [r3, #26]	@ zero_extendqisi2
 347:rhea\drivers\BME280/BME280.c **** }
 1495              		.loc 1 347 0
 1496 0004 00F01C00 		and	r0, r0, #28
ARM GAS  C:\Users\GYULAI~1\AppData\Local\Temp\cclBQTHO.s 			page 34


 1497 0008 7047     		bx	lr
 1498              	.L75:
 1499 000a 00BF     		.align	2
 1500              	.L74:
 1501 000c 00000000 		.word	.LANCHOR0
 1502              		.cfi_endproc
 1503              	.LFE16:
 1504              		.size	BME280_GetPressureMode, .-BME280_GetPressureMode
 1505              		.global	__aeabi_f2d
 1506              		.section	.text.BME280_GetMeasurementDelay,"ax",%progbits
 1507              		.align	2
 1508              		.global	BME280_GetMeasurementDelay
 1509              		.thumb
 1510              		.thumb_func
 1511              		.type	BME280_GetMeasurementDelay, %function
 1512              	BME280_GetMeasurementDelay:
 1513              	.LFB11:
 268:rhea\drivers\BME280/BME280.c **** 
 1514              		.loc 1 268 0
 1515              		.cfi_startproc
 1516              		@ args = 0, pretend = 0, frame = 0
 1517              		@ frame_needed = 0, uses_anonymous_args = 0
 1518 0000 2DE9F843 		push	{r3, r4, r5, r6, r7, r8, r9, lr}
 1519              		.cfi_def_cfa_offset 32
 1520              		.cfi_offset 3, -32
 1521              		.cfi_offset 4, -28
 1522              		.cfi_offset 5, -24
 1523              		.cfi_offset 6, -20
 1524              		.cfi_offset 7, -16
 1525              		.cfi_offset 8, -12
 1526              		.cfi_offset 9, -8
 1527              		.cfi_offset 14, -4
 271:rhea\drivers\BME280/BME280.c ****     uint8_t pressure_ovrs = BME280_GetPressureMode();
 1528              		.loc 1 271 0
 1529 0004 FFF7FEFF 		bl	BME280_GetTemperatureMode
 1530              	.LVL204:
 1531 0008 0446     		mov	r4, r0
 1532              	.LVL205:
 272:rhea\drivers\BME280/BME280.c ****     uint8_t humidity_ovrs = BME280_GetHumidityMode();
 1533              		.loc 1 272 0
 1534 000a FFF7FEFF 		bl	BME280_GetPressureMode
 1535              	.LVL206:
 1536 000e 0646     		mov	r6, r0
 1537              	.LVL207:
 273:rhea\drivers\BME280/BME280.c **** 
 1538              		.loc 1 273 0
 1539 0010 FFF7FEFF 		bl	BME280_GetHumidityMode
 1540              	.LVL208:
 1541 0014 0546     		mov	r5, r0
 1542              	.LVL209:
 276:rhea\drivers\BME280/BME280.c ****     case BME280_TEMPERATURE_OVERSAMPLING_1X:  temperature_ovrs = 1; break;
 1543              		.loc 1 276 0
 1544 0016 402C     		cmp	r4, #64
 1545 0018 0BD0     		beq	.L78
 1546 001a 03D8     		bhi	.L79
 1547 001c 94B1     		cbz	r4, .L81
 1548 001e 202C     		cmp	r4, #32
ARM GAS  C:\Users\GYULAI~1\AppData\Local\Temp\cclBQTHO.s 			page 35


 1549 0020 0FD0     		beq	.L100
 1550 0022 0FE0     		b	.L81
 1551              	.L79:
 1552 0024 802C     		cmp	r4, #128
 1553 0026 08D0     		beq	.L82
 1554 0028 A02C     		cmp	r4, #160
 1555 002a 08D0     		beq	.L83
 1556 002c 602C     		cmp	r4, #96
 1557 002e 09D1     		bne	.L81
 1558 0030 01E0     		b	.L84
 1559              	.L78:
 1560              	.LVL210:
 278:rhea\drivers\BME280/BME280.c ****     case BME280_TEMPERATURE_OVERSAMPLING_4X:  temperature_ovrs = 4; break;
 1561              		.loc 1 278 0
 1562 0032 0224     		movs	r4, #2
 1563 0034 06E0     		b	.L81
 1564              	.LVL211:
 1565              	.L84:
 279:rhea\drivers\BME280/BME280.c ****     case BME280_TEMPERATURE_OVERSAMPLING_8X:  temperature_ovrs = 8; break;
 1566              		.loc 1 279 0
 1567 0036 0424     		movs	r4, #4
 1568 0038 04E0     		b	.L81
 1569              	.LVL212:
 1570              	.L82:
 280:rhea\drivers\BME280/BME280.c ****     case BME280_TEMPERATURE_OVERSAMPLING_16X: temperature_ovrs = 16; break;
 1571              		.loc 1 280 0
 1572 003a 0824     		movs	r4, #8
 1573 003c 02E0     		b	.L81
 1574              	.LVL213:
 1575              	.L83:
 281:rhea\drivers\BME280/BME280.c ****     case BME280_TEMPERATURE_DISABLED:         temperature_ovrs = 0; break;
 1576              		.loc 1 281 0
 1577 003e 1024     		movs	r4, #16
 1578 0040 00E0     		b	.L81
 1579              	.LVL214:
 1580              	.L100:
 277:rhea\drivers\BME280/BME280.c ****     case BME280_TEMPERATURE_OVERSAMPLING_2X:  temperature_ovrs = 2; break;
 1581              		.loc 1 277 0
 1582 0042 0124     		movs	r4, #1
 1583              	.LVL215:
 1584              	.L81:
 285:rhea\drivers\BME280/BME280.c ****     case BME280_PRESSURE_OVERSAMPLING_1X:  pressure_ovrs = 1; break;
 1585              		.loc 1 285 0
 1586 0044 142E     		cmp	r6, #20
 1587 0046 15D8     		bhi	.L88
 1588 0048 DFE806F0 		tbb	[pc, r6]
 1589              	.L87:
 1590 004c 14       		.byte	(.L88-.L87)/2
 1591 004d 14       		.byte	(.L88-.L87)/2
 1592 004e 14       		.byte	(.L88-.L87)/2
 1593 004f 14       		.byte	(.L88-.L87)/2
 1594 0050 13       		.byte	(.L101-.L87)/2
 1595 0051 14       		.byte	(.L88-.L87)/2
 1596 0052 14       		.byte	(.L88-.L87)/2
 1597 0053 14       		.byte	(.L88-.L87)/2
 1598 0054 0B       		.byte	(.L89-.L87)/2
 1599 0055 14       		.byte	(.L88-.L87)/2
ARM GAS  C:\Users\GYULAI~1\AppData\Local\Temp\cclBQTHO.s 			page 36


 1600 0056 14       		.byte	(.L88-.L87)/2
 1601 0057 14       		.byte	(.L88-.L87)/2
 1602 0058 0D       		.byte	(.L90-.L87)/2
 1603 0059 14       		.byte	(.L88-.L87)/2
 1604 005a 14       		.byte	(.L88-.L87)/2
 1605 005b 14       		.byte	(.L88-.L87)/2
 1606 005c 0F       		.byte	(.L91-.L87)/2
 1607 005d 14       		.byte	(.L88-.L87)/2
 1608 005e 14       		.byte	(.L88-.L87)/2
 1609 005f 14       		.byte	(.L88-.L87)/2
 1610 0060 11       		.byte	(.L92-.L87)/2
 1611 0061 00       		.p2align 1
 1612              	.L89:
 1613              	.LVL216:
 287:rhea\drivers\BME280/BME280.c ****     case BME280_PRESSURE_OVERSAMPLING_4X:  pressure_ovrs = 4; break;
 1614              		.loc 1 287 0
 1615 0062 0226     		movs	r6, #2
 1616 0064 06E0     		b	.L88
 1617              	.LVL217:
 1618              	.L90:
 288:rhea\drivers\BME280/BME280.c ****     case BME280_PRESSURE_OVERSAMPLING_8X:  pressure_ovrs = 8; break;
 1619              		.loc 1 288 0
 1620 0066 0426     		movs	r6, #4
 1621 0068 04E0     		b	.L88
 1622              	.LVL218:
 1623              	.L91:
 289:rhea\drivers\BME280/BME280.c ****     case BME280_PRESSURE_OVERSAMPLING_16X: pressure_ovrs = 16; break;
 1624              		.loc 1 289 0
 1625 006a 0826     		movs	r6, #8
 1626 006c 02E0     		b	.L88
 1627              	.LVL219:
 1628              	.L92:
 290:rhea\drivers\BME280/BME280.c ****     case BME280_PRESSURE_DISABLED:         pressure_ovrs = 0; break;
 1629              		.loc 1 290 0
 1630 006e 1026     		movs	r6, #16
 1631 0070 00E0     		b	.L88
 1632              	.LVL220:
 1633              	.L101:
 286:rhea\drivers\BME280/BME280.c ****     case BME280_PRESSURE_OVERSAMPLING_2X:  pressure_ovrs = 2; break;
 1634              		.loc 1 286 0
 1635 0072 0126     		movs	r6, #1
 1636              	.LVL221:
 1637              	.L88:
 294:rhea\drivers\BME280/BME280.c ****     case BME280_HUMIDITY_OVERSAMPLING_1X:  humidity_ovrs = 1; break;
 1638              		.loc 1 294 0
 1639 0074 042D     		cmp	r5, #4
 1640 0076 05D0     		beq	.L94
 1641 0078 052D     		cmp	r5, #5
 1642 007a 05D0     		beq	.L95
 1643 007c 032D     		cmp	r5, #3
 1644 007e 04D1     		bne	.L93
 1645              	.LVL222:
 297:rhea\drivers\BME280/BME280.c ****     case BME280_HUMIDITY_OVERSAMPLING_8X:  humidity_ovrs = 8; break;
 1646              		.loc 1 297 0
 1647 0080 0425     		movs	r5, #4
 1648 0082 02E0     		b	.L93
 1649              	.LVL223:
ARM GAS  C:\Users\GYULAI~1\AppData\Local\Temp\cclBQTHO.s 			page 37


 1650              	.L94:
 298:rhea\drivers\BME280/BME280.c ****     case BME280_HUMIDITY_OVERSAMPLING_16X: humidity_ovrs = 16; break;
 1651              		.loc 1 298 0
 1652 0084 0825     		movs	r5, #8
 1653 0086 00E0     		b	.L93
 1654              	.LVL224:
 1655              	.L95:
 299:rhea\drivers\BME280/BME280.c ****     case BME280_HUMIDITY_DISABLED:         humidity_ovrs = 0; break;
 1656              		.loc 1 299 0
 1657 0088 1025     		movs	r5, #16
 1658              	.LVL225:
 1659              	.L93:
 304:rhea\drivers\BME280/BME280.c ****     double pressure_delay = pressure_ovrs ? 2.3f * pressure_ovrs + 0.575 : 0;
 1660              		.loc 1 304 0
 1661 008a 54B1     		cbz	r4, .L102
 304:rhea\drivers\BME280/BME280.c ****     double pressure_delay = pressure_ovrs ? 2.3f * pressure_ovrs + 0.575 : 0;
 1662              		.loc 1 304 0 is_stmt 0 discriminator 1
 1663 008c 2046     		mov	r0, r4
 1664 008e FFF7FEFF 		bl	__aeabi_i2f
 1665              	.LVL226:
 1666 0092 2749     		ldr	r1, .L106+8
 1667 0094 FFF7FEFF 		bl	__aeabi_fmul
 1668              	.LVL227:
 1669 0098 FFF7FEFF 		bl	__aeabi_f2d
 1670              	.LVL228:
 1671 009c 8046     		mov	r8, r0
 1672 009e 8946     		mov	r9, r1
 1673 00a0 03E0     		b	.L97
 1674              	.L102:
 304:rhea\drivers\BME280/BME280.c ****     double pressure_delay = pressure_ovrs ? 2.3f * pressure_ovrs + 0.575 : 0;
 1675              		.loc 1 304 0
 1676 00a2 4FF00008 		mov	r8, #0
 1677 00a6 4FF00009 		mov	r9, #0
 1678              	.L97:
 1679              	.LVL229:
 305:rhea\drivers\BME280/BME280.c ****     double humidity_delay = humidity_ovrs ? 2.3f * humidity_ovrs + 0.575 : 0;
 1680              		.loc 1 305 0 is_stmt 1 discriminator 4
 1681 00aa 7EB1     		cbz	r6, .L103
 305:rhea\drivers\BME280/BME280.c ****     double humidity_delay = humidity_ovrs ? 2.3f * humidity_ovrs + 0.575 : 0;
 1682              		.loc 1 305 0 is_stmt 0 discriminator 1
 1683 00ac 3046     		mov	r0, r6
 1684 00ae FFF7FEFF 		bl	__aeabi_i2f
 1685              	.LVL230:
 1686 00b2 1F49     		ldr	r1, .L106+8
 1687 00b4 FFF7FEFF 		bl	__aeabi_fmul
 1688              	.LVL231:
 1689 00b8 FFF7FEFF 		bl	__aeabi_f2d
 1690              	.LVL232:
 1691 00bc 1AA3     		adr	r3, .L106
 1692 00be D3E90023 		ldrd	r2, [r3]
 1693 00c2 FFF7FEFF 		bl	__aeabi_dadd
 1694              	.LVL233:
 1695 00c6 0646     		mov	r6, r0
 1696              	.LVL234:
 1697 00c8 0F46     		mov	r7, r1
 1698 00ca 01E0     		b	.L98
 1699              	.LVL235:
ARM GAS  C:\Users\GYULAI~1\AppData\Local\Temp\cclBQTHO.s 			page 38


 1700              	.L103:
 305:rhea\drivers\BME280/BME280.c ****     double humidity_delay = humidity_ovrs ? 2.3f * humidity_ovrs + 0.575 : 0;
 1701              		.loc 1 305 0
 1702 00cc 0026     		movs	r6, #0
 1703              	.LVL236:
 1704 00ce 0027     		movs	r7, #0
 1705              	.L98:
 1706              	.LVL237:
 306:rhea\drivers\BME280/BME280.c **** 
 1707              		.loc 1 306 0 is_stmt 1 discriminator 4
 1708 00d0 7DB1     		cbz	r5, .L104
 306:rhea\drivers\BME280/BME280.c **** 
 1709              		.loc 1 306 0 is_stmt 0 discriminator 1
 1710 00d2 2846     		mov	r0, r5
 1711 00d4 FFF7FEFF 		bl	__aeabi_i2f
 1712              	.LVL238:
 1713 00d8 1549     		ldr	r1, .L106+8
 1714 00da FFF7FEFF 		bl	__aeabi_fmul
 1715              	.LVL239:
 1716 00de FFF7FEFF 		bl	__aeabi_f2d
 1717              	.LVL240:
 1718 00e2 11A3     		adr	r3, .L106
 1719 00e4 D3E90023 		ldrd	r2, [r3]
 1720 00e8 FFF7FEFF 		bl	__aeabi_dadd
 1721              	.LVL241:
 1722 00ec 0446     		mov	r4, r0
 1723              	.LVL242:
 1724 00ee 0D46     		mov	r5, r1
 1725              	.LVL243:
 1726 00f0 01E0     		b	.L99
 1727              	.LVL244:
 1728              	.L104:
 306:rhea\drivers\BME280/BME280.c **** 
 1729              		.loc 1 306 0
 1730 00f2 0024     		movs	r4, #0
 1731              	.LVL245:
 1732 00f4 0025     		movs	r5, #0
 1733              	.LVL246:
 1734              	.L99:
 308:rhea\drivers\BME280/BME280.c **** }
 1735              		.loc 1 308 0 is_stmt 1 discriminator 4
 1736 00f6 0022     		movs	r2, #0
 1737 00f8 0E4B     		ldr	r3, .L106+12
 1738 00fa 4046     		mov	r0, r8
 1739 00fc 4946     		mov	r1, r9
 1740 00fe FFF7FEFF 		bl	__aeabi_dadd
 1741              	.LVL247:
 1742 0102 0246     		mov	r2, r0
 1743 0104 0B46     		mov	r3, r1
 1744 0106 3046     		mov	r0, r6
 1745 0108 3946     		mov	r1, r7
 1746 010a FFF7FEFF 		bl	__aeabi_dadd
 1747              	.LVL248:
 1748 010e 0246     		mov	r2, r0
 1749 0110 0B46     		mov	r3, r1
 1750 0112 2046     		mov	r0, r4
 1751 0114 2946     		mov	r1, r5
ARM GAS  C:\Users\GYULAI~1\AppData\Local\Temp\cclBQTHO.s 			page 39


 1752 0116 FFF7FEFF 		bl	__aeabi_dadd
 1753              	.LVL249:
 1754 011a FFF7FEFF 		bl	__aeabi_d2uiz
 1755              	.LVL250:
 309:rhea\drivers\BME280/BME280.c **** 
 1756              		.loc 1 309 0 discriminator 4
 1757 011e C0B2     		uxtb	r0, r0
 1758 0120 BDE8F883 		pop	{r3, r4, r5, r6, r7, r8, r9, pc}
 1759              	.LVL251:
 1760              	.L107:
 1761 0124 AFF30080 		.align	3
 1762              	.L106:
 1763 0128 66666666 		.word	1717986918
 1764 012c 6666E23F 		.word	1071801958
 1765 0130 33331340 		.word	1075000115
 1766 0134 0000F43F 		.word	1072955392
 1767              		.cfi_endproc
 1768              	.LFE11:
 1769              		.size	BME280_GetMeasurementDelay, .-BME280_GetMeasurementDelay
 1770              		.section	.text.BME280_SetPressureMode,"ax",%progbits
 1771              		.align	2
 1772              		.global	BME280_SetPressureMode
 1773              		.thumb
 1774              		.thumb_func
 1775              		.type	BME280_SetPressureMode, %function
 1776              	BME280_SetPressureMode:
 1777              	.LFB17:
 348:rhea\drivers\BME280/BME280.c **** 
 349:rhea\drivers\BME280/BME280.c **** void BME280_SetPressureMode(uint8_t mode) {
 1778              		.loc 1 349 0
 1779              		.cfi_startproc
 1780              		@ args = 0, pretend = 0, frame = 0
 1781              		@ frame_needed = 0, uses_anonymous_args = 0
 1782              	.LVL252:
 1783 0000 08B5     		push	{r3, lr}
 1784              		.cfi_def_cfa_offset 8
 1785              		.cfi_offset 3, -8
 1786              		.cfi_offset 14, -4
 350:rhea\drivers\BME280/BME280.c **** 
 351:rhea\drivers\BME280/BME280.c ****     // Writing OSRS_P bits of CTRL_MEAS register
 352:rhea\drivers\BME280/BME280.c ****     BME280_RegistersLocal.CTRL_MEAS &= BME280_CTRL_MEAS_OSRS_P;
 1787              		.loc 1 352 0
 1788 0002 064A     		ldr	r2, .L110
 1789 0004 937E     		ldrb	r3, [r2, #26]	@ zero_extendqisi2
 1790 0006 03F01C03 		and	r3, r3, #28
 353:rhea\drivers\BME280/BME280.c ****     BME280_RegistersLocal.CTRL_MEAS |= mode;
 1791              		.loc 1 353 0
 1792 000a 1843     		orrs	r0, r0, r3
 1793              	.LVL253:
 1794 000c 02F81A0F 		strb	r0, [r2, #26]!
 354:rhea\drivers\BME280/BME280.c ****     
 355:rhea\drivers\BME280/BME280.c ****     // Writing changes to the device
 356:rhea\drivers\BME280/BME280.c ****     BME280_I2CWriter(BME280_I2C_ADDR, BME280_CTRL_MEAS, &BME280_RegistersLocal.CTRL_MEAS, 1);
 1795              		.loc 1 356 0
 1796 0010 0123     		movs	r3, #1
 1797 0012 F421     		movs	r1, #244
 1798 0014 7620     		movs	r0, #118
ARM GAS  C:\Users\GYULAI~1\AppData\Local\Temp\cclBQTHO.s 			page 40


 1799 0016 FFF7FEFF 		bl	BME280_I2CWriter
 1800              	.LVL254:
 1801 001a 08BD     		pop	{r3, pc}
 1802              	.L111:
 1803              		.align	2
 1804              	.L110:
 1805 001c 00000000 		.word	.LANCHOR0
 1806              		.cfi_endproc
 1807              	.LFE17:
 1808              		.size	BME280_SetPressureMode, .-BME280_SetPressureMode
 1809              		.section	.text.BME280_IsMeasuring,"ax",%progbits
 1810              		.align	2
 1811              		.global	BME280_IsMeasuring
 1812              		.thumb
 1813              		.thumb_func
 1814              		.type	BME280_IsMeasuring, %function
 1815              	BME280_IsMeasuring:
 1816              	.LFB18:
 357:rhea\drivers\BME280/BME280.c **** }
 358:rhea\drivers\BME280/BME280.c **** 
 359:rhea\drivers\BME280/BME280.c **** uint8_t BME280_IsMeasuring(void) {
 1817              		.loc 1 359 0
 1818              		.cfi_startproc
 1819              		@ args = 0, pretend = 0, frame = 0
 1820              		@ frame_needed = 0, uses_anonymous_args = 0
 1821 0000 10B5     		push	{r4, lr}
 1822              		.cfi_def_cfa_offset 8
 1823              		.cfi_offset 4, -8
 1824              		.cfi_offset 14, -4
 360:rhea\drivers\BME280/BME280.c ****     
 361:rhea\drivers\BME280/BME280.c ****     // Reading STATUS register
 362:rhea\drivers\BME280/BME280.c ****     BME280_I2CReader(BME280_I2C_ADDR, BME280_STATUS, &BME280_RegistersLocal.STATUS, 1);
 1825              		.loc 1 362 0
 1826 0002 064C     		ldr	r4, .L114
 1827 0004 0123     		movs	r3, #1
 1828 0006 04F11902 		add	r2, r4, #25
 1829 000a F321     		movs	r1, #243
 1830 000c 7620     		movs	r0, #118
 1831 000e FFF7FEFF 		bl	BME280_I2CReader
 1832              	.LVL255:
 363:rhea\drivers\BME280/BME280.c **** 
 364:rhea\drivers\BME280/BME280.c ****     // Returning MEASURING bits of STATUS register
 365:rhea\drivers\BME280/BME280.c ****     return BME280_RegistersLocal.STATUS & BME280_STATUS_MEASURING;
 1833              		.loc 1 365 0
 1834 0012 607E     		ldrb	r0, [r4, #25]	@ zero_extendqisi2
 366:rhea\drivers\BME280/BME280.c **** }
 1835              		.loc 1 366 0
 1836 0014 00F00800 		and	r0, r0, #8
 1837 0018 10BD     		pop	{r4, pc}
 1838              	.L115:
 1839 001a 00BF     		.align	2
 1840              	.L114:
 1841 001c 00000000 		.word	.LANCHOR0
 1842              		.cfi_endproc
 1843              	.LFE18:
 1844              		.size	BME280_IsMeasuring, .-BME280_IsMeasuring
 1845              		.section	.text.BME280_IsUpdating,"ax",%progbits
ARM GAS  C:\Users\GYULAI~1\AppData\Local\Temp\cclBQTHO.s 			page 41


 1846              		.align	2
 1847              		.global	BME280_IsUpdating
 1848              		.thumb
 1849              		.thumb_func
 1850              		.type	BME280_IsUpdating, %function
 1851              	BME280_IsUpdating:
 1852              	.LFB19:
 367:rhea\drivers\BME280/BME280.c **** 
 368:rhea\drivers\BME280/BME280.c **** uint8_t BME280_IsUpdating(void) {
 1853              		.loc 1 368 0
 1854              		.cfi_startproc
 1855              		@ args = 0, pretend = 0, frame = 0
 1856              		@ frame_needed = 0, uses_anonymous_args = 0
 1857 0000 10B5     		push	{r4, lr}
 1858              		.cfi_def_cfa_offset 8
 1859              		.cfi_offset 4, -8
 1860              		.cfi_offset 14, -4
 369:rhea\drivers\BME280/BME280.c ****     
 370:rhea\drivers\BME280/BME280.c ****     // Reading STATUS register
 371:rhea\drivers\BME280/BME280.c ****     BME280_I2CReader(BME280_I2C_ADDR, BME280_STATUS, &BME280_RegistersLocal.STATUS, 1);
 1861              		.loc 1 371 0
 1862 0002 064C     		ldr	r4, .L118
 1863 0004 0123     		movs	r3, #1
 1864 0006 04F11902 		add	r2, r4, #25
 1865 000a F321     		movs	r1, #243
 1866 000c 7620     		movs	r0, #118
 1867 000e FFF7FEFF 		bl	BME280_I2CReader
 1868              	.LVL256:
 372:rhea\drivers\BME280/BME280.c **** 
 373:rhea\drivers\BME280/BME280.c ****     // Returning IM_UPDATE bit of STATUS register
 374:rhea\drivers\BME280/BME280.c ****     return BME280_RegistersLocal.STATUS & BME280_STATUS_IM_UPDATE;
 1869              		.loc 1 374 0
 1870 0012 607E     		ldrb	r0, [r4, #25]	@ zero_extendqisi2
 375:rhea\drivers\BME280/BME280.c **** }
 1871              		.loc 1 375 0
 1872 0014 00F00100 		and	r0, r0, #1
 1873 0018 10BD     		pop	{r4, pc}
 1874              	.L119:
 1875 001a 00BF     		.align	2
 1876              	.L118:
 1877 001c 00000000 		.word	.LANCHOR0
 1878              		.cfi_endproc
 1879              	.LFE19:
 1880              		.size	BME280_IsUpdating, .-BME280_IsUpdating
 1881              		.section	.text.BME280_GetMeasurementMode,"ax",%progbits
 1882              		.align	2
 1883              		.global	BME280_GetMeasurementMode
 1884              		.thumb
 1885              		.thumb_func
 1886              		.type	BME280_GetMeasurementMode, %function
 1887              	BME280_GetMeasurementMode:
 1888              	.LFB20:
 376:rhea\drivers\BME280/BME280.c **** 
 377:rhea\drivers\BME280/BME280.c **** uint8_t BME280_GetMeasurementMode(void) {
 1889              		.loc 1 377 0
 1890              		.cfi_startproc
 1891              		@ args = 0, pretend = 0, frame = 0
ARM GAS  C:\Users\GYULAI~1\AppData\Local\Temp\cclBQTHO.s 			page 42


 1892              		@ frame_needed = 0, uses_anonymous_args = 0
 1893              		@ link register save eliminated.
 378:rhea\drivers\BME280/BME280.c **** 
 379:rhea\drivers\BME280/BME280.c ****     // Reading MODE bits of CTRL_MEAS register
 380:rhea\drivers\BME280/BME280.c ****     return BME280_RegistersLocal.CTRL_MEAS & BME280_CTRL_MEAS_MODE;
 1894              		.loc 1 380 0
 1895 0000 024B     		ldr	r3, .L121
 1896 0002 987E     		ldrb	r0, [r3, #26]	@ zero_extendqisi2
 381:rhea\drivers\BME280/BME280.c **** }
 1897              		.loc 1 381 0
 1898 0004 00F00300 		and	r0, r0, #3
 1899 0008 7047     		bx	lr
 1900              	.L122:
 1901 000a 00BF     		.align	2
 1902              	.L121:
 1903 000c 00000000 		.word	.LANCHOR0
 1904              		.cfi_endproc
 1905              	.LFE20:
 1906              		.size	BME280_GetMeasurementMode, .-BME280_GetMeasurementMode
 1907              		.section	.text.BME280_SetMeasurementMode,"ax",%progbits
 1908              		.align	2
 1909              		.global	BME280_SetMeasurementMode
 1910              		.thumb
 1911              		.thumb_func
 1912              		.type	BME280_SetMeasurementMode, %function
 1913              	BME280_SetMeasurementMode:
 1914              	.LFB21:
 382:rhea\drivers\BME280/BME280.c **** 
 383:rhea\drivers\BME280/BME280.c **** void BME280_SetMeasurementMode(uint8_t mode) {
 1915              		.loc 1 383 0
 1916              		.cfi_startproc
 1917              		@ args = 0, pretend = 0, frame = 0
 1918              		@ frame_needed = 0, uses_anonymous_args = 0
 1919              	.LVL257:
 1920 0000 08B5     		push	{r3, lr}
 1921              		.cfi_def_cfa_offset 8
 1922              		.cfi_offset 3, -8
 1923              		.cfi_offset 14, -4
 384:rhea\drivers\BME280/BME280.c **** 
 385:rhea\drivers\BME280/BME280.c ****     // Writing MODE bits of CTRL_MEAS register
 386:rhea\drivers\BME280/BME280.c ****     BME280_RegistersLocal.CTRL_MEAS &= ~BME280_CTRL_MEAS_MODE;
 1924              		.loc 1 386 0
 1925 0002 064A     		ldr	r2, .L125
 1926 0004 937E     		ldrb	r3, [r2, #26]	@ zero_extendqisi2
 1927 0006 03F0FC03 		and	r3, r3, #252
 387:rhea\drivers\BME280/BME280.c ****     BME280_RegistersLocal.CTRL_MEAS |= mode;
 1928              		.loc 1 387 0
 1929 000a 1843     		orrs	r0, r0, r3
 1930              	.LVL258:
 1931 000c 02F81A0F 		strb	r0, [r2, #26]!
 388:rhea\drivers\BME280/BME280.c ****     
 389:rhea\drivers\BME280/BME280.c ****     // Writing changes to the device
 390:rhea\drivers\BME280/BME280.c ****     BME280_I2CWriter(BME280_I2C_ADDR, BME280_CTRL_MEAS, &BME280_RegistersLocal.CTRL_MEAS, 1);
 1932              		.loc 1 390 0
 1933 0010 0123     		movs	r3, #1
 1934 0012 F421     		movs	r1, #244
 1935 0014 7620     		movs	r0, #118
ARM GAS  C:\Users\GYULAI~1\AppData\Local\Temp\cclBQTHO.s 			page 43


 1936 0016 FFF7FEFF 		bl	BME280_I2CWriter
 1937              	.LVL259:
 1938 001a 08BD     		pop	{r3, pc}
 1939              	.L126:
 1940              		.align	2
 1941              	.L125:
 1942 001c 00000000 		.word	.LANCHOR0
 1943              		.cfi_endproc
 1944              	.LFE21:
 1945              		.size	BME280_SetMeasurementMode, .-BME280_SetMeasurementMode
 1946              		.section	.text.BME280_GetStandbyTime,"ax",%progbits
 1947              		.align	2
 1948              		.global	BME280_GetStandbyTime
 1949              		.thumb
 1950              		.thumb_func
 1951              		.type	BME280_GetStandbyTime, %function
 1952              	BME280_GetStandbyTime:
 1953              	.LFB22:
 391:rhea\drivers\BME280/BME280.c **** }
 392:rhea\drivers\BME280/BME280.c **** 
 393:rhea\drivers\BME280/BME280.c **** uint8_t BME280_GetStandbyTime(void) {
 1954              		.loc 1 393 0
 1955              		.cfi_startproc
 1956              		@ args = 0, pretend = 0, frame = 0
 1957              		@ frame_needed = 0, uses_anonymous_args = 0
 1958              		@ link register save eliminated.
 394:rhea\drivers\BME280/BME280.c **** 
 395:rhea\drivers\BME280/BME280.c ****     // Reading T_SB bits of CONFIG register
 396:rhea\drivers\BME280/BME280.c ****     return BME280_RegistersLocal.CONFIG & BME280_CONFIG_T_SB;
 1959              		.loc 1 396 0
 1960 0000 024B     		ldr	r3, .L128
 1961 0002 D87E     		ldrb	r0, [r3, #27]	@ zero_extendqisi2
 397:rhea\drivers\BME280/BME280.c **** }
 1962              		.loc 1 397 0
 1963 0004 00F0E000 		and	r0, r0, #224
 1964 0008 7047     		bx	lr
 1965              	.L129:
 1966 000a 00BF     		.align	2
 1967              	.L128:
 1968 000c 00000000 		.word	.LANCHOR0
 1969              		.cfi_endproc
 1970              	.LFE22:
 1971              		.size	BME280_GetStandbyTime, .-BME280_GetStandbyTime
 1972              		.section	.text.BME280_SetStandbyTime,"ax",%progbits
 1973              		.align	2
 1974              		.global	BME280_SetStandbyTime
 1975              		.thumb
 1976              		.thumb_func
 1977              		.type	BME280_SetStandbyTime, %function
 1978              	BME280_SetStandbyTime:
 1979              	.LFB23:
 398:rhea\drivers\BME280/BME280.c **** 
 399:rhea\drivers\BME280/BME280.c **** void BME280_SetStandbyTime(uint8_t standby) {
 1980              		.loc 1 399 0
 1981              		.cfi_startproc
 1982              		@ args = 0, pretend = 0, frame = 0
 1983              		@ frame_needed = 0, uses_anonymous_args = 0
ARM GAS  C:\Users\GYULAI~1\AppData\Local\Temp\cclBQTHO.s 			page 44


 1984              	.LVL260:
 1985 0000 08B5     		push	{r3, lr}
 1986              		.cfi_def_cfa_offset 8
 1987              		.cfi_offset 3, -8
 1988              		.cfi_offset 14, -4
 400:rhea\drivers\BME280/BME280.c **** 
 401:rhea\drivers\BME280/BME280.c ****     // Writing T_SB bits of CONFIG register
 402:rhea\drivers\BME280/BME280.c ****     BME280_RegistersLocal.CONFIG &= ~BME280_CONFIG_T_SB;
 1989              		.loc 1 402 0
 1990 0002 064A     		ldr	r2, .L132
 1991 0004 D37E     		ldrb	r3, [r2, #27]	@ zero_extendqisi2
 1992 0006 03F01F03 		and	r3, r3, #31
 403:rhea\drivers\BME280/BME280.c ****     BME280_RegistersLocal.CONFIG |= standby;
 1993              		.loc 1 403 0
 1994 000a 1843     		orrs	r0, r0, r3
 1995              	.LVL261:
 1996 000c 02F81B0F 		strb	r0, [r2, #27]!
 404:rhea\drivers\BME280/BME280.c ****     
 405:rhea\drivers\BME280/BME280.c ****     // Writing changes to the device
 406:rhea\drivers\BME280/BME280.c ****     BME280_I2CWriter(BME280_I2C_ADDR, BME280_CONFIG, &BME280_RegistersLocal.CONFIG, 1);
 1997              		.loc 1 406 0
 1998 0010 0123     		movs	r3, #1
 1999 0012 F521     		movs	r1, #245
 2000 0014 7620     		movs	r0, #118
 2001 0016 FFF7FEFF 		bl	BME280_I2CWriter
 2002              	.LVL262:
 2003 001a 08BD     		pop	{r3, pc}
 2004              	.L133:
 2005              		.align	2
 2006              	.L132:
 2007 001c 00000000 		.word	.LANCHOR0
 2008              		.cfi_endproc
 2009              	.LFE23:
 2010              		.size	BME280_SetStandbyTime, .-BME280_SetStandbyTime
 2011              		.section	.text.BME280_GetFilterMode,"ax",%progbits
 2012              		.align	2
 2013              		.global	BME280_GetFilterMode
 2014              		.thumb
 2015              		.thumb_func
 2016              		.type	BME280_GetFilterMode, %function
 2017              	BME280_GetFilterMode:
 2018              	.LFB24:
 407:rhea\drivers\BME280/BME280.c **** }
 408:rhea\drivers\BME280/BME280.c **** 
 409:rhea\drivers\BME280/BME280.c **** uint8_t BME280_GetFilterMode(void) {
 2019              		.loc 1 409 0
 2020              		.cfi_startproc
 2021              		@ args = 0, pretend = 0, frame = 0
 2022              		@ frame_needed = 0, uses_anonymous_args = 0
 2023              		@ link register save eliminated.
 410:rhea\drivers\BME280/BME280.c **** 
 411:rhea\drivers\BME280/BME280.c ****     // Reading FILTER bits of CONFIG register
 412:rhea\drivers\BME280/BME280.c ****     return BME280_RegistersLocal.CONFIG & BME280_CONFIG_FILTER;
 2024              		.loc 1 412 0
 2025 0000 024B     		ldr	r3, .L135
 2026 0002 D87E     		ldrb	r0, [r3, #27]	@ zero_extendqisi2
 413:rhea\drivers\BME280/BME280.c **** }
ARM GAS  C:\Users\GYULAI~1\AppData\Local\Temp\cclBQTHO.s 			page 45


 2027              		.loc 1 413 0
 2028 0004 00F01C00 		and	r0, r0, #28
 2029 0008 7047     		bx	lr
 2030              	.L136:
 2031 000a 00BF     		.align	2
 2032              	.L135:
 2033 000c 00000000 		.word	.LANCHOR0
 2034              		.cfi_endproc
 2035              	.LFE24:
 2036              		.size	BME280_GetFilterMode, .-BME280_GetFilterMode
 2037              		.section	.text.BME280_SetFilterMode,"ax",%progbits
 2038              		.align	2
 2039              		.global	BME280_SetFilterMode
 2040              		.thumb
 2041              		.thumb_func
 2042              		.type	BME280_SetFilterMode, %function
 2043              	BME280_SetFilterMode:
 2044              	.LFB25:
 414:rhea\drivers\BME280/BME280.c **** 
 415:rhea\drivers\BME280/BME280.c **** void BME280_SetFilterMode(uint8_t mode) {
 2045              		.loc 1 415 0
 2046              		.cfi_startproc
 2047              		@ args = 0, pretend = 0, frame = 0
 2048              		@ frame_needed = 0, uses_anonymous_args = 0
 2049              	.LVL263:
 2050 0000 08B5     		push	{r3, lr}
 2051              		.cfi_def_cfa_offset 8
 2052              		.cfi_offset 3, -8
 2053              		.cfi_offset 14, -4
 416:rhea\drivers\BME280/BME280.c **** 
 417:rhea\drivers\BME280/BME280.c ****     // Writing FILTER bits of CONFIG register
 418:rhea\drivers\BME280/BME280.c ****     BME280_RegistersLocal.CONFIG &= ~BME280_CONFIG_FILTER;
 2054              		.loc 1 418 0
 2055 0002 064A     		ldr	r2, .L139
 2056 0004 D37E     		ldrb	r3, [r2, #27]	@ zero_extendqisi2
 2057 0006 03F0E303 		and	r3, r3, #227
 419:rhea\drivers\BME280/BME280.c ****     BME280_RegistersLocal.CONFIG |= mode;
 2058              		.loc 1 419 0
 2059 000a 1843     		orrs	r0, r0, r3
 2060              	.LVL264:
 2061 000c 02F81B0F 		strb	r0, [r2, #27]!
 420:rhea\drivers\BME280/BME280.c ****     
 421:rhea\drivers\BME280/BME280.c ****     // Writing changes to the device
 422:rhea\drivers\BME280/BME280.c ****     BME280_I2CWriter(BME280_I2C_ADDR, BME280_CONFIG, &BME280_RegistersLocal.CONFIG, 1);
 2062              		.loc 1 422 0
 2063 0010 0123     		movs	r3, #1
 2064 0012 F521     		movs	r1, #245
 2065 0014 7620     		movs	r0, #118
 2066 0016 FFF7FEFF 		bl	BME280_I2CWriter
 2067              	.LVL265:
 2068 001a 08BD     		pop	{r3, pc}
 2069              	.L140:
 2070              		.align	2
 2071              	.L139:
 2072 001c 00000000 		.word	.LANCHOR0
 2073              		.cfi_endproc
 2074              	.LFE25:
ARM GAS  C:\Users\GYULAI~1\AppData\Local\Temp\cclBQTHO.s 			page 46


 2075              		.size	BME280_SetFilterMode, .-BME280_SetFilterMode
 2076              		.section	.text.BME280_EnableSPI3Wire,"ax",%progbits
 2077              		.align	2
 2078              		.global	BME280_EnableSPI3Wire
 2079              		.thumb
 2080              		.thumb_func
 2081              		.type	BME280_EnableSPI3Wire, %function
 2082              	BME280_EnableSPI3Wire:
 2083              	.LFB26:
 423:rhea\drivers\BME280/BME280.c **** }
 424:rhea\drivers\BME280/BME280.c **** 
 425:rhea\drivers\BME280/BME280.c **** void BME280_EnableSPI3Wire(void) {
 2084              		.loc 1 425 0
 2085              		.cfi_startproc
 2086              		@ args = 0, pretend = 0, frame = 0
 2087              		@ frame_needed = 0, uses_anonymous_args = 0
 2088 0000 08B5     		push	{r3, lr}
 2089              		.cfi_def_cfa_offset 8
 2090              		.cfi_offset 3, -8
 2091              		.cfi_offset 14, -4
 426:rhea\drivers\BME280/BME280.c **** 
 427:rhea\drivers\BME280/BME280.c ****     // Setting SPI3W_EN bit of CONFIG register
 428:rhea\drivers\BME280/BME280.c ****     BME280_RegistersLocal.CONFIG |= BME280_CONFIG_SPI3W_EN;
 2092              		.loc 1 428 0
 2093 0002 064A     		ldr	r2, .L143
 2094 0004 D37E     		ldrb	r3, [r2, #27]	@ zero_extendqisi2
 2095 0006 43F00103 		orr	r3, r3, #1
 2096 000a 02F81B3F 		strb	r3, [r2, #27]!
 429:rhea\drivers\BME280/BME280.c ****     
 430:rhea\drivers\BME280/BME280.c ****     // Writing changes to the device
 431:rhea\drivers\BME280/BME280.c ****     BME280_I2CWriter(BME280_I2C_ADDR, BME280_CONFIG, &BME280_RegistersLocal.CONFIG, 1);
 2097              		.loc 1 431 0
 2098 000e 0123     		movs	r3, #1
 2099 0010 F521     		movs	r1, #245
 2100 0012 7620     		movs	r0, #118
 2101 0014 FFF7FEFF 		bl	BME280_I2CWriter
 2102              	.LVL266:
 2103 0018 08BD     		pop	{r3, pc}
 2104              	.L144:
 2105 001a 00BF     		.align	2
 2106              	.L143:
 2107 001c 00000000 		.word	.LANCHOR0
 2108              		.cfi_endproc
 2109              	.LFE26:
 2110              		.size	BME280_EnableSPI3Wire, .-BME280_EnableSPI3Wire
 2111              		.section	.text.BME280_DisableSPI3Wire,"ax",%progbits
 2112              		.align	2
 2113              		.global	BME280_DisableSPI3Wire
 2114              		.thumb
 2115              		.thumb_func
 2116              		.type	BME280_DisableSPI3Wire, %function
 2117              	BME280_DisableSPI3Wire:
 2118              	.LFB27:
 432:rhea\drivers\BME280/BME280.c **** }
 433:rhea\drivers\BME280/BME280.c **** 
 434:rhea\drivers\BME280/BME280.c **** void BME280_DisableSPI3Wire(void) {
 2119              		.loc 1 434 0
ARM GAS  C:\Users\GYULAI~1\AppData\Local\Temp\cclBQTHO.s 			page 47


 2120              		.cfi_startproc
 2121              		@ args = 0, pretend = 0, frame = 0
 2122              		@ frame_needed = 0, uses_anonymous_args = 0
 2123 0000 08B5     		push	{r3, lr}
 2124              		.cfi_def_cfa_offset 8
 2125              		.cfi_offset 3, -8
 2126              		.cfi_offset 14, -4
 435:rhea\drivers\BME280/BME280.c **** 
 436:rhea\drivers\BME280/BME280.c ****     // Clearing SPI3W_EN bit of CONFIG register
 437:rhea\drivers\BME280/BME280.c ****     BME280_RegistersLocal.CONFIG &= ~BME280_CONFIG_SPI3W_EN;
 2127              		.loc 1 437 0
 2128 0002 064A     		ldr	r2, .L147
 2129 0004 D37E     		ldrb	r3, [r2, #27]	@ zero_extendqisi2
 2130 0006 23F00103 		bic	r3, r3, #1
 2131 000a 02F81B3F 		strb	r3, [r2, #27]!
 438:rhea\drivers\BME280/BME280.c ****     
 439:rhea\drivers\BME280/BME280.c ****     // Writing changes to the device
 440:rhea\drivers\BME280/BME280.c ****     BME280_I2CWriter(BME280_I2C_ADDR, BME280_CONFIG, &BME280_RegistersLocal.CONFIG, 1);
 2132              		.loc 1 440 0
 2133 000e 0123     		movs	r3, #1
 2134 0010 F521     		movs	r1, #245
 2135 0012 7620     		movs	r0, #118
 2136 0014 FFF7FEFF 		bl	BME280_I2CWriter
 2137              	.LVL267:
 2138 0018 08BD     		pop	{r3, pc}
 2139              	.L148:
 2140 001a 00BF     		.align	2
 2141              	.L147:
 2142 001c 00000000 		.word	.LANCHOR0
 2143              		.cfi_endproc
 2144              	.LFE27:
 2145              		.size	BME280_DisableSPI3Wire, .-BME280_DisableSPI3Wire
 2146              		.section	.text.BME280_IsSPI3WireEnabled,"ax",%progbits
 2147              		.align	2
 2148              		.global	BME280_IsSPI3WireEnabled
 2149              		.thumb
 2150              		.thumb_func
 2151              		.type	BME280_IsSPI3WireEnabled, %function
 2152              	BME280_IsSPI3WireEnabled:
 2153              	.LFB28:
 441:rhea\drivers\BME280/BME280.c **** }
 442:rhea\drivers\BME280/BME280.c **** 
 443:rhea\drivers\BME280/BME280.c **** uint8_t BME280_IsSPI3WireEnabled() {
 2154              		.loc 1 443 0
 2155              		.cfi_startproc
 2156              		@ args = 0, pretend = 0, frame = 0
 2157              		@ frame_needed = 0, uses_anonymous_args = 0
 2158              		@ link register save eliminated.
 444:rhea\drivers\BME280/BME280.c **** 
 445:rhea\drivers\BME280/BME280.c ****     // Reading SPI3W_EN bit of CONFIG register
 446:rhea\drivers\BME280/BME280.c ****     return BME280_RegistersLocal.CONFIG & BME280_CONFIG_SPI3W_EN;
 2159              		.loc 1 446 0
 2160 0000 024B     		ldr	r3, .L150
 2161 0002 D87E     		ldrb	r0, [r3, #27]	@ zero_extendqisi2
 447:rhea\drivers\BME280/BME280.c **** }
 2162              		.loc 1 447 0
 2163 0004 00F00100 		and	r0, r0, #1
ARM GAS  C:\Users\GYULAI~1\AppData\Local\Temp\cclBQTHO.s 			page 48


 2164 0008 7047     		bx	lr
 2165              	.L151:
 2166 000a 00BF     		.align	2
 2167              	.L150:
 2168 000c 00000000 		.word	.LANCHOR0
 2169              		.cfi_endproc
 2170              	.LFE28:
 2171              		.size	BME280_IsSPI3WireEnabled, .-BME280_IsSPI3WireEnabled
 2172              		.bss
 2173              		.align	2
 2174              		.set	.LANCHOR0,. + 0
 2175              		.type	BME280_I2CController, %object
 2176              		.size	BME280_I2CController, 16
 2177              	BME280_I2CController:
 2178 0000 00000000 		.space	16
 2178      00000000 
 2178      00000000 
 2178      00000000 
 2179              		.type	BME280_RegistersLocal, %object
 2180              		.size	BME280_RegistersLocal, 49
 2181              	BME280_RegistersLocal:
 2182 0010 00000000 		.space	49
 2182      00000000 
 2182      00000000 
 2182      00000000 
 2182      00000000 
 2183              		.text
 2184              	.Letext0:
 2185              		.file 2 "e:\\cypress\\psoc creator\\4.2\\psoc creator\\import\\gnu\\arm\\5.4.1\\arm-none-eabi\\inc
 2186              		.file 3 "e:\\cypress\\psoc creator\\4.2\\psoc creator\\import\\gnu\\arm\\5.4.1\\arm-none-eabi\\inc
 2187              		.file 4 "rhea\\drivers\\BME280\\BME280.h"