ARM GAS  C:\Users\GYULAI~1\AppData\Local\Temp\cc8y56XJ.s 			page 1


   1              		.syntax unified
   2              		.cpu cortex-m3
   3              		.fpu softvfp
   4              		.eabi_attribute 20, 1
   5              		.eabi_attribute 21, 1
   6              		.eabi_attribute 23, 3
   7              		.eabi_attribute 24, 1
   8              		.eabi_attribute 25, 1
   9              		.eabi_attribute 26, 1
  10              		.eabi_attribute 30, 6
  11              		.eabi_attribute 34, 1
  12              		.eabi_attribute 18, 4
  13              		.thumb
  14              		.syntax unified
  15              		.file	"BME280.c"
  16              		.text
  17              	.Ltext0:
  18              		.cfi_sections	.debug_frame
  19              		.bss
  20              		.align	2
  21              	BME280_I2CController:
  22 0000 00000000 		.space	16
  22      00000000 
  22      00000000 
  22      00000000 
  23              		.align	2
  24              	BME280_RegistersLocal:
  25 0010 00000000 		.space	49
  25      00000000 
  25      00000000 
  25      00000000 
  25      00000000 
  26              		.section	.text.BME280_SetI2CController,"ax",%progbits
  27              		.align	2
  28              		.global	BME280_SetI2CController
  29              		.thumb
  30              		.thumb_func
  31              		.type	BME280_SetI2CController, %function
  32              	BME280_SetI2CController:
  33              	.LFB0:
  34              		.file 1 "rhea\\drivers\\BME280\\BME280.c"
   1:rhea\drivers\BME280/BME280.c **** /*********************************************************************************
   2:rhea\drivers\BME280/BME280.c ****  * Copyright (c) 2020 Peter Gyulai
   3:rhea\drivers\BME280/BME280.c ****  *
   4:rhea\drivers\BME280/BME280.c ****  * Permission is hereby granted, free of charge, to any person obtaining a copy
   5:rhea\drivers\BME280/BME280.c ****  * of this software and associated documentation files (the "Software"), to deal
   6:rhea\drivers\BME280/BME280.c ****  * in the Software without restriction, including without limitation the rights
   7:rhea\drivers\BME280/BME280.c ****  * to use, copy, modify, merge, publish, distribute, sublicense, and/or sell
   8:rhea\drivers\BME280/BME280.c ****  * copies of the Software, and to permit persons to whom the Software is
   9:rhea\drivers\BME280/BME280.c ****  * furnished to do so, subject to the following conditions:
  10:rhea\drivers\BME280/BME280.c ****  *
  11:rhea\drivers\BME280/BME280.c ****  * The above copyright notice and this permission notice shall be included in all
  12:rhea\drivers\BME280/BME280.c ****  * copies or substantial portions of the Software.
  13:rhea\drivers\BME280/BME280.c ****  *
  14:rhea\drivers\BME280/BME280.c ****  * THE SOFTWARE IS PROVIDED "AS IS", WITHOUT WARRANTY OF ANY KIND,
  15:rhea\drivers\BME280/BME280.c ****  * EXPRESS OR IMPLIED, INCLUDING BUT NOT LIMITED TO THE WARRANTIES OF
  16:rhea\drivers\BME280/BME280.c ****  * MERCHANTABILITY, FITNESS FOR A PARTICULAR PURPOSE AND NONINFRINGEMENT.
ARM GAS  C:\Users\GYULAI~1\AppData\Local\Temp\cc8y56XJ.s 			page 2


  17:rhea\drivers\BME280/BME280.c ****  * IN NO EVENT SHALL THE AUTHORS OR COPYRIGHT HOLDERS BE LIABLE FOR ANY CLAIM,
  18:rhea\drivers\BME280/BME280.c ****  * DAMAGES OR OTHER LIABILITY, WHETHER IN AN ACTION OF CONTRACT, TORT OR
  19:rhea\drivers\BME280/BME280.c ****  * OTHERWISE, ARISING FROM, OUT OF OR IN CONNECTION WITH THE SOFTWARE OR THE USE
  20:rhea\drivers\BME280/BME280.c ****  * OR OTHER DEALINGS IN THE SOFTWARE.
  21:rhea\drivers\BME280/BME280.c **** **********************************************************************************/
  22:rhea\drivers\BME280/BME280.c **** 
  23:rhea\drivers\BME280/BME280.c **** /**
  24:rhea\drivers\BME280/BME280.c ****  * @file    BME280.c
  25:rhea\drivers\BME280/BME280.c ****  * @author  Peter Gyulai
  26:rhea\drivers\BME280/BME280.c ****  * @version 1.1.0
  27:rhea\drivers\BME280/BME280.c ****  * @date    2020.04.14
  28:rhea\drivers\BME280/BME280.c ****  * @brief   Library implementation.
  29:rhea\drivers\BME280/BME280.c ****  * @details
  30:rhea\drivers\BME280/BME280.c ****  * This file contains the function definitions and static variable definitions used
  31:rhea\drivers\BME280/BME280.c ****  * by the BME280 driver library.
  32:rhea\drivers\BME280/BME280.c ****  */
  33:rhea\drivers\BME280/BME280.c **** 
  34:rhea\drivers\BME280/BME280.c **** // Doxygen documentation duplication suppression
  35:rhea\drivers\BME280/BME280.c **** #ifndef DOXYGEN_SHOULD_SKIP_THIS
  36:rhea\drivers\BME280/BME280.c **** 
  37:rhea\drivers\BME280/BME280.c **** // Project includes
  38:rhea\drivers\BME280/BME280.c **** #include "BME280.h"
  39:rhea\drivers\BME280/BME280.c **** 
  40:rhea\drivers\BME280/BME280.c **** 
  41:rhea\drivers\BME280/BME280.c **** // // Structure holding function pointers to I2C handlers
  42:rhea\drivers\BME280/BME280.c **** static BME280_I2CControllerStruct BME280_I2CController;
  43:rhea\drivers\BME280/BME280.c **** 
  44:rhea\drivers\BME280/BME280.c **** // Static instance holding a local copy of the BME280's registers
  45:rhea\drivers\BME280/BME280.c **** static BME280_RegisterStruct BME280_RegistersLocal;
  46:rhea\drivers\BME280/BME280.c **** 
  47:rhea\drivers\BME280/BME280.c **** void BME280_SetI2CController(BME280_I2CControllerStruct controller) {
  35              		.loc 1 47 0
  36              		.cfi_startproc
  37              		@ args = 0, pretend = 0, frame = 16
  38              		@ frame_needed = 1, uses_anonymous_args = 0
  39              		@ link register save eliminated.
  40 0000 90B4     		push	{r4, r7}
  41              		.cfi_def_cfa_offset 8
  42              		.cfi_offset 4, -8
  43              		.cfi_offset 7, -4
  44 0002 84B0     		sub	sp, sp, #16
  45              		.cfi_def_cfa_offset 24
  46 0004 00AF     		add	r7, sp, #0
  47              		.cfi_def_cfa_register 7
  48 0006 3C46     		mov	r4, r7
  49 0008 84E80F00 		stmia	r4, {r0, r1, r2, r3}
  48:rhea\drivers\BME280/BME280.c **** 	BME280_I2CController = controller;
  50              		.loc 1 48 0
  51 000c 054B     		ldr	r3, .L2
  52 000e 1C46     		mov	r4, r3
  53 0010 3B46     		mov	r3, r7
  54 0012 0FCB     		ldmia	r3, {r0, r1, r2, r3}
  55 0014 84E80F00 		stmia	r4, {r0, r1, r2, r3}
  49:rhea\drivers\BME280/BME280.c **** }
  56              		.loc 1 49 0
  57 0018 00BF     		nop
  58 001a 1037     		adds	r7, r7, #16
ARM GAS  C:\Users\GYULAI~1\AppData\Local\Temp\cc8y56XJ.s 			page 3


  59              		.cfi_def_cfa_offset 8
  60 001c BD46     		mov	sp, r7
  61              		.cfi_def_cfa_register 13
  62              		@ sp needed
  63 001e 90BC     		pop	{r4, r7}
  64              		.cfi_restore 7
  65              		.cfi_restore 4
  66              		.cfi_def_cfa_offset 0
  67 0020 7047     		bx	lr
  68              	.L3:
  69 0022 00BF     		.align	2
  70              	.L2:
  71 0024 00000000 		.word	BME280_I2CController
  72              		.cfi_endproc
  73              	.LFE0:
  74              		.size	BME280_SetI2CController, .-BME280_SetI2CController
  75              		.section	.text.BME280_I2CReader,"ax",%progbits
  76              		.align	2
  77              		.global	BME280_I2CReader
  78              		.thumb
  79              		.thumb_func
  80              		.type	BME280_I2CReader, %function
  81              	BME280_I2CReader:
  82              	.LFB1:
  50:rhea\drivers\BME280/BME280.c **** 
  51:rhea\drivers\BME280/BME280.c **** void BME280_I2CReader(uint8_t address, uint8_t deviceAddress, unsigned char * buffer, uint8_t byteC
  83              		.loc 1 51 0
  84              		.cfi_startproc
  85              		@ args = 0, pretend = 0, frame = 16
  86              		@ frame_needed = 1, uses_anonymous_args = 0
  87 0000 90B5     		push	{r4, r7, lr}
  88              		.cfi_def_cfa_offset 12
  89              		.cfi_offset 4, -12
  90              		.cfi_offset 7, -8
  91              		.cfi_offset 14, -4
  92 0002 85B0     		sub	sp, sp, #20
  93              		.cfi_def_cfa_offset 32
  94 0004 00AF     		add	r7, sp, #0
  95              		.cfi_def_cfa_register 7
  96 0006 3A60     		str	r2, [r7]
  97 0008 1A46     		mov	r2, r3
  98 000a 0346     		mov	r3, r0
  99 000c FB71     		strb	r3, [r7, #7]
 100 000e 0B46     		mov	r3, r1
 101 0010 BB71     		strb	r3, [r7, #6]
 102 0012 1346     		mov	r3, r2
 103 0014 7B71     		strb	r3, [r7, #5]
  52:rhea\drivers\BME280/BME280.c ****     
  53:rhea\drivers\BME280/BME280.c ****     // Selecting the device for write
  54:rhea\drivers\BME280/BME280.c ****     BME280_I2CController.MasterSendStart(address, 0);
 104              		.loc 1 54 0
 105 0016 1B4B     		ldr	r3, .L7
 106 0018 1B68     		ldr	r3, [r3]
 107 001a FA79     		ldrb	r2, [r7, #7]	@ zero_extendqisi2
 108 001c 0021     		movs	r1, #0
 109 001e 1046     		mov	r0, r2
 110 0020 9847     		blx	r3
ARM GAS  C:\Users\GYULAI~1\AppData\Local\Temp\cc8y56XJ.s 			page 4


  55:rhea\drivers\BME280/BME280.c ****     
  56:rhea\drivers\BME280/BME280.c ****     // Writing first device address to read
  57:rhea\drivers\BME280/BME280.c ****     BME280_I2CController.MasterWriteByte(deviceAddress);
 111              		.loc 1 57 0
 112 0022 184B     		ldr	r3, .L7
 113 0024 9B68     		ldr	r3, [r3, #8]
 114 0026 BA79     		ldrb	r2, [r7, #6]	@ zero_extendqisi2
 115 0028 1046     		mov	r0, r2
 116 002a 9847     		blx	r3
  58:rhea\drivers\BME280/BME280.c **** 
  59:rhea\drivers\BME280/BME280.c ****     // Sending STOP 
  60:rhea\drivers\BME280/BME280.c ****     BME280_I2CController.MasterSendStop();
 117              		.loc 1 60 0
 118 002c 154B     		ldr	r3, .L7
 119 002e 5B68     		ldr	r3, [r3, #4]
 120 0030 9847     		blx	r3
  61:rhea\drivers\BME280/BME280.c ****     
  62:rhea\drivers\BME280/BME280.c ****     // Selecting the device for read
  63:rhea\drivers\BME280/BME280.c ****     BME280_I2CController.MasterSendStart(address, 1);
 121              		.loc 1 63 0
 122 0032 144B     		ldr	r3, .L7
 123 0034 1B68     		ldr	r3, [r3]
 124 0036 FA79     		ldrb	r2, [r7, #7]	@ zero_extendqisi2
 125 0038 0121     		movs	r1, #1
 126 003a 1046     		mov	r0, r2
 127 003c 9847     		blx	r3
 128              	.LBB2:
  64:rhea\drivers\BME280/BME280.c ****     
  65:rhea\drivers\BME280/BME280.c ****     // Reading bytes from the device
  66:rhea\drivers\BME280/BME280.c ****     for(uint8_t i = 0; i < byteCount; i++) {
 129              		.loc 1 66 0
 130 003e 0023     		movs	r3, #0
 131 0040 FB73     		strb	r3, [r7, #15]
 132 0042 13E0     		b	.L5
 133              	.L6:
  67:rhea\drivers\BME280/BME280.c ****         buffer[i] = BME280_I2CController.MasterReadByte(i < byteCount - 1 ? 1 : 0);   
 134              		.loc 1 67 0 discriminator 3
 135 0044 FB7B     		ldrb	r3, [r7, #15]	@ zero_extendqisi2
 136 0046 3A68     		ldr	r2, [r7]
 137 0048 D418     		adds	r4, r2, r3
 138 004a 0E4B     		ldr	r3, .L7
 139 004c DB68     		ldr	r3, [r3, #12]
 140 004e F97B     		ldrb	r1, [r7, #15]	@ zero_extendqisi2
 141 0050 7A79     		ldrb	r2, [r7, #5]	@ zero_extendqisi2
 142 0052 013A     		subs	r2, r2, #1
 143 0054 9142     		cmp	r1, r2
 144 0056 B4BF     		ite	lt
 145 0058 0122     		movlt	r2, #1
 146 005a 0022     		movge	r2, #0
 147 005c D2B2     		uxtb	r2, r2
 148 005e 1046     		mov	r0, r2
 149 0060 9847     		blx	r3
 150 0062 0346     		mov	r3, r0
 151 0064 2370     		strb	r3, [r4]
  66:rhea\drivers\BME280/BME280.c ****         buffer[i] = BME280_I2CController.MasterReadByte(i < byteCount - 1 ? 1 : 0);   
 152              		.loc 1 66 0 discriminator 3
 153 0066 FB7B     		ldrb	r3, [r7, #15]	@ zero_extendqisi2
ARM GAS  C:\Users\GYULAI~1\AppData\Local\Temp\cc8y56XJ.s 			page 5


 154 0068 0133     		adds	r3, r3, #1
 155 006a FB73     		strb	r3, [r7, #15]
 156              	.L5:
  66:rhea\drivers\BME280/BME280.c ****         buffer[i] = BME280_I2CController.MasterReadByte(i < byteCount - 1 ? 1 : 0);   
 157              		.loc 1 66 0 is_stmt 0 discriminator 1
 158 006c FA7B     		ldrb	r2, [r7, #15]	@ zero_extendqisi2
 159 006e 7B79     		ldrb	r3, [r7, #5]	@ zero_extendqisi2
 160 0070 9A42     		cmp	r2, r3
 161 0072 E7D3     		bcc	.L6
 162              	.LBE2:
  68:rhea\drivers\BME280/BME280.c ****     }
  69:rhea\drivers\BME280/BME280.c ****     
  70:rhea\drivers\BME280/BME280.c ****     // Sending STOP 
  71:rhea\drivers\BME280/BME280.c ****     BME280_I2CController.MasterSendStop();
 163              		.loc 1 71 0 is_stmt 1
 164 0074 034B     		ldr	r3, .L7
 165 0076 5B68     		ldr	r3, [r3, #4]
 166 0078 9847     		blx	r3
  72:rhea\drivers\BME280/BME280.c **** }
 167              		.loc 1 72 0
 168 007a 00BF     		nop
 169 007c 1437     		adds	r7, r7, #20
 170              		.cfi_def_cfa_offset 12
 171 007e BD46     		mov	sp, r7
 172              		.cfi_def_cfa_register 13
 173              		@ sp needed
 174 0080 90BD     		pop	{r4, r7, pc}
 175              	.L8:
 176 0082 00BF     		.align	2
 177              	.L7:
 178 0084 00000000 		.word	BME280_I2CController
 179              		.cfi_endproc
 180              	.LFE1:
 181              		.size	BME280_I2CReader, .-BME280_I2CReader
 182              		.section	.text.BME280_I2CWriter,"ax",%progbits
 183              		.align	2
 184              		.global	BME280_I2CWriter
 185              		.thumb
 186              		.thumb_func
 187              		.type	BME280_I2CWriter, %function
 188              	BME280_I2CWriter:
 189              	.LFB2:
  73:rhea\drivers\BME280/BME280.c **** 
  74:rhea\drivers\BME280/BME280.c **** void BME280_I2CWriter(uint8_t address, uint8_t deviceAddress, const unsigned char * buffer, uint8_t
 190              		.loc 1 74 0
 191              		.cfi_startproc
 192              		@ args = 0, pretend = 0, frame = 16
 193              		@ frame_needed = 1, uses_anonymous_args = 0
 194 0000 80B5     		push	{r7, lr}
 195              		.cfi_def_cfa_offset 8
 196              		.cfi_offset 7, -8
 197              		.cfi_offset 14, -4
 198 0002 84B0     		sub	sp, sp, #16
 199              		.cfi_def_cfa_offset 24
 200 0004 00AF     		add	r7, sp, #0
 201              		.cfi_def_cfa_register 7
 202 0006 3A60     		str	r2, [r7]
ARM GAS  C:\Users\GYULAI~1\AppData\Local\Temp\cc8y56XJ.s 			page 6


 203 0008 1A46     		mov	r2, r3
 204 000a 0346     		mov	r3, r0
 205 000c FB71     		strb	r3, [r7, #7]
 206 000e 0B46     		mov	r3, r1
 207 0010 BB71     		strb	r3, [r7, #6]
 208 0012 1346     		mov	r3, r2
 209 0014 7B71     		strb	r3, [r7, #5]
  75:rhea\drivers\BME280/BME280.c ****     
  76:rhea\drivers\BME280/BME280.c ****     // Selecting the device for write
  77:rhea\drivers\BME280/BME280.c ****     BME280_I2CController.MasterSendStart(address, 0);
 210              		.loc 1 77 0
 211 0016 134B     		ldr	r3, .L12
 212 0018 1B68     		ldr	r3, [r3]
 213 001a FA79     		ldrb	r2, [r7, #7]	@ zero_extendqisi2
 214 001c 0021     		movs	r1, #0
 215 001e 1046     		mov	r0, r2
 216 0020 9847     		blx	r3
 217              	.LBB3:
  78:rhea\drivers\BME280/BME280.c ****     
  79:rhea\drivers\BME280/BME280.c ****     // Writing bytes to the device
  80:rhea\drivers\BME280/BME280.c ****     for(uint8_t i = 0; i < byteCount; i++) {
 218              		.loc 1 80 0
 219 0022 0023     		movs	r3, #0
 220 0024 FB73     		strb	r3, [r7, #15]
 221 0026 11E0     		b	.L10
 222              	.L11:
  81:rhea\drivers\BME280/BME280.c ****         
  82:rhea\drivers\BME280/BME280.c ****         // Sending device address to write
  83:rhea\drivers\BME280/BME280.c ****         BME280_I2CController.MasterWriteByte(deviceAddress++);
 223              		.loc 1 83 0 discriminator 3
 224 0028 0E4B     		ldr	r3, .L12
 225 002a 9A68     		ldr	r2, [r3, #8]
 226 002c BB79     		ldrb	r3, [r7, #6]	@ zero_extendqisi2
 227 002e 591C     		adds	r1, r3, #1
 228 0030 B971     		strb	r1, [r7, #6]
 229 0032 1846     		mov	r0, r3
 230 0034 9047     		blx	r2
  84:rhea\drivers\BME280/BME280.c ****         
  85:rhea\drivers\BME280/BME280.c ****         // Sending byte to write
  86:rhea\drivers\BME280/BME280.c ****         BME280_I2CController.MasterWriteByte(buffer[i]);
 231              		.loc 1 86 0 discriminator 3
 232 0036 0B4B     		ldr	r3, .L12
 233 0038 9B68     		ldr	r3, [r3, #8]
 234 003a FA7B     		ldrb	r2, [r7, #15]	@ zero_extendqisi2
 235 003c 3968     		ldr	r1, [r7]
 236 003e 0A44     		add	r2, r2, r1
 237 0040 1278     		ldrb	r2, [r2]	@ zero_extendqisi2
 238 0042 1046     		mov	r0, r2
 239 0044 9847     		blx	r3
  80:rhea\drivers\BME280/BME280.c ****         
 240              		.loc 1 80 0 discriminator 3
 241 0046 FB7B     		ldrb	r3, [r7, #15]	@ zero_extendqisi2
 242 0048 0133     		adds	r3, r3, #1
 243 004a FB73     		strb	r3, [r7, #15]
 244              	.L10:
  80:rhea\drivers\BME280/BME280.c ****         
 245              		.loc 1 80 0 is_stmt 0 discriminator 1
ARM GAS  C:\Users\GYULAI~1\AppData\Local\Temp\cc8y56XJ.s 			page 7


 246 004c FA7B     		ldrb	r2, [r7, #15]	@ zero_extendqisi2
 247 004e 7B79     		ldrb	r3, [r7, #5]	@ zero_extendqisi2
 248 0050 9A42     		cmp	r2, r3
 249 0052 E9D3     		bcc	.L11
 250              	.LBE3:
  87:rhea\drivers\BME280/BME280.c ****     }
  88:rhea\drivers\BME280/BME280.c ****     
  89:rhea\drivers\BME280/BME280.c ****     // Sending STOP 
  90:rhea\drivers\BME280/BME280.c ****     BME280_I2CController.MasterSendStop();
 251              		.loc 1 90 0 is_stmt 1
 252 0054 034B     		ldr	r3, .L12
 253 0056 5B68     		ldr	r3, [r3, #4]
 254 0058 9847     		blx	r3
  91:rhea\drivers\BME280/BME280.c **** }
 255              		.loc 1 91 0
 256 005a 00BF     		nop
 257 005c 1037     		adds	r7, r7, #16
 258              		.cfi_def_cfa_offset 8
 259 005e BD46     		mov	sp, r7
 260              		.cfi_def_cfa_register 13
 261              		@ sp needed
 262 0060 80BD     		pop	{r7, pc}
 263              	.L13:
 264 0062 00BF     		.align	2
 265              	.L12:
 266 0064 00000000 		.word	BME280_I2CController
 267              		.cfi_endproc
 268              	.LFE2:
 269              		.size	BME280_I2CWriter, .-BME280_I2CWriter
 270              		.section	.text.BME280_Init,"ax",%progbits
 271              		.align	2
 272              		.global	BME280_Init
 273              		.thumb
 274              		.thumb_func
 275              		.type	BME280_Init, %function
 276              	BME280_Init:
 277              	.LFB3:
  92:rhea\drivers\BME280/BME280.c ****     
  93:rhea\drivers\BME280/BME280.c **** void BME280_Init(void) {
 278              		.loc 1 93 0
 279              		.cfi_startproc
 280              		@ args = 0, pretend = 0, frame = 40
 281              		@ frame_needed = 1, uses_anonymous_args = 0
 282 0000 80B5     		push	{r7, lr}
 283              		.cfi_def_cfa_offset 8
 284              		.cfi_offset 7, -8
 285              		.cfi_offset 14, -4
 286 0002 8AB0     		sub	sp, sp, #40
 287              		.cfi_def_cfa_offset 48
 288 0004 00AF     		add	r7, sp, #0
 289              		.cfi_def_cfa_register 7
  94:rhea\drivers\BME280/BME280.c **** 
  95:rhea\drivers\BME280/BME280.c ****     // Reading & validating chip ID
  96:rhea\drivers\BME280/BME280.c ****     uint8_t ID = 0x00;
 290              		.loc 1 96 0
 291 0006 0023     		movs	r3, #0
 292 0008 87F82730 		strb	r3, [r7, #39]
ARM GAS  C:\Users\GYULAI~1\AppData\Local\Temp\cc8y56XJ.s 			page 8


  97:rhea\drivers\BME280/BME280.c ****     BME280_I2CReader(BME280_I2C_ADDR, BME280_ID, &ID, 1);
 293              		.loc 1 97 0
 294 000c 07F12702 		add	r2, r7, #39
 295 0010 0123     		movs	r3, #1
 296 0012 D021     		movs	r1, #208
 297 0014 7620     		movs	r0, #118
 298 0016 FFF7FEFF 		bl	BME280_I2CReader
  98:rhea\drivers\BME280/BME280.c ****         // Do assertion: ID == BME280_CHIP_ID
  99:rhea\drivers\BME280/BME280.c ****     
 100:rhea\drivers\BME280/BME280.c ****     // Reading calibration data
 101:rhea\drivers\BME280/BME280.c ****     uint8_t calibDataLow[BME280_CALIBRATION_REGS_LOW_COUNT];
 102:rhea\drivers\BME280/BME280.c ****     uint8_t calibDataHigh[BME280_CALIBRATION_REGS_HIGH_COUNT];
 103:rhea\drivers\BME280/BME280.c ****     BME280_I2CReader(BME280_I2C_ADDR, BME280_CALIBRATION_REGS_LOW, calibDataLow, BME280_CALIBRATION
 299              		.loc 1 103 0
 300 001a 07F10C02 		add	r2, r7, #12
 301 001e 1A23     		movs	r3, #26
 302 0020 8821     		movs	r1, #136
 303 0022 7620     		movs	r0, #118
 304 0024 FFF7FEFF 		bl	BME280_I2CReader
 104:rhea\drivers\BME280/BME280.c ****     BME280_I2CReader(BME280_I2C_ADDR, BME280_CALIBRATION_REGS_HIGH, calibDataHigh, BME280_CALIBRATI
 305              		.loc 1 104 0
 306 0028 3A1D     		adds	r2, r7, #4
 307 002a 0723     		movs	r3, #7
 308 002c E121     		movs	r1, #225
 309 002e 7620     		movs	r0, #118
 310 0030 FFF7FEFF 		bl	BME280_I2CReader
 105:rhea\drivers\BME280/BME280.c **** 
 106:rhea\drivers\BME280/BME280.c ****     // Setting temperature compensation parameters
 107:rhea\drivers\BME280/BME280.c ****     BME280_RegistersLocal.dig_T1 = (uint16_t) calibDataLow[0]  | (uint16_t) calibDataLow[1] << 8;
 311              		.loc 1 107 0
 312 0034 3B7B     		ldrb	r3, [r7, #12]	@ zero_extendqisi2
 313 0036 1AB2     		sxth	r2, r3
 314 0038 7B7B     		ldrb	r3, [r7, #13]	@ zero_extendqisi2
 315 003a 1B02     		lsls	r3, r3, #8
 316 003c 1BB2     		sxth	r3, r3
 317 003e 1343     		orrs	r3, r3, r2
 318 0040 1BB2     		sxth	r3, r3
 319 0042 9AB2     		uxth	r2, r3
 320 0044 4F4B     		ldr	r3, .L15
 321 0046 9A81     		strh	r2, [r3, #12]	@ movhi
 108:rhea\drivers\BME280/BME280.c ****     BME280_RegistersLocal.dig_T2 = (int16_t)  calibDataLow[2]  | (int16_t)  calibDataLow[3] << 8;
 322              		.loc 1 108 0
 323 0048 BB7B     		ldrb	r3, [r7, #14]	@ zero_extendqisi2
 324 004a 1AB2     		sxth	r2, r3
 325 004c FB7B     		ldrb	r3, [r7, #15]	@ zero_extendqisi2
 326 004e 1B02     		lsls	r3, r3, #8
 327 0050 1BB2     		sxth	r3, r3
 328 0052 1343     		orrs	r3, r3, r2
 329 0054 1AB2     		sxth	r2, r3
 330 0056 4B4B     		ldr	r3, .L15
 331 0058 DA81     		strh	r2, [r3, #14]	@ movhi
 109:rhea\drivers\BME280/BME280.c ****     BME280_RegistersLocal.dig_T3 = (int16_t)  calibDataLow[4]  | (int16_t)  calibDataLow[5] << 8;
 332              		.loc 1 109 0
 333 005a 3B7C     		ldrb	r3, [r7, #16]	@ zero_extendqisi2
 334 005c 1AB2     		sxth	r2, r3
 335 005e 7B7C     		ldrb	r3, [r7, #17]	@ zero_extendqisi2
 336 0060 1B02     		lsls	r3, r3, #8
ARM GAS  C:\Users\GYULAI~1\AppData\Local\Temp\cc8y56XJ.s 			page 9


 337 0062 1BB2     		sxth	r3, r3
 338 0064 1343     		orrs	r3, r3, r2
 339 0066 1AB2     		sxth	r2, r3
 340 0068 464B     		ldr	r3, .L15
 341 006a 1A82     		strh	r2, [r3, #16]	@ movhi
 110:rhea\drivers\BME280/BME280.c **** 
 111:rhea\drivers\BME280/BME280.c ****     // Setting pressure compensation parameters
 112:rhea\drivers\BME280/BME280.c ****     BME280_RegistersLocal.dig_P1 = (uint16_t) calibDataLow[6]  | (uint16_t) calibDataLow[7] << 8;
 342              		.loc 1 112 0
 343 006c BB7C     		ldrb	r3, [r7, #18]	@ zero_extendqisi2
 344 006e 1AB2     		sxth	r2, r3
 345 0070 FB7C     		ldrb	r3, [r7, #19]	@ zero_extendqisi2
 346 0072 1B02     		lsls	r3, r3, #8
 347 0074 1BB2     		sxth	r3, r3
 348 0076 1343     		orrs	r3, r3, r2
 349 0078 1BB2     		sxth	r3, r3
 350 007a 9AB2     		uxth	r2, r3
 351 007c 414B     		ldr	r3, .L15
 352 007e 5A82     		strh	r2, [r3, #18]	@ movhi
 113:rhea\drivers\BME280/BME280.c ****     BME280_RegistersLocal.dig_P2 = (int16_t)  calibDataLow[8]  | (int16_t)  calibDataLow[9] << 8;
 353              		.loc 1 113 0
 354 0080 3B7D     		ldrb	r3, [r7, #20]	@ zero_extendqisi2
 355 0082 1AB2     		sxth	r2, r3
 356 0084 7B7D     		ldrb	r3, [r7, #21]	@ zero_extendqisi2
 357 0086 1B02     		lsls	r3, r3, #8
 358 0088 1BB2     		sxth	r3, r3
 359 008a 1343     		orrs	r3, r3, r2
 360 008c 1AB2     		sxth	r2, r3
 361 008e 3D4B     		ldr	r3, .L15
 362 0090 9A82     		strh	r2, [r3, #20]	@ movhi
 114:rhea\drivers\BME280/BME280.c ****     BME280_RegistersLocal.dig_P3 = (int16_t)  calibDataLow[10] | (int16_t)  calibDataLow[11] << 8;
 363              		.loc 1 114 0
 364 0092 BB7D     		ldrb	r3, [r7, #22]	@ zero_extendqisi2
 365 0094 1AB2     		sxth	r2, r3
 366 0096 FB7D     		ldrb	r3, [r7, #23]	@ zero_extendqisi2
 367 0098 1B02     		lsls	r3, r3, #8
 368 009a 1BB2     		sxth	r3, r3
 369 009c 1343     		orrs	r3, r3, r2
 370 009e 1AB2     		sxth	r2, r3
 371 00a0 384B     		ldr	r3, .L15
 372 00a2 DA82     		strh	r2, [r3, #22]	@ movhi
 115:rhea\drivers\BME280/BME280.c ****     BME280_RegistersLocal.dig_P4 = (int16_t)  calibDataLow[12] | (int16_t)  calibDataLow[13] << 8;
 373              		.loc 1 115 0
 374 00a4 3B7E     		ldrb	r3, [r7, #24]	@ zero_extendqisi2
 375 00a6 1AB2     		sxth	r2, r3
 376 00a8 7B7E     		ldrb	r3, [r7, #25]	@ zero_extendqisi2
 377 00aa 1B02     		lsls	r3, r3, #8
 378 00ac 1BB2     		sxth	r3, r3
 379 00ae 1343     		orrs	r3, r3, r2
 380 00b0 1AB2     		sxth	r2, r3
 381 00b2 344B     		ldr	r3, .L15
 382 00b4 1A83     		strh	r2, [r3, #24]	@ movhi
 116:rhea\drivers\BME280/BME280.c ****     BME280_RegistersLocal.dig_P5 = (int16_t)  calibDataLow[14] | (int16_t)  calibDataLow[15] << 8;
 383              		.loc 1 116 0
 384 00b6 BB7E     		ldrb	r3, [r7, #26]	@ zero_extendqisi2
 385 00b8 1AB2     		sxth	r2, r3
 386 00ba FB7E     		ldrb	r3, [r7, #27]	@ zero_extendqisi2
ARM GAS  C:\Users\GYULAI~1\AppData\Local\Temp\cc8y56XJ.s 			page 10


 387 00bc 1B02     		lsls	r3, r3, #8
 388 00be 1BB2     		sxth	r3, r3
 389 00c0 1343     		orrs	r3, r3, r2
 390 00c2 1AB2     		sxth	r2, r3
 391 00c4 2F4B     		ldr	r3, .L15
 392 00c6 5A83     		strh	r2, [r3, #26]	@ movhi
 117:rhea\drivers\BME280/BME280.c ****     BME280_RegistersLocal.dig_P6 = (int16_t)  calibDataLow[16] | (int16_t)  calibDataLow[17] << 8;
 393              		.loc 1 117 0
 394 00c8 3B7F     		ldrb	r3, [r7, #28]	@ zero_extendqisi2
 395 00ca 1AB2     		sxth	r2, r3
 396 00cc 7B7F     		ldrb	r3, [r7, #29]	@ zero_extendqisi2
 397 00ce 1B02     		lsls	r3, r3, #8
 398 00d0 1BB2     		sxth	r3, r3
 399 00d2 1343     		orrs	r3, r3, r2
 400 00d4 1AB2     		sxth	r2, r3
 401 00d6 2B4B     		ldr	r3, .L15
 402 00d8 9A83     		strh	r2, [r3, #28]	@ movhi
 118:rhea\drivers\BME280/BME280.c ****     BME280_RegistersLocal.dig_P7 = (int16_t)  calibDataLow[18] | (int16_t)  calibDataLow[19] << 8;
 403              		.loc 1 118 0
 404 00da BB7F     		ldrb	r3, [r7, #30]	@ zero_extendqisi2
 405 00dc 1AB2     		sxth	r2, r3
 406 00de FB7F     		ldrb	r3, [r7, #31]	@ zero_extendqisi2
 407 00e0 1B02     		lsls	r3, r3, #8
 408 00e2 1BB2     		sxth	r3, r3
 409 00e4 1343     		orrs	r3, r3, r2
 410 00e6 1AB2     		sxth	r2, r3
 411 00e8 264B     		ldr	r3, .L15
 412 00ea DA83     		strh	r2, [r3, #30]	@ movhi
 119:rhea\drivers\BME280/BME280.c ****     BME280_RegistersLocal.dig_P8 = (int16_t)  calibDataLow[20] | (int16_t)  calibDataLow[21] << 8;
 413              		.loc 1 119 0
 414 00ec 97F82030 		ldrb	r3, [r7, #32]	@ zero_extendqisi2
 415 00f0 1AB2     		sxth	r2, r3
 416 00f2 97F82130 		ldrb	r3, [r7, #33]	@ zero_extendqisi2
 417 00f6 1B02     		lsls	r3, r3, #8
 418 00f8 1BB2     		sxth	r3, r3
 419 00fa 1343     		orrs	r3, r3, r2
 420 00fc 1AB2     		sxth	r2, r3
 421 00fe 214B     		ldr	r3, .L15
 422 0100 1A84     		strh	r2, [r3, #32]	@ movhi
 120:rhea\drivers\BME280/BME280.c ****     BME280_RegistersLocal.dig_P9 = (int16_t)  calibDataLow[22] | (int16_t)  calibDataLow[23] << 8;
 423              		.loc 1 120 0
 424 0102 97F82230 		ldrb	r3, [r7, #34]	@ zero_extendqisi2
 425 0106 1AB2     		sxth	r2, r3
 426 0108 97F82330 		ldrb	r3, [r7, #35]	@ zero_extendqisi2
 427 010c 1B02     		lsls	r3, r3, #8
 428 010e 1BB2     		sxth	r3, r3
 429 0110 1343     		orrs	r3, r3, r2
 430 0112 1AB2     		sxth	r2, r3
 431 0114 1B4B     		ldr	r3, .L15
 432 0116 5A84     		strh	r2, [r3, #34]	@ movhi
 121:rhea\drivers\BME280/BME280.c **** 
 122:rhea\drivers\BME280/BME280.c ****     // Setting humidity compensation parameters
 123:rhea\drivers\BME280/BME280.c ****     BME280_RegistersLocal.dig_H1 = (uint8_t)  calibDataLow[25];
 433              		.loc 1 123 0
 434 0118 97F82520 		ldrb	r2, [r7, #37]	@ zero_extendqisi2
 435 011c 194B     		ldr	r3, .L15
 436 011e 83F82420 		strb	r2, [r3, #36]
ARM GAS  C:\Users\GYULAI~1\AppData\Local\Temp\cc8y56XJ.s 			page 11


 124:rhea\drivers\BME280/BME280.c ****     BME280_RegistersLocal.dig_H2 = (int16_t)  calibDataHigh[0]         | (int16_t) calibDataHigh[1]
 437              		.loc 1 124 0
 438 0122 3B79     		ldrb	r3, [r7, #4]	@ zero_extendqisi2
 439 0124 1AB2     		sxth	r2, r3
 440 0126 7B79     		ldrb	r3, [r7, #5]	@ zero_extendqisi2
 441 0128 1B02     		lsls	r3, r3, #8
 442 012a 1BB2     		sxth	r3, r3
 443 012c 1343     		orrs	r3, r3, r2
 444 012e 1AB2     		sxth	r2, r3
 445 0130 144B     		ldr	r3, .L15
 446 0132 A3F82520 		strh	r2, [r3, #37]	@ unaligned
 125:rhea\drivers\BME280/BME280.c ****     BME280_RegistersLocal.dig_H3 = (uint8_t)  calibDataHigh[2];
 447              		.loc 1 125 0
 448 0136 BA79     		ldrb	r2, [r7, #6]	@ zero_extendqisi2
 449 0138 124B     		ldr	r3, .L15
 450 013a 83F82720 		strb	r2, [r3, #39]
 126:rhea\drivers\BME280/BME280.c ****     BME280_RegistersLocal.dig_H4 = (int16_t) (calibDataHigh[4] | 0x0F) | (int16_t) calibDataHigh[3]
 451              		.loc 1 126 0
 452 013e 3B7A     		ldrb	r3, [r7, #8]	@ zero_extendqisi2
 453 0140 43F00F03 		orr	r3, r3, #15
 454 0144 DBB2     		uxtb	r3, r3
 455 0146 1AB2     		sxth	r2, r3
 456 0148 FB79     		ldrb	r3, [r7, #7]	@ zero_extendqisi2
 457 014a 1B01     		lsls	r3, r3, #4
 458 014c 1BB2     		sxth	r3, r3
 459 014e 1343     		orrs	r3, r3, r2
 460 0150 1AB2     		sxth	r2, r3
 461 0152 0C4B     		ldr	r3, .L15
 462 0154 1A85     		strh	r2, [r3, #40]	@ movhi
 127:rhea\drivers\BME280/BME280.c ****     BME280_RegistersLocal.dig_H5 = (int16_t) (calibDataHigh[4] | 0xF0) | (int16_t) calibDataHigh[5]
 463              		.loc 1 127 0
 464 0156 3B7A     		ldrb	r3, [r7, #8]	@ zero_extendqisi2
 465 0158 63F00F03 		orn	r3, r3, #15
 466 015c DBB2     		uxtb	r3, r3
 467 015e 1AB2     		sxth	r2, r3
 468 0160 7B7A     		ldrb	r3, [r7, #9]	@ zero_extendqisi2
 469 0162 1B01     		lsls	r3, r3, #4
 470 0164 1BB2     		sxth	r3, r3
 471 0166 1343     		orrs	r3, r3, r2
 472 0168 1AB2     		sxth	r2, r3
 473 016a 064B     		ldr	r3, .L15
 474 016c 5A85     		strh	r2, [r3, #42]	@ movhi
 128:rhea\drivers\BME280/BME280.c ****     BME280_RegistersLocal.dig_H6 = (int8_t)   calibDataHigh[6];
 475              		.loc 1 128 0
 476 016e BB7A     		ldrb	r3, [r7, #10]	@ zero_extendqisi2
 477 0170 5AB2     		sxtb	r2, r3
 478 0172 044B     		ldr	r3, .L15
 479 0174 83F82C20 		strb	r2, [r3, #44]
 129:rhea\drivers\BME280/BME280.c **** 
 130:rhea\drivers\BME280/BME280.c ****     // Performing software reset
 131:rhea\drivers\BME280/BME280.c ****     BME280_Reset();
 480              		.loc 1 131 0
 481 0178 FFF7FEFF 		bl	BME280_Reset
 132:rhea\drivers\BME280/BME280.c **** }
 482              		.loc 1 132 0
 483 017c 00BF     		nop
 484 017e 2837     		adds	r7, r7, #40
ARM GAS  C:\Users\GYULAI~1\AppData\Local\Temp\cc8y56XJ.s 			page 12


 485              		.cfi_def_cfa_offset 8
 486 0180 BD46     		mov	sp, r7
 487              		.cfi_def_cfa_register 13
 488              		@ sp needed
 489 0182 80BD     		pop	{r7, pc}
 490              	.L16:
 491              		.align	2
 492              	.L15:
 493 0184 10000000 		.word	BME280_RegistersLocal
 494              		.cfi_endproc
 495              	.LFE3:
 496              		.size	BME280_Init, .-BME280_Init
 497              		.section	.text.BME280_Reset,"ax",%progbits
 498              		.align	2
 499              		.global	BME280_Reset
 500              		.thumb
 501              		.thumb_func
 502              		.type	BME280_Reset, %function
 503              	BME280_Reset:
 504              	.LFB4:
 133:rhea\drivers\BME280/BME280.c **** 
 134:rhea\drivers\BME280/BME280.c **** void BME280_Reset(void) {
 505              		.loc 1 134 0
 506              		.cfi_startproc
 507              		@ args = 0, pretend = 0, frame = 8
 508              		@ frame_needed = 1, uses_anonymous_args = 0
 509 0000 80B5     		push	{r7, lr}
 510              		.cfi_def_cfa_offset 8
 511              		.cfi_offset 7, -8
 512              		.cfi_offset 14, -4
 513 0002 82B0     		sub	sp, sp, #8
 514              		.cfi_def_cfa_offset 16
 515 0004 00AF     		add	r7, sp, #0
 516              		.cfi_def_cfa_register 7
 135:rhea\drivers\BME280/BME280.c **** 
 136:rhea\drivers\BME280/BME280.c ****     // Writing reset word to RESET register
 137:rhea\drivers\BME280/BME280.c ****     const uint8_t resetWord = BME280_RESET_WORD;
 517              		.loc 1 137 0
 518 0006 B623     		movs	r3, #182
 519 0008 FB71     		strb	r3, [r7, #7]
 138:rhea\drivers\BME280/BME280.c ****     BME280_I2CWriter(BME280_I2C_ADDR, BME280_RESET, &resetWord, 1);
 520              		.loc 1 138 0
 521 000a FA1D     		adds	r2, r7, #7
 522 000c 0123     		movs	r3, #1
 523 000e E021     		movs	r1, #224
 524 0010 7620     		movs	r0, #118
 525 0012 FFF7FEFF 		bl	BME280_I2CWriter
 139:rhea\drivers\BME280/BME280.c **** }
 526              		.loc 1 139 0
 527 0016 00BF     		nop
 528 0018 0837     		adds	r7, r7, #8
 529              		.cfi_def_cfa_offset 8
 530 001a BD46     		mov	sp, r7
 531              		.cfi_def_cfa_register 13
 532              		@ sp needed
 533 001c 80BD     		pop	{r7, pc}
 534              		.cfi_endproc
ARM GAS  C:\Users\GYULAI~1\AppData\Local\Temp\cc8y56XJ.s 			page 13


 535              	.LFE4:
 536              		.size	BME280_Reset, .-BME280_Reset
 537 001e 00BF     		.section	.text.BME280_ReadRegisters,"ax",%progbits
 538              		.align	2
 539              		.global	BME280_ReadRegisters
 540              		.thumb
 541              		.thumb_func
 542              		.type	BME280_ReadRegisters, %function
 543              	BME280_ReadRegisters:
 544              	.LFB5:
 140:rhea\drivers\BME280/BME280.c **** 
 141:rhea\drivers\BME280/BME280.c **** void BME280_ReadRegisters(void) {
 545              		.loc 1 141 0
 546              		.cfi_startproc
 547              		@ args = 0, pretend = 0, frame = 0
 548              		@ frame_needed = 1, uses_anonymous_args = 0
 549 0000 80B5     		push	{r7, lr}
 550              		.cfi_def_cfa_offset 8
 551              		.cfi_offset 7, -8
 552              		.cfi_offset 14, -4
 553 0002 00AF     		add	r7, sp, #0
 554              		.cfi_def_cfa_register 7
 142:rhea\drivers\BME280/BME280.c **** 
 143:rhea\drivers\BME280/BME280.c ****     // Reading measurement registers [F7-FE]
 144:rhea\drivers\BME280/BME280.c ****     BME280_I2CReader(BME280_I2C_ADDR, BME280_PRESS_MSB, (uint8_t*) &BME280_RegistersLocal.PRESS_MSB
 555              		.loc 1 144 0
 556 0004 0823     		movs	r3, #8
 557 0006 064A     		ldr	r2, .L19
 558 0008 F721     		movs	r1, #247
 559 000a 7620     		movs	r0, #118
 560 000c FFF7FEFF 		bl	BME280_I2CReader
 145:rhea\drivers\BME280/BME280.c **** 
 146:rhea\drivers\BME280/BME280.c ****     // Reading configuration registers [F2-F5]
 147:rhea\drivers\BME280/BME280.c ****     BME280_I2CReader(BME280_I2C_ADDR, BME280_CTRL_HUM, (uint8_t*) &BME280_RegistersLocal.CTRL_HUM, 
 561              		.loc 1 147 0
 562 0010 0423     		movs	r3, #4
 563 0012 044A     		ldr	r2, .L19+4
 564 0014 F221     		movs	r1, #242
 565 0016 7620     		movs	r0, #118
 566 0018 FFF7FEFF 		bl	BME280_I2CReader
 148:rhea\drivers\BME280/BME280.c **** }
 567              		.loc 1 148 0
 568 001c 00BF     		nop
 569 001e 80BD     		pop	{r7, pc}
 570              	.L20:
 571              		.align	2
 572              	.L19:
 573 0020 10000000 		.word	BME280_RegistersLocal
 574 0024 18000000 		.word	BME280_RegistersLocal+8
 575              		.cfi_endproc
 576              	.LFE5:
 577              		.size	BME280_ReadRegisters, .-BME280_ReadRegisters
 578              		.section	.text.BME280_WriteRegisters,"ax",%progbits
 579              		.align	2
 580              		.global	BME280_WriteRegisters
 581              		.thumb
 582              		.thumb_func
ARM GAS  C:\Users\GYULAI~1\AppData\Local\Temp\cc8y56XJ.s 			page 14


 583              		.type	BME280_WriteRegisters, %function
 584              	BME280_WriteRegisters:
 585              	.LFB6:
 149:rhea\drivers\BME280/BME280.c **** 
 150:rhea\drivers\BME280/BME280.c **** void BME280_WriteRegisters(void) {
 586              		.loc 1 150 0
 587              		.cfi_startproc
 588              		@ args = 0, pretend = 0, frame = 0
 589              		@ frame_needed = 1, uses_anonymous_args = 0
 590 0000 80B5     		push	{r7, lr}
 591              		.cfi_def_cfa_offset 8
 592              		.cfi_offset 7, -8
 593              		.cfi_offset 14, -4
 594 0002 00AF     		add	r7, sp, #0
 595              		.cfi_def_cfa_register 7
 151:rhea\drivers\BME280/BME280.c **** 
 152:rhea\drivers\BME280/BME280.c ****     // Writing configuration registers [F2-F5]
 153:rhea\drivers\BME280/BME280.c ****     BME280_I2CWriter(BME280_I2C_ADDR, BME280_CTRL_HUM, (const uint8_t*) &BME280_RegistersLocal.CTRL
 596              		.loc 1 153 0
 597 0004 0423     		movs	r3, #4
 598 0006 034A     		ldr	r2, .L22
 599 0008 F221     		movs	r1, #242
 600 000a 7620     		movs	r0, #118
 601 000c FFF7FEFF 		bl	BME280_I2CWriter
 154:rhea\drivers\BME280/BME280.c **** }
 602              		.loc 1 154 0
 603 0010 00BF     		nop
 604 0012 80BD     		pop	{r7, pc}
 605              	.L23:
 606              		.align	2
 607              	.L22:
 608 0014 18000000 		.word	BME280_RegistersLocal+8
 609              		.cfi_endproc
 610              	.LFE6:
 611              		.size	BME280_WriteRegisters, .-BME280_WriteRegisters
 612              		.section	.text.BME280_GetLocalRegisters,"ax",%progbits
 613              		.align	2
 614              		.global	BME280_GetLocalRegisters
 615              		.thumb
 616              		.thumb_func
 617              		.type	BME280_GetLocalRegisters, %function
 618              	BME280_GetLocalRegisters:
 619              	.LFB7:
 155:rhea\drivers\BME280/BME280.c **** 
 156:rhea\drivers\BME280/BME280.c **** BME280_RegisterStruct* BME280_GetLocalRegisters(void) {
 620              		.loc 1 156 0
 621              		.cfi_startproc
 622              		@ args = 0, pretend = 0, frame = 0
 623              		@ frame_needed = 1, uses_anonymous_args = 0
 624              		@ link register save eliminated.
 625 0000 80B4     		push	{r7}
 626              		.cfi_def_cfa_offset 4
 627              		.cfi_offset 7, -4
 628 0002 00AF     		add	r7, sp, #0
 629              		.cfi_def_cfa_register 7
 157:rhea\drivers\BME280/BME280.c ****     return &BME280_RegistersLocal;   
 630              		.loc 1 157 0
ARM GAS  C:\Users\GYULAI~1\AppData\Local\Temp\cc8y56XJ.s 			page 15


 631 0004 024B     		ldr	r3, .L26
 158:rhea\drivers\BME280/BME280.c **** }
 632              		.loc 1 158 0
 633 0006 1846     		mov	r0, r3
 634 0008 BD46     		mov	sp, r7
 635              		.cfi_def_cfa_register 13
 636              		@ sp needed
 637 000a 80BC     		pop	{r7}
 638              		.cfi_restore 7
 639              		.cfi_def_cfa_offset 0
 640 000c 7047     		bx	lr
 641              	.L27:
 642 000e 00BF     		.align	2
 643              	.L26:
 644 0010 10000000 		.word	BME280_RegistersLocal
 645              		.cfi_endproc
 646              	.LFE7:
 647              		.size	BME280_GetLocalRegisters, .-BME280_GetLocalRegisters
 648              		.global	__aeabi_ui2d
 649              		.global	__aeabi_ddiv
 650              		.global	__aeabi_dsub
 651              		.global	__aeabi_i2d
 652              		.global	__aeabi_dmul
 653              		.global	__aeabi_dadd
 654              		.global	__aeabi_d2iz
 655              		.global	__aeabi_dcmplt
 656              		.global	__aeabi_dcmpgt
 657              		.section	.text.BME280_GetTemperatureCelsius,"ax",%progbits
 658              		.align	2
 659              		.global	BME280_GetTemperatureCelsius
 660              		.thumb
 661              		.thumb_func
 662              		.type	BME280_GetTemperatureCelsius, %function
 663              	BME280_GetTemperatureCelsius:
 664              	.LFB8:
 159:rhea\drivers\BME280/BME280.c **** 
 160:rhea\drivers\BME280/BME280.c **** int8_t BME280_GetTemperatureCelsius(uint8_t readNow) {
 665              		.loc 1 160 0
 666              		.cfi_startproc
 667              		@ args = 0, pretend = 0, frame = 56
 668              		@ frame_needed = 1, uses_anonymous_args = 0
 669 0000 B0B5     		push	{r4, r5, r7, lr}
 670              		.cfi_def_cfa_offset 16
 671              		.cfi_offset 4, -16
 672              		.cfi_offset 5, -12
 673              		.cfi_offset 7, -8
 674              		.cfi_offset 14, -4
 675 0002 8EB0     		sub	sp, sp, #56
 676              		.cfi_def_cfa_offset 72
 677 0004 00AF     		add	r7, sp, #0
 678              		.cfi_def_cfa_register 7
 679 0006 0346     		mov	r3, r0
 680 0008 FB71     		strb	r3, [r7, #7]
 161:rhea\drivers\BME280/BME280.c **** 
 162:rhea\drivers\BME280/BME280.c ****     // Loading measurements registers from the device
 163:rhea\drivers\BME280/BME280.c ****     if(readNow) BME280_ReadRegisters();
 681              		.loc 1 163 0
ARM GAS  C:\Users\GYULAI~1\AppData\Local\Temp\cc8y56XJ.s 			page 16


 682 000a FB79     		ldrb	r3, [r7, #7]	@ zero_extendqisi2
 683 000c 002B     		cmp	r3, #0
 684 000e 01D0     		beq	.L29
 685              		.loc 1 163 0 is_stmt 0 discriminator 1
 686 0010 FFF7FEFF 		bl	BME280_ReadRegisters
 687              	.L29:
 164:rhea\drivers\BME280/BME280.c ****     
 165:rhea\drivers\BME280/BME280.c ****     // Preparing measurement register data
 166:rhea\drivers\BME280/BME280.c ****     uint32_t regData = BME280_RegistersLocal.TEMP_XLSB >> 4 | 
 688              		.loc 1 166 0 is_stmt 1
 689 0014 664B     		ldr	r3, .L38
 690 0016 5B79     		ldrb	r3, [r3, #5]	@ zero_extendqisi2
 691 0018 1B09     		lsrs	r3, r3, #4
 692 001a DBB2     		uxtb	r3, r3
 693 001c 1A46     		mov	r2, r3
 167:rhea\drivers\BME280/BME280.c ****                        BME280_RegistersLocal.TEMP_LSB  << 4 | 
 694              		.loc 1 167 0
 695 001e 644B     		ldr	r3, .L38
 696 0020 1B79     		ldrb	r3, [r3, #4]	@ zero_extendqisi2
 697 0022 1B01     		lsls	r3, r3, #4
 166:rhea\drivers\BME280/BME280.c ****                        BME280_RegistersLocal.TEMP_LSB  << 4 | 
 698              		.loc 1 166 0
 699 0024 1A43     		orrs	r2, r2, r3
 168:rhea\drivers\BME280/BME280.c ****                        BME280_RegistersLocal.TEMP_MSB  << 12;
 700              		.loc 1 168 0
 701 0026 624B     		ldr	r3, .L38
 702 0028 DB78     		ldrb	r3, [r3, #3]	@ zero_extendqisi2
 703 002a 1B03     		lsls	r3, r3, #12
 167:rhea\drivers\BME280/BME280.c ****                        BME280_RegistersLocal.TEMP_LSB  << 4 | 
 704              		.loc 1 167 0
 705 002c 1343     		orrs	r3, r3, r2
 166:rhea\drivers\BME280/BME280.c ****                        BME280_RegistersLocal.TEMP_LSB  << 4 | 
 706              		.loc 1 166 0
 707 002e FB62     		str	r3, [r7, #44]
 169:rhea\drivers\BME280/BME280.c **** 
 170:rhea\drivers\BME280/BME280.c ****     // Compensation algorithm from Bosch Sensortech
 171:rhea\drivers\BME280/BME280.c ****     // https://github.com/BoschSensortec/BME280_driver
 172:rhea\drivers\BME280/BME280.c **** 
 173:rhea\drivers\BME280/BME280.c ****     double var1;
 174:rhea\drivers\BME280/BME280.c ****     double var2;
 175:rhea\drivers\BME280/BME280.c ****     double temperature;
 176:rhea\drivers\BME280/BME280.c ****     double temperature_min = -40;
 708              		.loc 1 176 0
 709 0030 4FF00003 		mov	r3, #0
 710 0034 5F4C     		ldr	r4, .L38+4
 711 0036 C7E90834 		strd	r3, [r7, #32]
 177:rhea\drivers\BME280/BME280.c ****     double temperature_max = 85;
 712              		.loc 1 177 0
 713 003a 4FF00003 		mov	r3, #0
 714 003e 5E4C     		ldr	r4, .L38+8
 715 0040 C7E90634 		strd	r3, [r7, #24]
 178:rhea\drivers\BME280/BME280.c **** 
 179:rhea\drivers\BME280/BME280.c ****     var1 = ((double)regData) / 16384.0 - ((double)BME280_RegistersLocal.dig_T1) / 1024.0;
 716              		.loc 1 179 0
 717 0044 F86A     		ldr	r0, [r7, #44]
 718 0046 FFF7FEFF 		bl	__aeabi_ui2d
 719 004a 4FF00002 		mov	r2, #0
ARM GAS  C:\Users\GYULAI~1\AppData\Local\Temp\cc8y56XJ.s 			page 17


 720 004e 5B4B     		ldr	r3, .L38+12
 721 0050 FFF7FEFF 		bl	__aeabi_ddiv
 722 0054 0346     		mov	r3, r0
 723 0056 0C46     		mov	r4, r1
 724 0058 2546     		mov	r5, r4
 725 005a 1C46     		mov	r4, r3
 726 005c 544B     		ldr	r3, .L38
 727 005e 9B89     		ldrh	r3, [r3, #12]
 728 0060 1846     		mov	r0, r3
 729 0062 FFF7FEFF 		bl	__aeabi_ui2d
 730 0066 4FF00002 		mov	r2, #0
 731 006a 554B     		ldr	r3, .L38+16
 732 006c FFF7FEFF 		bl	__aeabi_ddiv
 733 0070 0246     		mov	r2, r0
 734 0072 0B46     		mov	r3, r1
 735 0074 2046     		mov	r0, r4
 736 0076 2946     		mov	r1, r5
 737 0078 FFF7FEFF 		bl	__aeabi_dsub
 738 007c 0346     		mov	r3, r0
 739 007e 0C46     		mov	r4, r1
 740 0080 C7E90434 		strd	r3, [r7, #16]
 180:rhea\drivers\BME280/BME280.c ****     var1 = var1 * ((double)BME280_RegistersLocal.dig_T2);
 741              		.loc 1 180 0
 742 0084 4A4B     		ldr	r3, .L38
 743 0086 B3F90E30 		ldrsh	r3, [r3, #14]
 744 008a 1846     		mov	r0, r3
 745 008c FFF7FEFF 		bl	__aeabi_i2d
 746 0090 0346     		mov	r3, r0
 747 0092 0C46     		mov	r4, r1
 748 0094 1A46     		mov	r2, r3
 749 0096 2346     		mov	r3, r4
 750 0098 D7E90401 		ldrd	r0, [r7, #16]
 751 009c FFF7FEFF 		bl	__aeabi_dmul
 752 00a0 0346     		mov	r3, r0
 753 00a2 0C46     		mov	r4, r1
 754 00a4 C7E90434 		strd	r3, [r7, #16]
 181:rhea\drivers\BME280/BME280.c ****     var2 = (((double)regData) / 131072.0 - ((double)BME280_RegistersLocal.dig_T1) / 8192.0);
 755              		.loc 1 181 0
 756 00a8 F86A     		ldr	r0, [r7, #44]
 757 00aa FFF7FEFF 		bl	__aeabi_ui2d
 758 00ae 4FF00002 		mov	r2, #0
 759 00b2 4FF08243 		mov	r3, #1090519040
 760 00b6 FFF7FEFF 		bl	__aeabi_ddiv
 761 00ba 0346     		mov	r3, r0
 762 00bc 0C46     		mov	r4, r1
 763 00be 2546     		mov	r5, r4
 764 00c0 1C46     		mov	r4, r3
 765 00c2 3B4B     		ldr	r3, .L38
 766 00c4 9B89     		ldrh	r3, [r3, #12]
 767 00c6 1846     		mov	r0, r3
 768 00c8 FFF7FEFF 		bl	__aeabi_ui2d
 769 00cc 4FF00002 		mov	r2, #0
 770 00d0 3C4B     		ldr	r3, .L38+20
 771 00d2 FFF7FEFF 		bl	__aeabi_ddiv
 772 00d6 0246     		mov	r2, r0
 773 00d8 0B46     		mov	r3, r1
 774 00da 2046     		mov	r0, r4
ARM GAS  C:\Users\GYULAI~1\AppData\Local\Temp\cc8y56XJ.s 			page 18


 775 00dc 2946     		mov	r1, r5
 776 00de FFF7FEFF 		bl	__aeabi_dsub
 777 00e2 0346     		mov	r3, r0
 778 00e4 0C46     		mov	r4, r1
 779 00e6 C7E90234 		strd	r3, [r7, #8]
 182:rhea\drivers\BME280/BME280.c ****     var2 = (var2 * var2) * ((double)BME280_RegistersLocal.dig_T3);
 780              		.loc 1 182 0
 781 00ea D7E90223 		ldrd	r2, [r7, #8]
 782 00ee D7E90201 		ldrd	r0, [r7, #8]
 783 00f2 FFF7FEFF 		bl	__aeabi_dmul
 784 00f6 0346     		mov	r3, r0
 785 00f8 0C46     		mov	r4, r1
 786 00fa 2546     		mov	r5, r4
 787 00fc 1C46     		mov	r4, r3
 788 00fe 2C4B     		ldr	r3, .L38
 789 0100 B3F91030 		ldrsh	r3, [r3, #16]
 790 0104 1846     		mov	r0, r3
 791 0106 FFF7FEFF 		bl	__aeabi_i2d
 792 010a 0246     		mov	r2, r0
 793 010c 0B46     		mov	r3, r1
 794 010e 2046     		mov	r0, r4
 795 0110 2946     		mov	r1, r5
 796 0112 FFF7FEFF 		bl	__aeabi_dmul
 797 0116 0346     		mov	r3, r0
 798 0118 0C46     		mov	r4, r1
 799 011a C7E90234 		strd	r3, [r7, #8]
 183:rhea\drivers\BME280/BME280.c ****     BME280_RegistersLocal.t_fine = (int32_t)(var1 + var2);
 800              		.loc 1 183 0
 801 011e D7E90223 		ldrd	r2, [r7, #8]
 802 0122 D7E90401 		ldrd	r0, [r7, #16]
 803 0126 FFF7FEFF 		bl	__aeabi_dadd
 804 012a 0346     		mov	r3, r0
 805 012c 0C46     		mov	r4, r1
 806 012e 1846     		mov	r0, r3
 807 0130 2146     		mov	r1, r4
 808 0132 FFF7FEFF 		bl	__aeabi_d2iz
 809 0136 0246     		mov	r2, r0
 810 0138 1D4B     		ldr	r3, .L38
 811 013a C3F82D20 		str	r2, [r3, #45]	@ unaligned
 184:rhea\drivers\BME280/BME280.c ****     temperature = (var1 + var2) / 5120.0;
 812              		.loc 1 184 0
 813 013e D7E90223 		ldrd	r2, [r7, #8]
 814 0142 D7E90401 		ldrd	r0, [r7, #16]
 815 0146 FFF7FEFF 		bl	__aeabi_dadd
 816 014a 0346     		mov	r3, r0
 817 014c 0C46     		mov	r4, r1
 818 014e 1846     		mov	r0, r3
 819 0150 2146     		mov	r1, r4
 820 0152 4FF00002 		mov	r2, #0
 821 0156 1C4B     		ldr	r3, .L38+24
 822 0158 FFF7FEFF 		bl	__aeabi_ddiv
 823 015c 0346     		mov	r3, r0
 824 015e 0C46     		mov	r4, r1
 825 0160 C7E90C34 		strd	r3, [r7, #48]
 185:rhea\drivers\BME280/BME280.c **** 
 186:rhea\drivers\BME280/BME280.c ****     if      (temperature < temperature_min) temperature = temperature_min;
 826              		.loc 1 186 0
ARM GAS  C:\Users\GYULAI~1\AppData\Local\Temp\cc8y56XJ.s 			page 19


 827 0164 D7E90823 		ldrd	r2, [r7, #32]
 828 0168 D7E90C01 		ldrd	r0, [r7, #48]
 829 016c FFF7FEFF 		bl	__aeabi_dcmplt
 830 0170 0346     		mov	r3, r0
 831 0172 002B     		cmp	r3, #0
 832 0174 04D0     		beq	.L37
 833              		.loc 1 186 0 is_stmt 0 discriminator 1
 834 0176 D7E90834 		ldrd	r3, [r7, #32]
 835 017a C7E90C34 		strd	r3, [r7, #48]
 836 017e 0CE0     		b	.L32
 837              	.L37:
 187:rhea\drivers\BME280/BME280.c ****     else if (temperature > temperature_max) temperature = temperature_max;
 838              		.loc 1 187 0 is_stmt 1
 839 0180 D7E90623 		ldrd	r2, [r7, #24]
 840 0184 D7E90C01 		ldrd	r0, [r7, #48]
 841 0188 FFF7FEFF 		bl	__aeabi_dcmpgt
 842 018c 0346     		mov	r3, r0
 843 018e 002B     		cmp	r3, #0
 844 0190 03D0     		beq	.L32
 845              		.loc 1 187 0 is_stmt 0 discriminator 1
 846 0192 D7E90634 		ldrd	r3, [r7, #24]
 847 0196 C7E90C34 		strd	r3, [r7, #48]
 848              	.L32:
 188:rhea\drivers\BME280/BME280.c **** 
 189:rhea\drivers\BME280/BME280.c ****     return temperature;
 849              		.loc 1 189 0 is_stmt 1
 850 019a D7E90C01 		ldrd	r0, [r7, #48]
 851 019e FFF7FEFF 		bl	__aeabi_d2iz
 852 01a2 0346     		mov	r3, r0
 853 01a4 5BB2     		sxtb	r3, r3
 190:rhea\drivers\BME280/BME280.c **** }
 854              		.loc 1 190 0
 855 01a6 1846     		mov	r0, r3
 856 01a8 3837     		adds	r7, r7, #56
 857              		.cfi_def_cfa_offset 16
 858 01aa BD46     		mov	sp, r7
 859              		.cfi_def_cfa_register 13
 860              		@ sp needed
 861 01ac B0BD     		pop	{r4, r5, r7, pc}
 862              	.L39:
 863 01ae 00BF     		.align	2
 864              	.L38:
 865 01b0 10000000 		.word	BME280_RegistersLocal
 866 01b4 000044C0 		.word	-1069285376
 867 01b8 00405540 		.word	1079328768
 868 01bc 0000D040 		.word	1087373312
 869 01c0 00009040 		.word	1083179008
 870 01c4 0000C040 		.word	1086324736
 871 01c8 0000B440 		.word	1085538304
 872              		.cfi_endproc
 873              	.LFE8:
 874              		.size	BME280_GetTemperatureCelsius, .-BME280_GetTemperatureCelsius
 875              		.global	__aeabi_i2f
 876              		.global	__aeabi_fmul
 877              		.global	__aeabi_fadd
 878              		.global	__aeabi_f2iz
 879              		.section	.text.BME280_GetTemperatureFahrenheit,"ax",%progbits
ARM GAS  C:\Users\GYULAI~1\AppData\Local\Temp\cc8y56XJ.s 			page 20


 880              		.align	2
 881              		.global	BME280_GetTemperatureFahrenheit
 882              		.thumb
 883              		.thumb_func
 884              		.type	BME280_GetTemperatureFahrenheit, %function
 885              	BME280_GetTemperatureFahrenheit:
 886              	.LFB9:
 191:rhea\drivers\BME280/BME280.c **** 
 192:rhea\drivers\BME280/BME280.c **** int8_t BME280_GetTemperatureFahrenheit(uint8_t readNow) {
 887              		.loc 1 192 0
 888              		.cfi_startproc
 889              		@ args = 0, pretend = 0, frame = 8
 890              		@ frame_needed = 1, uses_anonymous_args = 0
 891 0000 80B5     		push	{r7, lr}
 892              		.cfi_def_cfa_offset 8
 893              		.cfi_offset 7, -8
 894              		.cfi_offset 14, -4
 895 0002 82B0     		sub	sp, sp, #8
 896              		.cfi_def_cfa_offset 16
 897 0004 00AF     		add	r7, sp, #0
 898              		.cfi_def_cfa_register 7
 899 0006 0346     		mov	r3, r0
 900 0008 FB71     		strb	r3, [r7, #7]
 193:rhea\drivers\BME280/BME280.c **** 
 194:rhea\drivers\BME280/BME280.c ****     // Converting results in degrees Celsius to degrees Fahrenheit
 195:rhea\drivers\BME280/BME280.c ****     return 1.8f * BME280_GetTemperatureCelsius(readNow) + 32;
 901              		.loc 1 195 0
 902 000a FB79     		ldrb	r3, [r7, #7]	@ zero_extendqisi2
 903 000c 1846     		mov	r0, r3
 904 000e FFF7FEFF 		bl	BME280_GetTemperatureCelsius
 905 0012 0346     		mov	r3, r0
 906 0014 1846     		mov	r0, r3
 907 0016 FFF7FEFF 		bl	__aeabi_i2f
 908 001a 0346     		mov	r3, r0
 909 001c 0949     		ldr	r1, .L42
 910 001e 1846     		mov	r0, r3
 911 0020 FFF7FEFF 		bl	__aeabi_fmul
 912 0024 0346     		mov	r3, r0
 913 0026 4FF08441 		mov	r1, #1107296256
 914 002a 1846     		mov	r0, r3
 915 002c FFF7FEFF 		bl	__aeabi_fadd
 916 0030 0346     		mov	r3, r0
 917 0032 1846     		mov	r0, r3
 918 0034 FFF7FEFF 		bl	__aeabi_f2iz
 919 0038 0346     		mov	r3, r0
 920 003a 5BB2     		sxtb	r3, r3
 196:rhea\drivers\BME280/BME280.c **** }
 921              		.loc 1 196 0
 922 003c 1846     		mov	r0, r3
 923 003e 0837     		adds	r7, r7, #8
 924              		.cfi_def_cfa_offset 8
 925 0040 BD46     		mov	sp, r7
 926              		.cfi_def_cfa_register 13
 927              		@ sp needed
 928 0042 80BD     		pop	{r7, pc}
 929              	.L43:
 930              		.align	2
ARM GAS  C:\Users\GYULAI~1\AppData\Local\Temp\cc8y56XJ.s 			page 21


 931              	.L42:
 932 0044 6666E63F 		.word	1072064102
 933              		.cfi_endproc
 934              	.LFE9:
 935              		.size	BME280_GetTemperatureFahrenheit, .-BME280_GetTemperatureFahrenheit
 936              		.global	__aeabi_d2uiz
 937              		.section	.text.BME280_GetPressure,"ax",%progbits
 938              		.align	2
 939              		.global	BME280_GetPressure
 940              		.thumb
 941              		.thumb_func
 942              		.type	BME280_GetPressure, %function
 943              	BME280_GetPressure:
 944              	.LFB10:
 197:rhea\drivers\BME280/BME280.c **** 
 198:rhea\drivers\BME280/BME280.c **** uint32_t BME280_GetPressure(uint8_t readNow) {
 945              		.loc 1 198 0
 946              		.cfi_startproc
 947              		@ args = 0, pretend = 0, frame = 64
 948              		@ frame_needed = 1, uses_anonymous_args = 0
 949 0000 B0B5     		push	{r4, r5, r7, lr}
 950              		.cfi_def_cfa_offset 16
 951              		.cfi_offset 4, -16
 952              		.cfi_offset 5, -12
 953              		.cfi_offset 7, -8
 954              		.cfi_offset 14, -4
 955 0002 90B0     		sub	sp, sp, #64
 956              		.cfi_def_cfa_offset 80
 957 0004 00AF     		add	r7, sp, #0
 958              		.cfi_def_cfa_register 7
 959 0006 0346     		mov	r3, r0
 960 0008 FB71     		strb	r3, [r7, #7]
 199:rhea\drivers\BME280/BME280.c ****     
 200:rhea\drivers\BME280/BME280.c ****     // Loading measurements registers from the device
 201:rhea\drivers\BME280/BME280.c ****     if(readNow) BME280_ReadRegisters();
 961              		.loc 1 201 0
 962 000a FB79     		ldrb	r3, [r7, #7]	@ zero_extendqisi2
 963 000c 002B     		cmp	r3, #0
 964 000e 01D0     		beq	.L45
 965              		.loc 1 201 0 is_stmt 0 discriminator 1
 966 0010 FFF7FEFF 		bl	BME280_ReadRegisters
 967              	.L45:
 202:rhea\drivers\BME280/BME280.c **** 
 203:rhea\drivers\BME280/BME280.c ****     // Preparing measurement register data
 204:rhea\drivers\BME280/BME280.c ****     uint32_t regData = BME280_RegistersLocal.PRESS_XLSB >> 4 | 
 968              		.loc 1 204 0 is_stmt 1
 969 0014 CA4B     		ldr	r3, .L54+24
 970 0016 9B78     		ldrb	r3, [r3, #2]	@ zero_extendqisi2
 971 0018 1B09     		lsrs	r3, r3, #4
 972 001a DBB2     		uxtb	r3, r3
 973 001c 1A46     		mov	r2, r3
 205:rhea\drivers\BME280/BME280.c ****                        BME280_RegistersLocal.PRESS_LSB  << 4 | 
 974              		.loc 1 205 0
 975 001e C84B     		ldr	r3, .L54+24
 976 0020 5B78     		ldrb	r3, [r3, #1]	@ zero_extendqisi2
 977 0022 1B01     		lsls	r3, r3, #4
 204:rhea\drivers\BME280/BME280.c ****                        BME280_RegistersLocal.PRESS_LSB  << 4 | 
ARM GAS  C:\Users\GYULAI~1\AppData\Local\Temp\cc8y56XJ.s 			page 22


 978              		.loc 1 204 0
 979 0024 1A43     		orrs	r2, r2, r3
 206:rhea\drivers\BME280/BME280.c ****                        BME280_RegistersLocal.PRESS_MSB  << 12;
 980              		.loc 1 206 0
 981 0026 C64B     		ldr	r3, .L54+24
 982 0028 1B78     		ldrb	r3, [r3]	@ zero_extendqisi2
 983 002a 1B03     		lsls	r3, r3, #12
 205:rhea\drivers\BME280/BME280.c ****                        BME280_RegistersLocal.PRESS_LSB  << 4 | 
 984              		.loc 1 205 0
 985 002c 1343     		orrs	r3, r3, r2
 204:rhea\drivers\BME280/BME280.c ****                        BME280_RegistersLocal.PRESS_LSB  << 4 | 
 986              		.loc 1 204 0
 987 002e 7B63     		str	r3, [r7, #52]
 207:rhea\drivers\BME280/BME280.c **** 
 208:rhea\drivers\BME280/BME280.c ****     // Compensation algorithm from Bosch Sensortech
 209:rhea\drivers\BME280/BME280.c ****     // https://github.com/BoschSensortec/BME280_driver
 210:rhea\drivers\BME280/BME280.c **** 
 211:rhea\drivers\BME280/BME280.c ****     double var1;
 212:rhea\drivers\BME280/BME280.c ****     double var2;
 213:rhea\drivers\BME280/BME280.c ****     double var3;
 214:rhea\drivers\BME280/BME280.c ****     double pressure;
 215:rhea\drivers\BME280/BME280.c ****     double pressure_min = 30000.0;
 988              		.loc 1 215 0
 989 0030 BDA4     		adr	r4, .L54
 990 0032 D4E90034 		ldrd	r3, [r4]
 991 0036 C7E90A34 		strd	r3, [r7, #40]
 216:rhea\drivers\BME280/BME280.c ****     double pressure_max = 110000.0;
 992              		.loc 1 216 0
 993 003a BDA4     		adr	r4, .L54+8
 994 003c D4E90034 		ldrd	r3, [r4]
 995 0040 C7E90834 		strd	r3, [r7, #32]
 217:rhea\drivers\BME280/BME280.c **** 
 218:rhea\drivers\BME280/BME280.c ****     var1 = ((double)BME280_RegistersLocal.t_fine / 2.0) - 64000.0;
 996              		.loc 1 218 0
 997 0044 BE4B     		ldr	r3, .L54+24
 998 0046 D3F82D30 		ldr	r3, [r3, #45]	@ unaligned
 999 004a 1846     		mov	r0, r3
 1000 004c FFF7FEFF 		bl	__aeabi_i2d
 1001 0050 4FF00002 		mov	r2, #0
 1002 0054 4FF08043 		mov	r3, #1073741824
 1003 0058 FFF7FEFF 		bl	__aeabi_ddiv
 1004 005c 0346     		mov	r3, r0
 1005 005e 0C46     		mov	r4, r1
 1006 0060 1846     		mov	r0, r3
 1007 0062 2146     		mov	r1, r4
 1008 0064 4FF00002 		mov	r2, #0
 1009 0068 B64B     		ldr	r3, .L54+28
 1010 006a FFF7FEFF 		bl	__aeabi_dsub
 1011 006e 0346     		mov	r3, r0
 1012 0070 0C46     		mov	r4, r1
 1013 0072 C7E90634 		strd	r3, [r7, #24]
 219:rhea\drivers\BME280/BME280.c ****     var2 = var1 * var1 * ((double)BME280_RegistersLocal.dig_P6) / 32768.0;
 1014              		.loc 1 219 0
 1015 0076 D7E90623 		ldrd	r2, [r7, #24]
 1016 007a D7E90601 		ldrd	r0, [r7, #24]
 1017 007e FFF7FEFF 		bl	__aeabi_dmul
 1018 0082 0346     		mov	r3, r0
ARM GAS  C:\Users\GYULAI~1\AppData\Local\Temp\cc8y56XJ.s 			page 23


 1019 0084 0C46     		mov	r4, r1
 1020 0086 2546     		mov	r5, r4
 1021 0088 1C46     		mov	r4, r3
 1022 008a AD4B     		ldr	r3, .L54+24
 1023 008c B3F91C30 		ldrsh	r3, [r3, #28]
 1024 0090 1846     		mov	r0, r3
 1025 0092 FFF7FEFF 		bl	__aeabi_i2d
 1026 0096 0246     		mov	r2, r0
 1027 0098 0B46     		mov	r3, r1
 1028 009a 2046     		mov	r0, r4
 1029 009c 2946     		mov	r1, r5
 1030 009e FFF7FEFF 		bl	__aeabi_dmul
 1031 00a2 0346     		mov	r3, r0
 1032 00a4 0C46     		mov	r4, r1
 1033 00a6 1846     		mov	r0, r3
 1034 00a8 2146     		mov	r1, r4
 1035 00aa 4FF00002 		mov	r2, #0
 1036 00ae A64B     		ldr	r3, .L54+32
 1037 00b0 FFF7FEFF 		bl	__aeabi_ddiv
 1038 00b4 0346     		mov	r3, r0
 1039 00b6 0C46     		mov	r4, r1
 1040 00b8 C7E90434 		strd	r3, [r7, #16]
 220:rhea\drivers\BME280/BME280.c ****     var2 = var2 + var1 * ((double)BME280_RegistersLocal.dig_P5) * 2.0;
 1041              		.loc 1 220 0
 1042 00bc A04B     		ldr	r3, .L54+24
 1043 00be B3F91A30 		ldrsh	r3, [r3, #26]
 1044 00c2 1846     		mov	r0, r3
 1045 00c4 FFF7FEFF 		bl	__aeabi_i2d
 1046 00c8 D7E90623 		ldrd	r2, [r7, #24]
 1047 00cc FFF7FEFF 		bl	__aeabi_dmul
 1048 00d0 0346     		mov	r3, r0
 1049 00d2 0C46     		mov	r4, r1
 1050 00d4 1846     		mov	r0, r3
 1051 00d6 2146     		mov	r1, r4
 1052 00d8 0246     		mov	r2, r0
 1053 00da 0B46     		mov	r3, r1
 1054 00dc FFF7FEFF 		bl	__aeabi_dadd
 1055 00e0 0346     		mov	r3, r0
 1056 00e2 0C46     		mov	r4, r1
 1057 00e4 1A46     		mov	r2, r3
 1058 00e6 2346     		mov	r3, r4
 1059 00e8 D7E90401 		ldrd	r0, [r7, #16]
 1060 00ec FFF7FEFF 		bl	__aeabi_dadd
 1061 00f0 0346     		mov	r3, r0
 1062 00f2 0C46     		mov	r4, r1
 1063 00f4 C7E90434 		strd	r3, [r7, #16]
 221:rhea\drivers\BME280/BME280.c ****     var2 = (var2 / 4.0) + (((double)BME280_RegistersLocal.dig_P4) * 65536.0);
 1064              		.loc 1 221 0
 1065 00f8 4FF00002 		mov	r2, #0
 1066 00fc 934B     		ldr	r3, .L54+36
 1067 00fe D7E90401 		ldrd	r0, [r7, #16]
 1068 0102 FFF7FEFF 		bl	__aeabi_ddiv
 1069 0106 0346     		mov	r3, r0
 1070 0108 0C46     		mov	r4, r1
 1071 010a 2546     		mov	r5, r4
 1072 010c 1C46     		mov	r4, r3
 1073 010e 8C4B     		ldr	r3, .L54+24
ARM GAS  C:\Users\GYULAI~1\AppData\Local\Temp\cc8y56XJ.s 			page 24


 1074 0110 B3F91830 		ldrsh	r3, [r3, #24]
 1075 0114 1846     		mov	r0, r3
 1076 0116 FFF7FEFF 		bl	__aeabi_i2d
 1077 011a 4FF00002 		mov	r2, #0
 1078 011e 8C4B     		ldr	r3, .L54+40
 1079 0120 FFF7FEFF 		bl	__aeabi_dmul
 1080 0124 0246     		mov	r2, r0
 1081 0126 0B46     		mov	r3, r1
 1082 0128 2046     		mov	r0, r4
 1083 012a 2946     		mov	r1, r5
 1084 012c FFF7FEFF 		bl	__aeabi_dadd
 1085 0130 0346     		mov	r3, r0
 1086 0132 0C46     		mov	r4, r1
 1087 0134 C7E90434 		strd	r3, [r7, #16]
 222:rhea\drivers\BME280/BME280.c ****     var3 = ((double)BME280_RegistersLocal.dig_P3) * var1 * var1 / 524288.0;
 1088              		.loc 1 222 0
 1089 0138 814B     		ldr	r3, .L54+24
 1090 013a B3F91630 		ldrsh	r3, [r3, #22]
 1091 013e 1846     		mov	r0, r3
 1092 0140 FFF7FEFF 		bl	__aeabi_i2d
 1093 0144 D7E90623 		ldrd	r2, [r7, #24]
 1094 0148 FFF7FEFF 		bl	__aeabi_dmul
 1095 014c 0346     		mov	r3, r0
 1096 014e 0C46     		mov	r4, r1
 1097 0150 1846     		mov	r0, r3
 1098 0152 2146     		mov	r1, r4
 1099 0154 D7E90623 		ldrd	r2, [r7, #24]
 1100 0158 FFF7FEFF 		bl	__aeabi_dmul
 1101 015c 0346     		mov	r3, r0
 1102 015e 0C46     		mov	r4, r1
 1103 0160 1846     		mov	r0, r3
 1104 0162 2146     		mov	r1, r4
 1105 0164 4FF00002 		mov	r2, #0
 1106 0168 7A4B     		ldr	r3, .L54+44
 1107 016a FFF7FEFF 		bl	__aeabi_ddiv
 1108 016e 0346     		mov	r3, r0
 1109 0170 0C46     		mov	r4, r1
 1110 0172 C7E90234 		strd	r3, [r7, #8]
 223:rhea\drivers\BME280/BME280.c ****     var1 = (var3 + ((double)BME280_RegistersLocal.dig_P2) * var1) / 524288.0;
 1111              		.loc 1 223 0
 1112 0176 724B     		ldr	r3, .L54+24
 1113 0178 B3F91430 		ldrsh	r3, [r3, #20]
 1114 017c 1846     		mov	r0, r3
 1115 017e FFF7FEFF 		bl	__aeabi_i2d
 1116 0182 D7E90623 		ldrd	r2, [r7, #24]
 1117 0186 FFF7FEFF 		bl	__aeabi_dmul
 1118 018a 0346     		mov	r3, r0
 1119 018c 0C46     		mov	r4, r1
 1120 018e 1846     		mov	r0, r3
 1121 0190 2146     		mov	r1, r4
 1122 0192 D7E90223 		ldrd	r2, [r7, #8]
 1123 0196 FFF7FEFF 		bl	__aeabi_dadd
 1124 019a 0346     		mov	r3, r0
 1125 019c 0C46     		mov	r4, r1
 1126 019e 1846     		mov	r0, r3
 1127 01a0 2146     		mov	r1, r4
 1128 01a2 4FF00002 		mov	r2, #0
ARM GAS  C:\Users\GYULAI~1\AppData\Local\Temp\cc8y56XJ.s 			page 25


 1129 01a6 6B4B     		ldr	r3, .L54+44
 1130 01a8 FFF7FEFF 		bl	__aeabi_ddiv
 1131 01ac 0346     		mov	r3, r0
 1132 01ae 0C46     		mov	r4, r1
 1133 01b0 C7E90634 		strd	r3, [r7, #24]
 224:rhea\drivers\BME280/BME280.c ****     var1 = (1.0 + var1 / 32768.0) * ((double)BME280_RegistersLocal.dig_P1);
 1134              		.loc 1 224 0
 1135 01b4 4FF00002 		mov	r2, #0
 1136 01b8 634B     		ldr	r3, .L54+32
 1137 01ba D7E90601 		ldrd	r0, [r7, #24]
 1138 01be FFF7FEFF 		bl	__aeabi_ddiv
 1139 01c2 0346     		mov	r3, r0
 1140 01c4 0C46     		mov	r4, r1
 1141 01c6 1846     		mov	r0, r3
 1142 01c8 2146     		mov	r1, r4
 1143 01ca 4FF00002 		mov	r2, #0
 1144 01ce 624B     		ldr	r3, .L54+48
 1145 01d0 FFF7FEFF 		bl	__aeabi_dadd
 1146 01d4 0346     		mov	r3, r0
 1147 01d6 0C46     		mov	r4, r1
 1148 01d8 2546     		mov	r5, r4
 1149 01da 1C46     		mov	r4, r3
 1150 01dc 584B     		ldr	r3, .L54+24
 1151 01de 5B8A     		ldrh	r3, [r3, #18]
 1152 01e0 1846     		mov	r0, r3
 1153 01e2 FFF7FEFF 		bl	__aeabi_ui2d
 1154 01e6 0246     		mov	r2, r0
 1155 01e8 0B46     		mov	r3, r1
 1156 01ea 2046     		mov	r0, r4
 1157 01ec 2946     		mov	r1, r5
 1158 01ee FFF7FEFF 		bl	__aeabi_dmul
 1159 01f2 0346     		mov	r3, r0
 1160 01f4 0C46     		mov	r4, r1
 1161 01f6 C7E90634 		strd	r3, [r7, #24]
 225:rhea\drivers\BME280/BME280.c **** 
 226:rhea\drivers\BME280/BME280.c ****     pressure = 1048576.0 - (double) regData;
 1162              		.loc 1 226 0
 1163 01fa 786B     		ldr	r0, [r7, #52]
 1164 01fc FFF7FEFF 		bl	__aeabi_ui2d
 1165 0200 0346     		mov	r3, r0
 1166 0202 0C46     		mov	r4, r1
 1167 0204 1A46     		mov	r2, r3
 1168 0206 2346     		mov	r3, r4
 1169 0208 4FF00000 		mov	r0, #0
 1170 020c 5349     		ldr	r1, .L54+52
 1171 020e FFF7FEFF 		bl	__aeabi_dsub
 1172 0212 0346     		mov	r3, r0
 1173 0214 0C46     		mov	r4, r1
 1174 0216 C7E90E34 		strd	r3, [r7, #56]
 227:rhea\drivers\BME280/BME280.c ****     pressure = (pressure - (var2 / 4096.0)) * 6250.0 / var1;
 1175              		.loc 1 227 0
 1176 021a 4FF00002 		mov	r2, #0
 1177 021e 504B     		ldr	r3, .L54+56
 1178 0220 D7E90401 		ldrd	r0, [r7, #16]
 1179 0224 FFF7FEFF 		bl	__aeabi_ddiv
 1180 0228 0346     		mov	r3, r0
 1181 022a 0C46     		mov	r4, r1
ARM GAS  C:\Users\GYULAI~1\AppData\Local\Temp\cc8y56XJ.s 			page 26


 1182 022c 1A46     		mov	r2, r3
 1183 022e 2346     		mov	r3, r4
 1184 0230 D7E90E01 		ldrd	r0, [r7, #56]
 1185 0234 FFF7FEFF 		bl	__aeabi_dsub
 1186 0238 0346     		mov	r3, r0
 1187 023a 0C46     		mov	r4, r1
 1188 023c 1846     		mov	r0, r3
 1189 023e 2146     		mov	r1, r4
 1190 0240 3DA3     		adr	r3, .L54+16
 1191 0242 D3E90023 		ldrd	r2, [r3]
 1192 0246 FFF7FEFF 		bl	__aeabi_dmul
 1193 024a 0346     		mov	r3, r0
 1194 024c 0C46     		mov	r4, r1
 1195 024e 1846     		mov	r0, r3
 1196 0250 2146     		mov	r1, r4
 1197 0252 D7E90623 		ldrd	r2, [r7, #24]
 1198 0256 FFF7FEFF 		bl	__aeabi_ddiv
 1199 025a 0346     		mov	r3, r0
 1200 025c 0C46     		mov	r4, r1
 1201 025e C7E90E34 		strd	r3, [r7, #56]
 228:rhea\drivers\BME280/BME280.c ****     var1 = ((double)BME280_RegistersLocal.dig_P9) * pressure * pressure / 2147483648.0;
 1202              		.loc 1 228 0
 1203 0262 374B     		ldr	r3, .L54+24
 1204 0264 B3F92230 		ldrsh	r3, [r3, #34]
 1205 0268 1846     		mov	r0, r3
 1206 026a FFF7FEFF 		bl	__aeabi_i2d
 1207 026e D7E90E23 		ldrd	r2, [r7, #56]
 1208 0272 FFF7FEFF 		bl	__aeabi_dmul
 1209 0276 0346     		mov	r3, r0
 1210 0278 0C46     		mov	r4, r1
 1211 027a 1846     		mov	r0, r3
 1212 027c 2146     		mov	r1, r4
 1213 027e D7E90E23 		ldrd	r2, [r7, #56]
 1214 0282 FFF7FEFF 		bl	__aeabi_dmul
 1215 0286 0346     		mov	r3, r0
 1216 0288 0C46     		mov	r4, r1
 1217 028a 1846     		mov	r0, r3
 1218 028c 2146     		mov	r1, r4
 1219 028e 4FF00002 		mov	r2, #0
 1220 0292 344B     		ldr	r3, .L54+60
 1221 0294 FFF7FEFF 		bl	__aeabi_ddiv
 1222 0298 0346     		mov	r3, r0
 1223 029a 0C46     		mov	r4, r1
 1224 029c C7E90634 		strd	r3, [r7, #24]
 229:rhea\drivers\BME280/BME280.c ****     var2 = pressure * ((double)BME280_RegistersLocal.dig_P8) / 32768.0;
 1225              		.loc 1 229 0
 1226 02a0 274B     		ldr	r3, .L54+24
 1227 02a2 B3F92030 		ldrsh	r3, [r3, #32]
 1228 02a6 1846     		mov	r0, r3
 1229 02a8 FFF7FEFF 		bl	__aeabi_i2d
 1230 02ac D7E90E23 		ldrd	r2, [r7, #56]
 1231 02b0 FFF7FEFF 		bl	__aeabi_dmul
 1232 02b4 0346     		mov	r3, r0
 1233 02b6 0C46     		mov	r4, r1
 1234 02b8 1846     		mov	r0, r3
 1235 02ba 2146     		mov	r1, r4
 1236 02bc 4FF00002 		mov	r2, #0
ARM GAS  C:\Users\GYULAI~1\AppData\Local\Temp\cc8y56XJ.s 			page 27


 1237 02c0 214B     		ldr	r3, .L54+32
 1238 02c2 FFF7FEFF 		bl	__aeabi_ddiv
 1239 02c6 0346     		mov	r3, r0
 1240 02c8 0C46     		mov	r4, r1
 1241 02ca C7E90434 		strd	r3, [r7, #16]
 230:rhea\drivers\BME280/BME280.c ****     pressure = pressure + (var1 + var2 + ((double)BME280_RegistersLocal.dig_P7)) / 16.0;
 1242              		.loc 1 230 0
 1243 02ce D7E90423 		ldrd	r2, [r7, #16]
 1244 02d2 D7E90601 		ldrd	r0, [r7, #24]
 1245 02d6 FFF7FEFF 		bl	__aeabi_dadd
 1246 02da 0346     		mov	r3, r0
 1247 02dc 0C46     		mov	r4, r1
 1248 02de 2546     		mov	r5, r4
 1249 02e0 1C46     		mov	r4, r3
 1250 02e2 174B     		ldr	r3, .L54+24
 1251 02e4 B3F91E30 		ldrsh	r3, [r3, #30]
 1252 02e8 1846     		mov	r0, r3
 1253 02ea FFF7FEFF 		bl	__aeabi_i2d
 1254 02ee 0246     		mov	r2, r0
 1255 02f0 0B46     		mov	r3, r1
 1256 02f2 2046     		mov	r0, r4
 1257 02f4 2946     		mov	r1, r5
 1258 02f6 FFF7FEFF 		bl	__aeabi_dadd
 1259 02fa 0346     		mov	r3, r0
 1260 02fc 0C46     		mov	r4, r1
 1261 02fe 1846     		mov	r0, r3
 1262 0300 2146     		mov	r1, r4
 1263 0302 4FF00002 		mov	r2, #0
 1264 0306 184B     		ldr	r3, .L54+64
 1265 0308 FFF7FEFF 		bl	__aeabi_ddiv
 1266 030c 0346     		mov	r3, r0
 1267 030e 0C46     		mov	r4, r1
 1268 0310 1A46     		mov	r2, r3
 1269 0312 2346     		mov	r3, r4
 1270 0314 D7E90E01 		ldrd	r0, [r7, #56]
 1271 0318 FFF7FEFF 		bl	__aeabi_dadd
 1272 031c 0346     		mov	r3, r0
 1273 031e 0C46     		mov	r4, r1
 1274 0320 C7E90E34 		strd	r3, [r7, #56]
 1275 0324 22E0     		b	.L55
 1276              	.L56:
 1277 0326 00BF     		.align	3
 1278              	.L54:
 1279 0328 00000000 		.word	0
 1280 032c 004CDD40 		.word	1088244736
 1281 0330 00000000 		.word	0
 1282 0334 00DBFA40 		.word	1090181888
 1283 0338 00000000 		.word	0
 1284 033c 006AB840 		.word	1085827584
 1285 0340 10000000 		.word	BME280_RegistersLocal
 1286 0344 0040EF40 		.word	1089421312
 1287 0348 0000E040 		.word	1088421888
 1288 034c 00001040 		.word	1074790400
 1289 0350 0000F040 		.word	1089470464
 1290 0354 00002041 		.word	1092616192
 1291 0358 0000F03F 		.word	1072693248
 1292 035c 00003041 		.word	1093664768
ARM GAS  C:\Users\GYULAI~1\AppData\Local\Temp\cc8y56XJ.s 			page 28


 1293 0360 0000B040 		.word	1085276160
 1294 0364 0000E041 		.word	1105199104
 1295 0368 00003040 		.word	1076887552
 1296              	.L55:
 231:rhea\drivers\BME280/BME280.c **** 
 232:rhea\drivers\BME280/BME280.c ****     if      (pressure < pressure_min) pressure = pressure_min;
 1297              		.loc 1 232 0
 1298 036c D7E90A23 		ldrd	r2, [r7, #40]
 1299 0370 D7E90E01 		ldrd	r0, [r7, #56]
 1300 0374 FFF7FEFF 		bl	__aeabi_dcmplt
 1301 0378 0346     		mov	r3, r0
 1302 037a 002B     		cmp	r3, #0
 1303 037c 04D0     		beq	.L53
 1304              		.loc 1 232 0 is_stmt 0 discriminator 1
 1305 037e D7E90A34 		ldrd	r3, [r7, #40]
 1306 0382 C7E90E34 		strd	r3, [r7, #56]
 1307 0386 0CE0     		b	.L48
 1308              	.L53:
 233:rhea\drivers\BME280/BME280.c ****     else if (pressure > pressure_max) pressure = pressure_max;
 1309              		.loc 1 233 0 is_stmt 1
 1310 0388 D7E90823 		ldrd	r2, [r7, #32]
 1311 038c D7E90E01 		ldrd	r0, [r7, #56]
 1312 0390 FFF7FEFF 		bl	__aeabi_dcmpgt
 1313 0394 0346     		mov	r3, r0
 1314 0396 002B     		cmp	r3, #0
 1315 0398 03D0     		beq	.L48
 1316              		.loc 1 233 0 is_stmt 0 discriminator 1
 1317 039a D7E90834 		ldrd	r3, [r7, #32]
 1318 039e C7E90E34 		strd	r3, [r7, #56]
 1319              	.L48:
 234:rhea\drivers\BME280/BME280.c **** 
 235:rhea\drivers\BME280/BME280.c ****     return pressure;
 1320              		.loc 1 235 0 is_stmt 1
 1321 03a2 D7E90E01 		ldrd	r0, [r7, #56]
 1322 03a6 FFF7FEFF 		bl	__aeabi_d2uiz
 1323 03aa 0346     		mov	r3, r0
 236:rhea\drivers\BME280/BME280.c **** }
 1324              		.loc 1 236 0
 1325 03ac 1846     		mov	r0, r3
 1326 03ae 4037     		adds	r7, r7, #64
 1327              		.cfi_def_cfa_offset 16
 1328 03b0 BD46     		mov	sp, r7
 1329              		.cfi_def_cfa_register 13
 1330              		@ sp needed
 1331 03b2 B0BD     		pop	{r4, r5, r7, pc}
 1332              		.cfi_endproc
 1333              	.LFE10:
 1334              		.size	BME280_GetPressure, .-BME280_GetPressure
 1335              		.section	.text.BME280_GetHumidity,"ax",%progbits
 1336              		.align	2
 1337              		.global	BME280_GetHumidity
 1338              		.thumb
 1339              		.thumb_func
 1340              		.type	BME280_GetHumidity, %function
 1341              	BME280_GetHumidity:
 1342              	.LFB11:
 237:rhea\drivers\BME280/BME280.c **** 
ARM GAS  C:\Users\GYULAI~1\AppData\Local\Temp\cc8y56XJ.s 			page 29


 238:rhea\drivers\BME280/BME280.c **** uint8_t BME280_GetHumidity(uint8_t readNow) {
 1343              		.loc 1 238 0
 1344              		.cfi_startproc
 1345              		@ args = 0, pretend = 0, frame = 88
 1346              		@ frame_needed = 1, uses_anonymous_args = 0
 1347 0000 B0B5     		push	{r4, r5, r7, lr}
 1348              		.cfi_def_cfa_offset 16
 1349              		.cfi_offset 4, -16
 1350              		.cfi_offset 5, -12
 1351              		.cfi_offset 7, -8
 1352              		.cfi_offset 14, -4
 1353 0002 96B0     		sub	sp, sp, #88
 1354              		.cfi_def_cfa_offset 104
 1355 0004 00AF     		add	r7, sp, #0
 1356              		.cfi_def_cfa_register 7
 1357 0006 0346     		mov	r3, r0
 1358 0008 FB71     		strb	r3, [r7, #7]
 239:rhea\drivers\BME280/BME280.c ****     
 240:rhea\drivers\BME280/BME280.c ****     // Loading measurements registers from the device
 241:rhea\drivers\BME280/BME280.c ****     if(readNow) BME280_ReadRegisters();
 1359              		.loc 1 241 0
 1360 000a FB79     		ldrb	r3, [r7, #7]	@ zero_extendqisi2
 1361 000c 002B     		cmp	r3, #0
 1362 000e 01D0     		beq	.L58
 1363              		.loc 1 241 0 is_stmt 0 discriminator 1
 1364 0010 FFF7FEFF 		bl	BME280_ReadRegisters
 1365              	.L58:
 242:rhea\drivers\BME280/BME280.c **** 
 243:rhea\drivers\BME280/BME280.c ****     // Preparing measurement register data
 244:rhea\drivers\BME280/BME280.c ****     uint32_t regData = BME280_RegistersLocal.HUM_LSB | 
 1366              		.loc 1 244 0 is_stmt 1
 1367 0014 8B4B     		ldr	r3, .L67
 1368 0016 DB79     		ldrb	r3, [r3, #7]	@ zero_extendqisi2
 1369 0018 1A46     		mov	r2, r3
 245:rhea\drivers\BME280/BME280.c ****                        BME280_RegistersLocal.HUM_MSB << 8;
 1370              		.loc 1 245 0
 1371 001a 8A4B     		ldr	r3, .L67
 1372 001c 9B79     		ldrb	r3, [r3, #6]	@ zero_extendqisi2
 1373 001e 1B02     		lsls	r3, r3, #8
 244:rhea\drivers\BME280/BME280.c ****                        BME280_RegistersLocal.HUM_MSB << 8;
 1374              		.loc 1 244 0
 1375 0020 1343     		orrs	r3, r3, r2
 1376 0022 FB64     		str	r3, [r7, #76]
 246:rhea\drivers\BME280/BME280.c **** 
 247:rhea\drivers\BME280/BME280.c ****     // Compensation algorithm from Bosch Sensortech
 248:rhea\drivers\BME280/BME280.c ****     // https://github.com/BoschSensortec/BME280_driver
 249:rhea\drivers\BME280/BME280.c **** 
 250:rhea\drivers\BME280/BME280.c ****     double humidity;
 251:rhea\drivers\BME280/BME280.c ****     double humidity_min = 0.0;
 1377              		.loc 1 251 0
 1378 0024 4FF00003 		mov	r3, #0
 1379 0028 4FF00004 		mov	r4, #0
 1380 002c C7E91034 		strd	r3, [r7, #64]
 252:rhea\drivers\BME280/BME280.c ****     double humidity_max = 100.0;
 1381              		.loc 1 252 0
 1382 0030 4FF00003 		mov	r3, #0
 1383 0034 844C     		ldr	r4, .L67+4
ARM GAS  C:\Users\GYULAI~1\AppData\Local\Temp\cc8y56XJ.s 			page 30


 1384 0036 C7E90E34 		strd	r3, [r7, #56]
 253:rhea\drivers\BME280/BME280.c ****     double var1;
 254:rhea\drivers\BME280/BME280.c ****     double var2;
 255:rhea\drivers\BME280/BME280.c ****     double var3;
 256:rhea\drivers\BME280/BME280.c ****     double var4;
 257:rhea\drivers\BME280/BME280.c ****     double var5;
 258:rhea\drivers\BME280/BME280.c ****     double var6;
 259:rhea\drivers\BME280/BME280.c **** 
 260:rhea\drivers\BME280/BME280.c ****     var1 = ((double)BME280_RegistersLocal.t_fine) - 76800.0;
 1385              		.loc 1 260 0
 1386 003a 824B     		ldr	r3, .L67
 1387 003c D3F82D30 		ldr	r3, [r3, #45]	@ unaligned
 1388 0040 1846     		mov	r0, r3
 1389 0042 FFF7FEFF 		bl	__aeabi_i2d
 1390 0046 4FF00002 		mov	r2, #0
 1391 004a 804B     		ldr	r3, .L67+8
 1392 004c FFF7FEFF 		bl	__aeabi_dsub
 1393 0050 0346     		mov	r3, r0
 1394 0052 0C46     		mov	r4, r1
 1395 0054 C7E90C34 		strd	r3, [r7, #48]
 261:rhea\drivers\BME280/BME280.c ****     var2 = (((double)BME280_RegistersLocal.dig_H4) * 64.0 + (((double)BME280_RegistersLocal.dig_H5)
 1396              		.loc 1 261 0
 1397 0058 7A4B     		ldr	r3, .L67
 1398 005a B3F92830 		ldrsh	r3, [r3, #40]
 1399 005e 1846     		mov	r0, r3
 1400 0060 FFF7FEFF 		bl	__aeabi_i2d
 1401 0064 4FF00002 		mov	r2, #0
 1402 0068 794B     		ldr	r3, .L67+12
 1403 006a FFF7FEFF 		bl	__aeabi_dmul
 1404 006e 0346     		mov	r3, r0
 1405 0070 0C46     		mov	r4, r1
 1406 0072 2546     		mov	r5, r4
 1407 0074 1C46     		mov	r4, r3
 1408 0076 734B     		ldr	r3, .L67
 1409 0078 B3F92A30 		ldrsh	r3, [r3, #42]
 1410 007c 1846     		mov	r0, r3
 1411 007e FFF7FEFF 		bl	__aeabi_i2d
 1412 0082 4FF00002 		mov	r2, #0
 1413 0086 734B     		ldr	r3, .L67+16
 1414 0088 FFF7FEFF 		bl	__aeabi_ddiv
 1415 008c 0246     		mov	r2, r0
 1416 008e 0B46     		mov	r3, r1
 1417 0090 1046     		mov	r0, r2
 1418 0092 1946     		mov	r1, r3
 1419 0094 D7E90C23 		ldrd	r2, [r7, #48]
 1420 0098 FFF7FEFF 		bl	__aeabi_dmul
 1421 009c 0246     		mov	r2, r0
 1422 009e 0B46     		mov	r3, r1
 1423 00a0 2046     		mov	r0, r4
 1424 00a2 2946     		mov	r1, r5
 1425 00a4 FFF7FEFF 		bl	__aeabi_dadd
 1426 00a8 0346     		mov	r3, r0
 1427 00aa 0C46     		mov	r4, r1
 1428 00ac C7E90A34 		strd	r3, [r7, #40]
 262:rhea\drivers\BME280/BME280.c ****     var3 = regData - var2;
 1429              		.loc 1 262 0
 1430 00b0 F86C     		ldr	r0, [r7, #76]
ARM GAS  C:\Users\GYULAI~1\AppData\Local\Temp\cc8y56XJ.s 			page 31


 1431 00b2 FFF7FEFF 		bl	__aeabi_ui2d
 1432 00b6 D7E90A23 		ldrd	r2, [r7, #40]
 1433 00ba FFF7FEFF 		bl	__aeabi_dsub
 1434 00be 0346     		mov	r3, r0
 1435 00c0 0C46     		mov	r4, r1
 1436 00c2 C7E90834 		strd	r3, [r7, #32]
 263:rhea\drivers\BME280/BME280.c ****     var4 = ((double)BME280_RegistersLocal.dig_H2) / 65536.0;
 1437              		.loc 1 263 0
 1438 00c6 5F4B     		ldr	r3, .L67
 1439 00c8 B3F92530 		ldrsh	r3, [r3, #37]	@ unaligned
 1440 00cc 1BB2     		sxth	r3, r3
 1441 00ce 1846     		mov	r0, r3
 1442 00d0 FFF7FEFF 		bl	__aeabi_i2d
 1443 00d4 4FF00002 		mov	r2, #0
 1444 00d8 5F4B     		ldr	r3, .L67+20
 1445 00da FFF7FEFF 		bl	__aeabi_ddiv
 1446 00de 0346     		mov	r3, r0
 1447 00e0 0C46     		mov	r4, r1
 1448 00e2 C7E90634 		strd	r3, [r7, #24]
 264:rhea\drivers\BME280/BME280.c ****     var5 = (1.0 + (((double)BME280_RegistersLocal.dig_H3) / 67108864.0) * var1);
 1449              		.loc 1 264 0
 1450 00e6 574B     		ldr	r3, .L67
 1451 00e8 93F82730 		ldrb	r3, [r3, #39]	@ zero_extendqisi2
 1452 00ec 1846     		mov	r0, r3
 1453 00ee FFF7FEFF 		bl	__aeabi_ui2d
 1454 00f2 4FF00002 		mov	r2, #0
 1455 00f6 594B     		ldr	r3, .L67+24
 1456 00f8 FFF7FEFF 		bl	__aeabi_ddiv
 1457 00fc 0346     		mov	r3, r0
 1458 00fe 0C46     		mov	r4, r1
 1459 0100 1846     		mov	r0, r3
 1460 0102 2146     		mov	r1, r4
 1461 0104 D7E90C23 		ldrd	r2, [r7, #48]
 1462 0108 FFF7FEFF 		bl	__aeabi_dmul
 1463 010c 0346     		mov	r3, r0
 1464 010e 0C46     		mov	r4, r1
 1465 0110 1846     		mov	r0, r3
 1466 0112 2146     		mov	r1, r4
 1467 0114 4FF00002 		mov	r2, #0
 1468 0118 514B     		ldr	r3, .L67+28
 1469 011a FFF7FEFF 		bl	__aeabi_dadd
 1470 011e 0346     		mov	r3, r0
 1471 0120 0C46     		mov	r4, r1
 1472 0122 C7E90434 		strd	r3, [r7, #16]
 265:rhea\drivers\BME280/BME280.c ****     var6 = 1.0 + (((double)BME280_RegistersLocal.dig_H6) / 67108864.0) * var1 * var5;
 1473              		.loc 1 265 0
 1474 0126 474B     		ldr	r3, .L67
 1475 0128 93F92C30 		ldrsb	r3, [r3, #44]
 1476 012c 1846     		mov	r0, r3
 1477 012e FFF7FEFF 		bl	__aeabi_i2d
 1478 0132 4FF00002 		mov	r2, #0
 1479 0136 494B     		ldr	r3, .L67+24
 1480 0138 FFF7FEFF 		bl	__aeabi_ddiv
 1481 013c 0346     		mov	r3, r0
 1482 013e 0C46     		mov	r4, r1
 1483 0140 1846     		mov	r0, r3
 1484 0142 2146     		mov	r1, r4
ARM GAS  C:\Users\GYULAI~1\AppData\Local\Temp\cc8y56XJ.s 			page 32


 1485 0144 D7E90C23 		ldrd	r2, [r7, #48]
 1486 0148 FFF7FEFF 		bl	__aeabi_dmul
 1487 014c 0346     		mov	r3, r0
 1488 014e 0C46     		mov	r4, r1
 1489 0150 1846     		mov	r0, r3
 1490 0152 2146     		mov	r1, r4
 1491 0154 D7E90423 		ldrd	r2, [r7, #16]
 1492 0158 FFF7FEFF 		bl	__aeabi_dmul
 1493 015c 0346     		mov	r3, r0
 1494 015e 0C46     		mov	r4, r1
 1495 0160 1846     		mov	r0, r3
 1496 0162 2146     		mov	r1, r4
 1497 0164 4FF00002 		mov	r2, #0
 1498 0168 3D4B     		ldr	r3, .L67+28
 1499 016a FFF7FEFF 		bl	__aeabi_dadd
 1500 016e 0346     		mov	r3, r0
 1501 0170 0C46     		mov	r4, r1
 1502 0172 C7E90234 		strd	r3, [r7, #8]
 266:rhea\drivers\BME280/BME280.c ****     var6 = var3 * var4 * (var5 * var6);
 1503              		.loc 1 266 0
 1504 0176 D7E90623 		ldrd	r2, [r7, #24]
 1505 017a D7E90801 		ldrd	r0, [r7, #32]
 1506 017e FFF7FEFF 		bl	__aeabi_dmul
 1507 0182 0346     		mov	r3, r0
 1508 0184 0C46     		mov	r4, r1
 1509 0186 2546     		mov	r5, r4
 1510 0188 1C46     		mov	r4, r3
 1511 018a D7E90223 		ldrd	r2, [r7, #8]
 1512 018e D7E90401 		ldrd	r0, [r7, #16]
 1513 0192 FFF7FEFF 		bl	__aeabi_dmul
 1514 0196 0246     		mov	r2, r0
 1515 0198 0B46     		mov	r3, r1
 1516 019a 2046     		mov	r0, r4
 1517 019c 2946     		mov	r1, r5
 1518 019e FFF7FEFF 		bl	__aeabi_dmul
 1519 01a2 0346     		mov	r3, r0
 1520 01a4 0C46     		mov	r4, r1
 1521 01a6 C7E90234 		strd	r3, [r7, #8]
 267:rhea\drivers\BME280/BME280.c ****     humidity = var6 * (1.0 - ((double)BME280_RegistersLocal.dig_H1) * var6 / 524288.0);
 1522              		.loc 1 267 0
 1523 01aa 264B     		ldr	r3, .L67
 1524 01ac 93F82430 		ldrb	r3, [r3, #36]	@ zero_extendqisi2
 1525 01b0 1846     		mov	r0, r3
 1526 01b2 FFF7FEFF 		bl	__aeabi_ui2d
 1527 01b6 D7E90223 		ldrd	r2, [r7, #8]
 1528 01ba FFF7FEFF 		bl	__aeabi_dmul
 1529 01be 0346     		mov	r3, r0
 1530 01c0 0C46     		mov	r4, r1
 1531 01c2 1846     		mov	r0, r3
 1532 01c4 2146     		mov	r1, r4
 1533 01c6 4FF00002 		mov	r2, #0
 1534 01ca 264B     		ldr	r3, .L67+32
 1535 01cc FFF7FEFF 		bl	__aeabi_ddiv
 1536 01d0 0346     		mov	r3, r0
 1537 01d2 0C46     		mov	r4, r1
 1538 01d4 1A46     		mov	r2, r3
 1539 01d6 2346     		mov	r3, r4
ARM GAS  C:\Users\GYULAI~1\AppData\Local\Temp\cc8y56XJ.s 			page 33


 1540 01d8 4FF00000 		mov	r0, #0
 1541 01dc 2049     		ldr	r1, .L67+28
 1542 01de FFF7FEFF 		bl	__aeabi_dsub
 1543 01e2 0346     		mov	r3, r0
 1544 01e4 0C46     		mov	r4, r1
 1545 01e6 1846     		mov	r0, r3
 1546 01e8 2146     		mov	r1, r4
 1547 01ea D7E90223 		ldrd	r2, [r7, #8]
 1548 01ee FFF7FEFF 		bl	__aeabi_dmul
 1549 01f2 0346     		mov	r3, r0
 1550 01f4 0C46     		mov	r4, r1
 1551 01f6 C7E91434 		strd	r3, [r7, #80]
 268:rhea\drivers\BME280/BME280.c **** 
 269:rhea\drivers\BME280/BME280.c ****     if      (humidity > humidity_max) humidity = humidity_max;
 1552              		.loc 1 269 0
 1553 01fa D7E90E23 		ldrd	r2, [r7, #56]
 1554 01fe D7E91401 		ldrd	r0, [r7, #80]
 1555 0202 FFF7FEFF 		bl	__aeabi_dcmpgt
 1556 0206 0346     		mov	r3, r0
 1557 0208 002B     		cmp	r3, #0
 1558 020a 04D0     		beq	.L66
 1559              		.loc 1 269 0 is_stmt 0 discriminator 1
 1560 020c D7E90E34 		ldrd	r3, [r7, #56]
 1561 0210 C7E91434 		strd	r3, [r7, #80]
 1562 0214 0CE0     		b	.L61
 1563              	.L66:
 270:rhea\drivers\BME280/BME280.c ****     else if (humidity < humidity_min) humidity = humidity_min;
 1564              		.loc 1 270 0 is_stmt 1
 1565 0216 D7E91023 		ldrd	r2, [r7, #64]
 1566 021a D7E91401 		ldrd	r0, [r7, #80]
 1567 021e FFF7FEFF 		bl	__aeabi_dcmplt
 1568 0222 0346     		mov	r3, r0
 1569 0224 002B     		cmp	r3, #0
 1570 0226 03D0     		beq	.L61
 1571              		.loc 1 270 0 is_stmt 0 discriminator 1
 1572 0228 D7E91034 		ldrd	r3, [r7, #64]
 1573 022c C7E91434 		strd	r3, [r7, #80]
 1574              	.L61:
 271:rhea\drivers\BME280/BME280.c **** 
 272:rhea\drivers\BME280/BME280.c ****     return humidity;
 1575              		.loc 1 272 0 is_stmt 1
 1576 0230 D7E91401 		ldrd	r0, [r7, #80]
 1577 0234 FFF7FEFF 		bl	__aeabi_d2uiz
 1578 0238 0346     		mov	r3, r0
 1579 023a DBB2     		uxtb	r3, r3
 273:rhea\drivers\BME280/BME280.c **** }
 1580              		.loc 1 273 0
 1581 023c 1846     		mov	r0, r3
 1582 023e 5837     		adds	r7, r7, #88
 1583              		.cfi_def_cfa_offset 16
 1584 0240 BD46     		mov	sp, r7
 1585              		.cfi_def_cfa_register 13
 1586              		@ sp needed
 1587 0242 B0BD     		pop	{r4, r5, r7, pc}
 1588              	.L68:
 1589              		.align	2
 1590              	.L67:
ARM GAS  C:\Users\GYULAI~1\AppData\Local\Temp\cc8y56XJ.s 			page 34


 1591 0244 10000000 		.word	BME280_RegistersLocal
 1592 0248 00005940 		.word	1079574528
 1593 024c 00C0F240 		.word	1089650688
 1594 0250 00005040 		.word	1078984704
 1595 0254 0000D040 		.word	1087373312
 1596 0258 0000F040 		.word	1089470464
 1597 025c 00009041 		.word	1099956224
 1598 0260 0000F03F 		.word	1072693248
 1599 0264 00002041 		.word	1092616192
 1600              		.cfi_endproc
 1601              	.LFE11:
 1602              		.size	BME280_GetHumidity, .-BME280_GetHumidity
 1603              		.global	__aeabi_f2d
 1604              		.section	.text.BME280_GetMeasurementDelay,"ax",%progbits
 1605              		.align	2
 1606              		.global	BME280_GetMeasurementDelay
 1607              		.thumb
 1608              		.thumb_func
 1609              		.type	BME280_GetMeasurementDelay, %function
 1610              	BME280_GetMeasurementDelay:
 1611              	.LFB12:
 274:rhea\drivers\BME280/BME280.c **** 
 275:rhea\drivers\BME280/BME280.c **** uint8_t BME280_GetMeasurementDelay(void) {
 1612              		.loc 1 275 0
 1613              		.cfi_startproc
 1614              		@ args = 0, pretend = 0, frame = 32
 1615              		@ frame_needed = 1, uses_anonymous_args = 0
 1616 0000 90B5     		push	{r4, r7, lr}
 1617              		.cfi_def_cfa_offset 12
 1618              		.cfi_offset 4, -12
 1619              		.cfi_offset 7, -8
 1620              		.cfi_offset 14, -4
 1621 0002 89B0     		sub	sp, sp, #36
 1622              		.cfi_def_cfa_offset 48
 1623 0004 00AF     		add	r7, sp, #0
 1624              		.cfi_def_cfa_register 7
 276:rhea\drivers\BME280/BME280.c **** 
 277:rhea\drivers\BME280/BME280.c ****     // Reading current configuration
 278:rhea\drivers\BME280/BME280.c ****     uint8_t temperature_ovrs = BME280_GetTemperatureMode();
 1625              		.loc 1 278 0
 1626 0006 FFF7FEFF 		bl	BME280_GetTemperatureMode
 1627 000a 0346     		mov	r3, r0
 1628 000c FB77     		strb	r3, [r7, #31]
 279:rhea\drivers\BME280/BME280.c ****     uint8_t pressure_ovrs = BME280_GetPressureMode();
 1629              		.loc 1 279 0
 1630 000e FFF7FEFF 		bl	BME280_GetPressureMode
 1631 0012 0346     		mov	r3, r0
 1632 0014 BB77     		strb	r3, [r7, #30]
 280:rhea\drivers\BME280/BME280.c ****     uint8_t humidity_ovrs = BME280_GetHumidityMode();
 1633              		.loc 1 280 0
 1634 0016 FFF7FEFF 		bl	BME280_GetHumidityMode
 1635 001a 0346     		mov	r3, r0
 1636 001c 7B77     		strb	r3, [r7, #29]
 281:rhea\drivers\BME280/BME280.c **** 
 282:rhea\drivers\BME280/BME280.c ****     // Parsing configuration
 283:rhea\drivers\BME280/BME280.c ****     switch(temperature_ovrs) {
 1637              		.loc 1 283 0
ARM GAS  C:\Users\GYULAI~1\AppData\Local\Temp\cc8y56XJ.s 			page 35


 1638 001e FB7F     		ldrb	r3, [r7, #31]	@ zero_extendqisi2
 1639 0020 402B     		cmp	r3, #64
 1640 0022 10D0     		beq	.L71
 1641 0024 402B     		cmp	r3, #64
 1642 0026 04DC     		bgt	.L72
 1643 0028 002B     		cmp	r3, #0
 1644 002a 18D0     		beq	.L73
 1645 002c 202B     		cmp	r3, #32
 1646 002e 07D0     		beq	.L74
 1647 0030 18E0     		b	.L70
 1648              	.L72:
 1649 0032 802B     		cmp	r3, #128
 1650 0034 0DD0     		beq	.L75
 1651 0036 A02B     		cmp	r3, #160
 1652 0038 0ED0     		beq	.L76
 1653 003a 602B     		cmp	r3, #96
 1654 003c 06D0     		beq	.L77
 1655 003e 11E0     		b	.L70
 1656              	.L74:
 284:rhea\drivers\BME280/BME280.c ****     case BME280_TEMPERATURE_OVERSAMPLING_1X:  temperature_ovrs = 1; break;
 1657              		.loc 1 284 0
 1658 0040 0123     		movs	r3, #1
 1659 0042 FB77     		strb	r3, [r7, #31]
 1660 0044 0EE0     		b	.L70
 1661              	.L71:
 285:rhea\drivers\BME280/BME280.c ****     case BME280_TEMPERATURE_OVERSAMPLING_2X:  temperature_ovrs = 2; break;
 1662              		.loc 1 285 0
 1663 0046 0223     		movs	r3, #2
 1664 0048 FB77     		strb	r3, [r7, #31]
 1665 004a 0BE0     		b	.L70
 1666              	.L77:
 286:rhea\drivers\BME280/BME280.c ****     case BME280_TEMPERATURE_OVERSAMPLING_4X:  temperature_ovrs = 4; break;
 1667              		.loc 1 286 0
 1668 004c 0423     		movs	r3, #4
 1669 004e FB77     		strb	r3, [r7, #31]
 1670 0050 08E0     		b	.L70
 1671              	.L75:
 287:rhea\drivers\BME280/BME280.c ****     case BME280_TEMPERATURE_OVERSAMPLING_8X:  temperature_ovrs = 8; break;
 1672              		.loc 1 287 0
 1673 0052 0823     		movs	r3, #8
 1674 0054 FB77     		strb	r3, [r7, #31]
 1675 0056 05E0     		b	.L70
 1676              	.L76:
 288:rhea\drivers\BME280/BME280.c ****     case BME280_TEMPERATURE_OVERSAMPLING_16X: temperature_ovrs = 16; break;
 1677              		.loc 1 288 0
 1678 0058 1023     		movs	r3, #16
 1679 005a FB77     		strb	r3, [r7, #31]
 1680 005c 02E0     		b	.L70
 1681              	.L73:
 289:rhea\drivers\BME280/BME280.c ****     case BME280_TEMPERATURE_DISABLED:         temperature_ovrs = 0; break;
 1682              		.loc 1 289 0
 1683 005e 0023     		movs	r3, #0
 1684 0060 FB77     		strb	r3, [r7, #31]
 1685 0062 00BF     		nop
 1686              	.L70:
 290:rhea\drivers\BME280/BME280.c ****     };
 291:rhea\drivers\BME280/BME280.c **** 
ARM GAS  C:\Users\GYULAI~1\AppData\Local\Temp\cc8y56XJ.s 			page 36


 292:rhea\drivers\BME280/BME280.c ****     switch(pressure_ovrs) {
 1687              		.loc 1 292 0
 1688 0064 BB7F     		ldrb	r3, [r7, #30]	@ zero_extendqisi2
 1689 0066 142B     		cmp	r3, #20
 1690 0068 3ED8     		bhi	.L78
 1691 006a 01A2     		adr	r2, .L80
 1692 006c 52F823F0 		ldr	pc, [r2, r3, lsl #2]
 1693              		.p2align 2
 1694              	.L80:
 1695 0070 E3000000 		.word	.L79+1
 1696 0074 E9000000 		.word	.L78+1
 1697 0078 E9000000 		.word	.L78+1
 1698 007c E9000000 		.word	.L78+1
 1699 0080 C5000000 		.word	.L81+1
 1700 0084 E9000000 		.word	.L78+1
 1701 0088 E9000000 		.word	.L78+1
 1702 008c E9000000 		.word	.L78+1
 1703 0090 CB000000 		.word	.L82+1
 1704 0094 E9000000 		.word	.L78+1
 1705 0098 E9000000 		.word	.L78+1
 1706 009c E9000000 		.word	.L78+1
 1707 00a0 D1000000 		.word	.L83+1
 1708 00a4 E9000000 		.word	.L78+1
 1709 00a8 E9000000 		.word	.L78+1
 1710 00ac E9000000 		.word	.L78+1
 1711 00b0 D7000000 		.word	.L84+1
 1712 00b4 E9000000 		.word	.L78+1
 1713 00b8 E9000000 		.word	.L78+1
 1714 00bc E9000000 		.word	.L78+1
 1715 00c0 DD000000 		.word	.L85+1
 1716              		.p2align 1
 1717              	.L81:
 293:rhea\drivers\BME280/BME280.c ****     case BME280_PRESSURE_OVERSAMPLING_1X:  pressure_ovrs = 1; break;
 1718              		.loc 1 293 0
 1719 00c4 0123     		movs	r3, #1
 1720 00c6 BB77     		strb	r3, [r7, #30]
 1721 00c8 0EE0     		b	.L78
 1722              	.L82:
 294:rhea\drivers\BME280/BME280.c ****     case BME280_PRESSURE_OVERSAMPLING_2X:  pressure_ovrs = 2; break;
 1723              		.loc 1 294 0
 1724 00ca 0223     		movs	r3, #2
 1725 00cc BB77     		strb	r3, [r7, #30]
 1726 00ce 0BE0     		b	.L78
 1727              	.L83:
 295:rhea\drivers\BME280/BME280.c ****     case BME280_PRESSURE_OVERSAMPLING_4X:  pressure_ovrs = 4; break;
 1728              		.loc 1 295 0
 1729 00d0 0423     		movs	r3, #4
 1730 00d2 BB77     		strb	r3, [r7, #30]
 1731 00d4 08E0     		b	.L78
 1732              	.L84:
 296:rhea\drivers\BME280/BME280.c ****     case BME280_PRESSURE_OVERSAMPLING_8X:  pressure_ovrs = 8; break;
 1733              		.loc 1 296 0
 1734 00d6 0823     		movs	r3, #8
 1735 00d8 BB77     		strb	r3, [r7, #30]
 1736 00da 05E0     		b	.L78
 1737              	.L85:
 297:rhea\drivers\BME280/BME280.c ****     case BME280_PRESSURE_OVERSAMPLING_16X: pressure_ovrs = 16; break;
ARM GAS  C:\Users\GYULAI~1\AppData\Local\Temp\cc8y56XJ.s 			page 37


 1738              		.loc 1 297 0
 1739 00dc 1023     		movs	r3, #16
 1740 00de BB77     		strb	r3, [r7, #30]
 1741 00e0 02E0     		b	.L78
 1742              	.L79:
 298:rhea\drivers\BME280/BME280.c ****     case BME280_PRESSURE_DISABLED:         pressure_ovrs = 0; break;
 1743              		.loc 1 298 0
 1744 00e2 0023     		movs	r3, #0
 1745 00e4 BB77     		strb	r3, [r7, #30]
 1746 00e6 00BF     		nop
 1747              	.L78:
 299:rhea\drivers\BME280/BME280.c ****     };
 300:rhea\drivers\BME280/BME280.c **** 
 301:rhea\drivers\BME280/BME280.c ****     switch(humidity_ovrs) {
 1748              		.loc 1 301 0
 1749 00e8 7B7F     		ldrb	r3, [r7, #29]	@ zero_extendqisi2
 1750 00ea 052B     		cmp	r3, #5
 1751 00ec 20D8     		bhi	.L86
 1752 00ee 01A2     		adr	r2, .L88
 1753 00f0 52F823F0 		ldr	pc, [r2, r3, lsl #2]
 1754              		.p2align 2
 1755              	.L88:
 1756 00f4 2B010000 		.word	.L87+1
 1757 00f8 0D010000 		.word	.L89+1
 1758 00fc 13010000 		.word	.L90+1
 1759 0100 19010000 		.word	.L91+1
 1760 0104 1F010000 		.word	.L92+1
 1761 0108 25010000 		.word	.L93+1
 1762              		.p2align 1
 1763              	.L89:
 302:rhea\drivers\BME280/BME280.c ****     case BME280_HUMIDITY_OVERSAMPLING_1X:  humidity_ovrs = 1; break;
 1764              		.loc 1 302 0
 1765 010c 0123     		movs	r3, #1
 1766 010e 7B77     		strb	r3, [r7, #29]
 1767 0110 0EE0     		b	.L86
 1768              	.L90:
 303:rhea\drivers\BME280/BME280.c ****     case BME280_HUMIDITY_OVERSAMPLING_2X:  humidity_ovrs = 2; break;
 1769              		.loc 1 303 0
 1770 0112 0223     		movs	r3, #2
 1771 0114 7B77     		strb	r3, [r7, #29]
 1772 0116 0BE0     		b	.L86
 1773              	.L91:
 304:rhea\drivers\BME280/BME280.c ****     case BME280_HUMIDITY_OVERSAMPLING_4X:  humidity_ovrs = 4; break;
 1774              		.loc 1 304 0
 1775 0118 0423     		movs	r3, #4
 1776 011a 7B77     		strb	r3, [r7, #29]
 1777 011c 08E0     		b	.L86
 1778              	.L92:
 305:rhea\drivers\BME280/BME280.c ****     case BME280_HUMIDITY_OVERSAMPLING_8X:  humidity_ovrs = 8; break;
 1779              		.loc 1 305 0
 1780 011e 0823     		movs	r3, #8
 1781 0120 7B77     		strb	r3, [r7, #29]
 1782 0122 05E0     		b	.L86
 1783              	.L93:
 306:rhea\drivers\BME280/BME280.c ****     case BME280_HUMIDITY_OVERSAMPLING_16X: humidity_ovrs = 16; break;
 1784              		.loc 1 306 0
 1785 0124 1023     		movs	r3, #16
ARM GAS  C:\Users\GYULAI~1\AppData\Local\Temp\cc8y56XJ.s 			page 38


 1786 0126 7B77     		strb	r3, [r7, #29]
 1787 0128 02E0     		b	.L86
 1788              	.L87:
 307:rhea\drivers\BME280/BME280.c ****     case BME280_HUMIDITY_DISABLED:         humidity_ovrs = 0; break;
 1789              		.loc 1 307 0
 1790 012a 0023     		movs	r3, #0
 1791 012c 7B77     		strb	r3, [r7, #29]
 1792 012e 00BF     		nop
 1793              	.L86:
 308:rhea\drivers\BME280/BME280.c ****     };
 309:rhea\drivers\BME280/BME280.c **** 
 310:rhea\drivers\BME280/BME280.c ****     // Calculating measurement delay components (values from the official datasheet)
 311:rhea\drivers\BME280/BME280.c ****     double temperature_delay = temperature_ovrs ? 2.3f * temperature_ovrs : 0;
 1794              		.loc 1 311 0
 1795 0130 FB7F     		ldrb	r3, [r7, #31]	@ zero_extendqisi2
 1796 0132 002B     		cmp	r3, #0
 1797 0134 0FD0     		beq	.L94
 1798              		.loc 1 311 0 is_stmt 0 discriminator 1
 1799 0136 FB7F     		ldrb	r3, [r7, #31]	@ zero_extendqisi2
 1800 0138 1846     		mov	r0, r3
 1801 013a FFF7FEFF 		bl	__aeabi_i2f
 1802 013e 0346     		mov	r3, r0
 1803 0140 3949     		ldr	r1, .L101+8
 1804 0142 1846     		mov	r0, r3
 1805 0144 FFF7FEFF 		bl	__aeabi_fmul
 1806 0148 0346     		mov	r3, r0
 1807 014a 1846     		mov	r0, r3
 1808 014c FFF7FEFF 		bl	__aeabi_f2d
 1809 0150 0346     		mov	r3, r0
 1810 0152 0C46     		mov	r4, r1
 1811 0154 03E0     		b	.L95
 1812              	.L94:
 1813              		.loc 1 311 0 discriminator 2
 1814 0156 4FF00003 		mov	r3, #0
 1815 015a 4FF00004 		mov	r4, #0
 1816              	.L95:
 1817              		.loc 1 311 0 discriminator 4
 1818 015e C7E90434 		strd	r3, [r7, #16]
 312:rhea\drivers\BME280/BME280.c ****     double pressure_delay = pressure_ovrs ? 2.3f * pressure_ovrs + 0.575 : 0;
 1819              		.loc 1 312 0 is_stmt 1 discriminator 4
 1820 0162 BB7F     		ldrb	r3, [r7, #30]	@ zero_extendqisi2
 1821 0164 002B     		cmp	r3, #0
 1822 0166 14D0     		beq	.L96
 1823              		.loc 1 312 0 is_stmt 0 discriminator 1
 1824 0168 BB7F     		ldrb	r3, [r7, #30]	@ zero_extendqisi2
 1825 016a 1846     		mov	r0, r3
 1826 016c FFF7FEFF 		bl	__aeabi_i2f
 1827 0170 0346     		mov	r3, r0
 1828 0172 2D49     		ldr	r1, .L101+8
 1829 0174 1846     		mov	r0, r3
 1830 0176 FFF7FEFF 		bl	__aeabi_fmul
 1831 017a 0346     		mov	r3, r0
 1832 017c 1846     		mov	r0, r3
 1833 017e FFF7FEFF 		bl	__aeabi_f2d
 1834 0182 27A3     		adr	r3, .L101
 1835 0184 D3E90023 		ldrd	r2, [r3]
 1836 0188 FFF7FEFF 		bl	__aeabi_dadd
ARM GAS  C:\Users\GYULAI~1\AppData\Local\Temp\cc8y56XJ.s 			page 39


 1837 018c 0346     		mov	r3, r0
 1838 018e 0C46     		mov	r4, r1
 1839 0190 03E0     		b	.L97
 1840              	.L96:
 1841              		.loc 1 312 0 discriminator 2
 1842 0192 4FF00003 		mov	r3, #0
 1843 0196 4FF00004 		mov	r4, #0
 1844              	.L97:
 1845              		.loc 1 312 0 discriminator 4
 1846 019a C7E90234 		strd	r3, [r7, #8]
 313:rhea\drivers\BME280/BME280.c ****     double humidity_delay = humidity_ovrs ? 2.3f * humidity_ovrs + 0.575 : 0;
 1847              		.loc 1 313 0 is_stmt 1 discriminator 4
 1848 019e 7B7F     		ldrb	r3, [r7, #29]	@ zero_extendqisi2
 1849 01a0 002B     		cmp	r3, #0
 1850 01a2 14D0     		beq	.L98
 1851              		.loc 1 313 0 is_stmt 0 discriminator 1
 1852 01a4 7B7F     		ldrb	r3, [r7, #29]	@ zero_extendqisi2
 1853 01a6 1846     		mov	r0, r3
 1854 01a8 FFF7FEFF 		bl	__aeabi_i2f
 1855 01ac 0346     		mov	r3, r0
 1856 01ae 1E49     		ldr	r1, .L101+8
 1857 01b0 1846     		mov	r0, r3
 1858 01b2 FFF7FEFF 		bl	__aeabi_fmul
 1859 01b6 0346     		mov	r3, r0
 1860 01b8 1846     		mov	r0, r3
 1861 01ba FFF7FEFF 		bl	__aeabi_f2d
 1862 01be 18A3     		adr	r3, .L101
 1863 01c0 D3E90023 		ldrd	r2, [r3]
 1864 01c4 FFF7FEFF 		bl	__aeabi_dadd
 1865 01c8 0346     		mov	r3, r0
 1866 01ca 0C46     		mov	r4, r1
 1867 01cc 03E0     		b	.L99
 1868              	.L98:
 1869              		.loc 1 313 0 discriminator 2
 1870 01ce 4FF00003 		mov	r3, #0
 1871 01d2 4FF00004 		mov	r4, #0
 1872              	.L99:
 1873              		.loc 1 313 0 discriminator 4
 1874 01d6 C7E90034 		strd	r3, [r7]
 314:rhea\drivers\BME280/BME280.c **** 
 315:rhea\drivers\BME280/BME280.c ****     return 1.25 + temperature_delay + pressure_delay + humidity_delay;
 1875              		.loc 1 315 0 is_stmt 1 discriminator 4
 1876 01da 4FF00002 		mov	r2, #0
 1877 01de 134B     		ldr	r3, .L101+12
 1878 01e0 D7E90401 		ldrd	r0, [r7, #16]
 1879 01e4 FFF7FEFF 		bl	__aeabi_dadd
 1880 01e8 0346     		mov	r3, r0
 1881 01ea 0C46     		mov	r4, r1
 1882 01ec 1846     		mov	r0, r3
 1883 01ee 2146     		mov	r1, r4
 1884 01f0 D7E90223 		ldrd	r2, [r7, #8]
 1885 01f4 FFF7FEFF 		bl	__aeabi_dadd
 1886 01f8 0346     		mov	r3, r0
 1887 01fa 0C46     		mov	r4, r1
 1888 01fc 1846     		mov	r0, r3
 1889 01fe 2146     		mov	r1, r4
 1890 0200 D7E90023 		ldrd	r2, [r7]
ARM GAS  C:\Users\GYULAI~1\AppData\Local\Temp\cc8y56XJ.s 			page 40


 1891 0204 FFF7FEFF 		bl	__aeabi_dadd
 1892 0208 0346     		mov	r3, r0
 1893 020a 0C46     		mov	r4, r1
 1894 020c 1846     		mov	r0, r3
 1895 020e 2146     		mov	r1, r4
 1896 0210 FFF7FEFF 		bl	__aeabi_d2uiz
 1897 0214 0346     		mov	r3, r0
 1898 0216 DBB2     		uxtb	r3, r3
 316:rhea\drivers\BME280/BME280.c **** }
 1899              		.loc 1 316 0 discriminator 4
 1900 0218 1846     		mov	r0, r3
 1901 021a 2437     		adds	r7, r7, #36
 1902              		.cfi_def_cfa_offset 12
 1903 021c BD46     		mov	sp, r7
 1904              		.cfi_def_cfa_register 13
 1905              		@ sp needed
 1906 021e 90BD     		pop	{r4, r7, pc}
 1907              	.L102:
 1908              		.align	3
 1909              	.L101:
 1910 0220 66666666 		.word	1717986918
 1911 0224 6666E23F 		.word	1071801958
 1912 0228 33331340 		.word	1075000115
 1913 022c 0000F43F 		.word	1072955392
 1914              		.cfi_endproc
 1915              	.LFE12:
 1916              		.size	BME280_GetMeasurementDelay, .-BME280_GetMeasurementDelay
 1917              		.section	.text.BME280_GetHumidityMode,"ax",%progbits
 1918              		.align	2
 1919              		.global	BME280_GetHumidityMode
 1920              		.thumb
 1921              		.thumb_func
 1922              		.type	BME280_GetHumidityMode, %function
 1923              	BME280_GetHumidityMode:
 1924              	.LFB13:
 317:rhea\drivers\BME280/BME280.c **** 
 318:rhea\drivers\BME280/BME280.c **** uint8_t BME280_GetHumidityMode(void) {
 1925              		.loc 1 318 0
 1926              		.cfi_startproc
 1927              		@ args = 0, pretend = 0, frame = 0
 1928              		@ frame_needed = 1, uses_anonymous_args = 0
 1929              		@ link register save eliminated.
 1930 0000 80B4     		push	{r7}
 1931              		.cfi_def_cfa_offset 4
 1932              		.cfi_offset 7, -4
 1933 0002 00AF     		add	r7, sp, #0
 1934              		.cfi_def_cfa_register 7
 319:rhea\drivers\BME280/BME280.c **** 
 320:rhea\drivers\BME280/BME280.c ****     // Returning OSRS_H bits of CTRL_HUM register
 321:rhea\drivers\BME280/BME280.c ****     return BME280_RegistersLocal.CTRL_HUM & BME280_CTRL_HUM_OSRS_H;
 1935              		.loc 1 321 0
 1936 0004 044B     		ldr	r3, .L105
 1937 0006 1B7A     		ldrb	r3, [r3, #8]	@ zero_extendqisi2
 1938 0008 03F00703 		and	r3, r3, #7
 1939 000c DBB2     		uxtb	r3, r3
 322:rhea\drivers\BME280/BME280.c **** }
 1940              		.loc 1 322 0
ARM GAS  C:\Users\GYULAI~1\AppData\Local\Temp\cc8y56XJ.s 			page 41


 1941 000e 1846     		mov	r0, r3
 1942 0010 BD46     		mov	sp, r7
 1943              		.cfi_def_cfa_register 13
 1944              		@ sp needed
 1945 0012 80BC     		pop	{r7}
 1946              		.cfi_restore 7
 1947              		.cfi_def_cfa_offset 0
 1948 0014 7047     		bx	lr
 1949              	.L106:
 1950 0016 00BF     		.align	2
 1951              	.L105:
 1952 0018 10000000 		.word	BME280_RegistersLocal
 1953              		.cfi_endproc
 1954              	.LFE13:
 1955              		.size	BME280_GetHumidityMode, .-BME280_GetHumidityMode
 1956              		.section	.text.BME280_SetHumidityMode,"ax",%progbits
 1957              		.align	2
 1958              		.global	BME280_SetHumidityMode
 1959              		.thumb
 1960              		.thumb_func
 1961              		.type	BME280_SetHumidityMode, %function
 1962              	BME280_SetHumidityMode:
 1963              	.LFB14:
 323:rhea\drivers\BME280/BME280.c **** 
 324:rhea\drivers\BME280/BME280.c **** void BME280_SetHumidityMode(uint8_t mode) {
 1964              		.loc 1 324 0
 1965              		.cfi_startproc
 1966              		@ args = 0, pretend = 0, frame = 8
 1967              		@ frame_needed = 1, uses_anonymous_args = 0
 1968 0000 80B5     		push	{r7, lr}
 1969              		.cfi_def_cfa_offset 8
 1970              		.cfi_offset 7, -8
 1971              		.cfi_offset 14, -4
 1972 0002 82B0     		sub	sp, sp, #8
 1973              		.cfi_def_cfa_offset 16
 1974 0004 00AF     		add	r7, sp, #0
 1975              		.cfi_def_cfa_register 7
 1976 0006 0346     		mov	r3, r0
 1977 0008 FB71     		strb	r3, [r7, #7]
 325:rhea\drivers\BME280/BME280.c **** 
 326:rhea\drivers\BME280/BME280.c ****     // Writing OSRS_H bits of CTRL_HUM register
 327:rhea\drivers\BME280/BME280.c ****     BME280_RegistersLocal.CTRL_HUM &= BME280_CTRL_HUM_OSRS_H;
 1978              		.loc 1 327 0
 1979 000a 0C4B     		ldr	r3, .L108
 1980 000c 1B7A     		ldrb	r3, [r3, #8]	@ zero_extendqisi2
 1981 000e 03F00703 		and	r3, r3, #7
 1982 0012 DAB2     		uxtb	r2, r3
 1983 0014 094B     		ldr	r3, .L108
 1984 0016 1A72     		strb	r2, [r3, #8]
 328:rhea\drivers\BME280/BME280.c ****     BME280_RegistersLocal.CTRL_HUM |= mode;
 1985              		.loc 1 328 0
 1986 0018 084B     		ldr	r3, .L108
 1987 001a 1A7A     		ldrb	r2, [r3, #8]	@ zero_extendqisi2
 1988 001c FB79     		ldrb	r3, [r7, #7]
 1989 001e 1343     		orrs	r3, r3, r2
 1990 0020 DAB2     		uxtb	r2, r3
 1991 0022 064B     		ldr	r3, .L108
ARM GAS  C:\Users\GYULAI~1\AppData\Local\Temp\cc8y56XJ.s 			page 42


 1992 0024 1A72     		strb	r2, [r3, #8]
 329:rhea\drivers\BME280/BME280.c ****     
 330:rhea\drivers\BME280/BME280.c ****     // Writing changes to the device
 331:rhea\drivers\BME280/BME280.c ****     BME280_I2CWriter(BME280_I2C_ADDR, BME280_CTRL_HUM, &BME280_RegistersLocal.CTRL_HUM, 1);
 1993              		.loc 1 331 0
 1994 0026 0123     		movs	r3, #1
 1995 0028 054A     		ldr	r2, .L108+4
 1996 002a F221     		movs	r1, #242
 1997 002c 7620     		movs	r0, #118
 1998 002e FFF7FEFF 		bl	BME280_I2CWriter
 332:rhea\drivers\BME280/BME280.c **** }
 1999              		.loc 1 332 0
 2000 0032 00BF     		nop
 2001 0034 0837     		adds	r7, r7, #8
 2002              		.cfi_def_cfa_offset 8
 2003 0036 BD46     		mov	sp, r7
 2004              		.cfi_def_cfa_register 13
 2005              		@ sp needed
 2006 0038 80BD     		pop	{r7, pc}
 2007              	.L109:
 2008 003a 00BF     		.align	2
 2009              	.L108:
 2010 003c 10000000 		.word	BME280_RegistersLocal
 2011 0040 18000000 		.word	BME280_RegistersLocal+8
 2012              		.cfi_endproc
 2013              	.LFE14:
 2014              		.size	BME280_SetHumidityMode, .-BME280_SetHumidityMode
 2015              		.section	.text.BME280_GetTemperatureMode,"ax",%progbits
 2016              		.align	2
 2017              		.global	BME280_GetTemperatureMode
 2018              		.thumb
 2019              		.thumb_func
 2020              		.type	BME280_GetTemperatureMode, %function
 2021              	BME280_GetTemperatureMode:
 2022              	.LFB15:
 333:rhea\drivers\BME280/BME280.c **** 
 334:rhea\drivers\BME280/BME280.c **** uint8_t BME280_GetTemperatureMode(void) {
 2023              		.loc 1 334 0
 2024              		.cfi_startproc
 2025              		@ args = 0, pretend = 0, frame = 0
 2026              		@ frame_needed = 1, uses_anonymous_args = 0
 2027              		@ link register save eliminated.
 2028 0000 80B4     		push	{r7}
 2029              		.cfi_def_cfa_offset 4
 2030              		.cfi_offset 7, -4
 2031 0002 00AF     		add	r7, sp, #0
 2032              		.cfi_def_cfa_register 7
 335:rhea\drivers\BME280/BME280.c **** 
 336:rhea\drivers\BME280/BME280.c ****     // Returning OSRS_T bits of CTRL_MEAS register
 337:rhea\drivers\BME280/BME280.c ****     return BME280_RegistersLocal.CTRL_MEAS & BME280_CTRL_MEAS_OSRS_T;
 2033              		.loc 1 337 0
 2034 0004 044B     		ldr	r3, .L112
 2035 0006 9B7A     		ldrb	r3, [r3, #10]	@ zero_extendqisi2
 2036 0008 23F01F03 		bic	r3, r3, #31
 2037 000c DBB2     		uxtb	r3, r3
 338:rhea\drivers\BME280/BME280.c **** }
 2038              		.loc 1 338 0
ARM GAS  C:\Users\GYULAI~1\AppData\Local\Temp\cc8y56XJ.s 			page 43


 2039 000e 1846     		mov	r0, r3
 2040 0010 BD46     		mov	sp, r7
 2041              		.cfi_def_cfa_register 13
 2042              		@ sp needed
 2043 0012 80BC     		pop	{r7}
 2044              		.cfi_restore 7
 2045              		.cfi_def_cfa_offset 0
 2046 0014 7047     		bx	lr
 2047              	.L113:
 2048 0016 00BF     		.align	2
 2049              	.L112:
 2050 0018 10000000 		.word	BME280_RegistersLocal
 2051              		.cfi_endproc
 2052              	.LFE15:
 2053              		.size	BME280_GetTemperatureMode, .-BME280_GetTemperatureMode
 2054              		.section	.text.BME280_SetTemperatureMode,"ax",%progbits
 2055              		.align	2
 2056              		.global	BME280_SetTemperatureMode
 2057              		.thumb
 2058              		.thumb_func
 2059              		.type	BME280_SetTemperatureMode, %function
 2060              	BME280_SetTemperatureMode:
 2061              	.LFB16:
 339:rhea\drivers\BME280/BME280.c **** 
 340:rhea\drivers\BME280/BME280.c **** void BME280_SetTemperatureMode(uint8_t mode) {
 2062              		.loc 1 340 0
 2063              		.cfi_startproc
 2064              		@ args = 0, pretend = 0, frame = 8
 2065              		@ frame_needed = 1, uses_anonymous_args = 0
 2066 0000 80B5     		push	{r7, lr}
 2067              		.cfi_def_cfa_offset 8
 2068              		.cfi_offset 7, -8
 2069              		.cfi_offset 14, -4
 2070 0002 82B0     		sub	sp, sp, #8
 2071              		.cfi_def_cfa_offset 16
 2072 0004 00AF     		add	r7, sp, #0
 2073              		.cfi_def_cfa_register 7
 2074 0006 0346     		mov	r3, r0
 2075 0008 FB71     		strb	r3, [r7, #7]
 341:rhea\drivers\BME280/BME280.c **** 
 342:rhea\drivers\BME280/BME280.c ****     // Writing OSRS_T bits of CTRL_MEAS register
 343:rhea\drivers\BME280/BME280.c ****     BME280_RegistersLocal.CTRL_MEAS &= ~BME280_CTRL_MEAS_OSRS_T;
 2076              		.loc 1 343 0
 2077 000a 0C4B     		ldr	r3, .L115
 2078 000c 9B7A     		ldrb	r3, [r3, #10]	@ zero_extendqisi2
 2079 000e 03F01F03 		and	r3, r3, #31
 2080 0012 DAB2     		uxtb	r2, r3
 2081 0014 094B     		ldr	r3, .L115
 2082 0016 9A72     		strb	r2, [r3, #10]
 344:rhea\drivers\BME280/BME280.c ****     BME280_RegistersLocal.CTRL_MEAS |= mode;
 2083              		.loc 1 344 0
 2084 0018 084B     		ldr	r3, .L115
 2085 001a 9A7A     		ldrb	r2, [r3, #10]	@ zero_extendqisi2
 2086 001c FB79     		ldrb	r3, [r7, #7]
 2087 001e 1343     		orrs	r3, r3, r2
 2088 0020 DAB2     		uxtb	r2, r3
 2089 0022 064B     		ldr	r3, .L115
ARM GAS  C:\Users\GYULAI~1\AppData\Local\Temp\cc8y56XJ.s 			page 44


 2090 0024 9A72     		strb	r2, [r3, #10]
 345:rhea\drivers\BME280/BME280.c ****     
 346:rhea\drivers\BME280/BME280.c ****     // Writing changes to the device
 347:rhea\drivers\BME280/BME280.c ****     BME280_I2CWriter(BME280_I2C_ADDR, BME280_CTRL_MEAS, &BME280_RegistersLocal.CTRL_MEAS, 1);
 2091              		.loc 1 347 0
 2092 0026 0123     		movs	r3, #1
 2093 0028 054A     		ldr	r2, .L115+4
 2094 002a F421     		movs	r1, #244
 2095 002c 7620     		movs	r0, #118
 2096 002e FFF7FEFF 		bl	BME280_I2CWriter
 348:rhea\drivers\BME280/BME280.c **** }
 2097              		.loc 1 348 0
 2098 0032 00BF     		nop
 2099 0034 0837     		adds	r7, r7, #8
 2100              		.cfi_def_cfa_offset 8
 2101 0036 BD46     		mov	sp, r7
 2102              		.cfi_def_cfa_register 13
 2103              		@ sp needed
 2104 0038 80BD     		pop	{r7, pc}
 2105              	.L116:
 2106 003a 00BF     		.align	2
 2107              	.L115:
 2108 003c 10000000 		.word	BME280_RegistersLocal
 2109 0040 1A000000 		.word	BME280_RegistersLocal+10
 2110              		.cfi_endproc
 2111              	.LFE16:
 2112              		.size	BME280_SetTemperatureMode, .-BME280_SetTemperatureMode
 2113              		.section	.text.BME280_GetPressureMode,"ax",%progbits
 2114              		.align	2
 2115              		.global	BME280_GetPressureMode
 2116              		.thumb
 2117              		.thumb_func
 2118              		.type	BME280_GetPressureMode, %function
 2119              	BME280_GetPressureMode:
 2120              	.LFB17:
 349:rhea\drivers\BME280/BME280.c **** 
 350:rhea\drivers\BME280/BME280.c **** uint8_t BME280_GetPressureMode(void) {
 2121              		.loc 1 350 0
 2122              		.cfi_startproc
 2123              		@ args = 0, pretend = 0, frame = 0
 2124              		@ frame_needed = 1, uses_anonymous_args = 0
 2125              		@ link register save eliminated.
 2126 0000 80B4     		push	{r7}
 2127              		.cfi_def_cfa_offset 4
 2128              		.cfi_offset 7, -4
 2129 0002 00AF     		add	r7, sp, #0
 2130              		.cfi_def_cfa_register 7
 351:rhea\drivers\BME280/BME280.c **** 
 352:rhea\drivers\BME280/BME280.c ****     // Returning OSRS_P bits of CTRL_MEAS register
 353:rhea\drivers\BME280/BME280.c ****     return BME280_RegistersLocal.CTRL_MEAS & BME280_CTRL_MEAS_OSRS_P;
 2131              		.loc 1 353 0
 2132 0004 044B     		ldr	r3, .L119
 2133 0006 9B7A     		ldrb	r3, [r3, #10]	@ zero_extendqisi2
 2134 0008 03F01C03 		and	r3, r3, #28
 2135 000c DBB2     		uxtb	r3, r3
 354:rhea\drivers\BME280/BME280.c **** }
 2136              		.loc 1 354 0
ARM GAS  C:\Users\GYULAI~1\AppData\Local\Temp\cc8y56XJ.s 			page 45


 2137 000e 1846     		mov	r0, r3
 2138 0010 BD46     		mov	sp, r7
 2139              		.cfi_def_cfa_register 13
 2140              		@ sp needed
 2141 0012 80BC     		pop	{r7}
 2142              		.cfi_restore 7
 2143              		.cfi_def_cfa_offset 0
 2144 0014 7047     		bx	lr
 2145              	.L120:
 2146 0016 00BF     		.align	2
 2147              	.L119:
 2148 0018 10000000 		.word	BME280_RegistersLocal
 2149              		.cfi_endproc
 2150              	.LFE17:
 2151              		.size	BME280_GetPressureMode, .-BME280_GetPressureMode
 2152              		.section	.text.BME280_SetPressureMode,"ax",%progbits
 2153              		.align	2
 2154              		.global	BME280_SetPressureMode
 2155              		.thumb
 2156              		.thumb_func
 2157              		.type	BME280_SetPressureMode, %function
 2158              	BME280_SetPressureMode:
 2159              	.LFB18:
 355:rhea\drivers\BME280/BME280.c **** 
 356:rhea\drivers\BME280/BME280.c **** void BME280_SetPressureMode(uint8_t mode) {
 2160              		.loc 1 356 0
 2161              		.cfi_startproc
 2162              		@ args = 0, pretend = 0, frame = 8
 2163              		@ frame_needed = 1, uses_anonymous_args = 0
 2164 0000 80B5     		push	{r7, lr}
 2165              		.cfi_def_cfa_offset 8
 2166              		.cfi_offset 7, -8
 2167              		.cfi_offset 14, -4
 2168 0002 82B0     		sub	sp, sp, #8
 2169              		.cfi_def_cfa_offset 16
 2170 0004 00AF     		add	r7, sp, #0
 2171              		.cfi_def_cfa_register 7
 2172 0006 0346     		mov	r3, r0
 2173 0008 FB71     		strb	r3, [r7, #7]
 357:rhea\drivers\BME280/BME280.c **** 
 358:rhea\drivers\BME280/BME280.c ****     // Writing OSRS_P bits of CTRL_MEAS register
 359:rhea\drivers\BME280/BME280.c ****     BME280_RegistersLocal.CTRL_MEAS &= ~BME280_CTRL_MEAS_OSRS_P;
 2174              		.loc 1 359 0
 2175 000a 0C4B     		ldr	r3, .L122
 2176 000c 9B7A     		ldrb	r3, [r3, #10]	@ zero_extendqisi2
 2177 000e 23F01C03 		bic	r3, r3, #28
 2178 0012 DAB2     		uxtb	r2, r3
 2179 0014 094B     		ldr	r3, .L122
 2180 0016 9A72     		strb	r2, [r3, #10]
 360:rhea\drivers\BME280/BME280.c ****     BME280_RegistersLocal.CTRL_MEAS |= mode;
 2181              		.loc 1 360 0
 2182 0018 084B     		ldr	r3, .L122
 2183 001a 9A7A     		ldrb	r2, [r3, #10]	@ zero_extendqisi2
 2184 001c FB79     		ldrb	r3, [r7, #7]
 2185 001e 1343     		orrs	r3, r3, r2
 2186 0020 DAB2     		uxtb	r2, r3
 2187 0022 064B     		ldr	r3, .L122
ARM GAS  C:\Users\GYULAI~1\AppData\Local\Temp\cc8y56XJ.s 			page 46


 2188 0024 9A72     		strb	r2, [r3, #10]
 361:rhea\drivers\BME280/BME280.c ****     
 362:rhea\drivers\BME280/BME280.c ****     // Writing changes to the device
 363:rhea\drivers\BME280/BME280.c ****     BME280_I2CWriter(BME280_I2C_ADDR, BME280_CTRL_MEAS, &BME280_RegistersLocal.CTRL_MEAS, 1);
 2189              		.loc 1 363 0
 2190 0026 0123     		movs	r3, #1
 2191 0028 054A     		ldr	r2, .L122+4
 2192 002a F421     		movs	r1, #244
 2193 002c 7620     		movs	r0, #118
 2194 002e FFF7FEFF 		bl	BME280_I2CWriter
 364:rhea\drivers\BME280/BME280.c **** }
 2195              		.loc 1 364 0
 2196 0032 00BF     		nop
 2197 0034 0837     		adds	r7, r7, #8
 2198              		.cfi_def_cfa_offset 8
 2199 0036 BD46     		mov	sp, r7
 2200              		.cfi_def_cfa_register 13
 2201              		@ sp needed
 2202 0038 80BD     		pop	{r7, pc}
 2203              	.L123:
 2204 003a 00BF     		.align	2
 2205              	.L122:
 2206 003c 10000000 		.word	BME280_RegistersLocal
 2207 0040 1A000000 		.word	BME280_RegistersLocal+10
 2208              		.cfi_endproc
 2209              	.LFE18:
 2210              		.size	BME280_SetPressureMode, .-BME280_SetPressureMode
 2211              		.section	.text.BME280_IsMeasuring,"ax",%progbits
 2212              		.align	2
 2213              		.global	BME280_IsMeasuring
 2214              		.thumb
 2215              		.thumb_func
 2216              		.type	BME280_IsMeasuring, %function
 2217              	BME280_IsMeasuring:
 2218              	.LFB19:
 365:rhea\drivers\BME280/BME280.c **** 
 366:rhea\drivers\BME280/BME280.c **** uint8_t BME280_IsMeasuring(void) {
 2219              		.loc 1 366 0
 2220              		.cfi_startproc
 2221              		@ args = 0, pretend = 0, frame = 0
 2222              		@ frame_needed = 1, uses_anonymous_args = 0
 2223 0000 80B5     		push	{r7, lr}
 2224              		.cfi_def_cfa_offset 8
 2225              		.cfi_offset 7, -8
 2226              		.cfi_offset 14, -4
 2227 0002 00AF     		add	r7, sp, #0
 2228              		.cfi_def_cfa_register 7
 367:rhea\drivers\BME280/BME280.c ****     
 368:rhea\drivers\BME280/BME280.c ****     // Reading STATUS register
 369:rhea\drivers\BME280/BME280.c ****     BME280_I2CReader(BME280_I2C_ADDR, BME280_STATUS, &BME280_RegistersLocal.STATUS, 1);
 2229              		.loc 1 369 0
 2230 0004 0123     		movs	r3, #1
 2231 0006 064A     		ldr	r2, .L126
 2232 0008 F321     		movs	r1, #243
 2233 000a 7620     		movs	r0, #118
 2234 000c FFF7FEFF 		bl	BME280_I2CReader
 370:rhea\drivers\BME280/BME280.c **** 
ARM GAS  C:\Users\GYULAI~1\AppData\Local\Temp\cc8y56XJ.s 			page 47


 371:rhea\drivers\BME280/BME280.c ****     // Returning MEASURING bits of STATUS register
 372:rhea\drivers\BME280/BME280.c ****     return BME280_RegistersLocal.STATUS & BME280_STATUS_MEASURING;
 2235              		.loc 1 372 0
 2236 0010 044B     		ldr	r3, .L126+4
 2237 0012 5B7A     		ldrb	r3, [r3, #9]	@ zero_extendqisi2
 2238 0014 03F00803 		and	r3, r3, #8
 2239 0018 DBB2     		uxtb	r3, r3
 373:rhea\drivers\BME280/BME280.c **** }
 2240              		.loc 1 373 0
 2241 001a 1846     		mov	r0, r3
 2242 001c 80BD     		pop	{r7, pc}
 2243              	.L127:
 2244 001e 00BF     		.align	2
 2245              	.L126:
 2246 0020 19000000 		.word	BME280_RegistersLocal+9
 2247 0024 10000000 		.word	BME280_RegistersLocal
 2248              		.cfi_endproc
 2249              	.LFE19:
 2250              		.size	BME280_IsMeasuring, .-BME280_IsMeasuring
 2251              		.section	.text.BME280_IsUpdating,"ax",%progbits
 2252              		.align	2
 2253              		.global	BME280_IsUpdating
 2254              		.thumb
 2255              		.thumb_func
 2256              		.type	BME280_IsUpdating, %function
 2257              	BME280_IsUpdating:
 2258              	.LFB20:
 374:rhea\drivers\BME280/BME280.c **** 
 375:rhea\drivers\BME280/BME280.c **** uint8_t BME280_IsUpdating(void) {
 2259              		.loc 1 375 0
 2260              		.cfi_startproc
 2261              		@ args = 0, pretend = 0, frame = 0
 2262              		@ frame_needed = 1, uses_anonymous_args = 0
 2263 0000 80B5     		push	{r7, lr}
 2264              		.cfi_def_cfa_offset 8
 2265              		.cfi_offset 7, -8
 2266              		.cfi_offset 14, -4
 2267 0002 00AF     		add	r7, sp, #0
 2268              		.cfi_def_cfa_register 7
 376:rhea\drivers\BME280/BME280.c ****     
 377:rhea\drivers\BME280/BME280.c ****     // Reading STATUS register
 378:rhea\drivers\BME280/BME280.c ****     BME280_I2CReader(BME280_I2C_ADDR, BME280_STATUS, &BME280_RegistersLocal.STATUS, 1);
 2269              		.loc 1 378 0
 2270 0004 0123     		movs	r3, #1
 2271 0006 064A     		ldr	r2, .L130
 2272 0008 F321     		movs	r1, #243
 2273 000a 7620     		movs	r0, #118
 2274 000c FFF7FEFF 		bl	BME280_I2CReader
 379:rhea\drivers\BME280/BME280.c **** 
 380:rhea\drivers\BME280/BME280.c ****     // Returning IM_UPDATE bit of STATUS register
 381:rhea\drivers\BME280/BME280.c ****     return BME280_RegistersLocal.STATUS & BME280_STATUS_IM_UPDATE;
 2275              		.loc 1 381 0
 2276 0010 044B     		ldr	r3, .L130+4
 2277 0012 5B7A     		ldrb	r3, [r3, #9]	@ zero_extendqisi2
 2278 0014 03F00103 		and	r3, r3, #1
 2279 0018 DBB2     		uxtb	r3, r3
 382:rhea\drivers\BME280/BME280.c **** }
ARM GAS  C:\Users\GYULAI~1\AppData\Local\Temp\cc8y56XJ.s 			page 48


 2280              		.loc 1 382 0
 2281 001a 1846     		mov	r0, r3
 2282 001c 80BD     		pop	{r7, pc}
 2283              	.L131:
 2284 001e 00BF     		.align	2
 2285              	.L130:
 2286 0020 19000000 		.word	BME280_RegistersLocal+9
 2287 0024 10000000 		.word	BME280_RegistersLocal
 2288              		.cfi_endproc
 2289              	.LFE20:
 2290              		.size	BME280_IsUpdating, .-BME280_IsUpdating
 2291              		.section	.text.BME280_GetMeasurementMode,"ax",%progbits
 2292              		.align	2
 2293              		.global	BME280_GetMeasurementMode
 2294              		.thumb
 2295              		.thumb_func
 2296              		.type	BME280_GetMeasurementMode, %function
 2297              	BME280_GetMeasurementMode:
 2298              	.LFB21:
 383:rhea\drivers\BME280/BME280.c **** 
 384:rhea\drivers\BME280/BME280.c **** uint8_t BME280_GetMeasurementMode(void) {
 2299              		.loc 1 384 0
 2300              		.cfi_startproc
 2301              		@ args = 0, pretend = 0, frame = 0
 2302              		@ frame_needed = 1, uses_anonymous_args = 0
 2303              		@ link register save eliminated.
 2304 0000 80B4     		push	{r7}
 2305              		.cfi_def_cfa_offset 4
 2306              		.cfi_offset 7, -4
 2307 0002 00AF     		add	r7, sp, #0
 2308              		.cfi_def_cfa_register 7
 385:rhea\drivers\BME280/BME280.c **** 
 386:rhea\drivers\BME280/BME280.c ****     // Reading MODE bits of CTRL_MEAS register
 387:rhea\drivers\BME280/BME280.c ****     return BME280_RegistersLocal.CTRL_MEAS & BME280_CTRL_MEAS_MODE;
 2309              		.loc 1 387 0
 2310 0004 044B     		ldr	r3, .L134
 2311 0006 9B7A     		ldrb	r3, [r3, #10]	@ zero_extendqisi2
 2312 0008 03F00303 		and	r3, r3, #3
 2313 000c DBB2     		uxtb	r3, r3
 388:rhea\drivers\BME280/BME280.c **** }
 2314              		.loc 1 388 0
 2315 000e 1846     		mov	r0, r3
 2316 0010 BD46     		mov	sp, r7
 2317              		.cfi_def_cfa_register 13
 2318              		@ sp needed
 2319 0012 80BC     		pop	{r7}
 2320              		.cfi_restore 7
 2321              		.cfi_def_cfa_offset 0
 2322 0014 7047     		bx	lr
 2323              	.L135:
 2324 0016 00BF     		.align	2
 2325              	.L134:
 2326 0018 10000000 		.word	BME280_RegistersLocal
 2327              		.cfi_endproc
 2328              	.LFE21:
 2329              		.size	BME280_GetMeasurementMode, .-BME280_GetMeasurementMode
 2330              		.section	.text.BME280_SetMeasurementMode,"ax",%progbits
ARM GAS  C:\Users\GYULAI~1\AppData\Local\Temp\cc8y56XJ.s 			page 49


 2331              		.align	2
 2332              		.global	BME280_SetMeasurementMode
 2333              		.thumb
 2334              		.thumb_func
 2335              		.type	BME280_SetMeasurementMode, %function
 2336              	BME280_SetMeasurementMode:
 2337              	.LFB22:
 389:rhea\drivers\BME280/BME280.c **** 
 390:rhea\drivers\BME280/BME280.c **** void BME280_SetMeasurementMode(uint8_t mode) {
 2338              		.loc 1 390 0
 2339              		.cfi_startproc
 2340              		@ args = 0, pretend = 0, frame = 8
 2341              		@ frame_needed = 1, uses_anonymous_args = 0
 2342 0000 80B5     		push	{r7, lr}
 2343              		.cfi_def_cfa_offset 8
 2344              		.cfi_offset 7, -8
 2345              		.cfi_offset 14, -4
 2346 0002 82B0     		sub	sp, sp, #8
 2347              		.cfi_def_cfa_offset 16
 2348 0004 00AF     		add	r7, sp, #0
 2349              		.cfi_def_cfa_register 7
 2350 0006 0346     		mov	r3, r0
 2351 0008 FB71     		strb	r3, [r7, #7]
 391:rhea\drivers\BME280/BME280.c **** 
 392:rhea\drivers\BME280/BME280.c ****     // Writing MODE bits of CTRL_MEAS register
 393:rhea\drivers\BME280/BME280.c ****     BME280_RegistersLocal.CTRL_MEAS &= ~BME280_CTRL_MEAS_MODE;
 2352              		.loc 1 393 0
 2353 000a 0C4B     		ldr	r3, .L137
 2354 000c 9B7A     		ldrb	r3, [r3, #10]	@ zero_extendqisi2
 2355 000e 23F00303 		bic	r3, r3, #3
 2356 0012 DAB2     		uxtb	r2, r3
 2357 0014 094B     		ldr	r3, .L137
 2358 0016 9A72     		strb	r2, [r3, #10]
 394:rhea\drivers\BME280/BME280.c ****     BME280_RegistersLocal.CTRL_MEAS |= mode;
 2359              		.loc 1 394 0
 2360 0018 084B     		ldr	r3, .L137
 2361 001a 9A7A     		ldrb	r2, [r3, #10]	@ zero_extendqisi2
 2362 001c FB79     		ldrb	r3, [r7, #7]
 2363 001e 1343     		orrs	r3, r3, r2
 2364 0020 DAB2     		uxtb	r2, r3
 2365 0022 064B     		ldr	r3, .L137
 2366 0024 9A72     		strb	r2, [r3, #10]
 395:rhea\drivers\BME280/BME280.c ****     
 396:rhea\drivers\BME280/BME280.c ****     // Writing changes to the device
 397:rhea\drivers\BME280/BME280.c ****     BME280_I2CWriter(BME280_I2C_ADDR, BME280_CTRL_MEAS, &BME280_RegistersLocal.CTRL_MEAS, 1);
 2367              		.loc 1 397 0
 2368 0026 0123     		movs	r3, #1
 2369 0028 054A     		ldr	r2, .L137+4
 2370 002a F421     		movs	r1, #244
 2371 002c 7620     		movs	r0, #118
 2372 002e FFF7FEFF 		bl	BME280_I2CWriter
 398:rhea\drivers\BME280/BME280.c **** }
 2373              		.loc 1 398 0
 2374 0032 00BF     		nop
 2375 0034 0837     		adds	r7, r7, #8
 2376              		.cfi_def_cfa_offset 8
 2377 0036 BD46     		mov	sp, r7
ARM GAS  C:\Users\GYULAI~1\AppData\Local\Temp\cc8y56XJ.s 			page 50


 2378              		.cfi_def_cfa_register 13
 2379              		@ sp needed
 2380 0038 80BD     		pop	{r7, pc}
 2381              	.L138:
 2382 003a 00BF     		.align	2
 2383              	.L137:
 2384 003c 10000000 		.word	BME280_RegistersLocal
 2385 0040 1A000000 		.word	BME280_RegistersLocal+10
 2386              		.cfi_endproc
 2387              	.LFE22:
 2388              		.size	BME280_SetMeasurementMode, .-BME280_SetMeasurementMode
 2389              		.section	.text.BME280_GetStandbyTime,"ax",%progbits
 2390              		.align	2
 2391              		.global	BME280_GetStandbyTime
 2392              		.thumb
 2393              		.thumb_func
 2394              		.type	BME280_GetStandbyTime, %function
 2395              	BME280_GetStandbyTime:
 2396              	.LFB23:
 399:rhea\drivers\BME280/BME280.c **** 
 400:rhea\drivers\BME280/BME280.c **** uint8_t BME280_GetStandbyTime(void) {
 2397              		.loc 1 400 0
 2398              		.cfi_startproc
 2399              		@ args = 0, pretend = 0, frame = 0
 2400              		@ frame_needed = 1, uses_anonymous_args = 0
 2401              		@ link register save eliminated.
 2402 0000 80B4     		push	{r7}
 2403              		.cfi_def_cfa_offset 4
 2404              		.cfi_offset 7, -4
 2405 0002 00AF     		add	r7, sp, #0
 2406              		.cfi_def_cfa_register 7
 401:rhea\drivers\BME280/BME280.c **** 
 402:rhea\drivers\BME280/BME280.c ****     // Reading T_SB bits of CONFIG register
 403:rhea\drivers\BME280/BME280.c ****     return BME280_RegistersLocal.CONFIG & BME280_CONFIG_T_SB;
 2407              		.loc 1 403 0
 2408 0004 044B     		ldr	r3, .L141
 2409 0006 DB7A     		ldrb	r3, [r3, #11]	@ zero_extendqisi2
 2410 0008 23F01F03 		bic	r3, r3, #31
 2411 000c DBB2     		uxtb	r3, r3
 404:rhea\drivers\BME280/BME280.c **** }
 2412              		.loc 1 404 0
 2413 000e 1846     		mov	r0, r3
 2414 0010 BD46     		mov	sp, r7
 2415              		.cfi_def_cfa_register 13
 2416              		@ sp needed
 2417 0012 80BC     		pop	{r7}
 2418              		.cfi_restore 7
 2419              		.cfi_def_cfa_offset 0
 2420 0014 7047     		bx	lr
 2421              	.L142:
 2422 0016 00BF     		.align	2
 2423              	.L141:
 2424 0018 10000000 		.word	BME280_RegistersLocal
 2425              		.cfi_endproc
 2426              	.LFE23:
 2427              		.size	BME280_GetStandbyTime, .-BME280_GetStandbyTime
 2428              		.section	.text.BME280_SetStandbyTime,"ax",%progbits
ARM GAS  C:\Users\GYULAI~1\AppData\Local\Temp\cc8y56XJ.s 			page 51


 2429              		.align	2
 2430              		.global	BME280_SetStandbyTime
 2431              		.thumb
 2432              		.thumb_func
 2433              		.type	BME280_SetStandbyTime, %function
 2434              	BME280_SetStandbyTime:
 2435              	.LFB24:
 405:rhea\drivers\BME280/BME280.c **** 
 406:rhea\drivers\BME280/BME280.c **** void BME280_SetStandbyTime(uint8_t standby) {
 2436              		.loc 1 406 0
 2437              		.cfi_startproc
 2438              		@ args = 0, pretend = 0, frame = 8
 2439              		@ frame_needed = 1, uses_anonymous_args = 0
 2440 0000 80B5     		push	{r7, lr}
 2441              		.cfi_def_cfa_offset 8
 2442              		.cfi_offset 7, -8
 2443              		.cfi_offset 14, -4
 2444 0002 82B0     		sub	sp, sp, #8
 2445              		.cfi_def_cfa_offset 16
 2446 0004 00AF     		add	r7, sp, #0
 2447              		.cfi_def_cfa_register 7
 2448 0006 0346     		mov	r3, r0
 2449 0008 FB71     		strb	r3, [r7, #7]
 407:rhea\drivers\BME280/BME280.c **** 
 408:rhea\drivers\BME280/BME280.c ****     // Writing T_SB bits of CONFIG register
 409:rhea\drivers\BME280/BME280.c ****     BME280_RegistersLocal.CONFIG &= ~BME280_CONFIG_T_SB;
 2450              		.loc 1 409 0
 2451 000a 0C4B     		ldr	r3, .L144
 2452 000c DB7A     		ldrb	r3, [r3, #11]	@ zero_extendqisi2
 2453 000e 03F01F03 		and	r3, r3, #31
 2454 0012 DAB2     		uxtb	r2, r3
 2455 0014 094B     		ldr	r3, .L144
 2456 0016 DA72     		strb	r2, [r3, #11]
 410:rhea\drivers\BME280/BME280.c ****     BME280_RegistersLocal.CONFIG |= standby;
 2457              		.loc 1 410 0
 2458 0018 084B     		ldr	r3, .L144
 2459 001a DA7A     		ldrb	r2, [r3, #11]	@ zero_extendqisi2
 2460 001c FB79     		ldrb	r3, [r7, #7]
 2461 001e 1343     		orrs	r3, r3, r2
 2462 0020 DAB2     		uxtb	r2, r3
 2463 0022 064B     		ldr	r3, .L144
 2464 0024 DA72     		strb	r2, [r3, #11]
 411:rhea\drivers\BME280/BME280.c ****     
 412:rhea\drivers\BME280/BME280.c ****     // Writing changes to the device
 413:rhea\drivers\BME280/BME280.c ****     BME280_I2CWriter(BME280_I2C_ADDR, BME280_CONFIG, &BME280_RegistersLocal.CONFIG, 1);
 2465              		.loc 1 413 0
 2466 0026 0123     		movs	r3, #1
 2467 0028 054A     		ldr	r2, .L144+4
 2468 002a F521     		movs	r1, #245
 2469 002c 7620     		movs	r0, #118
 2470 002e FFF7FEFF 		bl	BME280_I2CWriter
 414:rhea\drivers\BME280/BME280.c **** }
 2471              		.loc 1 414 0
 2472 0032 00BF     		nop
 2473 0034 0837     		adds	r7, r7, #8
 2474              		.cfi_def_cfa_offset 8
 2475 0036 BD46     		mov	sp, r7
ARM GAS  C:\Users\GYULAI~1\AppData\Local\Temp\cc8y56XJ.s 			page 52


 2476              		.cfi_def_cfa_register 13
 2477              		@ sp needed
 2478 0038 80BD     		pop	{r7, pc}
 2479              	.L145:
 2480 003a 00BF     		.align	2
 2481              	.L144:
 2482 003c 10000000 		.word	BME280_RegistersLocal
 2483 0040 1B000000 		.word	BME280_RegistersLocal+11
 2484              		.cfi_endproc
 2485              	.LFE24:
 2486              		.size	BME280_SetStandbyTime, .-BME280_SetStandbyTime
 2487              		.section	.text.BME280_GetFilterMode,"ax",%progbits
 2488              		.align	2
 2489              		.global	BME280_GetFilterMode
 2490              		.thumb
 2491              		.thumb_func
 2492              		.type	BME280_GetFilterMode, %function
 2493              	BME280_GetFilterMode:
 2494              	.LFB25:
 415:rhea\drivers\BME280/BME280.c **** 
 416:rhea\drivers\BME280/BME280.c **** uint8_t BME280_GetFilterMode(void) {
 2495              		.loc 1 416 0
 2496              		.cfi_startproc
 2497              		@ args = 0, pretend = 0, frame = 0
 2498              		@ frame_needed = 1, uses_anonymous_args = 0
 2499              		@ link register save eliminated.
 2500 0000 80B4     		push	{r7}
 2501              		.cfi_def_cfa_offset 4
 2502              		.cfi_offset 7, -4
 2503 0002 00AF     		add	r7, sp, #0
 2504              		.cfi_def_cfa_register 7
 417:rhea\drivers\BME280/BME280.c **** 
 418:rhea\drivers\BME280/BME280.c ****     // Reading FILTER bits of CONFIG register
 419:rhea\drivers\BME280/BME280.c ****     return BME280_RegistersLocal.CONFIG & BME280_CONFIG_FILTER;
 2505              		.loc 1 419 0
 2506 0004 044B     		ldr	r3, .L148
 2507 0006 DB7A     		ldrb	r3, [r3, #11]	@ zero_extendqisi2
 2508 0008 03F01C03 		and	r3, r3, #28
 2509 000c DBB2     		uxtb	r3, r3
 420:rhea\drivers\BME280/BME280.c **** }
 2510              		.loc 1 420 0
 2511 000e 1846     		mov	r0, r3
 2512 0010 BD46     		mov	sp, r7
 2513              		.cfi_def_cfa_register 13
 2514              		@ sp needed
 2515 0012 80BC     		pop	{r7}
 2516              		.cfi_restore 7
 2517              		.cfi_def_cfa_offset 0
 2518 0014 7047     		bx	lr
 2519              	.L149:
 2520 0016 00BF     		.align	2
 2521              	.L148:
 2522 0018 10000000 		.word	BME280_RegistersLocal
 2523              		.cfi_endproc
 2524              	.LFE25:
 2525              		.size	BME280_GetFilterMode, .-BME280_GetFilterMode
 2526              		.section	.text.BME280_SetFilterMode,"ax",%progbits
ARM GAS  C:\Users\GYULAI~1\AppData\Local\Temp\cc8y56XJ.s 			page 53


 2527              		.align	2
 2528              		.global	BME280_SetFilterMode
 2529              		.thumb
 2530              		.thumb_func
 2531              		.type	BME280_SetFilterMode, %function
 2532              	BME280_SetFilterMode:
 2533              	.LFB26:
 421:rhea\drivers\BME280/BME280.c **** 
 422:rhea\drivers\BME280/BME280.c **** void BME280_SetFilterMode(uint8_t mode) {
 2534              		.loc 1 422 0
 2535              		.cfi_startproc
 2536              		@ args = 0, pretend = 0, frame = 8
 2537              		@ frame_needed = 1, uses_anonymous_args = 0
 2538 0000 80B5     		push	{r7, lr}
 2539              		.cfi_def_cfa_offset 8
 2540              		.cfi_offset 7, -8
 2541              		.cfi_offset 14, -4
 2542 0002 82B0     		sub	sp, sp, #8
 2543              		.cfi_def_cfa_offset 16
 2544 0004 00AF     		add	r7, sp, #0
 2545              		.cfi_def_cfa_register 7
 2546 0006 0346     		mov	r3, r0
 2547 0008 FB71     		strb	r3, [r7, #7]
 423:rhea\drivers\BME280/BME280.c **** 
 424:rhea\drivers\BME280/BME280.c ****     // Writing FILTER bits of CONFIG register
 425:rhea\drivers\BME280/BME280.c ****     BME280_RegistersLocal.CONFIG &= ~BME280_CONFIG_FILTER;
 2548              		.loc 1 425 0
 2549 000a 0C4B     		ldr	r3, .L151
 2550 000c DB7A     		ldrb	r3, [r3, #11]	@ zero_extendqisi2
 2551 000e 23F01C03 		bic	r3, r3, #28
 2552 0012 DAB2     		uxtb	r2, r3
 2553 0014 094B     		ldr	r3, .L151
 2554 0016 DA72     		strb	r2, [r3, #11]
 426:rhea\drivers\BME280/BME280.c ****     BME280_RegistersLocal.CONFIG |= mode;
 2555              		.loc 1 426 0
 2556 0018 084B     		ldr	r3, .L151
 2557 001a DA7A     		ldrb	r2, [r3, #11]	@ zero_extendqisi2
 2558 001c FB79     		ldrb	r3, [r7, #7]
 2559 001e 1343     		orrs	r3, r3, r2
 2560 0020 DAB2     		uxtb	r2, r3
 2561 0022 064B     		ldr	r3, .L151
 2562 0024 DA72     		strb	r2, [r3, #11]
 427:rhea\drivers\BME280/BME280.c ****     
 428:rhea\drivers\BME280/BME280.c ****     // Writing changes to the device
 429:rhea\drivers\BME280/BME280.c ****     BME280_I2CWriter(BME280_I2C_ADDR, BME280_CONFIG, &BME280_RegistersLocal.CONFIG, 1);
 2563              		.loc 1 429 0
 2564 0026 0123     		movs	r3, #1
 2565 0028 054A     		ldr	r2, .L151+4
 2566 002a F521     		movs	r1, #245
 2567 002c 7620     		movs	r0, #118
 2568 002e FFF7FEFF 		bl	BME280_I2CWriter
 430:rhea\drivers\BME280/BME280.c **** }
 2569              		.loc 1 430 0
 2570 0032 00BF     		nop
 2571 0034 0837     		adds	r7, r7, #8
 2572              		.cfi_def_cfa_offset 8
 2573 0036 BD46     		mov	sp, r7
ARM GAS  C:\Users\GYULAI~1\AppData\Local\Temp\cc8y56XJ.s 			page 54


 2574              		.cfi_def_cfa_register 13
 2575              		@ sp needed
 2576 0038 80BD     		pop	{r7, pc}
 2577              	.L152:
 2578 003a 00BF     		.align	2
 2579              	.L151:
 2580 003c 10000000 		.word	BME280_RegistersLocal
 2581 0040 1B000000 		.word	BME280_RegistersLocal+11
 2582              		.cfi_endproc
 2583              	.LFE26:
 2584              		.size	BME280_SetFilterMode, .-BME280_SetFilterMode
 2585              		.section	.text.BME280_EnableSPI3Wire,"ax",%progbits
 2586              		.align	2
 2587              		.global	BME280_EnableSPI3Wire
 2588              		.thumb
 2589              		.thumb_func
 2590              		.type	BME280_EnableSPI3Wire, %function
 2591              	BME280_EnableSPI3Wire:
 2592              	.LFB27:
 431:rhea\drivers\BME280/BME280.c **** 
 432:rhea\drivers\BME280/BME280.c **** void BME280_EnableSPI3Wire(void) {
 2593              		.loc 1 432 0
 2594              		.cfi_startproc
 2595              		@ args = 0, pretend = 0, frame = 0
 2596              		@ frame_needed = 1, uses_anonymous_args = 0
 2597 0000 80B5     		push	{r7, lr}
 2598              		.cfi_def_cfa_offset 8
 2599              		.cfi_offset 7, -8
 2600              		.cfi_offset 14, -4
 2601 0002 00AF     		add	r7, sp, #0
 2602              		.cfi_def_cfa_register 7
 433:rhea\drivers\BME280/BME280.c **** 
 434:rhea\drivers\BME280/BME280.c ****     // Setting SPI3W_EN bit of CONFIG register
 435:rhea\drivers\BME280/BME280.c ****     BME280_RegistersLocal.CONFIG |= BME280_CONFIG_SPI3W_EN;
 2603              		.loc 1 435 0
 2604 0004 074B     		ldr	r3, .L154
 2605 0006 DB7A     		ldrb	r3, [r3, #11]	@ zero_extendqisi2
 2606 0008 43F00103 		orr	r3, r3, #1
 2607 000c DAB2     		uxtb	r2, r3
 2608 000e 054B     		ldr	r3, .L154
 2609 0010 DA72     		strb	r2, [r3, #11]
 436:rhea\drivers\BME280/BME280.c ****     
 437:rhea\drivers\BME280/BME280.c ****     // Writing changes to the device
 438:rhea\drivers\BME280/BME280.c ****     BME280_I2CWriter(BME280_I2C_ADDR, BME280_CONFIG, &BME280_RegistersLocal.CONFIG, 1);
 2610              		.loc 1 438 0
 2611 0012 0123     		movs	r3, #1
 2612 0014 044A     		ldr	r2, .L154+4
 2613 0016 F521     		movs	r1, #245
 2614 0018 7620     		movs	r0, #118
 2615 001a FFF7FEFF 		bl	BME280_I2CWriter
 439:rhea\drivers\BME280/BME280.c **** }
 2616              		.loc 1 439 0
 2617 001e 00BF     		nop
 2618 0020 80BD     		pop	{r7, pc}
 2619              	.L155:
 2620 0022 00BF     		.align	2
 2621              	.L154:
ARM GAS  C:\Users\GYULAI~1\AppData\Local\Temp\cc8y56XJ.s 			page 55


 2622 0024 10000000 		.word	BME280_RegistersLocal
 2623 0028 1B000000 		.word	BME280_RegistersLocal+11
 2624              		.cfi_endproc
 2625              	.LFE27:
 2626              		.size	BME280_EnableSPI3Wire, .-BME280_EnableSPI3Wire
 2627              		.section	.text.BME280_DisableSPI3Wire,"ax",%progbits
 2628              		.align	2
 2629              		.global	BME280_DisableSPI3Wire
 2630              		.thumb
 2631              		.thumb_func
 2632              		.type	BME280_DisableSPI3Wire, %function
 2633              	BME280_DisableSPI3Wire:
 2634              	.LFB28:
 440:rhea\drivers\BME280/BME280.c **** 
 441:rhea\drivers\BME280/BME280.c **** void BME280_DisableSPI3Wire(void) {
 2635              		.loc 1 441 0
 2636              		.cfi_startproc
 2637              		@ args = 0, pretend = 0, frame = 0
 2638              		@ frame_needed = 1, uses_anonymous_args = 0
 2639 0000 80B5     		push	{r7, lr}
 2640              		.cfi_def_cfa_offset 8
 2641              		.cfi_offset 7, -8
 2642              		.cfi_offset 14, -4
 2643 0002 00AF     		add	r7, sp, #0
 2644              		.cfi_def_cfa_register 7
 442:rhea\drivers\BME280/BME280.c **** 
 443:rhea\drivers\BME280/BME280.c ****     // Clearing SPI3W_EN bit of CONFIG register
 444:rhea\drivers\BME280/BME280.c ****     BME280_RegistersLocal.CONFIG &= ~BME280_CONFIG_SPI3W_EN;
 2645              		.loc 1 444 0
 2646 0004 074B     		ldr	r3, .L157
 2647 0006 DB7A     		ldrb	r3, [r3, #11]	@ zero_extendqisi2
 2648 0008 23F00103 		bic	r3, r3, #1
 2649 000c DAB2     		uxtb	r2, r3
 2650 000e 054B     		ldr	r3, .L157
 2651 0010 DA72     		strb	r2, [r3, #11]
 445:rhea\drivers\BME280/BME280.c ****     
 446:rhea\drivers\BME280/BME280.c ****     // Writing changes to the device
 447:rhea\drivers\BME280/BME280.c ****     BME280_I2CWriter(BME280_I2C_ADDR, BME280_CONFIG, &BME280_RegistersLocal.CONFIG, 1);
 2652              		.loc 1 447 0
 2653 0012 0123     		movs	r3, #1
 2654 0014 044A     		ldr	r2, .L157+4
 2655 0016 F521     		movs	r1, #245
 2656 0018 7620     		movs	r0, #118
 2657 001a FFF7FEFF 		bl	BME280_I2CWriter
 448:rhea\drivers\BME280/BME280.c **** }
 2658              		.loc 1 448 0
 2659 001e 00BF     		nop
 2660 0020 80BD     		pop	{r7, pc}
 2661              	.L158:
 2662 0022 00BF     		.align	2
 2663              	.L157:
 2664 0024 10000000 		.word	BME280_RegistersLocal
 2665 0028 1B000000 		.word	BME280_RegistersLocal+11
 2666              		.cfi_endproc
 2667              	.LFE28:
 2668              		.size	BME280_DisableSPI3Wire, .-BME280_DisableSPI3Wire
 2669              		.section	.text.BME280_IsSPI3WireEnabled,"ax",%progbits
ARM GAS  C:\Users\GYULAI~1\AppData\Local\Temp\cc8y56XJ.s 			page 56


 2670              		.align	2
 2671              		.global	BME280_IsSPI3WireEnabled
 2672              		.thumb
 2673              		.thumb_func
 2674              		.type	BME280_IsSPI3WireEnabled, %function
 2675              	BME280_IsSPI3WireEnabled:
 2676              	.LFB29:
 449:rhea\drivers\BME280/BME280.c **** 
 450:rhea\drivers\BME280/BME280.c **** uint8_t BME280_IsSPI3WireEnabled() {
 2677              		.loc 1 450 0
 2678              		.cfi_startproc
 2679              		@ args = 0, pretend = 0, frame = 0
 2680              		@ frame_needed = 1, uses_anonymous_args = 0
 2681              		@ link register save eliminated.
 2682 0000 80B4     		push	{r7}
 2683              		.cfi_def_cfa_offset 4
 2684              		.cfi_offset 7, -4
 2685 0002 00AF     		add	r7, sp, #0
 2686              		.cfi_def_cfa_register 7
 451:rhea\drivers\BME280/BME280.c **** 
 452:rhea\drivers\BME280/BME280.c ****     // Reading SPI3W_EN bit of CONFIG register
 453:rhea\drivers\BME280/BME280.c ****     return BME280_RegistersLocal.CONFIG & BME280_CONFIG_SPI3W_EN;
 2687              		.loc 1 453 0
 2688 0004 044B     		ldr	r3, .L161
 2689 0006 DB7A     		ldrb	r3, [r3, #11]	@ zero_extendqisi2
 2690 0008 03F00103 		and	r3, r3, #1
 2691 000c DBB2     		uxtb	r3, r3
 454:rhea\drivers\BME280/BME280.c **** }
 2692              		.loc 1 454 0
 2693 000e 1846     		mov	r0, r3
 2694 0010 BD46     		mov	sp, r7
 2695              		.cfi_def_cfa_register 13
 2696              		@ sp needed
 2697 0012 80BC     		pop	{r7}
 2698              		.cfi_restore 7
 2699              		.cfi_def_cfa_offset 0
 2700 0014 7047     		bx	lr
 2701              	.L162:
 2702 0016 00BF     		.align	2
 2703              	.L161:
 2704 0018 10000000 		.word	BME280_RegistersLocal
 2705              		.cfi_endproc
 2706              	.LFE29:
 2707              		.size	BME280_IsSPI3WireEnabled, .-BME280_IsSPI3WireEnabled
 2708              		.text
 2709              	.Letext0:
 2710              		.file 2 "e:\\cypress\\psoc creator\\4.2\\psoc creator\\import\\gnu\\arm\\5.4.1\\arm-none-eabi\\inc
 2711              		.file 3 "e:\\cypress\\psoc creator\\4.2\\psoc creator\\import\\gnu\\arm\\5.4.1\\arm-none-eabi\\inc
 2712              		.file 4 "rhea\\drivers\\BME280\\BME280.h"
 2713              		.section	.debug_info,"",%progbits
 2714              	.Ldebug_info0:
 2715 0000 25090000 		.4byte	0x925
 2716 0004 0400     		.2byte	0x4
 2717 0006 00000000 		.4byte	.Ldebug_abbrev0
 2718 000a 04       		.byte	0x4
 2719 000b 01       		.uleb128 0x1
 2720 000c B0000000 		.4byte	.LASF125
ARM GAS  C:\Users\GYULAI~1\AppData\Local\Temp\cc8y56XJ.s 			page 57


 2721 0010 0C       		.byte	0xc
 2722 0011 8B040000 		.4byte	.LASF126
 2723 0015 C3020000 		.4byte	.LASF127
 2724 0019 00000000 		.4byte	.Ldebug_ranges0+0
 2725 001d 00000000 		.4byte	0
 2726 0021 00000000 		.4byte	.Ldebug_line0
 2727 0025 02       		.uleb128 0x2
 2728 0026 D5040000 		.4byte	.LASF0
 2729 002a 02       		.byte	0x2
 2730 002b 1B       		.byte	0x1b
 2731 002c 30000000 		.4byte	0x30
 2732 0030 03       		.uleb128 0x3
 2733 0031 01       		.byte	0x1
 2734 0032 06       		.byte	0x6
 2735 0033 FB030000 		.4byte	.LASF2
 2736 0037 02       		.uleb128 0x2
 2737 0038 3F030000 		.4byte	.LASF1
 2738 003c 02       		.byte	0x2
 2739 003d 1D       		.byte	0x1d
 2740 003e 42000000 		.4byte	0x42
 2741 0042 03       		.uleb128 0x3
 2742 0043 01       		.byte	0x1
 2743 0044 08       		.byte	0x8
 2744 0045 C9030000 		.4byte	.LASF3
 2745 0049 02       		.uleb128 0x2
 2746 004a 03060000 		.4byte	.LASF4
 2747 004e 02       		.byte	0x2
 2748 004f 29       		.byte	0x29
 2749 0050 54000000 		.4byte	0x54
 2750 0054 03       		.uleb128 0x3
 2751 0055 02       		.byte	0x2
 2752 0056 05       		.byte	0x5
 2753 0057 78000000 		.4byte	.LASF5
 2754 005b 02       		.uleb128 0x2
 2755 005c 8C010000 		.4byte	.LASF6
 2756 0060 02       		.byte	0x2
 2757 0061 2B       		.byte	0x2b
 2758 0062 66000000 		.4byte	0x66
 2759 0066 03       		.uleb128 0x3
 2760 0067 02       		.byte	0x2
 2761 0068 07       		.byte	0x7
 2762 0069 C2040000 		.4byte	.LASF7
 2763 006d 02       		.uleb128 0x2
 2764 006e DF050000 		.4byte	.LASF8
 2765 0072 02       		.byte	0x2
 2766 0073 3F       		.byte	0x3f
 2767 0074 78000000 		.4byte	0x78
 2768 0078 03       		.uleb128 0x3
 2769 0079 04       		.byte	0x4
 2770 007a 05       		.byte	0x5
 2771 007b 0F030000 		.4byte	.LASF9
 2772 007f 02       		.uleb128 0x2
 2773 0080 6D010000 		.4byte	.LASF10
 2774 0084 02       		.byte	0x2
 2775 0085 41       		.byte	0x41
 2776 0086 8A000000 		.4byte	0x8a
 2777 008a 03       		.uleb128 0x3
ARM GAS  C:\Users\GYULAI~1\AppData\Local\Temp\cc8y56XJ.s 			page 58


 2778 008b 04       		.byte	0x4
 2779 008c 07       		.byte	0x7
 2780 008d 88050000 		.4byte	.LASF11
 2781 0091 03       		.uleb128 0x3
 2782 0092 08       		.byte	0x8
 2783 0093 05       		.byte	0x5
 2784 0094 92020000 		.4byte	.LASF12
 2785 0098 03       		.uleb128 0x3
 2786 0099 08       		.byte	0x8
 2787 009a 07       		.byte	0x7
 2788 009b 07040000 		.4byte	.LASF13
 2789 009f 04       		.uleb128 0x4
 2790 00a0 04       		.byte	0x4
 2791 00a1 05       		.byte	0x5
 2792 00a2 696E7400 		.ascii	"int\000"
 2793 00a6 03       		.uleb128 0x3
 2794 00a7 04       		.byte	0x4
 2795 00a8 07       		.byte	0x7
 2796 00a9 34040000 		.4byte	.LASF14
 2797 00ad 02       		.uleb128 0x2
 2798 00ae 2A000000 		.4byte	.LASF15
 2799 00b2 03       		.byte	0x3
 2800 00b3 14       		.byte	0x14
 2801 00b4 25000000 		.4byte	0x25
 2802 00b8 02       		.uleb128 0x2
 2803 00b9 EC010000 		.4byte	.LASF16
 2804 00bd 03       		.byte	0x3
 2805 00be 18       		.byte	0x18
 2806 00bf 37000000 		.4byte	0x37
 2807 00c3 02       		.uleb128 0x2
 2808 00c4 26050000 		.4byte	.LASF17
 2809 00c8 03       		.byte	0x3
 2810 00c9 20       		.byte	0x20
 2811 00ca 49000000 		.4byte	0x49
 2812 00ce 02       		.uleb128 0x2
 2813 00cf 41040000 		.4byte	.LASF18
 2814 00d3 03       		.byte	0x3
 2815 00d4 24       		.byte	0x24
 2816 00d5 5B000000 		.4byte	0x5b
 2817 00d9 02       		.uleb128 0x2
 2818 00da FA040000 		.4byte	.LASF19
 2819 00de 03       		.byte	0x3
 2820 00df 2C       		.byte	0x2c
 2821 00e0 6D000000 		.4byte	0x6d
 2822 00e4 02       		.uleb128 0x2
 2823 00e5 1E040000 		.4byte	.LASF20
 2824 00e9 03       		.byte	0x3
 2825 00ea 30       		.byte	0x30
 2826 00eb 7F000000 		.4byte	0x7f
 2827 00ef 05       		.uleb128 0x5
 2828 00f0 90000000 		.4byte	.LASF25
 2829 00f4 10       		.byte	0x10
 2830 00f5 04       		.byte	0x4
 2831 00f6 39       		.byte	0x39
 2832 00f7 2C010000 		.4byte	0x12c
 2833 00fb 06       		.uleb128 0x6
 2834 00fc A3030000 		.4byte	.LASF21
ARM GAS  C:\Users\GYULAI~1\AppData\Local\Temp\cc8y56XJ.s 			page 59


 2835 0100 04       		.byte	0x4
 2836 0101 40       		.byte	0x40
 2837 0102 3C010000 		.4byte	0x13c
 2838 0106 00       		.byte	0
 2839 0107 06       		.uleb128 0x6
 2840 0108 D2060000 		.4byte	.LASF22
 2841 010c 04       		.byte	0x4
 2842 010d 45       		.byte	0x45
 2843 010e 43010000 		.4byte	0x143
 2844 0112 04       		.byte	0x4
 2845 0113 06       		.uleb128 0x6
 2846 0114 F3050000 		.4byte	.LASF23
 2847 0118 04       		.byte	0x4
 2848 0119 4B       		.byte	0x4b
 2849 011a 54010000 		.4byte	0x154
 2850 011e 08       		.byte	0x8
 2851 011f 06       		.uleb128 0x6
 2852 0120 D7030000 		.4byte	.LASF24
 2853 0124 04       		.byte	0x4
 2854 0125 52       		.byte	0x52
 2855 0126 69010000 		.4byte	0x169
 2856 012a 0C       		.byte	0xc
 2857 012b 00       		.byte	0
 2858 012c 07       		.uleb128 0x7
 2859 012d 3C010000 		.4byte	0x13c
 2860 0131 08       		.uleb128 0x8
 2861 0132 B8000000 		.4byte	0xb8
 2862 0136 08       		.uleb128 0x8
 2863 0137 B8000000 		.4byte	0xb8
 2864 013b 00       		.byte	0
 2865 013c 09       		.uleb128 0x9
 2866 013d 04       		.byte	0x4
 2867 013e 2C010000 		.4byte	0x12c
 2868 0142 0A       		.uleb128 0xa
 2869 0143 09       		.uleb128 0x9
 2870 0144 04       		.byte	0x4
 2871 0145 42010000 		.4byte	0x142
 2872 0149 07       		.uleb128 0x7
 2873 014a 54010000 		.4byte	0x154
 2874 014e 08       		.uleb128 0x8
 2875 014f B8000000 		.4byte	0xb8
 2876 0153 00       		.byte	0
 2877 0154 09       		.uleb128 0x9
 2878 0155 04       		.byte	0x4
 2879 0156 49010000 		.4byte	0x149
 2880 015a 0B       		.uleb128 0xb
 2881 015b B8000000 		.4byte	0xb8
 2882 015f 69010000 		.4byte	0x169
 2883 0163 08       		.uleb128 0x8
 2884 0164 B8000000 		.4byte	0xb8
 2885 0168 00       		.byte	0
 2886 0169 09       		.uleb128 0x9
 2887 016a 04       		.byte	0x4
 2888 016b 5A010000 		.4byte	0x15a
 2889 016f 02       		.uleb128 0x2
 2890 0170 90000000 		.4byte	.LASF25
 2891 0174 04       		.byte	0x4
ARM GAS  C:\Users\GYULAI~1\AppData\Local\Temp\cc8y56XJ.s 			page 60


 2892 0175 54       		.byte	0x54
 2893 0176 EF000000 		.4byte	0xef
 2894 017a 05       		.uleb128 0x5
 2895 017b B3030000 		.4byte	.LASF26
 2896 017f 31       		.byte	0x31
 2897 0180 04       		.byte	0x4
 2898 0181 6D       		.byte	0x6d
 2899 0182 FB020000 		.4byte	0x2fb
 2900 0186 06       		.uleb128 0x6
 2901 0187 4C020000 		.4byte	.LASF27
 2902 018b 04       		.byte	0x4
 2903 018c 70       		.byte	0x70
 2904 018d B8000000 		.4byte	0xb8
 2905 0191 00       		.byte	0
 2906 0192 06       		.uleb128 0x6
 2907 0193 35030000 		.4byte	.LASF28
 2908 0197 04       		.byte	0x4
 2909 0198 71       		.byte	0x71
 2910 0199 B8000000 		.4byte	0xb8
 2911 019d 01       		.byte	0x1
 2912 019e 06       		.uleb128 0x6
 2913 019f 75050000 		.4byte	.LASF29
 2914 01a3 04       		.byte	0x4
 2915 01a4 72       		.byte	0x72
 2916 01a5 B8000000 		.4byte	0xb8
 2917 01a9 02       		.byte	0x2
 2918 01aa 06       		.uleb128 0x6
 2919 01ab BA020000 		.4byte	.LASF30
 2920 01af 04       		.byte	0x4
 2921 01b0 73       		.byte	0x73
 2922 01b1 B8000000 		.4byte	0xb8
 2923 01b5 03       		.byte	0x3
 2924 01b6 06       		.uleb128 0x6
 2925 01b7 0A020000 		.4byte	.LASF31
 2926 01bb 04       		.byte	0x4
 2927 01bc 74       		.byte	0x74
 2928 01bd B8000000 		.4byte	0xb8
 2929 01c1 04       		.byte	0x4
 2930 01c2 06       		.uleb128 0x6
 2931 01c3 88020000 		.4byte	.LASF32
 2932 01c7 04       		.byte	0x4
 2933 01c8 75       		.byte	0x75
 2934 01c9 B8000000 		.4byte	0xb8
 2935 01cd 05       		.byte	0x5
 2936 01ce 06       		.uleb128 0x6
 2937 01cf 2E050000 		.4byte	.LASF33
 2938 01d3 04       		.byte	0x4
 2939 01d4 76       		.byte	0x76
 2940 01d5 B8000000 		.4byte	0xb8
 2941 01d9 06       		.byte	0x6
 2942 01da 06       		.uleb128 0x6
 2943 01db 80050000 		.4byte	.LASF34
 2944 01df 04       		.byte	0x4
 2945 01e0 77       		.byte	0x77
 2946 01e1 B8000000 		.4byte	0xb8
 2947 01e5 07       		.byte	0x7
 2948 01e6 06       		.uleb128 0x6
ARM GAS  C:\Users\GYULAI~1\AppData\Local\Temp\cc8y56XJ.s 			page 61


 2949 01e7 F1040000 		.4byte	.LASF35
 2950 01eb 04       		.byte	0x4
 2951 01ec 7B       		.byte	0x7b
 2952 01ed B8000000 		.4byte	0xb8
 2953 01f1 08       		.byte	0x8
 2954 01f2 06       		.uleb128 0x6
 2955 01f3 08030000 		.4byte	.LASF36
 2956 01f7 04       		.byte	0x4
 2957 01f8 7C       		.byte	0x7c
 2958 01f9 B8000000 		.4byte	0xb8
 2959 01fd 09       		.byte	0x9
 2960 01fe 06       		.uleb128 0x6
 2961 01ff E8060000 		.4byte	.LASF37
 2962 0203 04       		.byte	0x4
 2963 0204 7D       		.byte	0x7d
 2964 0205 B8000000 		.4byte	0xb8
 2965 0209 0A       		.byte	0xa
 2966 020a 06       		.uleb128 0x6
 2967 020b E1060000 		.4byte	.LASF38
 2968 020f 04       		.byte	0x4
 2969 0210 80       		.byte	0x80
 2970 0211 B8000000 		.4byte	0xb8
 2971 0215 0B       		.byte	0xb
 2972 0216 06       		.uleb128 0x6
 2973 0217 A8050000 		.4byte	.LASF39
 2974 021b 04       		.byte	0x4
 2975 021c 86       		.byte	0x86
 2976 021d CE000000 		.4byte	0xce
 2977 0221 0C       		.byte	0xc
 2978 0222 06       		.uleb128 0x6
 2979 0223 AF050000 		.4byte	.LASF40
 2980 0227 04       		.byte	0x4
 2981 0228 87       		.byte	0x87
 2982 0229 C3000000 		.4byte	0xc3
 2983 022d 0E       		.byte	0xe
 2984 022e 06       		.uleb128 0x6
 2985 022f B6050000 		.4byte	.LASF41
 2986 0233 04       		.byte	0x4
 2987 0234 88       		.byte	0x88
 2988 0235 C3000000 		.4byte	0xc3
 2989 0239 10       		.byte	0x10
 2990 023a 06       		.uleb128 0x6
 2991 023b 3D050000 		.4byte	.LASF42
 2992 023f 04       		.byte	0x4
 2993 0240 89       		.byte	0x89
 2994 0241 CE000000 		.4byte	0xce
 2995 0245 12       		.byte	0x12
 2996 0246 06       		.uleb128 0x6
 2997 0247 44050000 		.4byte	.LASF43
 2998 024b 04       		.byte	0x4
 2999 024c 8A       		.byte	0x8a
 3000 024d C3000000 		.4byte	0xc3
 3001 0251 14       		.byte	0x14
 3002 0252 06       		.uleb128 0x6
 3003 0253 4B050000 		.4byte	.LASF44
 3004 0257 04       		.byte	0x4
 3005 0258 8B       		.byte	0x8b
ARM GAS  C:\Users\GYULAI~1\AppData\Local\Temp\cc8y56XJ.s 			page 62


 3006 0259 C3000000 		.4byte	0xc3
 3007 025d 16       		.byte	0x16
 3008 025e 06       		.uleb128 0x6
 3009 025f 52050000 		.4byte	.LASF45
 3010 0263 04       		.byte	0x4
 3011 0264 8C       		.byte	0x8c
 3012 0265 C3000000 		.4byte	0xc3
 3013 0269 18       		.byte	0x18
 3014 026a 06       		.uleb128 0x6
 3015 026b 59050000 		.4byte	.LASF46
 3016 026f 04       		.byte	0x4
 3017 0270 8D       		.byte	0x8d
 3018 0271 C3000000 		.4byte	0xc3
 3019 0275 1A       		.byte	0x1a
 3020 0276 06       		.uleb128 0x6
 3021 0277 60050000 		.4byte	.LASF47
 3022 027b 04       		.byte	0x4
 3023 027c 8E       		.byte	0x8e
 3024 027d C3000000 		.4byte	0xc3
 3025 0281 1C       		.byte	0x1c
 3026 0282 06       		.uleb128 0x6
 3027 0283 67050000 		.4byte	.LASF48
 3028 0287 04       		.byte	0x4
 3029 0288 8F       		.byte	0x8f
 3030 0289 C3000000 		.4byte	0xc3
 3031 028d 1E       		.byte	0x1e
 3032 028e 06       		.uleb128 0x6
 3033 028f 6E050000 		.4byte	.LASF49
 3034 0293 04       		.byte	0x4
 3035 0294 90       		.byte	0x90
 3036 0295 C3000000 		.4byte	0xc3
 3037 0299 20       		.byte	0x20
 3038 029a 06       		.uleb128 0x6
 3039 029b 74020000 		.4byte	.LASF50
 3040 029f 04       		.byte	0x4
 3041 02a0 91       		.byte	0x91
 3042 02a1 C3000000 		.4byte	0xc3
 3043 02a5 22       		.byte	0x22
 3044 02a6 06       		.uleb128 0x6
 3045 02a7 4A040000 		.4byte	.LASF51
 3046 02ab 04       		.byte	0x4
 3047 02ac 92       		.byte	0x92
 3048 02ad B8000000 		.4byte	0xb8
 3049 02b1 24       		.byte	0x24
 3050 02b2 06       		.uleb128 0x6
 3051 02b3 51040000 		.4byte	.LASF52
 3052 02b7 04       		.byte	0x4
 3053 02b8 93       		.byte	0x93
 3054 02b9 C3000000 		.4byte	0xc3
 3055 02bd 25       		.byte	0x25
 3056 02be 06       		.uleb128 0x6
 3057 02bf 58040000 		.4byte	.LASF53
 3058 02c3 04       		.byte	0x4
 3059 02c4 94       		.byte	0x94
 3060 02c5 B8000000 		.4byte	0xb8
 3061 02c9 27       		.byte	0x27
 3062 02ca 06       		.uleb128 0x6
ARM GAS  C:\Users\GYULAI~1\AppData\Local\Temp\cc8y56XJ.s 			page 63


 3063 02cb 5F040000 		.4byte	.LASF54
 3064 02cf 04       		.byte	0x4
 3065 02d0 95       		.byte	0x95
 3066 02d1 C3000000 		.4byte	0xc3
 3067 02d5 28       		.byte	0x28
 3068 02d6 06       		.uleb128 0x6
 3069 02d7 66040000 		.4byte	.LASF55
 3070 02db 04       		.byte	0x4
 3071 02dc 96       		.byte	0x96
 3072 02dd C3000000 		.4byte	0xc3
 3073 02e1 2A       		.byte	0x2a
 3074 02e2 06       		.uleb128 0x6
 3075 02e3 6D040000 		.4byte	.LASF56
 3076 02e7 04       		.byte	0x4
 3077 02e8 97       		.byte	0x97
 3078 02e9 AD000000 		.4byte	0xad
 3079 02ed 2C       		.byte	0x2c
 3080 02ee 06       		.uleb128 0x6
 3081 02ef 2E030000 		.4byte	.LASF57
 3082 02f3 04       		.byte	0x4
 3083 02f4 98       		.byte	0x98
 3084 02f5 D9000000 		.4byte	0xd9
 3085 02f9 2D       		.byte	0x2d
 3086 02fa 00       		.byte	0
 3087 02fb 02       		.uleb128 0x2
 3088 02fc B3030000 		.4byte	.LASF26
 3089 0300 04       		.byte	0x4
 3090 0301 9D       		.byte	0x9d
 3091 0302 7A010000 		.4byte	0x17a
 3092 0306 0C       		.uleb128 0xc
 3093 0307 F0020000 		.4byte	.LASF58
 3094 030b 01       		.byte	0x1
 3095 030c 2F       		.byte	0x2f
 3096 030d 00000000 		.4byte	.LFB0
 3097 0311 28000000 		.4byte	.LFE0-.LFB0
 3098 0315 01       		.uleb128 0x1
 3099 0316 9C       		.byte	0x9c
 3100 0317 2A030000 		.4byte	0x32a
 3101 031b 0D       		.uleb128 0xd
 3102 031c 41020000 		.4byte	.LASF60
 3103 0320 01       		.byte	0x1
 3104 0321 2F       		.byte	0x2f
 3105 0322 6F010000 		.4byte	0x16f
 3106 0326 02       		.uleb128 0x2
 3107 0327 91       		.byte	0x91
 3108 0328 68       		.sleb128 -24
 3109 0329 00       		.byte	0
 3110 032a 0E       		.uleb128 0xe
 3111 032b B1060000 		.4byte	.LASF59
 3112 032f 01       		.byte	0x1
 3113 0330 33       		.byte	0x33
 3114 0331 00000000 		.4byte	.LFB1
 3115 0335 88000000 		.4byte	.LFE1-.LFB1
 3116 0339 01       		.uleb128 0x1
 3117 033a 9C       		.byte	0x9c
 3118 033b 8E030000 		.4byte	0x38e
 3119 033f 0D       		.uleb128 0xd
ARM GAS  C:\Users\GYULAI~1\AppData\Local\Temp\cc8y56XJ.s 			page 64


 3120 0340 26030000 		.4byte	.LASF61
 3121 0344 01       		.byte	0x1
 3122 0345 33       		.byte	0x33
 3123 0346 B8000000 		.4byte	0xb8
 3124 034a 02       		.uleb128 0x2
 3125 034b 91       		.byte	0x91
 3126 034c 67       		.sleb128 -25
 3127 034d 0D       		.uleb128 0xd
 3128 034e 9A050000 		.4byte	.LASF62
 3129 0352 01       		.byte	0x1
 3130 0353 33       		.byte	0x33
 3131 0354 B8000000 		.4byte	0xb8
 3132 0358 02       		.uleb128 0x2
 3133 0359 91       		.byte	0x91
 3134 035a 66       		.sleb128 -26
 3135 035b 0D       		.uleb128 0xd
 3136 035c 36050000 		.4byte	.LASF63
 3137 0360 01       		.byte	0x1
 3138 0361 33       		.byte	0x33
 3139 0362 8E030000 		.4byte	0x38e
 3140 0366 02       		.uleb128 0x2
 3141 0367 91       		.byte	0x91
 3142 0368 60       		.sleb128 -32
 3143 0369 0D       		.uleb128 0xd
 3144 036a 2F060000 		.4byte	.LASF64
 3145 036e 01       		.byte	0x1
 3146 036f 33       		.byte	0x33
 3147 0370 B8000000 		.4byte	0xb8
 3148 0374 02       		.uleb128 0x2
 3149 0375 91       		.byte	0x91
 3150 0376 65       		.sleb128 -27
 3151 0377 0F       		.uleb128 0xf
 3152 0378 3E000000 		.4byte	.LBB2
 3153 037c 36000000 		.4byte	.LBE2-.LBB2
 3154 0380 10       		.uleb128 0x10
 3155 0381 6900     		.ascii	"i\000"
 3156 0383 01       		.byte	0x1
 3157 0384 42       		.byte	0x42
 3158 0385 B8000000 		.4byte	0xb8
 3159 0389 02       		.uleb128 0x2
 3160 038a 91       		.byte	0x91
 3161 038b 6F       		.sleb128 -17
 3162 038c 00       		.byte	0
 3163 038d 00       		.byte	0
 3164 038e 09       		.uleb128 0x9
 3165 038f 04       		.byte	0x4
 3166 0390 42000000 		.4byte	0x42
 3167 0394 0E       		.uleb128 0xe
 3168 0395 02050000 		.4byte	.LASF65
 3169 0399 01       		.byte	0x1
 3170 039a 4A       		.byte	0x4a
 3171 039b 00000000 		.4byte	.LFB2
 3172 039f 68000000 		.4byte	.LFE2-.LFB2
 3173 03a3 01       		.uleb128 0x1
 3174 03a4 9C       		.byte	0x9c
 3175 03a5 F8030000 		.4byte	0x3f8
 3176 03a9 0D       		.uleb128 0xd
ARM GAS  C:\Users\GYULAI~1\AppData\Local\Temp\cc8y56XJ.s 			page 65


 3177 03aa 26030000 		.4byte	.LASF61
 3178 03ae 01       		.byte	0x1
 3179 03af 4A       		.byte	0x4a
 3180 03b0 B8000000 		.4byte	0xb8
 3181 03b4 02       		.uleb128 0x2
 3182 03b5 91       		.byte	0x91
 3183 03b6 6F       		.sleb128 -17
 3184 03b7 0D       		.uleb128 0xd
 3185 03b8 9A050000 		.4byte	.LASF62
 3186 03bc 01       		.byte	0x1
 3187 03bd 4A       		.byte	0x4a
 3188 03be B8000000 		.4byte	0xb8
 3189 03c2 02       		.uleb128 0x2
 3190 03c3 91       		.byte	0x91
 3191 03c4 6E       		.sleb128 -18
 3192 03c5 0D       		.uleb128 0xd
 3193 03c6 36050000 		.4byte	.LASF63
 3194 03ca 01       		.byte	0x1
 3195 03cb 4A       		.byte	0x4a
 3196 03cc F8030000 		.4byte	0x3f8
 3197 03d0 02       		.uleb128 0x2
 3198 03d1 91       		.byte	0x91
 3199 03d2 68       		.sleb128 -24
 3200 03d3 0D       		.uleb128 0xd
 3201 03d4 2F060000 		.4byte	.LASF64
 3202 03d8 01       		.byte	0x1
 3203 03d9 4A       		.byte	0x4a
 3204 03da B8000000 		.4byte	0xb8
 3205 03de 02       		.uleb128 0x2
 3206 03df 91       		.byte	0x91
 3207 03e0 6D       		.sleb128 -19
 3208 03e1 0F       		.uleb128 0xf
 3209 03e2 22000000 		.4byte	.LBB3
 3210 03e6 32000000 		.4byte	.LBE3-.LBB3
 3211 03ea 10       		.uleb128 0x10
 3212 03eb 6900     		.ascii	"i\000"
 3213 03ed 01       		.byte	0x1
 3214 03ee 50       		.byte	0x50
 3215 03ef B8000000 		.4byte	0xb8
 3216 03f3 02       		.uleb128 0x2
 3217 03f4 91       		.byte	0x91
 3218 03f5 77       		.sleb128 -9
 3219 03f6 00       		.byte	0
 3220 03f7 00       		.byte	0
 3221 03f8 09       		.uleb128 0x9
 3222 03f9 04       		.byte	0x4
 3223 03fa FE030000 		.4byte	0x3fe
 3224 03fe 11       		.uleb128 0x11
 3225 03ff 42000000 		.4byte	0x42
 3226 0403 0E       		.uleb128 0xe
 3227 0404 60030000 		.4byte	.LASF66
 3228 0408 01       		.byte	0x1
 3229 0409 5D       		.byte	0x5d
 3230 040a 00000000 		.4byte	.LFB3
 3231 040e 88010000 		.4byte	.LFE3-.LFB3
 3232 0412 01       		.uleb128 0x1
 3233 0413 9C       		.byte	0x9c
ARM GAS  C:\Users\GYULAI~1\AppData\Local\Temp\cc8y56XJ.s 			page 66


 3234 0414 42040000 		.4byte	0x442
 3235 0418 10       		.uleb128 0x10
 3236 0419 494400   		.ascii	"ID\000"
 3237 041c 01       		.byte	0x1
 3238 041d 60       		.byte	0x60
 3239 041e B8000000 		.4byte	0xb8
 3240 0422 02       		.uleb128 0x2
 3241 0423 91       		.byte	0x91
 3242 0424 77       		.sleb128 -9
 3243 0425 12       		.uleb128 0x12
 3244 0426 3D070000 		.4byte	.LASF67
 3245 042a 01       		.byte	0x1
 3246 042b 65       		.byte	0x65
 3247 042c 42040000 		.4byte	0x442
 3248 0430 02       		.uleb128 0x2
 3249 0431 91       		.byte	0x91
 3250 0432 5C       		.sleb128 -36
 3251 0433 12       		.uleb128 0x12
 3252 0434 33020000 		.4byte	.LASF68
 3253 0438 01       		.byte	0x1
 3254 0439 66       		.byte	0x66
 3255 043a 59040000 		.4byte	0x459
 3256 043e 02       		.uleb128 0x2
 3257 043f 91       		.byte	0x91
 3258 0440 54       		.sleb128 -44
 3259 0441 00       		.byte	0
 3260 0442 13       		.uleb128 0x13
 3261 0443 B8000000 		.4byte	0xb8
 3262 0447 52040000 		.4byte	0x452
 3263 044b 14       		.uleb128 0x14
 3264 044c 52040000 		.4byte	0x452
 3265 0450 19       		.byte	0x19
 3266 0451 00       		.byte	0
 3267 0452 03       		.uleb128 0x3
 3268 0453 04       		.byte	0x4
 3269 0454 07       		.byte	0x7
 3270 0455 82000000 		.4byte	.LASF69
 3271 0459 13       		.uleb128 0x13
 3272 045a B8000000 		.4byte	0xb8
 3273 045e 69040000 		.4byte	0x469
 3274 0462 14       		.uleb128 0x14
 3275 0463 52040000 		.4byte	0x452
 3276 0467 06       		.byte	0x6
 3277 0468 00       		.byte	0
 3278 0469 0E       		.uleb128 0xe
 3279 046a 7B020000 		.4byte	.LASF70
 3280 046e 01       		.byte	0x1
 3281 046f 86       		.byte	0x86
 3282 0470 00000000 		.4byte	.LFB4
 3283 0474 1E000000 		.4byte	.LFE4-.LFB4
 3284 0478 01       		.uleb128 0x1
 3285 0479 9C       		.byte	0x9c
 3286 047a 8D040000 		.4byte	0x48d
 3287 047e 12       		.uleb128 0x12
 3288 047f E9050000 		.4byte	.LASF71
 3289 0483 01       		.byte	0x1
 3290 0484 89       		.byte	0x89
ARM GAS  C:\Users\GYULAI~1\AppData\Local\Temp\cc8y56XJ.s 			page 67


 3291 0485 8D040000 		.4byte	0x48d
 3292 0489 02       		.uleb128 0x2
 3293 048a 91       		.byte	0x91
 3294 048b 77       		.sleb128 -9
 3295 048c 00       		.byte	0
 3296 048d 11       		.uleb128 0x11
 3297 048e B8000000 		.4byte	0xb8
 3298 0492 15       		.uleb128 0x15
 3299 0493 31000000 		.4byte	.LASF72
 3300 0497 01       		.byte	0x1
 3301 0498 8D       		.byte	0x8d
 3302 0499 00000000 		.4byte	.LFB5
 3303 049d 28000000 		.4byte	.LFE5-.LFB5
 3304 04a1 01       		.uleb128 0x1
 3305 04a2 9C       		.byte	0x9c
 3306 04a3 15       		.uleb128 0x15
 3307 04a4 56020000 		.4byte	.LASF73
 3308 04a8 01       		.byte	0x1
 3309 04a9 96       		.byte	0x96
 3310 04aa 00000000 		.4byte	.LFB6
 3311 04ae 18000000 		.4byte	.LFE6-.LFB6
 3312 04b2 01       		.uleb128 0x1
 3313 04b3 9C       		.byte	0x9c
 3314 04b4 16       		.uleb128 0x16
 3315 04b5 5F000000 		.4byte	.LASF103
 3316 04b9 01       		.byte	0x1
 3317 04ba 9C       		.byte	0x9c
 3318 04bb C9040000 		.4byte	0x4c9
 3319 04bf 00000000 		.4byte	.LFB7
 3320 04c3 14000000 		.4byte	.LFE7-.LFB7
 3321 04c7 01       		.uleb128 0x1
 3322 04c8 9C       		.byte	0x9c
 3323 04c9 09       		.uleb128 0x9
 3324 04ca 04       		.byte	0x4
 3325 04cb FB020000 		.4byte	0x2fb
 3326 04cf 17       		.uleb128 0x17
 3327 04d0 50010000 		.4byte	.LASF82
 3328 04d4 01       		.byte	0x1
 3329 04d5 A0       		.byte	0xa0
 3330 04d6 AD000000 		.4byte	0xad
 3331 04da 00000000 		.4byte	.LFB8
 3332 04de CC010000 		.4byte	.LFE8-.LFB8
 3333 04e2 01       		.uleb128 0x1
 3334 04e3 9C       		.byte	0x9c
 3335 04e4 4C050000 		.4byte	0x54c
 3336 04e8 0D       		.uleb128 0xd
 3337 04e9 6C020000 		.4byte	.LASF74
 3338 04ed 01       		.byte	0x1
 3339 04ee A0       		.byte	0xa0
 3340 04ef B8000000 		.4byte	0xb8
 3341 04f3 03       		.uleb128 0x3
 3342 04f4 91       		.byte	0x91
 3343 04f5 BF7F     		.sleb128 -65
 3344 04f7 12       		.uleb128 0x12
 3345 04f8 22000000 		.4byte	.LASF75
 3346 04fc 01       		.byte	0x1
 3347 04fd A6       		.byte	0xa6
ARM GAS  C:\Users\GYULAI~1\AppData\Local\Temp\cc8y56XJ.s 			page 68


 3348 04fe E4000000 		.4byte	0xe4
 3349 0502 02       		.uleb128 0x2
 3350 0503 91       		.byte	0x91
 3351 0504 64       		.sleb128 -28
 3352 0505 12       		.uleb128 0x12
 3353 0506 8B000000 		.4byte	.LASF76
 3354 050a 01       		.byte	0x1
 3355 050b AD       		.byte	0xad
 3356 050c 4C050000 		.4byte	0x54c
 3357 0510 02       		.uleb128 0x2
 3358 0511 91       		.byte	0x91
 3359 0512 48       		.sleb128 -56
 3360 0513 12       		.uleb128 0x12
 3361 0514 AB000000 		.4byte	.LASF77
 3362 0518 01       		.byte	0x1
 3363 0519 AE       		.byte	0xae
 3364 051a 4C050000 		.4byte	0x54c
 3365 051e 02       		.uleb128 0x2
 3366 051f 91       		.byte	0x91
 3367 0520 40       		.sleb128 -64
 3368 0521 12       		.uleb128 0x12
 3369 0522 BD050000 		.4byte	.LASF78
 3370 0526 01       		.byte	0x1
 3371 0527 AF       		.byte	0xaf
 3372 0528 4C050000 		.4byte	0x54c
 3373 052c 02       		.uleb128 0x2
 3374 052d 91       		.byte	0x91
 3375 052e 68       		.sleb128 -24
 3376 052f 12       		.uleb128 0x12
 3377 0530 12000000 		.4byte	.LASF79
 3378 0534 01       		.byte	0x1
 3379 0535 B0       		.byte	0xb0
 3380 0536 4C050000 		.4byte	0x54c
 3381 053a 02       		.uleb128 0x2
 3382 053b 91       		.byte	0x91
 3383 053c 58       		.sleb128 -40
 3384 053d 12       		.uleb128 0x12
 3385 053e C2060000 		.4byte	.LASF80
 3386 0542 01       		.byte	0x1
 3387 0543 B1       		.byte	0xb1
 3388 0544 4C050000 		.4byte	0x54c
 3389 0548 02       		.uleb128 0x2
 3390 0549 91       		.byte	0x91
 3391 054a 50       		.sleb128 -48
 3392 054b 00       		.byte	0
 3393 054c 03       		.uleb128 0x3
 3394 054d 08       		.byte	0x8
 3395 054e 04       		.byte	0x4
 3396 054f 8A060000 		.4byte	.LASF81
 3397 0553 17       		.uleb128 0x17
 3398 0554 07070000 		.4byte	.LASF83
 3399 0558 01       		.byte	0x1
 3400 0559 C0       		.byte	0xc0
 3401 055a AD000000 		.4byte	0xad
 3402 055e 00000000 		.4byte	.LFB9
 3403 0562 48000000 		.4byte	.LFE9-.LFB9
 3404 0566 01       		.uleb128 0x1
ARM GAS  C:\Users\GYULAI~1\AppData\Local\Temp\cc8y56XJ.s 			page 69


 3405 0567 9C       		.byte	0x9c
 3406 0568 7B050000 		.4byte	0x57b
 3407 056c 0D       		.uleb128 0xd
 3408 056d 6C020000 		.4byte	.LASF74
 3409 0571 01       		.byte	0x1
 3410 0572 C0       		.byte	0xc0
 3411 0573 B8000000 		.4byte	0xb8
 3412 0577 02       		.uleb128 0x2
 3413 0578 91       		.byte	0x91
 3414 0579 77       		.sleb128 -9
 3415 057a 00       		.byte	0
 3416 057b 17       		.uleb128 0x17
 3417 057c C8010000 		.4byte	.LASF84
 3418 0580 01       		.byte	0x1
 3419 0581 C6       		.byte	0xc6
 3420 0582 E4000000 		.4byte	0xe4
 3421 0586 00000000 		.4byte	.LFB10
 3422 058a B4030000 		.4byte	.LFE10-.LFB10
 3423 058e 01       		.uleb128 0x1
 3424 058f 9C       		.byte	0x9c
 3425 0590 07060000 		.4byte	0x607
 3426 0594 0D       		.uleb128 0xd
 3427 0595 6C020000 		.4byte	.LASF74
 3428 0599 01       		.byte	0x1
 3429 059a C6       		.byte	0xc6
 3430 059b B8000000 		.4byte	0xb8
 3431 059f 03       		.uleb128 0x3
 3432 05a0 91       		.byte	0x91
 3433 05a1 B77F     		.sleb128 -73
 3434 05a3 12       		.uleb128 0x12
 3435 05a4 22000000 		.4byte	.LASF75
 3436 05a8 01       		.byte	0x1
 3437 05a9 CC       		.byte	0xcc
 3438 05aa E4000000 		.4byte	0xe4
 3439 05ae 02       		.uleb128 0x2
 3440 05af 91       		.byte	0x91
 3441 05b0 64       		.sleb128 -28
 3442 05b1 12       		.uleb128 0x12
 3443 05b2 8B000000 		.4byte	.LASF76
 3444 05b6 01       		.byte	0x1
 3445 05b7 D3       		.byte	0xd3
 3446 05b8 4C050000 		.4byte	0x54c
 3447 05bc 02       		.uleb128 0x2
 3448 05bd 91       		.byte	0x91
 3449 05be 48       		.sleb128 -56
 3450 05bf 12       		.uleb128 0x12
 3451 05c0 AB000000 		.4byte	.LASF77
 3452 05c4 01       		.byte	0x1
 3453 05c5 D4       		.byte	0xd4
 3454 05c6 4C050000 		.4byte	0x54c
 3455 05ca 02       		.uleb128 0x2
 3456 05cb 91       		.byte	0x91
 3457 05cc 40       		.sleb128 -64
 3458 05cd 12       		.uleb128 0x12
 3459 05ce 78010000 		.4byte	.LASF85
 3460 05d2 01       		.byte	0x1
 3461 05d3 D5       		.byte	0xd5
ARM GAS  C:\Users\GYULAI~1\AppData\Local\Temp\cc8y56XJ.s 			page 70


 3462 05d4 4C050000 		.4byte	0x54c
 3463 05d8 03       		.uleb128 0x3
 3464 05d9 91       		.byte	0x91
 3465 05da B87F     		.sleb128 -72
 3466 05dc 12       		.uleb128 0x12
 3467 05dd 13020000 		.4byte	.LASF86
 3468 05e1 01       		.byte	0x1
 3469 05e2 D6       		.byte	0xd6
 3470 05e3 4C050000 		.4byte	0x54c
 3471 05e7 02       		.uleb128 0x2
 3472 05e8 91       		.byte	0x91
 3473 05e9 68       		.sleb128 -24
 3474 05ea 12       		.uleb128 0x12
 3475 05eb A4060000 		.4byte	.LASF87
 3476 05ef 01       		.byte	0x1
 3477 05f0 D7       		.byte	0xd7
 3478 05f1 4C050000 		.4byte	0x54c
 3479 05f5 02       		.uleb128 0x2
 3480 05f6 91       		.byte	0x91
 3481 05f7 58       		.sleb128 -40
 3482 05f8 12       		.uleb128 0x12
 3483 05f9 D2050000 		.4byte	.LASF88
 3484 05fd 01       		.byte	0x1
 3485 05fe D8       		.byte	0xd8
 3486 05ff 4C050000 		.4byte	0x54c
 3487 0603 02       		.uleb128 0x2
 3488 0604 91       		.byte	0x91
 3489 0605 50       		.sleb128 -48
 3490 0606 00       		.byte	0
 3491 0607 17       		.uleb128 0x17
 3492 0608 DE040000 		.4byte	.LASF89
 3493 060c 01       		.byte	0x1
 3494 060d EE       		.byte	0xee
 3495 060e B8000000 		.4byte	0xb8
 3496 0612 00000000 		.4byte	.LFB11
 3497 0616 68020000 		.4byte	.LFE11-.LFB11
 3498 061a 01       		.uleb128 0x1
 3499 061b 9C       		.byte	0x9c
 3500 061c C3060000 		.4byte	0x6c3
 3501 0620 0D       		.uleb128 0xd
 3502 0621 6C020000 		.4byte	.LASF74
 3503 0625 01       		.byte	0x1
 3504 0626 EE       		.byte	0xee
 3505 0627 B8000000 		.4byte	0xb8
 3506 062b 03       		.uleb128 0x3
 3507 062c 91       		.byte	0x91
 3508 062d 9F7F     		.sleb128 -97
 3509 062f 12       		.uleb128 0x12
 3510 0630 22000000 		.4byte	.LASF75
 3511 0634 01       		.byte	0x1
 3512 0635 F4       		.byte	0xf4
 3513 0636 E4000000 		.4byte	0xe4
 3514 063a 02       		.uleb128 0x2
 3515 063b 91       		.byte	0x91
 3516 063c 64       		.sleb128 -28
 3517 063d 12       		.uleb128 0x12
 3518 063e C9050000 		.4byte	.LASF90
ARM GAS  C:\Users\GYULAI~1\AppData\Local\Temp\cc8y56XJ.s 			page 71


 3519 0642 01       		.byte	0x1
 3520 0643 FA       		.byte	0xfa
 3521 0644 4C050000 		.4byte	0x54c
 3522 0648 02       		.uleb128 0x2
 3523 0649 91       		.byte	0x91
 3524 064a 68       		.sleb128 -24
 3525 064b 12       		.uleb128 0x12
 3526 064c 27040000 		.4byte	.LASF91
 3527 0650 01       		.byte	0x1
 3528 0651 FB       		.byte	0xfb
 3529 0652 4C050000 		.4byte	0x54c
 3530 0656 02       		.uleb128 0x2
 3531 0657 91       		.byte	0x91
 3532 0658 58       		.sleb128 -40
 3533 0659 12       		.uleb128 0x12
 3534 065a 96030000 		.4byte	.LASF92
 3535 065e 01       		.byte	0x1
 3536 065f FC       		.byte	0xfc
 3537 0660 4C050000 		.4byte	0x54c
 3538 0664 02       		.uleb128 0x2
 3539 0665 91       		.byte	0x91
 3540 0666 50       		.sleb128 -48
 3541 0667 12       		.uleb128 0x12
 3542 0668 8B000000 		.4byte	.LASF76
 3543 066c 01       		.byte	0x1
 3544 066d FD       		.byte	0xfd
 3545 066e 4C050000 		.4byte	0x54c
 3546 0672 02       		.uleb128 0x2
 3547 0673 91       		.byte	0x91
 3548 0674 48       		.sleb128 -56
 3549 0675 12       		.uleb128 0x12
 3550 0676 AB000000 		.4byte	.LASF77
 3551 067a 01       		.byte	0x1
 3552 067b FE       		.byte	0xfe
 3553 067c 4C050000 		.4byte	0x54c
 3554 0680 02       		.uleb128 0x2
 3555 0681 91       		.byte	0x91
 3556 0682 40       		.sleb128 -64
 3557 0683 12       		.uleb128 0x12
 3558 0684 78010000 		.4byte	.LASF85
 3559 0688 01       		.byte	0x1
 3560 0689 FF       		.byte	0xff
 3561 068a 4C050000 		.4byte	0x54c
 3562 068e 03       		.uleb128 0x3
 3563 068f 91       		.byte	0x91
 3564 0690 B87F     		.sleb128 -72
 3565 0692 18       		.uleb128 0x18
 3566 0693 7D010000 		.4byte	.LASF93
 3567 0697 01       		.byte	0x1
 3568 0698 0001     		.2byte	0x100
 3569 069a 4C050000 		.4byte	0x54c
 3570 069e 03       		.uleb128 0x3
 3571 069f 91       		.byte	0x91
 3572 06a0 B07F     		.sleb128 -80
 3573 06a2 18       		.uleb128 0x18
 3574 06a3 82010000 		.4byte	.LASF94
 3575 06a7 01       		.byte	0x1
ARM GAS  C:\Users\GYULAI~1\AppData\Local\Temp\cc8y56XJ.s 			page 72


 3576 06a8 0101     		.2byte	0x101
 3577 06aa 4C050000 		.4byte	0x54c
 3578 06ae 03       		.uleb128 0x3
 3579 06af 91       		.byte	0x91
 3580 06b0 A87F     		.sleb128 -88
 3581 06b2 18       		.uleb128 0x18
 3582 06b3 87010000 		.4byte	.LASF95
 3583 06b7 01       		.byte	0x1
 3584 06b8 0201     		.2byte	0x102
 3585 06ba 4C050000 		.4byte	0x54c
 3586 06be 03       		.uleb128 0x3
 3587 06bf 91       		.byte	0x91
 3588 06c0 A07F     		.sleb128 -96
 3589 06c2 00       		.byte	0
 3590 06c3 19       		.uleb128 0x19
 3591 06c4 6C030000 		.4byte	.LASF96
 3592 06c8 01       		.byte	0x1
 3593 06c9 1301     		.2byte	0x113
 3594 06cb B8000000 		.4byte	0xb8
 3595 06cf 00000000 		.4byte	.LFB12
 3596 06d3 30020000 		.4byte	.LFE12-.LFB12
 3597 06d7 01       		.uleb128 0x1
 3598 06d8 9C       		.byte	0x9c
 3599 06d9 38070000 		.4byte	0x738
 3600 06dd 18       		.uleb128 0x18
 3601 06de DB010000 		.4byte	.LASF97
 3602 06e2 01       		.byte	0x1
 3603 06e3 1601     		.2byte	0x116
 3604 06e5 B8000000 		.4byte	0xb8
 3605 06e9 02       		.uleb128 0x2
 3606 06ea 91       		.byte	0x91
 3607 06eb 6F       		.sleb128 -17
 3608 06ec 18       		.uleb128 0x18
 3609 06ed 13050000 		.4byte	.LASF98
 3610 06f1 01       		.byte	0x1
 3611 06f2 1701     		.2byte	0x117
 3612 06f4 B8000000 		.4byte	0xb8
 3613 06f8 02       		.uleb128 0x2
 3614 06f9 91       		.byte	0x91
 3615 06fa 6E       		.sleb128 -18
 3616 06fb 18       		.uleb128 0x18
 3617 06fc 18030000 		.4byte	.LASF99
 3618 0700 01       		.byte	0x1
 3619 0701 1801     		.2byte	0x118
 3620 0703 B8000000 		.4byte	0xb8
 3621 0707 02       		.uleb128 0x2
 3622 0708 91       		.byte	0x91
 3623 0709 6D       		.sleb128 -19
 3624 070a 18       		.uleb128 0x18
 3625 070b 00000000 		.4byte	.LASF100
 3626 070f 01       		.byte	0x1
 3627 0710 3701     		.2byte	0x137
 3628 0712 4C050000 		.4byte	0x54c
 3629 0716 02       		.uleb128 0x2
 3630 0717 91       		.byte	0x91
 3631 0718 60       		.sleb128 -32
 3632 0719 18       		.uleb128 0x18
ARM GAS  C:\Users\GYULAI~1\AppData\Local\Temp\cc8y56XJ.s 			page 73


 3633 071a 7B060000 		.4byte	.LASF101
 3634 071e 01       		.byte	0x1
 3635 071f 3801     		.2byte	0x138
 3636 0721 4C050000 		.4byte	0x54c
 3637 0725 02       		.uleb128 0x2
 3638 0726 91       		.byte	0x91
 3639 0727 58       		.sleb128 -40
 3640 0728 18       		.uleb128 0x18
 3641 0729 87030000 		.4byte	.LASF102
 3642 072d 01       		.byte	0x1
 3643 072e 3901     		.2byte	0x139
 3644 0730 4C050000 		.4byte	0x54c
 3645 0734 02       		.uleb128 0x2
 3646 0735 91       		.byte	0x91
 3647 0736 50       		.sleb128 -48
 3648 0737 00       		.byte	0
 3649 0738 1A       		.uleb128 0x1a
 3650 0739 49030000 		.4byte	.LASF104
 3651 073d 01       		.byte	0x1
 3652 073e 3E01     		.2byte	0x13e
 3653 0740 B8000000 		.4byte	0xb8
 3654 0744 00000000 		.4byte	.LFB13
 3655 0748 1C000000 		.4byte	.LFE13-.LFB13
 3656 074c 01       		.uleb128 0x1
 3657 074d 9C       		.byte	0x9c
 3658 074e 1B       		.uleb128 0x1b
 3659 074f 64060000 		.4byte	.LASF105
 3660 0753 01       		.byte	0x1
 3661 0754 4401     		.2byte	0x144
 3662 0756 00000000 		.4byte	.LFB14
 3663 075a 44000000 		.4byte	.LFE14-.LFB14
 3664 075e 01       		.uleb128 0x1
 3665 075f 9C       		.byte	0x9c
 3666 0760 74070000 		.4byte	0x774
 3667 0764 1C       		.uleb128 0x1c
 3668 0765 21050000 		.4byte	.LASF106
 3669 0769 01       		.byte	0x1
 3670 076a 4401     		.2byte	0x144
 3671 076c B8000000 		.4byte	0xb8
 3672 0770 02       		.uleb128 0x2
 3673 0771 91       		.byte	0x91
 3674 0772 77       		.sleb128 -9
 3675 0773 00       		.byte	0
 3676 0774 1A       		.uleb128 0x1a
 3677 0775 A8040000 		.4byte	.LASF107
 3678 0779 01       		.byte	0x1
 3679 077a 4E01     		.2byte	0x14e
 3680 077c B8000000 		.4byte	0xb8
 3681 0780 00000000 		.4byte	.LFB15
 3682 0784 1C000000 		.4byte	.LFE15-.LFB15
 3683 0788 01       		.uleb128 0x1
 3684 0789 9C       		.byte	0x9c
 3685 078a 1B       		.uleb128 0x1b
 3686 078b A0020000 		.4byte	.LASF108
 3687 078f 01       		.byte	0x1
 3688 0790 5401     		.2byte	0x154
 3689 0792 00000000 		.4byte	.LFB16
ARM GAS  C:\Users\GYULAI~1\AppData\Local\Temp\cc8y56XJ.s 			page 74


 3690 0796 44000000 		.4byte	.LFE16-.LFB16
 3691 079a 01       		.uleb128 0x1
 3692 079b 9C       		.byte	0x9c
 3693 079c B0070000 		.4byte	0x7b0
 3694 07a0 1C       		.uleb128 0x1c
 3695 07a1 21050000 		.4byte	.LASF106
 3696 07a5 01       		.byte	0x1
 3697 07a6 5401     		.2byte	0x154
 3698 07a8 B8000000 		.4byte	0xb8
 3699 07ac 02       		.uleb128 0x2
 3700 07ad 91       		.byte	0x91
 3701 07ae 77       		.sleb128 -9
 3702 07af 00       		.byte	0
 3703 07b0 1A       		.uleb128 0x1a
 3704 07b1 74040000 		.4byte	.LASF109
 3705 07b5 01       		.byte	0x1
 3706 07b6 5E01     		.2byte	0x15e
 3707 07b8 B8000000 		.4byte	0xb8
 3708 07bc 00000000 		.4byte	.LFB17
 3709 07c0 1C000000 		.4byte	.LFE17-.LFB17
 3710 07c4 01       		.uleb128 0x1
 3711 07c5 9C       		.byte	0x9c
 3712 07c6 1B       		.uleb128 0x1b
 3713 07c7 1C020000 		.4byte	.LASF110
 3714 07cb 01       		.byte	0x1
 3715 07cc 6401     		.2byte	0x164
 3716 07ce 00000000 		.4byte	.LFB18
 3717 07d2 44000000 		.4byte	.LFE18-.LFB18
 3718 07d6 01       		.uleb128 0x1
 3719 07d7 9C       		.byte	0x9c
 3720 07d8 EC070000 		.4byte	0x7ec
 3721 07dc 1C       		.uleb128 0x1c
 3722 07dd 21050000 		.4byte	.LASF106
 3723 07e1 01       		.byte	0x1
 3724 07e2 6401     		.2byte	0x164
 3725 07e4 B8000000 		.4byte	0xb8
 3726 07e8 02       		.uleb128 0x2
 3727 07e9 91       		.byte	0x91
 3728 07ea 77       		.sleb128 -9
 3729 07eb 00       		.byte	0
 3730 07ec 1D       		.uleb128 0x1d
 3731 07ed 91060000 		.4byte	.LASF111
 3732 07f1 01       		.byte	0x1
 3733 07f2 6E01     		.2byte	0x16e
 3734 07f4 B8000000 		.4byte	0xb8
 3735 07f8 00000000 		.4byte	.LFB19
 3736 07fc 28000000 		.4byte	.LFE19-.LFB19
 3737 0800 01       		.uleb128 0x1
 3738 0801 9C       		.byte	0x9c
 3739 0802 1D       		.uleb128 0x1d
 3740 0803 3E010000 		.4byte	.LASF112
 3741 0807 01       		.byte	0x1
 3742 0808 7701     		.2byte	0x177
 3743 080a B8000000 		.4byte	0xb8
 3744 080e 00000000 		.4byte	.LFB20
 3745 0812 28000000 		.4byte	.LFE20-.LFB20
 3746 0816 01       		.uleb128 0x1
ARM GAS  C:\Users\GYULAI~1\AppData\Local\Temp\cc8y56XJ.s 			page 75


 3747 0817 9C       		.byte	0x9c
 3748 0818 1A       		.uleb128 0x1a
 3749 0819 15060000 		.4byte	.LASF113
 3750 081d 01       		.byte	0x1
 3751 081e 8001     		.2byte	0x180
 3752 0820 B8000000 		.4byte	0xb8
 3753 0824 00000000 		.4byte	.LFB21
 3754 0828 1C000000 		.4byte	.LFE21-.LFB21
 3755 082c 01       		.uleb128 0x1
 3756 082d 9C       		.byte	0x9c
 3757 082e 1B       		.uleb128 0x1b
 3758 082f 97010000 		.4byte	.LASF114
 3759 0833 01       		.byte	0x1
 3760 0834 8601     		.2byte	0x186
 3761 0836 00000000 		.4byte	.LFB22
 3762 083a 44000000 		.4byte	.LFE22-.LFB22
 3763 083e 01       		.uleb128 0x1
 3764 083f 9C       		.byte	0x9c
 3765 0840 54080000 		.4byte	0x854
 3766 0844 1C       		.uleb128 0x1c
 3767 0845 21050000 		.4byte	.LASF106
 3768 0849 01       		.byte	0x1
 3769 084a 8601     		.2byte	0x186
 3770 084c B8000000 		.4byte	0xb8
 3771 0850 02       		.uleb128 0x2
 3772 0851 91       		.byte	0x91
 3773 0852 77       		.sleb128 -9
 3774 0853 00       		.byte	0
 3775 0854 1A       		.uleb128 0x1a
 3776 0855 F4010000 		.4byte	.LASF115
 3777 0859 01       		.byte	0x1
 3778 085a 9001     		.2byte	0x190
 3779 085c B8000000 		.4byte	0xb8
 3780 0860 00000000 		.4byte	.LFB23
 3781 0864 1C000000 		.4byte	.LFE23-.LFB23
 3782 0868 01       		.uleb128 0x1
 3783 0869 9C       		.byte	0x9c
 3784 086a 1B       		.uleb128 0x1b
 3785 086b 4A070000 		.4byte	.LASF116
 3786 086f 01       		.byte	0x1
 3787 0870 9601     		.2byte	0x196
 3788 0872 00000000 		.4byte	.LFB24
 3789 0876 44000000 		.4byte	.LFE24-.LFB24
 3790 087a 01       		.uleb128 0x1
 3791 087b 9C       		.byte	0x9c
 3792 087c 90080000 		.4byte	0x890
 3793 0880 1C       		.uleb128 0x1c
 3794 0881 0D060000 		.4byte	.LASF117
 3795 0885 01       		.byte	0x1
 3796 0886 9601     		.2byte	0x196
 3797 0888 B8000000 		.4byte	0xb8
 3798 088c 02       		.uleb128 0x2
 3799 088d 91       		.byte	0x91
 3800 088e 77       		.sleb128 -9
 3801 088f 00       		.byte	0
 3802 0890 1A       		.uleb128 0x1a
 3803 0891 F2060000 		.4byte	.LASF118
ARM GAS  C:\Users\GYULAI~1\AppData\Local\Temp\cc8y56XJ.s 			page 76


 3804 0895 01       		.byte	0x1
 3805 0896 A001     		.2byte	0x1a0
 3806 0898 B8000000 		.4byte	0xb8
 3807 089c 00000000 		.4byte	.LFB25
 3808 08a0 1C000000 		.4byte	.LFE25-.LFB25
 3809 08a4 01       		.uleb128 0x1
 3810 08a5 9C       		.byte	0x9c
 3811 08a6 1B       		.uleb128 0x1b
 3812 08a7 39060000 		.4byte	.LASF119
 3813 08ab 01       		.byte	0x1
 3814 08ac A601     		.2byte	0x1a6
 3815 08ae 00000000 		.4byte	.LFB26
 3816 08b2 44000000 		.4byte	.LFE26-.LFB26
 3817 08b6 01       		.uleb128 0x1
 3818 08b7 9C       		.byte	0x9c
 3819 08b8 CC080000 		.4byte	0x8cc
 3820 08bc 1C       		.uleb128 0x1c
 3821 08bd 21050000 		.4byte	.LASF106
 3822 08c1 01       		.byte	0x1
 3823 08c2 A601     		.2byte	0x1a6
 3824 08c4 B8000000 		.4byte	0xb8
 3825 08c8 02       		.uleb128 0x2
 3826 08c9 91       		.byte	0x91
 3827 08ca 77       		.sleb128 -9
 3828 08cb 00       		.byte	0
 3829 08cc 1E       		.uleb128 0x1e
 3830 08cd 4E060000 		.4byte	.LASF120
 3831 08d1 01       		.byte	0x1
 3832 08d2 B001     		.2byte	0x1b0
 3833 08d4 00000000 		.4byte	.LFB27
 3834 08d8 2C000000 		.4byte	.LFE27-.LFB27
 3835 08dc 01       		.uleb128 0x1
 3836 08dd 9C       		.byte	0x9c
 3837 08de 1E       		.uleb128 0x1e
 3838 08df B1010000 		.4byte	.LASF121
 3839 08e3 01       		.byte	0x1
 3840 08e4 B901     		.2byte	0x1b9
 3841 08e6 00000000 		.4byte	.LFB28
 3842 08ea 2C000000 		.4byte	.LFE28-.LFB28
 3843 08ee 01       		.uleb128 0x1
 3844 08ef 9C       		.byte	0x9c
 3845 08f0 1F       		.uleb128 0x1f
 3846 08f1 46000000 		.4byte	.LASF122
 3847 08f5 01       		.byte	0x1
 3848 08f6 C201     		.2byte	0x1c2
 3849 08f8 B8000000 		.4byte	0xb8
 3850 08fc 00000000 		.4byte	.LFB29
 3851 0900 1C000000 		.4byte	.LFE29-.LFB29
 3852 0904 01       		.uleb128 0x1
 3853 0905 9C       		.byte	0x9c
 3854 0906 12       		.uleb128 0x12
 3855 0907 E6030000 		.4byte	.LASF123
 3856 090b 01       		.byte	0x1
 3857 090c 2A       		.byte	0x2a
 3858 090d 6F010000 		.4byte	0x16f
 3859 0911 05       		.uleb128 0x5
 3860 0912 03       		.byte	0x3
ARM GAS  C:\Users\GYULAI~1\AppData\Local\Temp\cc8y56XJ.s 			page 77


 3861 0913 00000000 		.4byte	BME280_I2CController
 3862 0917 12       		.uleb128 0x12
 3863 0918 27070000 		.4byte	.LASF124
 3864 091c 01       		.byte	0x1
 3865 091d 2D       		.byte	0x2d
 3866 091e FB020000 		.4byte	0x2fb
 3867 0922 05       		.uleb128 0x5
 3868 0923 03       		.byte	0x3
 3869 0924 10000000 		.4byte	BME280_RegistersLocal
 3870 0928 00       		.byte	0
 3871              		.section	.debug_abbrev,"",%progbits
 3872              	.Ldebug_abbrev0:
 3873 0000 01       		.uleb128 0x1
 3874 0001 11       		.uleb128 0x11
 3875 0002 01       		.byte	0x1
 3876 0003 25       		.uleb128 0x25
 3877 0004 0E       		.uleb128 0xe
 3878 0005 13       		.uleb128 0x13
 3879 0006 0B       		.uleb128 0xb
 3880 0007 03       		.uleb128 0x3
 3881 0008 0E       		.uleb128 0xe
 3882 0009 1B       		.uleb128 0x1b
 3883 000a 0E       		.uleb128 0xe
 3884 000b 55       		.uleb128 0x55
 3885 000c 17       		.uleb128 0x17
 3886 000d 11       		.uleb128 0x11
 3887 000e 01       		.uleb128 0x1
 3888 000f 10       		.uleb128 0x10
 3889 0010 17       		.uleb128 0x17
 3890 0011 00       		.byte	0
 3891 0012 00       		.byte	0
 3892 0013 02       		.uleb128 0x2
 3893 0014 16       		.uleb128 0x16
 3894 0015 00       		.byte	0
 3895 0016 03       		.uleb128 0x3
 3896 0017 0E       		.uleb128 0xe
 3897 0018 3A       		.uleb128 0x3a
 3898 0019 0B       		.uleb128 0xb
 3899 001a 3B       		.uleb128 0x3b
 3900 001b 0B       		.uleb128 0xb
 3901 001c 49       		.uleb128 0x49
 3902 001d 13       		.uleb128 0x13
 3903 001e 00       		.byte	0
 3904 001f 00       		.byte	0
 3905 0020 03       		.uleb128 0x3
 3906 0021 24       		.uleb128 0x24
 3907 0022 00       		.byte	0
 3908 0023 0B       		.uleb128 0xb
 3909 0024 0B       		.uleb128 0xb
 3910 0025 3E       		.uleb128 0x3e
 3911 0026 0B       		.uleb128 0xb
 3912 0027 03       		.uleb128 0x3
 3913 0028 0E       		.uleb128 0xe
 3914 0029 00       		.byte	0
 3915 002a 00       		.byte	0
 3916 002b 04       		.uleb128 0x4
 3917 002c 24       		.uleb128 0x24
ARM GAS  C:\Users\GYULAI~1\AppData\Local\Temp\cc8y56XJ.s 			page 78


 3918 002d 00       		.byte	0
 3919 002e 0B       		.uleb128 0xb
 3920 002f 0B       		.uleb128 0xb
 3921 0030 3E       		.uleb128 0x3e
 3922 0031 0B       		.uleb128 0xb
 3923 0032 03       		.uleb128 0x3
 3924 0033 08       		.uleb128 0x8
 3925 0034 00       		.byte	0
 3926 0035 00       		.byte	0
 3927 0036 05       		.uleb128 0x5
 3928 0037 13       		.uleb128 0x13
 3929 0038 01       		.byte	0x1
 3930 0039 03       		.uleb128 0x3
 3931 003a 0E       		.uleb128 0xe
 3932 003b 0B       		.uleb128 0xb
 3933 003c 0B       		.uleb128 0xb
 3934 003d 3A       		.uleb128 0x3a
 3935 003e 0B       		.uleb128 0xb
 3936 003f 3B       		.uleb128 0x3b
 3937 0040 0B       		.uleb128 0xb
 3938 0041 01       		.uleb128 0x1
 3939 0042 13       		.uleb128 0x13
 3940 0043 00       		.byte	0
 3941 0044 00       		.byte	0
 3942 0045 06       		.uleb128 0x6
 3943 0046 0D       		.uleb128 0xd
 3944 0047 00       		.byte	0
 3945 0048 03       		.uleb128 0x3
 3946 0049 0E       		.uleb128 0xe
 3947 004a 3A       		.uleb128 0x3a
 3948 004b 0B       		.uleb128 0xb
 3949 004c 3B       		.uleb128 0x3b
 3950 004d 0B       		.uleb128 0xb
 3951 004e 49       		.uleb128 0x49
 3952 004f 13       		.uleb128 0x13
 3953 0050 38       		.uleb128 0x38
 3954 0051 0B       		.uleb128 0xb
 3955 0052 00       		.byte	0
 3956 0053 00       		.byte	0
 3957 0054 07       		.uleb128 0x7
 3958 0055 15       		.uleb128 0x15
 3959 0056 01       		.byte	0x1
 3960 0057 27       		.uleb128 0x27
 3961 0058 19       		.uleb128 0x19
 3962 0059 01       		.uleb128 0x1
 3963 005a 13       		.uleb128 0x13
 3964 005b 00       		.byte	0
 3965 005c 00       		.byte	0
 3966 005d 08       		.uleb128 0x8
 3967 005e 05       		.uleb128 0x5
 3968 005f 00       		.byte	0
 3969 0060 49       		.uleb128 0x49
 3970 0061 13       		.uleb128 0x13
 3971 0062 00       		.byte	0
 3972 0063 00       		.byte	0
 3973 0064 09       		.uleb128 0x9
 3974 0065 0F       		.uleb128 0xf
ARM GAS  C:\Users\GYULAI~1\AppData\Local\Temp\cc8y56XJ.s 			page 79


 3975 0066 00       		.byte	0
 3976 0067 0B       		.uleb128 0xb
 3977 0068 0B       		.uleb128 0xb
 3978 0069 49       		.uleb128 0x49
 3979 006a 13       		.uleb128 0x13
 3980 006b 00       		.byte	0
 3981 006c 00       		.byte	0
 3982 006d 0A       		.uleb128 0xa
 3983 006e 15       		.uleb128 0x15
 3984 006f 00       		.byte	0
 3985 0070 27       		.uleb128 0x27
 3986 0071 19       		.uleb128 0x19
 3987 0072 00       		.byte	0
 3988 0073 00       		.byte	0
 3989 0074 0B       		.uleb128 0xb
 3990 0075 15       		.uleb128 0x15
 3991 0076 01       		.byte	0x1
 3992 0077 27       		.uleb128 0x27
 3993 0078 19       		.uleb128 0x19
 3994 0079 49       		.uleb128 0x49
 3995 007a 13       		.uleb128 0x13
 3996 007b 01       		.uleb128 0x1
 3997 007c 13       		.uleb128 0x13
 3998 007d 00       		.byte	0
 3999 007e 00       		.byte	0
 4000 007f 0C       		.uleb128 0xc
 4001 0080 2E       		.uleb128 0x2e
 4002 0081 01       		.byte	0x1
 4003 0082 3F       		.uleb128 0x3f
 4004 0083 19       		.uleb128 0x19
 4005 0084 03       		.uleb128 0x3
 4006 0085 0E       		.uleb128 0xe
 4007 0086 3A       		.uleb128 0x3a
 4008 0087 0B       		.uleb128 0xb
 4009 0088 3B       		.uleb128 0x3b
 4010 0089 0B       		.uleb128 0xb
 4011 008a 27       		.uleb128 0x27
 4012 008b 19       		.uleb128 0x19
 4013 008c 11       		.uleb128 0x11
 4014 008d 01       		.uleb128 0x1
 4015 008e 12       		.uleb128 0x12
 4016 008f 06       		.uleb128 0x6
 4017 0090 40       		.uleb128 0x40
 4018 0091 18       		.uleb128 0x18
 4019 0092 9742     		.uleb128 0x2117
 4020 0094 19       		.uleb128 0x19
 4021 0095 01       		.uleb128 0x1
 4022 0096 13       		.uleb128 0x13
 4023 0097 00       		.byte	0
 4024 0098 00       		.byte	0
 4025 0099 0D       		.uleb128 0xd
 4026 009a 05       		.uleb128 0x5
 4027 009b 00       		.byte	0
 4028 009c 03       		.uleb128 0x3
 4029 009d 0E       		.uleb128 0xe
 4030 009e 3A       		.uleb128 0x3a
 4031 009f 0B       		.uleb128 0xb
ARM GAS  C:\Users\GYULAI~1\AppData\Local\Temp\cc8y56XJ.s 			page 80


 4032 00a0 3B       		.uleb128 0x3b
 4033 00a1 0B       		.uleb128 0xb
 4034 00a2 49       		.uleb128 0x49
 4035 00a3 13       		.uleb128 0x13
 4036 00a4 02       		.uleb128 0x2
 4037 00a5 18       		.uleb128 0x18
 4038 00a6 00       		.byte	0
 4039 00a7 00       		.byte	0
 4040 00a8 0E       		.uleb128 0xe
 4041 00a9 2E       		.uleb128 0x2e
 4042 00aa 01       		.byte	0x1
 4043 00ab 3F       		.uleb128 0x3f
 4044 00ac 19       		.uleb128 0x19
 4045 00ad 03       		.uleb128 0x3
 4046 00ae 0E       		.uleb128 0xe
 4047 00af 3A       		.uleb128 0x3a
 4048 00b0 0B       		.uleb128 0xb
 4049 00b1 3B       		.uleb128 0x3b
 4050 00b2 0B       		.uleb128 0xb
 4051 00b3 27       		.uleb128 0x27
 4052 00b4 19       		.uleb128 0x19
 4053 00b5 11       		.uleb128 0x11
 4054 00b6 01       		.uleb128 0x1
 4055 00b7 12       		.uleb128 0x12
 4056 00b8 06       		.uleb128 0x6
 4057 00b9 40       		.uleb128 0x40
 4058 00ba 18       		.uleb128 0x18
 4059 00bb 9642     		.uleb128 0x2116
 4060 00bd 19       		.uleb128 0x19
 4061 00be 01       		.uleb128 0x1
 4062 00bf 13       		.uleb128 0x13
 4063 00c0 00       		.byte	0
 4064 00c1 00       		.byte	0
 4065 00c2 0F       		.uleb128 0xf
 4066 00c3 0B       		.uleb128 0xb
 4067 00c4 01       		.byte	0x1
 4068 00c5 11       		.uleb128 0x11
 4069 00c6 01       		.uleb128 0x1
 4070 00c7 12       		.uleb128 0x12
 4071 00c8 06       		.uleb128 0x6
 4072 00c9 00       		.byte	0
 4073 00ca 00       		.byte	0
 4074 00cb 10       		.uleb128 0x10
 4075 00cc 34       		.uleb128 0x34
 4076 00cd 00       		.byte	0
 4077 00ce 03       		.uleb128 0x3
 4078 00cf 08       		.uleb128 0x8
 4079 00d0 3A       		.uleb128 0x3a
 4080 00d1 0B       		.uleb128 0xb
 4081 00d2 3B       		.uleb128 0x3b
 4082 00d3 0B       		.uleb128 0xb
 4083 00d4 49       		.uleb128 0x49
 4084 00d5 13       		.uleb128 0x13
 4085 00d6 02       		.uleb128 0x2
 4086 00d7 18       		.uleb128 0x18
 4087 00d8 00       		.byte	0
 4088 00d9 00       		.byte	0
ARM GAS  C:\Users\GYULAI~1\AppData\Local\Temp\cc8y56XJ.s 			page 81


 4089 00da 11       		.uleb128 0x11
 4090 00db 26       		.uleb128 0x26
 4091 00dc 00       		.byte	0
 4092 00dd 49       		.uleb128 0x49
 4093 00de 13       		.uleb128 0x13
 4094 00df 00       		.byte	0
 4095 00e0 00       		.byte	0
 4096 00e1 12       		.uleb128 0x12
 4097 00e2 34       		.uleb128 0x34
 4098 00e3 00       		.byte	0
 4099 00e4 03       		.uleb128 0x3
 4100 00e5 0E       		.uleb128 0xe
 4101 00e6 3A       		.uleb128 0x3a
 4102 00e7 0B       		.uleb128 0xb
 4103 00e8 3B       		.uleb128 0x3b
 4104 00e9 0B       		.uleb128 0xb
 4105 00ea 49       		.uleb128 0x49
 4106 00eb 13       		.uleb128 0x13
 4107 00ec 02       		.uleb128 0x2
 4108 00ed 18       		.uleb128 0x18
 4109 00ee 00       		.byte	0
 4110 00ef 00       		.byte	0
 4111 00f0 13       		.uleb128 0x13
 4112 00f1 01       		.uleb128 0x1
 4113 00f2 01       		.byte	0x1
 4114 00f3 49       		.uleb128 0x49
 4115 00f4 13       		.uleb128 0x13
 4116 00f5 01       		.uleb128 0x1
 4117 00f6 13       		.uleb128 0x13
 4118 00f7 00       		.byte	0
 4119 00f8 00       		.byte	0
 4120 00f9 14       		.uleb128 0x14
 4121 00fa 21       		.uleb128 0x21
 4122 00fb 00       		.byte	0
 4123 00fc 49       		.uleb128 0x49
 4124 00fd 13       		.uleb128 0x13
 4125 00fe 2F       		.uleb128 0x2f
 4126 00ff 0B       		.uleb128 0xb
 4127 0100 00       		.byte	0
 4128 0101 00       		.byte	0
 4129 0102 15       		.uleb128 0x15
 4130 0103 2E       		.uleb128 0x2e
 4131 0104 00       		.byte	0
 4132 0105 3F       		.uleb128 0x3f
 4133 0106 19       		.uleb128 0x19
 4134 0107 03       		.uleb128 0x3
 4135 0108 0E       		.uleb128 0xe
 4136 0109 3A       		.uleb128 0x3a
 4137 010a 0B       		.uleb128 0xb
 4138 010b 3B       		.uleb128 0x3b
 4139 010c 0B       		.uleb128 0xb
 4140 010d 27       		.uleb128 0x27
 4141 010e 19       		.uleb128 0x19
 4142 010f 11       		.uleb128 0x11
 4143 0110 01       		.uleb128 0x1
 4144 0111 12       		.uleb128 0x12
 4145 0112 06       		.uleb128 0x6
ARM GAS  C:\Users\GYULAI~1\AppData\Local\Temp\cc8y56XJ.s 			page 82


 4146 0113 40       		.uleb128 0x40
 4147 0114 18       		.uleb128 0x18
 4148 0115 9642     		.uleb128 0x2116
 4149 0117 19       		.uleb128 0x19
 4150 0118 00       		.byte	0
 4151 0119 00       		.byte	0
 4152 011a 16       		.uleb128 0x16
 4153 011b 2E       		.uleb128 0x2e
 4154 011c 00       		.byte	0
 4155 011d 3F       		.uleb128 0x3f
 4156 011e 19       		.uleb128 0x19
 4157 011f 03       		.uleb128 0x3
 4158 0120 0E       		.uleb128 0xe
 4159 0121 3A       		.uleb128 0x3a
 4160 0122 0B       		.uleb128 0xb
 4161 0123 3B       		.uleb128 0x3b
 4162 0124 0B       		.uleb128 0xb
 4163 0125 27       		.uleb128 0x27
 4164 0126 19       		.uleb128 0x19
 4165 0127 49       		.uleb128 0x49
 4166 0128 13       		.uleb128 0x13
 4167 0129 11       		.uleb128 0x11
 4168 012a 01       		.uleb128 0x1
 4169 012b 12       		.uleb128 0x12
 4170 012c 06       		.uleb128 0x6
 4171 012d 40       		.uleb128 0x40
 4172 012e 18       		.uleb128 0x18
 4173 012f 9742     		.uleb128 0x2117
 4174 0131 19       		.uleb128 0x19
 4175 0132 00       		.byte	0
 4176 0133 00       		.byte	0
 4177 0134 17       		.uleb128 0x17
 4178 0135 2E       		.uleb128 0x2e
 4179 0136 01       		.byte	0x1
 4180 0137 3F       		.uleb128 0x3f
 4181 0138 19       		.uleb128 0x19
 4182 0139 03       		.uleb128 0x3
 4183 013a 0E       		.uleb128 0xe
 4184 013b 3A       		.uleb128 0x3a
 4185 013c 0B       		.uleb128 0xb
 4186 013d 3B       		.uleb128 0x3b
 4187 013e 0B       		.uleb128 0xb
 4188 013f 27       		.uleb128 0x27
 4189 0140 19       		.uleb128 0x19
 4190 0141 49       		.uleb128 0x49
 4191 0142 13       		.uleb128 0x13
 4192 0143 11       		.uleb128 0x11
 4193 0144 01       		.uleb128 0x1
 4194 0145 12       		.uleb128 0x12
 4195 0146 06       		.uleb128 0x6
 4196 0147 40       		.uleb128 0x40
 4197 0148 18       		.uleb128 0x18
 4198 0149 9642     		.uleb128 0x2116
 4199 014b 19       		.uleb128 0x19
 4200 014c 01       		.uleb128 0x1
 4201 014d 13       		.uleb128 0x13
 4202 014e 00       		.byte	0
ARM GAS  C:\Users\GYULAI~1\AppData\Local\Temp\cc8y56XJ.s 			page 83


 4203 014f 00       		.byte	0
 4204 0150 18       		.uleb128 0x18
 4205 0151 34       		.uleb128 0x34
 4206 0152 00       		.byte	0
 4207 0153 03       		.uleb128 0x3
 4208 0154 0E       		.uleb128 0xe
 4209 0155 3A       		.uleb128 0x3a
 4210 0156 0B       		.uleb128 0xb
 4211 0157 3B       		.uleb128 0x3b
 4212 0158 05       		.uleb128 0x5
 4213 0159 49       		.uleb128 0x49
 4214 015a 13       		.uleb128 0x13
 4215 015b 02       		.uleb128 0x2
 4216 015c 18       		.uleb128 0x18
 4217 015d 00       		.byte	0
 4218 015e 00       		.byte	0
 4219 015f 19       		.uleb128 0x19
 4220 0160 2E       		.uleb128 0x2e
 4221 0161 01       		.byte	0x1
 4222 0162 3F       		.uleb128 0x3f
 4223 0163 19       		.uleb128 0x19
 4224 0164 03       		.uleb128 0x3
 4225 0165 0E       		.uleb128 0xe
 4226 0166 3A       		.uleb128 0x3a
 4227 0167 0B       		.uleb128 0xb
 4228 0168 3B       		.uleb128 0x3b
 4229 0169 05       		.uleb128 0x5
 4230 016a 27       		.uleb128 0x27
 4231 016b 19       		.uleb128 0x19
 4232 016c 49       		.uleb128 0x49
 4233 016d 13       		.uleb128 0x13
 4234 016e 11       		.uleb128 0x11
 4235 016f 01       		.uleb128 0x1
 4236 0170 12       		.uleb128 0x12
 4237 0171 06       		.uleb128 0x6
 4238 0172 40       		.uleb128 0x40
 4239 0173 18       		.uleb128 0x18
 4240 0174 9642     		.uleb128 0x2116
 4241 0176 19       		.uleb128 0x19
 4242 0177 01       		.uleb128 0x1
 4243 0178 13       		.uleb128 0x13
 4244 0179 00       		.byte	0
 4245 017a 00       		.byte	0
 4246 017b 1A       		.uleb128 0x1a
 4247 017c 2E       		.uleb128 0x2e
 4248 017d 00       		.byte	0
 4249 017e 3F       		.uleb128 0x3f
 4250 017f 19       		.uleb128 0x19
 4251 0180 03       		.uleb128 0x3
 4252 0181 0E       		.uleb128 0xe
 4253 0182 3A       		.uleb128 0x3a
 4254 0183 0B       		.uleb128 0xb
 4255 0184 3B       		.uleb128 0x3b
 4256 0185 05       		.uleb128 0x5
 4257 0186 27       		.uleb128 0x27
 4258 0187 19       		.uleb128 0x19
 4259 0188 49       		.uleb128 0x49
ARM GAS  C:\Users\GYULAI~1\AppData\Local\Temp\cc8y56XJ.s 			page 84


 4260 0189 13       		.uleb128 0x13
 4261 018a 11       		.uleb128 0x11
 4262 018b 01       		.uleb128 0x1
 4263 018c 12       		.uleb128 0x12
 4264 018d 06       		.uleb128 0x6
 4265 018e 40       		.uleb128 0x40
 4266 018f 18       		.uleb128 0x18
 4267 0190 9742     		.uleb128 0x2117
 4268 0192 19       		.uleb128 0x19
 4269 0193 00       		.byte	0
 4270 0194 00       		.byte	0
 4271 0195 1B       		.uleb128 0x1b
 4272 0196 2E       		.uleb128 0x2e
 4273 0197 01       		.byte	0x1
 4274 0198 3F       		.uleb128 0x3f
 4275 0199 19       		.uleb128 0x19
 4276 019a 03       		.uleb128 0x3
 4277 019b 0E       		.uleb128 0xe
 4278 019c 3A       		.uleb128 0x3a
 4279 019d 0B       		.uleb128 0xb
 4280 019e 3B       		.uleb128 0x3b
 4281 019f 05       		.uleb128 0x5
 4282 01a0 27       		.uleb128 0x27
 4283 01a1 19       		.uleb128 0x19
 4284 01a2 11       		.uleb128 0x11
 4285 01a3 01       		.uleb128 0x1
 4286 01a4 12       		.uleb128 0x12
 4287 01a5 06       		.uleb128 0x6
 4288 01a6 40       		.uleb128 0x40
 4289 01a7 18       		.uleb128 0x18
 4290 01a8 9642     		.uleb128 0x2116
 4291 01aa 19       		.uleb128 0x19
 4292 01ab 01       		.uleb128 0x1
 4293 01ac 13       		.uleb128 0x13
 4294 01ad 00       		.byte	0
 4295 01ae 00       		.byte	0
 4296 01af 1C       		.uleb128 0x1c
 4297 01b0 05       		.uleb128 0x5
 4298 01b1 00       		.byte	0
 4299 01b2 03       		.uleb128 0x3
 4300 01b3 0E       		.uleb128 0xe
 4301 01b4 3A       		.uleb128 0x3a
 4302 01b5 0B       		.uleb128 0xb
 4303 01b6 3B       		.uleb128 0x3b
 4304 01b7 05       		.uleb128 0x5
 4305 01b8 49       		.uleb128 0x49
 4306 01b9 13       		.uleb128 0x13
 4307 01ba 02       		.uleb128 0x2
 4308 01bb 18       		.uleb128 0x18
 4309 01bc 00       		.byte	0
 4310 01bd 00       		.byte	0
 4311 01be 1D       		.uleb128 0x1d
 4312 01bf 2E       		.uleb128 0x2e
 4313 01c0 00       		.byte	0
 4314 01c1 3F       		.uleb128 0x3f
 4315 01c2 19       		.uleb128 0x19
 4316 01c3 03       		.uleb128 0x3
ARM GAS  C:\Users\GYULAI~1\AppData\Local\Temp\cc8y56XJ.s 			page 85


 4317 01c4 0E       		.uleb128 0xe
 4318 01c5 3A       		.uleb128 0x3a
 4319 01c6 0B       		.uleb128 0xb
 4320 01c7 3B       		.uleb128 0x3b
 4321 01c8 05       		.uleb128 0x5
 4322 01c9 27       		.uleb128 0x27
 4323 01ca 19       		.uleb128 0x19
 4324 01cb 49       		.uleb128 0x49
 4325 01cc 13       		.uleb128 0x13
 4326 01cd 11       		.uleb128 0x11
 4327 01ce 01       		.uleb128 0x1
 4328 01cf 12       		.uleb128 0x12
 4329 01d0 06       		.uleb128 0x6
 4330 01d1 40       		.uleb128 0x40
 4331 01d2 18       		.uleb128 0x18
 4332 01d3 9642     		.uleb128 0x2116
 4333 01d5 19       		.uleb128 0x19
 4334 01d6 00       		.byte	0
 4335 01d7 00       		.byte	0
 4336 01d8 1E       		.uleb128 0x1e
 4337 01d9 2E       		.uleb128 0x2e
 4338 01da 00       		.byte	0
 4339 01db 3F       		.uleb128 0x3f
 4340 01dc 19       		.uleb128 0x19
 4341 01dd 03       		.uleb128 0x3
 4342 01de 0E       		.uleb128 0xe
 4343 01df 3A       		.uleb128 0x3a
 4344 01e0 0B       		.uleb128 0xb
 4345 01e1 3B       		.uleb128 0x3b
 4346 01e2 05       		.uleb128 0x5
 4347 01e3 27       		.uleb128 0x27
 4348 01e4 19       		.uleb128 0x19
 4349 01e5 11       		.uleb128 0x11
 4350 01e6 01       		.uleb128 0x1
 4351 01e7 12       		.uleb128 0x12
 4352 01e8 06       		.uleb128 0x6
 4353 01e9 40       		.uleb128 0x40
 4354 01ea 18       		.uleb128 0x18
 4355 01eb 9642     		.uleb128 0x2116
 4356 01ed 19       		.uleb128 0x19
 4357 01ee 00       		.byte	0
 4358 01ef 00       		.byte	0
 4359 01f0 1F       		.uleb128 0x1f
 4360 01f1 2E       		.uleb128 0x2e
 4361 01f2 00       		.byte	0
 4362 01f3 3F       		.uleb128 0x3f
 4363 01f4 19       		.uleb128 0x19
 4364 01f5 03       		.uleb128 0x3
 4365 01f6 0E       		.uleb128 0xe
 4366 01f7 3A       		.uleb128 0x3a
 4367 01f8 0B       		.uleb128 0xb
 4368 01f9 3B       		.uleb128 0x3b
 4369 01fa 05       		.uleb128 0x5
 4370 01fb 49       		.uleb128 0x49
 4371 01fc 13       		.uleb128 0x13
 4372 01fd 11       		.uleb128 0x11
 4373 01fe 01       		.uleb128 0x1
ARM GAS  C:\Users\GYULAI~1\AppData\Local\Temp\cc8y56XJ.s 			page 86


 4374 01ff 12       		.uleb128 0x12
 4375 0200 06       		.uleb128 0x6
 4376 0201 40       		.uleb128 0x40
 4377 0202 18       		.uleb128 0x18
 4378 0203 9742     		.uleb128 0x2117
 4379 0205 19       		.uleb128 0x19
 4380 0206 00       		.byte	0
 4381 0207 00       		.byte	0
 4382 0208 00       		.byte	0
 4383              		.section	.debug_aranges,"",%progbits
 4384 0000 04010000 		.4byte	0x104
 4385 0004 0200     		.2byte	0x2
 4386 0006 00000000 		.4byte	.Ldebug_info0
 4387 000a 04       		.byte	0x4
 4388 000b 00       		.byte	0
 4389 000c 0000     		.2byte	0
 4390 000e 0000     		.2byte	0
 4391 0010 00000000 		.4byte	.LFB0
 4392 0014 28000000 		.4byte	.LFE0-.LFB0
 4393 0018 00000000 		.4byte	.LFB1
 4394 001c 88000000 		.4byte	.LFE1-.LFB1
 4395 0020 00000000 		.4byte	.LFB2
 4396 0024 68000000 		.4byte	.LFE2-.LFB2
 4397 0028 00000000 		.4byte	.LFB3
 4398 002c 88010000 		.4byte	.LFE3-.LFB3
 4399 0030 00000000 		.4byte	.LFB4
 4400 0034 1E000000 		.4byte	.LFE4-.LFB4
 4401 0038 00000000 		.4byte	.LFB5
 4402 003c 28000000 		.4byte	.LFE5-.LFB5
 4403 0040 00000000 		.4byte	.LFB6
 4404 0044 18000000 		.4byte	.LFE6-.LFB6
 4405 0048 00000000 		.4byte	.LFB7
 4406 004c 14000000 		.4byte	.LFE7-.LFB7
 4407 0050 00000000 		.4byte	.LFB8
 4408 0054 CC010000 		.4byte	.LFE8-.LFB8
 4409 0058 00000000 		.4byte	.LFB9
 4410 005c 48000000 		.4byte	.LFE9-.LFB9
 4411 0060 00000000 		.4byte	.LFB10
 4412 0064 B4030000 		.4byte	.LFE10-.LFB10
 4413 0068 00000000 		.4byte	.LFB11
 4414 006c 68020000 		.4byte	.LFE11-.LFB11
 4415 0070 00000000 		.4byte	.LFB12
 4416 0074 30020000 		.4byte	.LFE12-.LFB12
 4417 0078 00000000 		.4byte	.LFB13
 4418 007c 1C000000 		.4byte	.LFE13-.LFB13
 4419 0080 00000000 		.4byte	.LFB14
 4420 0084 44000000 		.4byte	.LFE14-.LFB14
 4421 0088 00000000 		.4byte	.LFB15
 4422 008c 1C000000 		.4byte	.LFE15-.LFB15
 4423 0090 00000000 		.4byte	.LFB16
 4424 0094 44000000 		.4byte	.LFE16-.LFB16
 4425 0098 00000000 		.4byte	.LFB17
 4426 009c 1C000000 		.4byte	.LFE17-.LFB17
 4427 00a0 00000000 		.4byte	.LFB18
 4428 00a4 44000000 		.4byte	.LFE18-.LFB18
 4429 00a8 00000000 		.4byte	.LFB19
 4430 00ac 28000000 		.4byte	.LFE19-.LFB19
ARM GAS  C:\Users\GYULAI~1\AppData\Local\Temp\cc8y56XJ.s 			page 87


 4431 00b0 00000000 		.4byte	.LFB20
 4432 00b4 28000000 		.4byte	.LFE20-.LFB20
 4433 00b8 00000000 		.4byte	.LFB21
 4434 00bc 1C000000 		.4byte	.LFE21-.LFB21
 4435 00c0 00000000 		.4byte	.LFB22
 4436 00c4 44000000 		.4byte	.LFE22-.LFB22
 4437 00c8 00000000 		.4byte	.LFB23
 4438 00cc 1C000000 		.4byte	.LFE23-.LFB23
 4439 00d0 00000000 		.4byte	.LFB24
 4440 00d4 44000000 		.4byte	.LFE24-.LFB24
 4441 00d8 00000000 		.4byte	.LFB25
 4442 00dc 1C000000 		.4byte	.LFE25-.LFB25
 4443 00e0 00000000 		.4byte	.LFB26
 4444 00e4 44000000 		.4byte	.LFE26-.LFB26
 4445 00e8 00000000 		.4byte	.LFB27
 4446 00ec 2C000000 		.4byte	.LFE27-.LFB27
 4447 00f0 00000000 		.4byte	.LFB28
 4448 00f4 2C000000 		.4byte	.LFE28-.LFB28
 4449 00f8 00000000 		.4byte	.LFB29
 4450 00fc 1C000000 		.4byte	.LFE29-.LFB29
 4451 0100 00000000 		.4byte	0
 4452 0104 00000000 		.4byte	0
 4453              		.section	.debug_ranges,"",%progbits
 4454              	.Ldebug_ranges0:
 4455 0000 00000000 		.4byte	.LFB0
 4456 0004 28000000 		.4byte	.LFE0
 4457 0008 00000000 		.4byte	.LFB1
 4458 000c 88000000 		.4byte	.LFE1
 4459 0010 00000000 		.4byte	.LFB2
 4460 0014 68000000 		.4byte	.LFE2
 4461 0018 00000000 		.4byte	.LFB3
 4462 001c 88010000 		.4byte	.LFE3
 4463 0020 00000000 		.4byte	.LFB4
 4464 0024 1E000000 		.4byte	.LFE4
 4465 0028 00000000 		.4byte	.LFB5
 4466 002c 28000000 		.4byte	.LFE5
 4467 0030 00000000 		.4byte	.LFB6
 4468 0034 18000000 		.4byte	.LFE6
 4469 0038 00000000 		.4byte	.LFB7
 4470 003c 14000000 		.4byte	.LFE7
 4471 0040 00000000 		.4byte	.LFB8
 4472 0044 CC010000 		.4byte	.LFE8
 4473 0048 00000000 		.4byte	.LFB9
 4474 004c 48000000 		.4byte	.LFE9
 4475 0050 00000000 		.4byte	.LFB10
 4476 0054 B4030000 		.4byte	.LFE10
 4477 0058 00000000 		.4byte	.LFB11
 4478 005c 68020000 		.4byte	.LFE11
 4479 0060 00000000 		.4byte	.LFB12
 4480 0064 30020000 		.4byte	.LFE12
 4481 0068 00000000 		.4byte	.LFB13
 4482 006c 1C000000 		.4byte	.LFE13
 4483 0070 00000000 		.4byte	.LFB14
 4484 0074 44000000 		.4byte	.LFE14
 4485 0078 00000000 		.4byte	.LFB15
 4486 007c 1C000000 		.4byte	.LFE15
 4487 0080 00000000 		.4byte	.LFB16
ARM GAS  C:\Users\GYULAI~1\AppData\Local\Temp\cc8y56XJ.s 			page 88


 4488 0084 44000000 		.4byte	.LFE16
 4489 0088 00000000 		.4byte	.LFB17
 4490 008c 1C000000 		.4byte	.LFE17
 4491 0090 00000000 		.4byte	.LFB18
 4492 0094 44000000 		.4byte	.LFE18
 4493 0098 00000000 		.4byte	.LFB19
 4494 009c 28000000 		.4byte	.LFE19
 4495 00a0 00000000 		.4byte	.LFB20
 4496 00a4 28000000 		.4byte	.LFE20
 4497 00a8 00000000 		.4byte	.LFB21
 4498 00ac 1C000000 		.4byte	.LFE21
 4499 00b0 00000000 		.4byte	.LFB22
 4500 00b4 44000000 		.4byte	.LFE22
 4501 00b8 00000000 		.4byte	.LFB23
 4502 00bc 1C000000 		.4byte	.LFE23
 4503 00c0 00000000 		.4byte	.LFB24
 4504 00c4 44000000 		.4byte	.LFE24
 4505 00c8 00000000 		.4byte	.LFB25
 4506 00cc 1C000000 		.4byte	.LFE25
 4507 00d0 00000000 		.4byte	.LFB26
 4508 00d4 44000000 		.4byte	.LFE26
 4509 00d8 00000000 		.4byte	.LFB27
 4510 00dc 2C000000 		.4byte	.LFE27
 4511 00e0 00000000 		.4byte	.LFB28
 4512 00e4 2C000000 		.4byte	.LFE28
 4513 00e8 00000000 		.4byte	.LFB29
 4514 00ec 1C000000 		.4byte	.LFE29
 4515 00f0 00000000 		.4byte	0
 4516 00f4 00000000 		.4byte	0
 4517              		.section	.debug_line,"",%progbits
 4518              	.Ldebug_line0:
 4519 0000 8B040000 		.section	.debug_str,"MS",%progbits,1
 4519      02001401 
 4519      00000201 
 4519      FB0E0D00 
 4519      01010101 
 4520              	.LASF100:
 4521 0000 74656D70 		.ascii	"temperature_delay\000"
 4521      65726174 
 4521      7572655F 
 4521      64656C61 
 4521      7900
 4522              	.LASF79:
 4523 0012 74656D70 		.ascii	"temperature_min\000"
 4523      65726174 
 4523      7572655F 
 4523      6D696E00 
 4524              	.LASF75:
 4525 0022 72656744 		.ascii	"regData\000"
 4525      61746100 
 4526              	.LASF15:
 4527 002a 696E7438 		.ascii	"int8_t\000"
 4527      5F7400
 4528              	.LASF72:
 4529 0031 424D4532 		.ascii	"BME280_ReadRegisters\000"
 4529      38305F52 
 4529      65616452 
ARM GAS  C:\Users\GYULAI~1\AppData\Local\Temp\cc8y56XJ.s 			page 89


 4529      65676973 
 4529      74657273 
 4530              	.LASF122:
 4531 0046 424D4532 		.ascii	"BME280_IsSPI3WireEnabled\000"
 4531      38305F49 
 4531      73535049 
 4531      33576972 
 4531      65456E61 
 4532              	.LASF103:
 4533 005f 424D4532 		.ascii	"BME280_GetLocalRegisters\000"
 4533      38305F47 
 4533      65744C6F 
 4533      63616C52 
 4533      65676973 
 4534              	.LASF5:
 4535 0078 73686F72 		.ascii	"short int\000"
 4535      7420696E 
 4535      7400
 4536              	.LASF69:
 4537 0082 73697A65 		.ascii	"sizetype\000"
 4537      74797065 
 4537      00
 4538              	.LASF76:
 4539 008b 76617231 		.ascii	"var1\000"
 4539      00
 4540              	.LASF25:
 4541 0090 424D4532 		.ascii	"BME280_I2CControllerStruct\000"
 4541      38305F49 
 4541      3243436F 
 4541      6E74726F 
 4541      6C6C6572 
 4542              	.LASF77:
 4543 00ab 76617232 		.ascii	"var2\000"
 4543      00
 4544              	.LASF125:
 4545 00b0 474E5520 		.ascii	"GNU C11 5.4.1 20160609 (release) [ARM/embedded-5-br"
 4545      43313120 
 4545      352E342E 
 4545      31203230 
 4545      31363036 
 4546 00e3 616E6368 		.ascii	"anch revision 237715] -mcpu=cortex-m3 -mthumb -g -O"
 4546      20726576 
 4546      6973696F 
 4546      6E203233 
 4546      37373135 
 4547 0116 30202D66 		.ascii	"0 -ffunction-sections -ffat-lto-objects\000"
 4547      66756E63 
 4547      74696F6E 
 4547      2D736563 
 4547      74696F6E 
 4548              	.LASF112:
 4549 013e 424D4532 		.ascii	"BME280_IsUpdating\000"
 4549      38305F49 
 4549      73557064 
 4549      6174696E 
 4549      6700
 4550              	.LASF82:
ARM GAS  C:\Users\GYULAI~1\AppData\Local\Temp\cc8y56XJ.s 			page 90


 4551 0150 424D4532 		.ascii	"BME280_GetTemperatureCelsius\000"
 4551      38305F47 
 4551      65745465 
 4551      6D706572 
 4551      61747572 
 4552              	.LASF10:
 4553 016d 5F5F7569 		.ascii	"__uint32_t\000"
 4553      6E743332 
 4553      5F7400
 4554              	.LASF85:
 4555 0178 76617233 		.ascii	"var3\000"
 4555      00
 4556              	.LASF93:
 4557 017d 76617234 		.ascii	"var4\000"
 4557      00
 4558              	.LASF94:
 4559 0182 76617235 		.ascii	"var5\000"
 4559      00
 4560              	.LASF95:
 4561 0187 76617236 		.ascii	"var6\000"
 4561      00
 4562              	.LASF6:
 4563 018c 5F5F7569 		.ascii	"__uint16_t\000"
 4563      6E743136 
 4563      5F7400
 4564              	.LASF114:
 4565 0197 424D4532 		.ascii	"BME280_SetMeasurementMode\000"
 4565      38305F53 
 4565      65744D65 
 4565      61737572 
 4565      656D656E 
 4566              	.LASF121:
 4567 01b1 424D4532 		.ascii	"BME280_DisableSPI3Wire\000"
 4567      38305F44 
 4567      69736162 
 4567      6C655350 
 4567      49335769 
 4568              	.LASF84:
 4569 01c8 424D4532 		.ascii	"BME280_GetPressure\000"
 4569      38305F47 
 4569      65745072 
 4569      65737375 
 4569      726500
 4570              	.LASF97:
 4571 01db 74656D70 		.ascii	"temperature_ovrs\000"
 4571      65726174 
 4571      7572655F 
 4571      6F767273 
 4571      00
 4572              	.LASF16:
 4573 01ec 75696E74 		.ascii	"uint8_t\000"
 4573      385F7400 
 4574              	.LASF115:
 4575 01f4 424D4532 		.ascii	"BME280_GetStandbyTime\000"
 4575      38305F47 
 4575      65745374 
 4575      616E6462 
ARM GAS  C:\Users\GYULAI~1\AppData\Local\Temp\cc8y56XJ.s 			page 91


 4575      7954696D 
 4576              	.LASF31:
 4577 020a 54454D50 		.ascii	"TEMP_LSB\000"
 4577      5F4C5342 
 4577      00
 4578              	.LASF86:
 4579 0213 70726573 		.ascii	"pressure\000"
 4579      73757265 
 4579      00
 4580              	.LASF110:
 4581 021c 424D4532 		.ascii	"BME280_SetPressureMode\000"
 4581      38305F53 
 4581      65745072 
 4581      65737375 
 4581      72654D6F 
 4582              	.LASF68:
 4583 0233 63616C69 		.ascii	"calibDataHigh\000"
 4583      62446174 
 4583      61486967 
 4583      6800
 4584              	.LASF60:
 4585 0241 636F6E74 		.ascii	"controller\000"
 4585      726F6C6C 
 4585      657200
 4586              	.LASF27:
 4587 024c 50524553 		.ascii	"PRESS_MSB\000"
 4587      535F4D53 
 4587      4200
 4588              	.LASF73:
 4589 0256 424D4532 		.ascii	"BME280_WriteRegisters\000"
 4589      38305F57 
 4589      72697465 
 4589      52656769 
 4589      73746572 
 4590              	.LASF74:
 4591 026c 72656164 		.ascii	"readNow\000"
 4591      4E6F7700 
 4592              	.LASF50:
 4593 0274 6469675F 		.ascii	"dig_P9\000"
 4593      503900
 4594              	.LASF70:
 4595 027b 424D4532 		.ascii	"BME280_Reset\000"
 4595      38305F52 
 4595      65736574 
 4595      00
 4596              	.LASF32:
 4597 0288 54454D50 		.ascii	"TEMP_XLSB\000"
 4597      5F584C53 
 4597      4200
 4598              	.LASF12:
 4599 0292 6C6F6E67 		.ascii	"long long int\000"
 4599      206C6F6E 
 4599      6720696E 
 4599      7400
 4600              	.LASF108:
 4601 02a0 424D4532 		.ascii	"BME280_SetTemperatureMode\000"
 4601      38305F53 
ARM GAS  C:\Users\GYULAI~1\AppData\Local\Temp\cc8y56XJ.s 			page 92


 4601      65745465 
 4601      6D706572 
 4601      61747572 
 4602              	.LASF30:
 4603 02ba 54454D50 		.ascii	"TEMP_MSB\000"
 4603      5F4D5342 
 4603      00
 4604              	.LASF127:
 4605 02c3 453A5C43 		.ascii	"E:\\Cypress\\Projects\\RheaWorkspace\\Rhea.cydsn\000"
 4605      79707265 
 4605      73735C50 
 4605      726F6A65 
 4605      6374735C 
 4606              	.LASF58:
 4607 02f0 424D4532 		.ascii	"BME280_SetI2CController\000"
 4607      38305F53 
 4607      65744932 
 4607      43436F6E 
 4607      74726F6C 
 4608              	.LASF36:
 4609 0308 53544154 		.ascii	"STATUS\000"
 4609      555300
 4610              	.LASF9:
 4611 030f 6C6F6E67 		.ascii	"long int\000"
 4611      20696E74 
 4611      00
 4612              	.LASF99:
 4613 0318 68756D69 		.ascii	"humidity_ovrs\000"
 4613      64697479 
 4613      5F6F7672 
 4613      7300
 4614              	.LASF61:
 4615 0326 61646472 		.ascii	"address\000"
 4615      65737300 
 4616              	.LASF57:
 4617 032e 745F6669 		.ascii	"t_fine\000"
 4617      6E6500
 4618              	.LASF28:
 4619 0335 50524553 		.ascii	"PRESS_LSB\000"
 4619      535F4C53 
 4619      4200
 4620              	.LASF1:
 4621 033f 5F5F7569 		.ascii	"__uint8_t\000"
 4621      6E74385F 
 4621      7400
 4622              	.LASF104:
 4623 0349 424D4532 		.ascii	"BME280_GetHumidityMode\000"
 4623      38305F47 
 4623      65744875 
 4623      6D696469 
 4623      74794D6F 
 4624              	.LASF66:
 4625 0360 424D4532 		.ascii	"BME280_Init\000"
 4625      38305F49 
 4625      6E697400 
 4626              	.LASF96:
 4627 036c 424D4532 		.ascii	"BME280_GetMeasurementDelay\000"
ARM GAS  C:\Users\GYULAI~1\AppData\Local\Temp\cc8y56XJ.s 			page 93


 4627      38305F47 
 4627      65744D65 
 4627      61737572 
 4627      656D656E 
 4628              	.LASF102:
 4629 0387 68756D69 		.ascii	"humidity_delay\000"
 4629      64697479 
 4629      5F64656C 
 4629      617900
 4630              	.LASF92:
 4631 0396 68756D69 		.ascii	"humidity_max\000"
 4631      64697479 
 4631      5F6D6178 
 4631      00
 4632              	.LASF21:
 4633 03a3 4D617374 		.ascii	"MasterSendStart\000"
 4633      65725365 
 4633      6E645374 
 4633      61727400 
 4634              	.LASF26:
 4635 03b3 424D4532 		.ascii	"BME280_RegisterStruct\000"
 4635      38305F52 
 4635      65676973 
 4635      74657253 
 4635      74727563 
 4636              	.LASF3:
 4637 03c9 756E7369 		.ascii	"unsigned char\000"
 4637      676E6564 
 4637      20636861 
 4637      7200
 4638              	.LASF24:
 4639 03d7 4D617374 		.ascii	"MasterReadByte\000"
 4639      65725265 
 4639      61644279 
 4639      746500
 4640              	.LASF123:
 4641 03e6 424D4532 		.ascii	"BME280_I2CController\000"
 4641      38305F49 
 4641      3243436F 
 4641      6E74726F 
 4641      6C6C6572 
 4642              	.LASF2:
 4643 03fb 7369676E 		.ascii	"signed char\000"
 4643      65642063 
 4643      68617200 
 4644              	.LASF13:
 4645 0407 6C6F6E67 		.ascii	"long long unsigned int\000"
 4645      206C6F6E 
 4645      6720756E 
 4645      7369676E 
 4645      65642069 
 4646              	.LASF20:
 4647 041e 75696E74 		.ascii	"uint32_t\000"
 4647      33325F74 
 4647      00
 4648              	.LASF91:
 4649 0427 68756D69 		.ascii	"humidity_min\000"
ARM GAS  C:\Users\GYULAI~1\AppData\Local\Temp\cc8y56XJ.s 			page 94


 4649      64697479 
 4649      5F6D696E 
 4649      00
 4650              	.LASF14:
 4651 0434 756E7369 		.ascii	"unsigned int\000"
 4651      676E6564 
 4651      20696E74 
 4651      00
 4652              	.LASF18:
 4653 0441 75696E74 		.ascii	"uint16_t\000"
 4653      31365F74 
 4653      00
 4654              	.LASF51:
 4655 044a 6469675F 		.ascii	"dig_H1\000"
 4655      483100
 4656              	.LASF52:
 4657 0451 6469675F 		.ascii	"dig_H2\000"
 4657      483200
 4658              	.LASF53:
 4659 0458 6469675F 		.ascii	"dig_H3\000"
 4659      483300
 4660              	.LASF54:
 4661 045f 6469675F 		.ascii	"dig_H4\000"
 4661      483400
 4662              	.LASF55:
 4663 0466 6469675F 		.ascii	"dig_H5\000"
 4663      483500
 4664              	.LASF56:
 4665 046d 6469675F 		.ascii	"dig_H6\000"
 4665      483600
 4666              	.LASF109:
 4667 0474 424D4532 		.ascii	"BME280_GetPressureMode\000"
 4667      38305F47 
 4667      65745072 
 4667      65737375 
 4667      72654D6F 
 4668              	.LASF126:
 4669 048b 72686561 		.ascii	"rhea\\drivers\\BME280\\BME280.c\000"
 4669      5C647269 
 4669      76657273 
 4669      5C424D45 
 4669      3238305C 
 4670              	.LASF107:
 4671 04a8 424D4532 		.ascii	"BME280_GetTemperatureMode\000"
 4671      38305F47 
 4671      65745465 
 4671      6D706572 
 4671      61747572 
 4672              	.LASF7:
 4673 04c2 73686F72 		.ascii	"short unsigned int\000"
 4673      7420756E 
 4673      7369676E 
 4673      65642069 
 4673      6E7400
 4674              	.LASF0:
 4675 04d5 5F5F696E 		.ascii	"__int8_t\000"
 4675      74385F74 
ARM GAS  C:\Users\GYULAI~1\AppData\Local\Temp\cc8y56XJ.s 			page 95


 4675      00
 4676              	.LASF89:
 4677 04de 424D4532 		.ascii	"BME280_GetHumidity\000"
 4677      38305F47 
 4677      65744875 
 4677      6D696469 
 4677      747900
 4678              	.LASF35:
 4679 04f1 4354524C 		.ascii	"CTRL_HUM\000"
 4679      5F48554D 
 4679      00
 4680              	.LASF19:
 4681 04fa 696E7433 		.ascii	"int32_t\000"
 4681      325F7400 
 4682              	.LASF65:
 4683 0502 424D4532 		.ascii	"BME280_I2CWriter\000"
 4683      38305F49 
 4683      32435772 
 4683      69746572 
 4683      00
 4684              	.LASF98:
 4685 0513 70726573 		.ascii	"pressure_ovrs\000"
 4685      73757265 
 4685      5F6F7672 
 4685      7300
 4686              	.LASF106:
 4687 0521 6D6F6465 		.ascii	"mode\000"
 4687      00
 4688              	.LASF17:
 4689 0526 696E7431 		.ascii	"int16_t\000"
 4689      365F7400 
 4690              	.LASF33:
 4691 052e 48554D5F 		.ascii	"HUM_MSB\000"
 4691      4D534200 
 4692              	.LASF63:
 4693 0536 62756666 		.ascii	"buffer\000"
 4693      657200
 4694              	.LASF42:
 4695 053d 6469675F 		.ascii	"dig_P1\000"
 4695      503100
 4696              	.LASF43:
 4697 0544 6469675F 		.ascii	"dig_P2\000"
 4697      503200
 4698              	.LASF44:
 4699 054b 6469675F 		.ascii	"dig_P3\000"
 4699      503300
 4700              	.LASF45:
 4701 0552 6469675F 		.ascii	"dig_P4\000"
 4701      503400
 4702              	.LASF46:
 4703 0559 6469675F 		.ascii	"dig_P5\000"
 4703      503500
 4704              	.LASF47:
 4705 0560 6469675F 		.ascii	"dig_P6\000"
 4705      503600
 4706              	.LASF48:
 4707 0567 6469675F 		.ascii	"dig_P7\000"
ARM GAS  C:\Users\GYULAI~1\AppData\Local\Temp\cc8y56XJ.s 			page 96


 4707      503700
 4708              	.LASF49:
 4709 056e 6469675F 		.ascii	"dig_P8\000"
 4709      503800
 4710              	.LASF29:
 4711 0575 50524553 		.ascii	"PRESS_XLSB\000"
 4711      535F584C 
 4711      534200
 4712              	.LASF34:
 4713 0580 48554D5F 		.ascii	"HUM_LSB\000"
 4713      4C534200 
 4714              	.LASF11:
 4715 0588 6C6F6E67 		.ascii	"long unsigned int\000"
 4715      20756E73 
 4715      69676E65 
 4715      6420696E 
 4715      7400
 4716              	.LASF62:
 4717 059a 64657669 		.ascii	"deviceAddress\000"
 4717      63654164 
 4717      64726573 
 4717      7300
 4718              	.LASF39:
 4719 05a8 6469675F 		.ascii	"dig_T1\000"
 4719      543100
 4720              	.LASF40:
 4721 05af 6469675F 		.ascii	"dig_T2\000"
 4721      543200
 4722              	.LASF41:
 4723 05b6 6469675F 		.ascii	"dig_T3\000"
 4723      543300
 4724              	.LASF78:
 4725 05bd 74656D70 		.ascii	"temperature\000"
 4725      65726174 
 4725      75726500 
 4726              	.LASF90:
 4727 05c9 68756D69 		.ascii	"humidity\000"
 4727      64697479 
 4727      00
 4728              	.LASF88:
 4729 05d2 70726573 		.ascii	"pressure_max\000"
 4729      73757265 
 4729      5F6D6178 
 4729      00
 4730              	.LASF8:
 4731 05df 5F5F696E 		.ascii	"__int32_t\000"
 4731      7433325F 
 4731      7400
 4732              	.LASF71:
 4733 05e9 72657365 		.ascii	"resetWord\000"
 4733      74576F72 
 4733      6400
 4734              	.LASF23:
 4735 05f3 4D617374 		.ascii	"MasterWriteByte\000"
 4735      65725772 
 4735      69746542 
 4735      79746500 
ARM GAS  C:\Users\GYULAI~1\AppData\Local\Temp\cc8y56XJ.s 			page 97


 4736              	.LASF4:
 4737 0603 5F5F696E 		.ascii	"__int16_t\000"
 4737      7431365F 
 4737      7400
 4738              	.LASF117:
 4739 060d 7374616E 		.ascii	"standby\000"
 4739      64627900 
 4740              	.LASF113:
 4741 0615 424D4532 		.ascii	"BME280_GetMeasurementMode\000"
 4741      38305F47 
 4741      65744D65 
 4741      61737572 
 4741      656D656E 
 4742              	.LASF64:
 4743 062f 62797465 		.ascii	"byteCount\000"
 4743      436F756E 
 4743      7400
 4744              	.LASF119:
 4745 0639 424D4532 		.ascii	"BME280_SetFilterMode\000"
 4745      38305F53 
 4745      65744669 
 4745      6C746572 
 4745      4D6F6465 
 4746              	.LASF120:
 4747 064e 424D4532 		.ascii	"BME280_EnableSPI3Wire\000"
 4747      38305F45 
 4747      6E61626C 
 4747      65535049 
 4747      33576972 
 4748              	.LASF105:
 4749 0664 424D4532 		.ascii	"BME280_SetHumidityMode\000"
 4749      38305F53 
 4749      65744875 
 4749      6D696469 
 4749      74794D6F 
 4750              	.LASF101:
 4751 067b 70726573 		.ascii	"pressure_delay\000"
 4751      73757265 
 4751      5F64656C 
 4751      617900
 4752              	.LASF81:
 4753 068a 646F7562 		.ascii	"double\000"
 4753      6C6500
 4754              	.LASF111:
 4755 0691 424D4532 		.ascii	"BME280_IsMeasuring\000"
 4755      38305F49 
 4755      734D6561 
 4755      73757269 
 4755      6E6700
 4756              	.LASF87:
 4757 06a4 70726573 		.ascii	"pressure_min\000"
 4757      73757265 
 4757      5F6D696E 
 4757      00
 4758              	.LASF59:
 4759 06b1 424D4532 		.ascii	"BME280_I2CReader\000"
 4759      38305F49 
ARM GAS  C:\Users\GYULAI~1\AppData\Local\Temp\cc8y56XJ.s 			page 98


 4759      32435265 
 4759      61646572 
 4759      00
 4760              	.LASF80:
 4761 06c2 74656D70 		.ascii	"temperature_max\000"
 4761      65726174 
 4761      7572655F 
 4761      6D617800 
 4762              	.LASF22:
 4763 06d2 4D617374 		.ascii	"MasterSendStop\000"
 4763      65725365 
 4763      6E645374 
 4763      6F7000
 4764              	.LASF38:
 4765 06e1 434F4E46 		.ascii	"CONFIG\000"
 4765      494700
 4766              	.LASF37:
 4767 06e8 4354524C 		.ascii	"CTRL_MEAS\000"
 4767      5F4D4541 
 4767      5300
 4768              	.LASF118:
 4769 06f2 424D4532 		.ascii	"BME280_GetFilterMode\000"
 4769      38305F47 
 4769      65744669 
 4769      6C746572 
 4769      4D6F6465 
 4770              	.LASF83:
 4771 0707 424D4532 		.ascii	"BME280_GetTemperatureFahrenheit\000"
 4771      38305F47 
 4771      65745465 
 4771      6D706572 
 4771      61747572 
 4772              	.LASF124:
 4773 0727 424D4532 		.ascii	"BME280_RegistersLocal\000"
 4773      38305F52 
 4773      65676973 
 4773      74657273 
 4773      4C6F6361 
 4774              	.LASF67:
 4775 073d 63616C69 		.ascii	"calibDataLow\000"
 4775      62446174 
 4775      614C6F77 
 4775      00
 4776              	.LASF116:
 4777 074a 424D4532 		.ascii	"BME280_SetStandbyTime\000"
 4777      38305F53 
 4777      65745374 
 4777      616E6462 
 4777      7954696D 
 4778              		.ident	"GCC: (GNU Tools for ARM Embedded Processors) 5.4.1 20160609 (release) [ARM/embedded-5-bran
