ARM GAS  C:\Users\GYULAI~1\AppData\Local\Temp\ccC8s7xE.s 			page 1


   1              		.syntax unified
   2              		.cpu cortex-m3
   3              		.fpu softvfp
   4              		.eabi_attribute 20, 1
   5              		.eabi_attribute 21, 1
   6              		.eabi_attribute 23, 3
   7              		.eabi_attribute 24, 1
   8              		.eabi_attribute 25, 1
   9              		.eabi_attribute 26, 1
  10              		.eabi_attribute 30, 1
  11              		.eabi_attribute 34, 1
  12              		.eabi_attribute 18, 4
  13              		.thumb
  14              		.syntax unified
  15              		.file	"BME280_INTF.c"
  16              		.text
  17              	.Ltext0:
  18              		.cfi_sections	.debug_frame
  19              		.global	__aeabi_i2d
  20              		.section	.text.bme280_GetTemperatureCelsius,"ax",%progbits
  21              		.align	2
  22              		.global	bme280_GetTemperatureCelsius
  23              		.thumb
  24              		.thumb_func
  25              		.type	bme280_GetTemperatureCelsius, %function
  26              	bme280_GetTemperatureCelsius:
  27              	.LFB1:
  28              		.file 1 "rhea\\sensor\\interfaces\\BME280\\BME280_INTF.c"
   1:rhea\sensor\interfaces\BME280/BME280_INTF.c **** /*********************************************************************************
   2:rhea\sensor\interfaces\BME280/BME280_INTF.c ****  * Copyright (c) 2020 Peter Gyulai
   3:rhea\sensor\interfaces\BME280/BME280_INTF.c ****  *
   4:rhea\sensor\interfaces\BME280/BME280_INTF.c ****  * Permission is hereby granted, free of charge, to any person obtaining a copy
   5:rhea\sensor\interfaces\BME280/BME280_INTF.c ****  * of this software and associated documentation files (the "Software"), to deal
   6:rhea\sensor\interfaces\BME280/BME280_INTF.c ****  * in the Software without restriction, including without limitation the rights
   7:rhea\sensor\interfaces\BME280/BME280_INTF.c ****  * to use, copy, modify, merge, publish, distribute, sublicense, and/or sell
   8:rhea\sensor\interfaces\BME280/BME280_INTF.c ****  * copies of the Software, and to permit persons to whom the Software is
   9:rhea\sensor\interfaces\BME280/BME280_INTF.c ****  * furnished to do so, subject to the following conditions:
  10:rhea\sensor\interfaces\BME280/BME280_INTF.c ****  *
  11:rhea\sensor\interfaces\BME280/BME280_INTF.c ****  * The above copyright notice and this permission notice shall be included in all
  12:rhea\sensor\interfaces\BME280/BME280_INTF.c ****  * copies or substantial portions of the Software.
  13:rhea\sensor\interfaces\BME280/BME280_INTF.c ****  *
  14:rhea\sensor\interfaces\BME280/BME280_INTF.c ****  * THE SOFTWARE IS PROVIDED "AS IS", WITHOUT WARRANTY OF ANY KIND,
  15:rhea\sensor\interfaces\BME280/BME280_INTF.c ****  * EXPRESS OR IMPLIED, INCLUDING BUT NOT LIMITED TO THE WARRANTIES OF
  16:rhea\sensor\interfaces\BME280/BME280_INTF.c ****  * MERCHANTABILITY, FITNESS FOR A PARTICULAR PURPOSE AND NONINFRINGEMENT.
  17:rhea\sensor\interfaces\BME280/BME280_INTF.c ****  * IN NO EVENT SHALL THE AUTHORS OR COPYRIGHT HOLDERS BE LIABLE FOR ANY CLAIM,
  18:rhea\sensor\interfaces\BME280/BME280_INTF.c ****  * DAMAGES OR OTHER LIABILITY, WHETHER IN AN ACTION OF CONTRACT, TORT OR
  19:rhea\sensor\interfaces\BME280/BME280_INTF.c ****  * OTHERWISE, ARISING FROM, OUT OF OR IN CONNECTION WITH THE SOFTWARE OR THE USE
  20:rhea\sensor\interfaces\BME280/BME280_INTF.c ****  * OR OTHER DEALINGS IN THE SOFTWARE.
  21:rhea\sensor\interfaces\BME280/BME280_INTF.c **** **********************************************************************************/
  22:rhea\sensor\interfaces\BME280/BME280_INTF.c **** 
  23:rhea\sensor\interfaces\BME280/BME280_INTF.c **** /**
  24:rhea\sensor\interfaces\BME280/BME280_INTF.c ****  * @file    BME280_INTF.c
  25:rhea\sensor\interfaces\BME280/BME280_INTF.c ****  * @author  Peter Gyulai
  26:rhea\sensor\interfaces\BME280/BME280_INTF.c ****  * @version 1.0.0
  27:rhea\sensor\interfaces\BME280/BME280_INTF.c ****  * @date    2020.04.19
  28:rhea\sensor\interfaces\BME280/BME280_INTF.c ****  * @brief   BME280 Rhea interface implementation.
  29:rhea\sensor\interfaces\BME280/BME280_INTF.c ****  * @details
ARM GAS  C:\Users\GYULAI~1\AppData\Local\Temp\ccC8s7xE.s 			page 2


  30:rhea\sensor\interfaces\BME280/BME280_INTF.c ****  * This file contains the BME280 Rhea sensor interface implementation.
  31:rhea\sensor\interfaces\BME280/BME280_INTF.c ****  */
  32:rhea\sensor\interfaces\BME280/BME280_INTF.c **** 
  33:rhea\sensor\interfaces\BME280/BME280_INTF.c **** // Project includes
  34:rhea\sensor\interfaces\BME280/BME280_INTF.c **** #include "../../../i2c/i2c.h"
  35:rhea\sensor\interfaces\BME280/BME280_INTF.c **** #include "BME280_INTF.h"
  36:rhea\sensor\interfaces\BME280/BME280_INTF.c **** 
  37:rhea\sensor\interfaces\BME280/BME280_INTF.c **** 
  38:rhea\sensor\interfaces\BME280/BME280_INTF.c **** void bme280_addInterface(void) {
  39:rhea\sensor\interfaces\BME280/BME280_INTF.c ****     
  40:rhea\sensor\interfaces\BME280/BME280_INTF.c ****     // Setting up BME280 measurement callbacks
  41:rhea\sensor\interfaces\BME280/BME280_INTF.c ****     rhea_sensor_AddMeasurement("BME280", "temperature", 0, bme280_GetTemperatureCelsius);
  42:rhea\sensor\interfaces\BME280/BME280_INTF.c ****     rhea_sensor_AddMeasurement("BME280", "pressure",    0, bme280_GetPressure);
  43:rhea\sensor\interfaces\BME280/BME280_INTF.c ****     rhea_sensor_AddMeasurement("BME280", "humidity",    0, bme280_GetHumidity);
  44:rhea\sensor\interfaces\BME280/BME280_INTF.c ****     
  45:rhea\sensor\interfaces\BME280/BME280_INTF.c ****     // Setting up BME280 attribute getter & setter callbacks
  46:rhea\sensor\interfaces\BME280/BME280_INTF.c ****     rhea_sensor_AddAttribute("BME280", "filter",      bme280_GetFilterMode,      bme280_SetFilterMo
  47:rhea\sensor\interfaces\BME280/BME280_INTF.c ****     rhea_sensor_AddAttribute("BME280", "temperature", bme280_GetTemperatureMode, bme280_SetTemperat
  48:rhea\sensor\interfaces\BME280/BME280_INTF.c ****     rhea_sensor_AddAttribute("BME280", "pressure",    bme280_GetPressureMode,    bme280_SetPressure
  49:rhea\sensor\interfaces\BME280/BME280_INTF.c ****     rhea_sensor_AddAttribute("BME280", "humidity",    bme280_GetHumidityMode,    bme280_SetHumidity
  50:rhea\sensor\interfaces\BME280/BME280_INTF.c ****     rhea_sensor_AddAttribute("BME280", "mode",        bme280_GetMeasurementMode, bme280_SetMeasurem
  51:rhea\sensor\interfaces\BME280/BME280_INTF.c ****         
  52:rhea\sensor\interfaces\BME280/BME280_INTF.c ****     // Function pointers for I2C driver
  53:rhea\sensor\interfaces\BME280/BME280_INTF.c ****     BME280_I2CControllerStruct cntr = {
  54:rhea\sensor\interfaces\BME280/BME280_INTF.c ****         rhea_i2c_MasterSendStart,
  55:rhea\sensor\interfaces\BME280/BME280_INTF.c ****         rhea_i2c_MasterSendStop,
  56:rhea\sensor\interfaces\BME280/BME280_INTF.c ****         rhea_i2c_MasterWriteByte,
  57:rhea\sensor\interfaces\BME280/BME280_INTF.c ****         rhea_i2c_MasterReadByte
  58:rhea\sensor\interfaces\BME280/BME280_INTF.c ****     };
  59:rhea\sensor\interfaces\BME280/BME280_INTF.c ****     
  60:rhea\sensor\interfaces\BME280/BME280_INTF.c ****     // Initializing the BME280
  61:rhea\sensor\interfaces\BME280/BME280_INTF.c ****     BME280_SetI2CController(cntr);
  62:rhea\sensor\interfaces\BME280/BME280_INTF.c ****     BME280_Init();
  63:rhea\sensor\interfaces\BME280/BME280_INTF.c ****     
  64:rhea\sensor\interfaces\BME280/BME280_INTF.c ****     // Setting measurement parameters for the BME280
  65:rhea\sensor\interfaces\BME280/BME280_INTF.c ****     rhea_sensor_SetAttribute("BME280", "filter",      BME280_FILTER_OFF);
  66:rhea\sensor\interfaces\BME280/BME280_INTF.c ****     rhea_sensor_SetAttribute("BME280", "temperature", BME280_TEMPERATURE_OVERSAMPLING_1X);
  67:rhea\sensor\interfaces\BME280/BME280_INTF.c ****     rhea_sensor_SetAttribute("BME280", "pressure",    BME280_PRESSURE_OVERSAMPLING_1X);
  68:rhea\sensor\interfaces\BME280/BME280_INTF.c ****     rhea_sensor_SetAttribute("BME280", "humidity",    BME280_HUMIDITY_OVERSAMPLING_1X);
  69:rhea\sensor\interfaces\BME280/BME280_INTF.c ****     rhea_sensor_SetAttribute("BME280", "mode",        BME280_MODE_FORCED);
  70:rhea\sensor\interfaces\BME280/BME280_INTF.c **** }
  71:rhea\sensor\interfaces\BME280/BME280_INTF.c **** 
  72:rhea\sensor\interfaces\BME280/BME280_INTF.c **** RHEA_SENSOR_MEASUREMENT_TYPE bme280_GetTemperatureCelsius(void) {
  29              		.loc 1 72 0
  30              		.cfi_startproc
  31              		@ args = 0, pretend = 0, frame = 0
  32              		@ frame_needed = 0, uses_anonymous_args = 0
  33 0000 38B5     		push	{r3, r4, r5, lr}
  34              		.cfi_def_cfa_offset 16
  35              		.cfi_offset 3, -16
  36              		.cfi_offset 4, -12
  37              		.cfi_offset 5, -8
  38              		.cfi_offset 14, -4
  73:rhea\sensor\interfaces\BME280/BME280_INTF.c ****     
  74:rhea\sensor\interfaces\BME280/BME280_INTF.c ****     // Reading measurement
  75:rhea\sensor\interfaces\BME280/BME280_INTF.c ****     RHEA_SENSOR_MEASUREMENT_TYPE result = BME280_GetTemperatureCelsius(1);
  39              		.loc 1 75 0
ARM GAS  C:\Users\GYULAI~1\AppData\Local\Temp\ccC8s7xE.s 			page 3


  40 0002 0120     		movs	r0, #1
  41 0004 FFF7FEFF 		bl	BME280_GetTemperatureCelsius
  42              	.LVL0:
  43 0008 FFF7FEFF 		bl	__aeabi_i2d
  44              	.LVL1:
  45 000c 0446     		mov	r4, r0
  46 000e 0D46     		mov	r5, r1
  47              	.LVL2:
  76:rhea\sensor\interfaces\BME280/BME280_INTF.c ****     
  77:rhea\sensor\interfaces\BME280/BME280_INTF.c ****     // Starting next measurement
  78:rhea\sensor\interfaces\BME280/BME280_INTF.c ****     BME280_SetMeasurementMode(BME280_MODE_FORCED);
  48              		.loc 1 78 0
  49 0010 0120     		movs	r0, #1
  50 0012 FFF7FEFF 		bl	BME280_SetMeasurementMode
  51              	.LVL3:
  79:rhea\sensor\interfaces\BME280/BME280_INTF.c ****     
  80:rhea\sensor\interfaces\BME280/BME280_INTF.c ****     return result;
  81:rhea\sensor\interfaces\BME280/BME280_INTF.c **** }
  52              		.loc 1 81 0
  53 0016 2046     		mov	r0, r4
  54 0018 2946     		mov	r1, r5
  55 001a 38BD     		pop	{r3, r4, r5, pc}
  56              		.cfi_endproc
  57              	.LFE1:
  58              		.size	bme280_GetTemperatureCelsius, .-bme280_GetTemperatureCelsius
  59              		.section	.text.bme280_SetMeasurementMode,"ax",%progbits
  60              		.align	2
  61              		.global	bme280_SetMeasurementMode
  62              		.thumb
  63              		.thumb_func
  64              		.type	bme280_SetMeasurementMode, %function
  65              	bme280_SetMeasurementMode:
  66              	.LFB12:
  82:rhea\sensor\interfaces\BME280/BME280_INTF.c **** 
  83:rhea\sensor\interfaces\BME280/BME280_INTF.c **** RHEA_SENSOR_MEASUREMENT_TYPE bme280_GetPressure(void) {
  84:rhea\sensor\interfaces\BME280/BME280_INTF.c ****     
  85:rhea\sensor\interfaces\BME280/BME280_INTF.c ****     // Reading measurement
  86:rhea\sensor\interfaces\BME280/BME280_INTF.c ****     RHEA_SENSOR_MEASUREMENT_TYPE result = BME280_GetPressure(1);
  87:rhea\sensor\interfaces\BME280/BME280_INTF.c ****     
  88:rhea\sensor\interfaces\BME280/BME280_INTF.c ****     // Starting next measurement
  89:rhea\sensor\interfaces\BME280/BME280_INTF.c ****     BME280_SetMeasurementMode(BME280_MODE_FORCED);
  90:rhea\sensor\interfaces\BME280/BME280_INTF.c ****     
  91:rhea\sensor\interfaces\BME280/BME280_INTF.c ****     return result;
  92:rhea\sensor\interfaces\BME280/BME280_INTF.c **** }
  93:rhea\sensor\interfaces\BME280/BME280_INTF.c **** 
  94:rhea\sensor\interfaces\BME280/BME280_INTF.c **** RHEA_SENSOR_MEASUREMENT_TYPE bme280_GetHumidity(void) {
  95:rhea\sensor\interfaces\BME280/BME280_INTF.c ****     
  96:rhea\sensor\interfaces\BME280/BME280_INTF.c ****     // Reading measurement
  97:rhea\sensor\interfaces\BME280/BME280_INTF.c ****     RHEA_SENSOR_MEASUREMENT_TYPE result = BME280_GetHumidity(1);
  98:rhea\sensor\interfaces\BME280/BME280_INTF.c ****     
  99:rhea\sensor\interfaces\BME280/BME280_INTF.c ****     // Starting next measurement
 100:rhea\sensor\interfaces\BME280/BME280_INTF.c ****     BME280_SetMeasurementMode(BME280_MODE_FORCED);
 101:rhea\sensor\interfaces\BME280/BME280_INTF.c ****     
 102:rhea\sensor\interfaces\BME280/BME280_INTF.c ****     return result;
 103:rhea\sensor\interfaces\BME280/BME280_INTF.c **** }
 104:rhea\sensor\interfaces\BME280/BME280_INTF.c **** 
 105:rhea\sensor\interfaces\BME280/BME280_INTF.c **** void bme280_SetFilterMode(RHEA_SENSOR_ATTRIBUTE_TYPE value) {
ARM GAS  C:\Users\GYULAI~1\AppData\Local\Temp\ccC8s7xE.s 			page 4


 106:rhea\sensor\interfaces\BME280/BME280_INTF.c ****     BME280_SetFilterMode(value);
 107:rhea\sensor\interfaces\BME280/BME280_INTF.c **** }
 108:rhea\sensor\interfaces\BME280/BME280_INTF.c **** 
 109:rhea\sensor\interfaces\BME280/BME280_INTF.c **** RHEA_SENSOR_ATTRIBUTE_TYPE bme280_GetFilterMode(void) {
 110:rhea\sensor\interfaces\BME280/BME280_INTF.c ****     return BME280_GetFilterMode();
 111:rhea\sensor\interfaces\BME280/BME280_INTF.c **** }
 112:rhea\sensor\interfaces\BME280/BME280_INTF.c **** 
 113:rhea\sensor\interfaces\BME280/BME280_INTF.c **** void bme280_SetTemperatureMode(RHEA_SENSOR_ATTRIBUTE_TYPE value) {
 114:rhea\sensor\interfaces\BME280/BME280_INTF.c ****     BME280_SetTemperatureMode(value);
 115:rhea\sensor\interfaces\BME280/BME280_INTF.c **** }
 116:rhea\sensor\interfaces\BME280/BME280_INTF.c **** 
 117:rhea\sensor\interfaces\BME280/BME280_INTF.c **** RHEA_SENSOR_ATTRIBUTE_TYPE bme280_GetTemperatureMode(void) {
 118:rhea\sensor\interfaces\BME280/BME280_INTF.c ****     return BME280_GetTemperatureMode();
 119:rhea\sensor\interfaces\BME280/BME280_INTF.c **** }
 120:rhea\sensor\interfaces\BME280/BME280_INTF.c **** 
 121:rhea\sensor\interfaces\BME280/BME280_INTF.c **** void bme280_SetPressureMode(RHEA_SENSOR_ATTRIBUTE_TYPE value) {
 122:rhea\sensor\interfaces\BME280/BME280_INTF.c ****     BME280_SetPressureMode(value);
 123:rhea\sensor\interfaces\BME280/BME280_INTF.c **** }
 124:rhea\sensor\interfaces\BME280/BME280_INTF.c **** 
 125:rhea\sensor\interfaces\BME280/BME280_INTF.c **** RHEA_SENSOR_ATTRIBUTE_TYPE bme280_GetPressureMode(void) {
 126:rhea\sensor\interfaces\BME280/BME280_INTF.c ****     return BME280_GetPressureMode();
 127:rhea\sensor\interfaces\BME280/BME280_INTF.c **** }
 128:rhea\sensor\interfaces\BME280/BME280_INTF.c **** 
 129:rhea\sensor\interfaces\BME280/BME280_INTF.c **** void bme280_SetHumidityMode(RHEA_SENSOR_ATTRIBUTE_TYPE value) {
 130:rhea\sensor\interfaces\BME280/BME280_INTF.c ****     BME280_SetHumidityMode(value);
 131:rhea\sensor\interfaces\BME280/BME280_INTF.c **** }
 132:rhea\sensor\interfaces\BME280/BME280_INTF.c **** 
 133:rhea\sensor\interfaces\BME280/BME280_INTF.c **** RHEA_SENSOR_ATTRIBUTE_TYPE bme280_GetHumidityMode(void) {
 134:rhea\sensor\interfaces\BME280/BME280_INTF.c ****     return BME280_GetHumidityMode();
 135:rhea\sensor\interfaces\BME280/BME280_INTF.c **** }
 136:rhea\sensor\interfaces\BME280/BME280_INTF.c **** 
 137:rhea\sensor\interfaces\BME280/BME280_INTF.c **** void bme280_SetMeasurementMode(RHEA_SENSOR_ATTRIBUTE_TYPE value) {
  67              		.loc 1 137 0
  68              		.cfi_startproc
  69              		@ args = 0, pretend = 0, frame = 0
  70              		@ frame_needed = 0, uses_anonymous_args = 0
  71              	.LVL4:
  72 0000 08B5     		push	{r3, lr}
  73              		.cfi_def_cfa_offset 8
  74              		.cfi_offset 3, -8
  75              		.cfi_offset 14, -4
 138:rhea\sensor\interfaces\BME280/BME280_INTF.c ****     BME280_SetMeasurementMode(value);
  76              		.loc 1 138 0
  77 0002 C0B2     		uxtb	r0, r0
  78              	.LVL5:
  79 0004 FFF7FEFF 		bl	BME280_SetMeasurementMode
  80              	.LVL6:
  81 0008 08BD     		pop	{r3, pc}
  82              		.cfi_endproc
  83              	.LFE12:
  84              		.size	bme280_SetMeasurementMode, .-bme280_SetMeasurementMode
  85              		.global	__aeabi_ui2d
  86 000a 00BF     		.section	.text.bme280_GetPressure,"ax",%progbits
  87              		.align	2
  88              		.global	bme280_GetPressure
  89              		.thumb
  90              		.thumb_func
ARM GAS  C:\Users\GYULAI~1\AppData\Local\Temp\ccC8s7xE.s 			page 5


  91              		.type	bme280_GetPressure, %function
  92              	bme280_GetPressure:
  93              	.LFB2:
  83:rhea\sensor\interfaces\BME280/BME280_INTF.c ****     
  94              		.loc 1 83 0
  95              		.cfi_startproc
  96              		@ args = 0, pretend = 0, frame = 0
  97              		@ frame_needed = 0, uses_anonymous_args = 0
  98 0000 38B5     		push	{r3, r4, r5, lr}
  99              		.cfi_def_cfa_offset 16
 100              		.cfi_offset 3, -16
 101              		.cfi_offset 4, -12
 102              		.cfi_offset 5, -8
 103              		.cfi_offset 14, -4
  86:rhea\sensor\interfaces\BME280/BME280_INTF.c ****     
 104              		.loc 1 86 0
 105 0002 0120     		movs	r0, #1
 106 0004 FFF7FEFF 		bl	BME280_GetPressure
 107              	.LVL7:
 108 0008 FFF7FEFF 		bl	__aeabi_ui2d
 109              	.LVL8:
 110 000c 0446     		mov	r4, r0
 111 000e 0D46     		mov	r5, r1
 112              	.LVL9:
  89:rhea\sensor\interfaces\BME280/BME280_INTF.c ****     
 113              		.loc 1 89 0
 114 0010 0120     		movs	r0, #1
 115 0012 FFF7FEFF 		bl	BME280_SetMeasurementMode
 116              	.LVL10:
  92:rhea\sensor\interfaces\BME280/BME280_INTF.c **** 
 117              		.loc 1 92 0
 118 0016 2046     		mov	r0, r4
 119 0018 2946     		mov	r1, r5
 120 001a 38BD     		pop	{r3, r4, r5, pc}
 121              		.cfi_endproc
 122              	.LFE2:
 123              		.size	bme280_GetPressure, .-bme280_GetPressure
 124              		.section	.text.bme280_GetHumidity,"ax",%progbits
 125              		.align	2
 126              		.global	bme280_GetHumidity
 127              		.thumb
 128              		.thumb_func
 129              		.type	bme280_GetHumidity, %function
 130              	bme280_GetHumidity:
 131              	.LFB3:
  94:rhea\sensor\interfaces\BME280/BME280_INTF.c ****     
 132              		.loc 1 94 0
 133              		.cfi_startproc
 134              		@ args = 0, pretend = 0, frame = 0
 135              		@ frame_needed = 0, uses_anonymous_args = 0
 136 0000 38B5     		push	{r3, r4, r5, lr}
 137              		.cfi_def_cfa_offset 16
 138              		.cfi_offset 3, -16
 139              		.cfi_offset 4, -12
 140              		.cfi_offset 5, -8
 141              		.cfi_offset 14, -4
  97:rhea\sensor\interfaces\BME280/BME280_INTF.c ****     
ARM GAS  C:\Users\GYULAI~1\AppData\Local\Temp\ccC8s7xE.s 			page 6


 142              		.loc 1 97 0
 143 0002 0120     		movs	r0, #1
 144 0004 FFF7FEFF 		bl	BME280_GetHumidity
 145              	.LVL11:
 146 0008 FFF7FEFF 		bl	__aeabi_ui2d
 147              	.LVL12:
 148 000c 0446     		mov	r4, r0
 149 000e 0D46     		mov	r5, r1
 150              	.LVL13:
 100:rhea\sensor\interfaces\BME280/BME280_INTF.c ****     
 151              		.loc 1 100 0
 152 0010 0120     		movs	r0, #1
 153 0012 FFF7FEFF 		bl	BME280_SetMeasurementMode
 154              	.LVL14:
 103:rhea\sensor\interfaces\BME280/BME280_INTF.c **** 
 155              		.loc 1 103 0
 156 0016 2046     		mov	r0, r4
 157 0018 2946     		mov	r1, r5
 158 001a 38BD     		pop	{r3, r4, r5, pc}
 159              		.cfi_endproc
 160              	.LFE3:
 161              		.size	bme280_GetHumidity, .-bme280_GetHumidity
 162              		.section	.text.bme280_SetFilterMode,"ax",%progbits
 163              		.align	2
 164              		.global	bme280_SetFilterMode
 165              		.thumb
 166              		.thumb_func
 167              		.type	bme280_SetFilterMode, %function
 168              	bme280_SetFilterMode:
 169              	.LFB4:
 105:rhea\sensor\interfaces\BME280/BME280_INTF.c ****     BME280_SetFilterMode(value);
 170              		.loc 1 105 0
 171              		.cfi_startproc
 172              		@ args = 0, pretend = 0, frame = 0
 173              		@ frame_needed = 0, uses_anonymous_args = 0
 174              	.LVL15:
 175 0000 08B5     		push	{r3, lr}
 176              		.cfi_def_cfa_offset 8
 177              		.cfi_offset 3, -8
 178              		.cfi_offset 14, -4
 106:rhea\sensor\interfaces\BME280/BME280_INTF.c **** }
 179              		.loc 1 106 0
 180 0002 C0B2     		uxtb	r0, r0
 181              	.LVL16:
 182 0004 FFF7FEFF 		bl	BME280_SetFilterMode
 183              	.LVL17:
 184 0008 08BD     		pop	{r3, pc}
 185              		.cfi_endproc
 186              	.LFE4:
 187              		.size	bme280_SetFilterMode, .-bme280_SetFilterMode
 188              		.section	.text.bme280_GetFilterMode,"ax",%progbits
 189              		.align	2
 190              		.global	bme280_GetFilterMode
 191              		.thumb
 192              		.thumb_func
 193              		.type	bme280_GetFilterMode, %function
 194              	bme280_GetFilterMode:
ARM GAS  C:\Users\GYULAI~1\AppData\Local\Temp\ccC8s7xE.s 			page 7


 195              	.LFB5:
 109:rhea\sensor\interfaces\BME280/BME280_INTF.c ****     return BME280_GetFilterMode();
 196              		.loc 1 109 0
 197              		.cfi_startproc
 198              		@ args = 0, pretend = 0, frame = 0
 199              		@ frame_needed = 0, uses_anonymous_args = 0
 200 0000 08B5     		push	{r3, lr}
 201              		.cfi_def_cfa_offset 8
 202              		.cfi_offset 3, -8
 203              		.cfi_offset 14, -4
 110:rhea\sensor\interfaces\BME280/BME280_INTF.c **** }
 204              		.loc 1 110 0
 205 0002 FFF7FEFF 		bl	BME280_GetFilterMode
 206              	.LVL18:
 111:rhea\sensor\interfaces\BME280/BME280_INTF.c **** 
 207              		.loc 1 111 0
 208 0006 C0B2     		uxtb	r0, r0
 209 0008 0021     		movs	r1, #0
 210 000a 08BD     		pop	{r3, pc}
 211              		.cfi_endproc
 212              	.LFE5:
 213              		.size	bme280_GetFilterMode, .-bme280_GetFilterMode
 214              		.section	.text.bme280_SetTemperatureMode,"ax",%progbits
 215              		.align	2
 216              		.global	bme280_SetTemperatureMode
 217              		.thumb
 218              		.thumb_func
 219              		.type	bme280_SetTemperatureMode, %function
 220              	bme280_SetTemperatureMode:
 221              	.LFB6:
 113:rhea\sensor\interfaces\BME280/BME280_INTF.c ****     BME280_SetTemperatureMode(value);
 222              		.loc 1 113 0
 223              		.cfi_startproc
 224              		@ args = 0, pretend = 0, frame = 0
 225              		@ frame_needed = 0, uses_anonymous_args = 0
 226              	.LVL19:
 227 0000 08B5     		push	{r3, lr}
 228              		.cfi_def_cfa_offset 8
 229              		.cfi_offset 3, -8
 230              		.cfi_offset 14, -4
 114:rhea\sensor\interfaces\BME280/BME280_INTF.c **** }
 231              		.loc 1 114 0
 232 0002 C0B2     		uxtb	r0, r0
 233              	.LVL20:
 234 0004 FFF7FEFF 		bl	BME280_SetTemperatureMode
 235              	.LVL21:
 236 0008 08BD     		pop	{r3, pc}
 237              		.cfi_endproc
 238              	.LFE6:
 239              		.size	bme280_SetTemperatureMode, .-bme280_SetTemperatureMode
 240              		.section	.text.bme280_GetTemperatureMode,"ax",%progbits
 241              		.align	2
 242              		.global	bme280_GetTemperatureMode
 243              		.thumb
 244              		.thumb_func
 245              		.type	bme280_GetTemperatureMode, %function
 246              	bme280_GetTemperatureMode:
ARM GAS  C:\Users\GYULAI~1\AppData\Local\Temp\ccC8s7xE.s 			page 8


 247              	.LFB7:
 117:rhea\sensor\interfaces\BME280/BME280_INTF.c ****     return BME280_GetTemperatureMode();
 248              		.loc 1 117 0
 249              		.cfi_startproc
 250              		@ args = 0, pretend = 0, frame = 0
 251              		@ frame_needed = 0, uses_anonymous_args = 0
 252 0000 08B5     		push	{r3, lr}
 253              		.cfi_def_cfa_offset 8
 254              		.cfi_offset 3, -8
 255              		.cfi_offset 14, -4
 118:rhea\sensor\interfaces\BME280/BME280_INTF.c **** }
 256              		.loc 1 118 0
 257 0002 FFF7FEFF 		bl	BME280_GetTemperatureMode
 258              	.LVL22:
 119:rhea\sensor\interfaces\BME280/BME280_INTF.c **** 
 259              		.loc 1 119 0
 260 0006 C0B2     		uxtb	r0, r0
 261 0008 0021     		movs	r1, #0
 262 000a 08BD     		pop	{r3, pc}
 263              		.cfi_endproc
 264              	.LFE7:
 265              		.size	bme280_GetTemperatureMode, .-bme280_GetTemperatureMode
 266              		.section	.text.bme280_SetPressureMode,"ax",%progbits
 267              		.align	2
 268              		.global	bme280_SetPressureMode
 269              		.thumb
 270              		.thumb_func
 271              		.type	bme280_SetPressureMode, %function
 272              	bme280_SetPressureMode:
 273              	.LFB8:
 121:rhea\sensor\interfaces\BME280/BME280_INTF.c ****     BME280_SetPressureMode(value);
 274              		.loc 1 121 0
 275              		.cfi_startproc
 276              		@ args = 0, pretend = 0, frame = 0
 277              		@ frame_needed = 0, uses_anonymous_args = 0
 278              	.LVL23:
 279 0000 08B5     		push	{r3, lr}
 280              		.cfi_def_cfa_offset 8
 281              		.cfi_offset 3, -8
 282              		.cfi_offset 14, -4
 122:rhea\sensor\interfaces\BME280/BME280_INTF.c **** }
 283              		.loc 1 122 0
 284 0002 C0B2     		uxtb	r0, r0
 285              	.LVL24:
 286 0004 FFF7FEFF 		bl	BME280_SetPressureMode
 287              	.LVL25:
 288 0008 08BD     		pop	{r3, pc}
 289              		.cfi_endproc
 290              	.LFE8:
 291              		.size	bme280_SetPressureMode, .-bme280_SetPressureMode
 292              		.section	.text.bme280_GetPressureMode,"ax",%progbits
 293              		.align	2
 294              		.global	bme280_GetPressureMode
 295              		.thumb
 296              		.thumb_func
 297              		.type	bme280_GetPressureMode, %function
 298              	bme280_GetPressureMode:
ARM GAS  C:\Users\GYULAI~1\AppData\Local\Temp\ccC8s7xE.s 			page 9


 299              	.LFB9:
 125:rhea\sensor\interfaces\BME280/BME280_INTF.c ****     return BME280_GetPressureMode();
 300              		.loc 1 125 0
 301              		.cfi_startproc
 302              		@ args = 0, pretend = 0, frame = 0
 303              		@ frame_needed = 0, uses_anonymous_args = 0
 304 0000 08B5     		push	{r3, lr}
 305              		.cfi_def_cfa_offset 8
 306              		.cfi_offset 3, -8
 307              		.cfi_offset 14, -4
 126:rhea\sensor\interfaces\BME280/BME280_INTF.c **** }
 308              		.loc 1 126 0
 309 0002 FFF7FEFF 		bl	BME280_GetPressureMode
 310              	.LVL26:
 127:rhea\sensor\interfaces\BME280/BME280_INTF.c **** 
 311              		.loc 1 127 0
 312 0006 C0B2     		uxtb	r0, r0
 313 0008 0021     		movs	r1, #0
 314 000a 08BD     		pop	{r3, pc}
 315              		.cfi_endproc
 316              	.LFE9:
 317              		.size	bme280_GetPressureMode, .-bme280_GetPressureMode
 318              		.section	.text.bme280_SetHumidityMode,"ax",%progbits
 319              		.align	2
 320              		.global	bme280_SetHumidityMode
 321              		.thumb
 322              		.thumb_func
 323              		.type	bme280_SetHumidityMode, %function
 324              	bme280_SetHumidityMode:
 325              	.LFB10:
 129:rhea\sensor\interfaces\BME280/BME280_INTF.c ****     BME280_SetHumidityMode(value);
 326              		.loc 1 129 0
 327              		.cfi_startproc
 328              		@ args = 0, pretend = 0, frame = 0
 329              		@ frame_needed = 0, uses_anonymous_args = 0
 330              	.LVL27:
 331 0000 08B5     		push	{r3, lr}
 332              		.cfi_def_cfa_offset 8
 333              		.cfi_offset 3, -8
 334              		.cfi_offset 14, -4
 130:rhea\sensor\interfaces\BME280/BME280_INTF.c **** }
 335              		.loc 1 130 0
 336 0002 C0B2     		uxtb	r0, r0
 337              	.LVL28:
 338 0004 FFF7FEFF 		bl	BME280_SetHumidityMode
 339              	.LVL29:
 340 0008 08BD     		pop	{r3, pc}
 341              		.cfi_endproc
 342              	.LFE10:
 343              		.size	bme280_SetHumidityMode, .-bme280_SetHumidityMode
 344              		.section	.text.bme280_GetHumidityMode,"ax",%progbits
 345              		.align	2
 346              		.global	bme280_GetHumidityMode
 347              		.thumb
 348              		.thumb_func
 349              		.type	bme280_GetHumidityMode, %function
 350              	bme280_GetHumidityMode:
ARM GAS  C:\Users\GYULAI~1\AppData\Local\Temp\ccC8s7xE.s 			page 10


 351              	.LFB11:
 133:rhea\sensor\interfaces\BME280/BME280_INTF.c ****     return BME280_GetHumidityMode();
 352              		.loc 1 133 0
 353              		.cfi_startproc
 354              		@ args = 0, pretend = 0, frame = 0
 355              		@ frame_needed = 0, uses_anonymous_args = 0
 356 0000 08B5     		push	{r3, lr}
 357              		.cfi_def_cfa_offset 8
 358              		.cfi_offset 3, -8
 359              		.cfi_offset 14, -4
 134:rhea\sensor\interfaces\BME280/BME280_INTF.c **** }
 360              		.loc 1 134 0
 361 0002 FFF7FEFF 		bl	BME280_GetHumidityMode
 362              	.LVL30:
 135:rhea\sensor\interfaces\BME280/BME280_INTF.c **** 
 363              		.loc 1 135 0
 364 0006 C0B2     		uxtb	r0, r0
 365 0008 0021     		movs	r1, #0
 366 000a 08BD     		pop	{r3, pc}
 367              		.cfi_endproc
 368              	.LFE11:
 369              		.size	bme280_GetHumidityMode, .-bme280_GetHumidityMode
 370              		.section	.text.bme280_GetMeasurementMode,"ax",%progbits
 371              		.align	2
 372              		.global	bme280_GetMeasurementMode
 373              		.thumb
 374              		.thumb_func
 375              		.type	bme280_GetMeasurementMode, %function
 376              	bme280_GetMeasurementMode:
 377              	.LFB13:
 139:rhea\sensor\interfaces\BME280/BME280_INTF.c **** }
 140:rhea\sensor\interfaces\BME280/BME280_INTF.c **** 
 141:rhea\sensor\interfaces\BME280/BME280_INTF.c **** RHEA_SENSOR_ATTRIBUTE_TYPE bme280_GetMeasurementMode(void) {
 378              		.loc 1 141 0
 379              		.cfi_startproc
 380              		@ args = 0, pretend = 0, frame = 0
 381              		@ frame_needed = 0, uses_anonymous_args = 0
 382 0000 08B5     		push	{r3, lr}
 383              		.cfi_def_cfa_offset 8
 384              		.cfi_offset 3, -8
 385              		.cfi_offset 14, -4
 142:rhea\sensor\interfaces\BME280/BME280_INTF.c ****     return BME280_GetMeasurementMode();
 386              		.loc 1 142 0
 387 0002 FFF7FEFF 		bl	BME280_GetMeasurementMode
 388              	.LVL31:
 143:rhea\sensor\interfaces\BME280/BME280_INTF.c **** }...
 389              		.loc 1 143 0
 390 0006 C0B2     		uxtb	r0, r0
 391 0008 0021     		movs	r1, #0
 392 000a 08BD     		pop	{r3, pc}
 393              		.cfi_endproc
 394              	.LFE13:
 395              		.size	bme280_GetMeasurementMode, .-bme280_GetMeasurementMode
 396              		.section	.text.bme280_addInterface,"ax",%progbits
 397              		.align	2
 398              		.global	bme280_addInterface
 399              		.thumb
ARM GAS  C:\Users\GYULAI~1\AppData\Local\Temp\ccC8s7xE.s 			page 11


 400              		.thumb_func
 401              		.type	bme280_addInterface, %function
 402              	bme280_addInterface:
 403              	.LFB0:
  38:rhea\sensor\interfaces\BME280/BME280_INTF.c **** void bme280_addInterface(void) {
 404              		.loc 1 38 0
 405              		.cfi_startproc
 406              		@ args = 0, pretend = 0, frame = 16
 407              		@ frame_needed = 0, uses_anonymous_args = 0
 408 0000 2DE9F047 		push	{r4, r5, r6, r7, r8, r9, r10, lr}
 409              		.cfi_def_cfa_offset 32
 410              		.cfi_offset 4, -32
 411              		.cfi_offset 5, -28
 412              		.cfi_offset 6, -24
 413              		.cfi_offset 7, -20
 414              		.cfi_offset 8, -16
 415              		.cfi_offset 9, -12
 416              		.cfi_offset 10, -8
 417              		.cfi_offset 14, -4
 418 0004 86B0     		sub	sp, sp, #24
 419              		.cfi_def_cfa_offset 56
  41:rhea\sensor\interfaces\BME280/BME280_INTF.c ****     rhea_sensor_AddMeasurement("BME280", "temperature", 0, bme280_GetTemperatureCelsius);
 420              		.loc 1 41 0
 421 0006 DFF81481 		ldr	r8, .L29+68
 422 000a 334C     		ldr	r4, .L29
 423 000c 334B     		ldr	r3, .L29+4
 424 000e 0093     		str	r3, [sp]
 425 0010 0022     		movs	r2, #0
 426 0012 0023     		movs	r3, #0
 427 0014 4146     		mov	r1, r8
 428 0016 2046     		mov	r0, r4
 429 0018 FFF7FEFF 		bl	rhea_sensor_AddMeasurement
 430              	.LVL32:
  42:rhea\sensor\interfaces\BME280/BME280_INTF.c ****     rhea_sensor_AddMeasurement("BME280", "pressure",    0, bme280_GetPressure);
 431              		.loc 1 42 0
 432 001c 304F     		ldr	r7, .L29+8
 433 001e 314B     		ldr	r3, .L29+12
 434 0020 0093     		str	r3, [sp]
 435 0022 0022     		movs	r2, #0
 436 0024 0023     		movs	r3, #0
 437 0026 3946     		mov	r1, r7
 438 0028 2046     		mov	r0, r4
 439 002a FFF7FEFF 		bl	rhea_sensor_AddMeasurement
 440              	.LVL33:
  43:rhea\sensor\interfaces\BME280/BME280_INTF.c ****     rhea_sensor_AddMeasurement("BME280", "humidity",    0, bme280_GetHumidity);
 441              		.loc 1 43 0
 442 002e 2E4E     		ldr	r6, .L29+16
 443 0030 2E4B     		ldr	r3, .L29+20
 444 0032 0093     		str	r3, [sp]
 445 0034 0022     		movs	r2, #0
 446 0036 0023     		movs	r3, #0
 447 0038 3146     		mov	r1, r6
 448 003a 2046     		mov	r0, r4
 449 003c FFF7FEFF 		bl	rhea_sensor_AddMeasurement
 450              	.LVL34:
  46:rhea\sensor\interfaces\BME280/BME280_INTF.c ****     rhea_sensor_AddAttribute("BME280", "filter",      bme280_GetFilterMode,      bme280_SetFilterMo
 451              		.loc 1 46 0
ARM GAS  C:\Users\GYULAI~1\AppData\Local\Temp\ccC8s7xE.s 			page 12


 452 0040 DFF8DCA0 		ldr	r10, .L29+72
 453 0044 2A4B     		ldr	r3, .L29+24
 454 0046 2B4A     		ldr	r2, .L29+28
 455 0048 5146     		mov	r1, r10
 456 004a 2046     		mov	r0, r4
 457 004c FFF7FEFF 		bl	rhea_sensor_AddAttribute
 458              	.LVL35:
  47:rhea\sensor\interfaces\BME280/BME280_INTF.c ****     rhea_sensor_AddAttribute("BME280", "temperature", bme280_GetTemperatureMode, bme280_SetTemperat
 459              		.loc 1 47 0
 460 0050 294B     		ldr	r3, .L29+32
 461 0052 2A4A     		ldr	r2, .L29+36
 462 0054 4146     		mov	r1, r8
 463 0056 2046     		mov	r0, r4
 464 0058 FFF7FEFF 		bl	rhea_sensor_AddAttribute
 465              	.LVL36:
  48:rhea\sensor\interfaces\BME280/BME280_INTF.c ****     rhea_sensor_AddAttribute("BME280", "pressure",    bme280_GetPressureMode,    bme280_SetPressure
 466              		.loc 1 48 0
 467 005c 284B     		ldr	r3, .L29+40
 468 005e 294A     		ldr	r2, .L29+44
 469 0060 3946     		mov	r1, r7
 470 0062 2046     		mov	r0, r4
 471 0064 FFF7FEFF 		bl	rhea_sensor_AddAttribute
 472              	.LVL37:
  49:rhea\sensor\interfaces\BME280/BME280_INTF.c ****     rhea_sensor_AddAttribute("BME280", "humidity",    bme280_GetHumidityMode,    bme280_SetHumidity
 473              		.loc 1 49 0
 474 0068 274B     		ldr	r3, .L29+48
 475 006a 284A     		ldr	r2, .L29+52
 476 006c 3146     		mov	r1, r6
 477 006e 2046     		mov	r0, r4
 478 0070 FFF7FEFF 		bl	rhea_sensor_AddAttribute
 479              	.LVL38:
  50:rhea\sensor\interfaces\BME280/BME280_INTF.c ****     rhea_sensor_AddAttribute("BME280", "mode",        bme280_GetMeasurementMode, bme280_SetMeasurem
 480              		.loc 1 50 0
 481 0074 DFF8AC90 		ldr	r9, .L29+76
 482 0078 254B     		ldr	r3, .L29+56
 483 007a 264A     		ldr	r2, .L29+60
 484 007c 4946     		mov	r1, r9
 485 007e 2046     		mov	r0, r4
 486 0080 FFF7FEFF 		bl	rhea_sensor_AddAttribute
 487              	.LVL39:
  53:rhea\sensor\interfaces\BME280/BME280_INTF.c ****     BME280_I2CControllerStruct cntr = {
 488              		.loc 1 53 0
 489 0084 244B     		ldr	r3, .L29+64
 490 0086 02AD     		add	r5, sp, #8
 491 0088 0FCB     		ldmia	r3, {r0, r1, r2, r3}
 492 008a 85E80F00 		stmia	r5, {r0, r1, r2, r3}
  61:rhea\sensor\interfaces\BME280/BME280_INTF.c ****     BME280_SetI2CController(cntr);
 493              		.loc 1 61 0
 494 008e FFF7FEFF 		bl	BME280_SetI2CController
 495              	.LVL40:
  62:rhea\sensor\interfaces\BME280/BME280_INTF.c ****     BME280_Init();
 496              		.loc 1 62 0
 497 0092 FFF7FEFF 		bl	BME280_Init
 498              	.LVL41:
  65:rhea\sensor\interfaces\BME280/BME280_INTF.c ****     rhea_sensor_SetAttribute("BME280", "filter",      BME280_FILTER_OFF);
 499              		.loc 1 65 0
 500 0096 0022     		movs	r2, #0
ARM GAS  C:\Users\GYULAI~1\AppData\Local\Temp\ccC8s7xE.s 			page 13


 501 0098 0023     		movs	r3, #0
 502 009a 5146     		mov	r1, r10
 503 009c 2046     		mov	r0, r4
 504 009e FFF7FEFF 		bl	rhea_sensor_SetAttribute
 505              	.LVL42:
  66:rhea\sensor\interfaces\BME280/BME280_INTF.c ****     rhea_sensor_SetAttribute("BME280", "temperature", BME280_TEMPERATURE_OVERSAMPLING_1X);
 506              		.loc 1 66 0
 507 00a2 2022     		movs	r2, #32
 508 00a4 0023     		movs	r3, #0
 509 00a6 4146     		mov	r1, r8
 510 00a8 2046     		mov	r0, r4
 511 00aa FFF7FEFF 		bl	rhea_sensor_SetAttribute
 512              	.LVL43:
  67:rhea\sensor\interfaces\BME280/BME280_INTF.c ****     rhea_sensor_SetAttribute("BME280", "pressure",    BME280_PRESSURE_OVERSAMPLING_1X);
 513              		.loc 1 67 0
 514 00ae 0422     		movs	r2, #4
 515 00b0 0023     		movs	r3, #0
 516 00b2 3946     		mov	r1, r7
 517 00b4 2046     		mov	r0, r4
 518 00b6 FFF7FEFF 		bl	rhea_sensor_SetAttribute
 519              	.LVL44:
  68:rhea\sensor\interfaces\BME280/BME280_INTF.c ****     rhea_sensor_SetAttribute("BME280", "humidity",    BME280_HUMIDITY_OVERSAMPLING_1X);
 520              		.loc 1 68 0
 521 00ba 0122     		movs	r2, #1
 522 00bc 0023     		movs	r3, #0
 523 00be 3146     		mov	r1, r6
 524 00c0 2046     		mov	r0, r4
 525 00c2 FFF7FEFF 		bl	rhea_sensor_SetAttribute
 526              	.LVL45:
  69:rhea\sensor\interfaces\BME280/BME280_INTF.c ****     rhea_sensor_SetAttribute("BME280", "mode",        BME280_MODE_FORCED);
 527              		.loc 1 69 0
 528 00c6 0122     		movs	r2, #1
 529 00c8 0023     		movs	r3, #0
 530 00ca 4946     		mov	r1, r9
 531 00cc 2046     		mov	r0, r4
 532 00ce FFF7FEFF 		bl	rhea_sensor_SetAttribute
 533              	.LVL46:
  70:rhea\sensor\interfaces\BME280/BME280_INTF.c **** }
 534              		.loc 1 70 0
 535 00d2 06B0     		add	sp, sp, #24
 536              		.cfi_def_cfa_offset 32
 537              		@ sp needed
 538 00d4 BDE8F087 		pop	{r4, r5, r6, r7, r8, r9, r10, pc}
 539              	.L30:
 540              		.align	2
 541              	.L29:
 542 00d8 0C000000 		.word	.LC2
 543 00dc 00000000 		.word	bme280_GetTemperatureCelsius
 544 00e0 14000000 		.word	.LC3
 545 00e4 00000000 		.word	bme280_GetPressure
 546 00e8 20000000 		.word	.LC4
 547 00ec 00000000 		.word	bme280_GetHumidity
 548 00f0 00000000 		.word	bme280_SetFilterMode
 549 00f4 00000000 		.word	bme280_GetFilterMode
 550 00f8 00000000 		.word	bme280_SetTemperatureMode
 551 00fc 00000000 		.word	bme280_GetTemperatureMode
 552 0100 00000000 		.word	bme280_SetPressureMode
ARM GAS  C:\Users\GYULAI~1\AppData\Local\Temp\ccC8s7xE.s 			page 14


 553 0104 00000000 		.word	bme280_GetPressureMode
 554 0108 00000000 		.word	bme280_SetHumidityMode
 555 010c 00000000 		.word	bme280_GetHumidityMode
 556 0110 00000000 		.word	bme280_SetMeasurementMode
 557 0114 00000000 		.word	bme280_GetMeasurementMode
 558 0118 00000000 		.word	.LANCHOR0
 559 011c 00000000 		.word	.LC1
 560 0120 2C000000 		.word	.LC5
 561 0124 34000000 		.word	.LC6
 562              		.cfi_endproc
 563              	.LFE0:
 564              		.size	bme280_addInterface, .-bme280_addInterface
 565              		.section	.rodata
 566              		.align	2
 567              		.set	.LANCHOR0,. + 0
 568              	.LC0:
 569 0000 00000000 		.word	rhea_i2c_MasterSendStart
 570 0004 00000000 		.word	rhea_i2c_MasterSendStop
 571 0008 00000000 		.word	rhea_i2c_MasterWriteByte
 572 000c 00000000 		.word	rhea_i2c_MasterReadByte
 573              		.section	.rodata.str1.4,"aMS",%progbits,1
 574              		.align	2
 575              	.LC1:
 576 0000 74656D70 		.ascii	"temperature\000"
 576      65726174 
 576      75726500 
 577              	.LC2:
 578 000c 424D4532 		.ascii	"BME280\000"
 578      383000
 579 0013 00       		.space	1
 580              	.LC3:
 581 0014 70726573 		.ascii	"pressure\000"
 581      73757265 
 581      00
 582 001d 000000   		.space	3
 583              	.LC4:
 584 0020 68756D69 		.ascii	"humidity\000"
 584      64697479 
 584      00
 585 0029 000000   		.space	3
 586              	.LC5:
 587 002c 66696C74 		.ascii	"filter\000"
 587      657200
 588 0033 00       		.space	1
 589              	.LC6:
 590 0034 6D6F6465 		.ascii	"mode\000"
 590      00
 591              		.text
 592              	.Letext0:
 593              		.file 2 "e:\\cypress\\psoc creator\\4.2\\psoc creator\\import\\gnu\\arm\\5.4.1\\arm-none-eabi\\inc
 594              		.file 3 "e:\\cypress\\psoc creator\\4.2\\psoc creator\\import\\gnu\\arm\\5.4.1\\arm-none-eabi\\inc
 595              		.file 4 "rhea\\sensor\\interfaces\\BME280\\../../../drivers/BME280/BME280.h"
 596              		.file 5 "rhea\\sensor\\interfaces\\BME280\\../../sensor.h"