ARM GAS  C:\Users\GYULAI~1\AppData\Local\Temp\ccMMaTPn.s 			page 1


   1              		.syntax unified
   2              		.cpu cortex-m3
   3              		.fpu softvfp
   4              		.eabi_attribute 20, 1
   5              		.eabi_attribute 21, 1
   6              		.eabi_attribute 23, 3
   7              		.eabi_attribute 24, 1
   8              		.eabi_attribute 25, 1
   9              		.eabi_attribute 26, 1
  10              		.eabi_attribute 30, 6
  11              		.eabi_attribute 34, 1
  12              		.eabi_attribute 18, 4
  13              		.thumb
  14              		.syntax unified
  15              		.file	"command.c"
  16              		.text
  17              	.Ltext0:
  18              		.cfi_sections	.debug_frame
  19              		.comm	serialBuffer,258,4
  20              		.global	serial_data_ready
  21              		.bss
  22              		.type	serial_data_ready, %object
  23              		.size	serial_data_ready, 1
  24              	serial_data_ready:
  25 0000 00       		.space	1
  26              		.section	.rodata
  27              		.align	2
  28              	.LC0:
  29 0000 68656C70 		.ascii	"help\000"
  29      00
  30 0005 000000   		.align	2
  31              	.LC1:
  32 0008 76657273 		.ascii	"version\000"
  32      696F6E00 
  33              		.align	2
  34              		.type	rhea_long_options, %object
  35              		.size	rhea_long_options, 48
  36              	rhea_long_options:
  37 0010 00000000 		.word	.LC0
  38 0014 00000000 		.word	0
  39 0018 00000000 		.word	0
  40 001c 68000000 		.word	104
  41 0020 08000000 		.word	.LC1
  42 0024 00000000 		.word	0
  43 0028 00000000 		.word	0
  44 002c 76000000 		.word	118
  45 0030 00000000 		.word	0
  46 0034 00000000 		.word	0
  47 0038 00000000 		.word	0
  48 003c 00000000 		.word	0
  49              		.align	2
  50              	.LC2:
  51 0040 74656D70 		.ascii	"temperature\000"
  51      65726174 
  51      75726500 
  52              		.align	2
  53              	.LC3:
ARM GAS  C:\Users\GYULAI~1\AppData\Local\Temp\ccMMaTPn.s 			page 2


  54 004c 70726573 		.ascii	"pressure\000"
  54      73757265 
  54      00
  55 0055 000000   		.align	2
  56              	.LC4:
  57 0058 6D6F6973 		.ascii	"moisture\000"
  57      74757265 
  57      00
  58 0061 000000   		.align	2
  59              	.LC5:
  60 0064 68756D69 		.ascii	"humidity\000"
  60      64697479 
  60      00
  61 006d 000000   		.align	2
  62              	.LC6:
  63 0070 66696C74 		.ascii	"filter\000"
  63      657200
  64 0077 00       		.align	2
  65              	.LC7:
  66 0078 6F766572 		.ascii	"oversampling\000"
  66      73616D70 
  66      6C696E67 
  66      00
  67 0085 000000   		.align	2
  68              	.LC8:
  69 0088 70657269 		.ascii	"period\000"
  69      6F6400
  70 008f 00       		.align	2
  71              	.LC9:
  72 0090 64697370 		.ascii	"display\000"
  72      6C617900 
  73              		.align	2
  74              	.LC10:
  75 0098 7072696E 		.ascii	"print\000"
  75      7400
  76 009e 0000     		.align	2
  77              		.type	measure_long_options, %object
  78              		.size	measure_long_options, 176
  79              	measure_long_options:
  80 00a0 40000000 		.word	.LC2
  81 00a4 00000000 		.word	0
  82 00a8 00000000 		.word	0
  83 00ac 74000000 		.word	116
  84 00b0 4C000000 		.word	.LC3
  85 00b4 00000000 		.word	0
  86 00b8 00000000 		.word	0
  87 00bc 70000000 		.word	112
  88 00c0 58000000 		.word	.LC4
  89 00c4 00000000 		.word	0
  90 00c8 00000000 		.word	0
  91 00cc 6D000000 		.word	109
  92 00d0 64000000 		.word	.LC5
  93 00d4 00000000 		.word	0
  94 00d8 00000000 		.word	0
  95 00dc 6D000000 		.word	109
  96 00e0 70000000 		.word	.LC6
  97 00e4 01000000 		.word	1
ARM GAS  C:\Users\GYULAI~1\AppData\Local\Temp\ccMMaTPn.s 			page 3


  98 00e8 00000000 		.word	0
  99 00ec 66000000 		.word	102
 100 00f0 78000000 		.word	.LC7
 101 00f4 01000000 		.word	1
 102 00f8 00000000 		.word	0
 103 00fc 6F000000 		.word	111
 104 0100 88000000 		.word	.LC8
 105 0104 01000000 		.word	1
 106 0108 00000000 		.word	0
 107 010c 54000000 		.word	84
 108 0110 90000000 		.word	.LC9
 109 0114 00000000 		.word	0
 110 0118 00000000 		.word	0
 111 011c 64000000 		.word	100
 112 0120 98000000 		.word	.LC10
 113 0124 00000000 		.word	0
 114 0128 00000000 		.word	0
 115 012c 64000000 		.word	100
 116 0130 00000000 		.word	.LC0
 117 0134 00000000 		.word	0
 118 0138 00000000 		.word	0
 119 013c 68000000 		.word	104
 120 0140 00000000 		.word	0
 121 0144 00000000 		.word	0
 122 0148 00000000 		.word	0
 123 014c 00000000 		.word	0
 124              		.section	.text.ringbufferPutChar,"ax",%progbits
 125              		.align	2
 126              		.global	ringbufferPutChar
 127              		.thumb
 128              		.thumb_func
 129              		.type	ringbufferPutChar, %function
 130              	ringbufferPutChar:
 131              	.LFB64:
 132              		.file 1 "application\\command\\command.c"
   1:application\command/command.c **** /*********************************************************************************
   2:application\command/command.c ****  * Copyright (c) 2020 Peter Gyulai
   3:application\command/command.c ****  *
   4:application\command/command.c ****  * Permission is hereby granted, free of charge, to any person obtaining a copy
   5:application\command/command.c ****  * of this software and associated documentation files (the "Software"), to deal
   6:application\command/command.c ****  * in the Software without restriction, including without limitation the rights
   7:application\command/command.c ****  * to use, copy, modify, merge, publish, distribute, sublicense, and/or sell
   8:application\command/command.c ****  * copies of the Software, and to permit persons to whom the Software is
   9:application\command/command.c ****  * furnished to do so, subject to the following conditions:
  10:application\command/command.c ****  *
  11:application\command/command.c ****  * The above copyright notice and this permission notice shall be included in all
  12:application\command/command.c ****  * copies or substantial portions of the Software.
  13:application\command/command.c ****  *
  14:application\command/command.c ****  * THE SOFTWARE IS PROVIDED "AS IS", WITHOUT WARRANTY OF ANY KIND,
  15:application\command/command.c ****  * EXPRESS OR IMPLIED, INCLUDING BUT NOT LIMITED TO THE WARRANTIES OF
  16:application\command/command.c ****  * MERCHANTABILITY, FITNESS FOR A PARTICULAR PURPOSE AND NONINFRINGEMENT.
  17:application\command/command.c ****  * IN NO EVENT SHALL THE AUTHORS OR COPYRIGHT HOLDERS BE LIABLE FOR ANY CLAIM,
  18:application\command/command.c ****  * DAMAGES OR OTHER LIABILITY, WHETHER IN AN ACTION OF CONTRACT, TORT OR
  19:application\command/command.c ****  * OTHERWISE, ARISING FROM, OUT OF OR IN CONNECTION WITH THE SOFTWARE OR THE USE
  20:application\command/command.c ****  * OR OTHER DEALINGS IN THE SOFTWARE.
  21:application\command/command.c **** **********************************************************************************/
  22:application\command/command.c **** 
ARM GAS  C:\Users\GYULAI~1\AppData\Local\Temp\ccMMaTPn.s 			page 4


  23:application\command/command.c **** /**
  24:application\command/command.c ****  * @file    command.c
  25:application\command/command.c ****  * @author  Peter Gyulai
  26:application\command/command.c ****  * @version 1.0.0
  27:application\command/command.c ****  * @date    2020.04.21
  28:application\command/command.c ****  * @brief   Serial command line parser implementations.
  29:application\command/command.c ****  * @details
  30:application\command/command.c ****  * This file contains the implementation for the serial command line parser.
  31:application\command/command.c ****  */
  32:application\command/command.c **** 
  33:application\command/command.c **** // Standard includes
  34:application\command/command.c **** #include <string.h>
  35:application\command/command.c **** #include <stdio.h>
  36:application\command/command.c **** #include <stdlib.h>
  37:application\command/command.c **** #include <ctype.h>
  38:application\command/command.c **** #include "getopt.h"
  39:application\command/command.c **** 
  40:application\command/command.c **** // Project includes
  41:application\command/command.c **** #include "../../rhea/uart/uart.h"
  42:application\command/command.c **** #include "../../rhea/sensor/sensor.h"
  43:application\command/command.c **** #include "../../rhea/drivers/BME280/BME280.h"
  44:application\command/command.c **** #include "command.h"
  45:application\command/command.c **** 
  46:application\command/command.c **** 
  47:application\command/command.c **** // Serial read buffer
  48:application\command/command.c **** volatile ringbuffer_t serialBuffer;
  49:application\command/command.c **** 
  50:application\command/command.c **** // Data arrived indicator
  51:application\command/command.c **** volatile uint8_t serial_data_ready = 0;
  52:application\command/command.c **** 
  53:application\command/command.c **** static const struct option rhea_long_options[] = {
  54:application\command/command.c **** 	{"help", no_argument, NULL, 'h'},
  55:application\command/command.c **** 	{"version", no_argument, NULL, 'v'},
  56:application\command/command.c **** 	{0,0,0,0}
  57:application\command/command.c **** };
  58:application\command/command.c **** 
  59:application\command/command.c **** static const struct option measure_long_options[] = {
  60:application\command/command.c **** 	{"temperature", no_argument, NULL, 't'},
  61:application\command/command.c **** 	{"pressure", no_argument, NULL, 'p'},
  62:application\command/command.c **** 	{"moisture", no_argument, NULL, 'm'},
  63:application\command/command.c **** 	{"humidity", no_argument, NULL, 'm'},
  64:application\command/command.c **** 	{"filter", required_argument, NULL, 'f'},
  65:application\command/command.c **** 	{"oversampling", required_argument, NULL, 'o'},
  66:application\command/command.c **** 	{"period", required_argument, NULL, 'T'},
  67:application\command/command.c **** 	{"display", no_argument, NULL, 'd'},
  68:application\command/command.c **** 	{"print", no_argument, NULL, 'd'},
  69:application\command/command.c **** 	{"help", no_argument, NULL, 'h'},
  70:application\command/command.c **** 	{0,0,0,0}
  71:application\command/command.c **** };
  72:application\command/command.c **** 
  73:application\command/command.c **** /*
  74:application\command/command.c **** static const struct option alarm_long_options[] = {
  75:application\command/command.c **** 	{"set", required_argument, NULL, 's'},
  76:application\command/command.c **** 	{"setalarm", required_argument, NULL, 's'},
  77:application\command/command.c **** 	{"get", no_argument, NULL, 'g'},
  78:application\command/command.c **** 	{"getalarm", no_argument, NULL, 'g'},
  79:application\command/command.c **** 	{"delete", required_argument, NULL, 'd'},
ARM GAS  C:\Users\GYULAI~1\AppData\Local\Temp\ccMMaTPn.s 			page 5


  80:application\command/command.c **** 	{"reset", no_argument, NULL, 'r'},
  81:application\command/command.c **** 	{"persist", no_argument, NULL, 'p'},
  82:application\command/command.c **** 	{"persistent", no_argument, NULL, 'p'},
  83:application\command/command.c **** 	{"help", no_argument, NULL, 'h'},
  84:application\command/command.c **** 	{0,0,0,0}
  85:application\command/command.c **** };
  86:application\command/command.c **** 
  87:application\command/command.c **** static const struct option datetime_long_options[] = {
  88:application\command/command.c **** 	{"date", no_argument, NULL, 'd'},
  89:application\command/command.c **** 	{"time", no_argument, NULL, 't'},
  90:application\command/command.c **** 	{"set", required_argument, NULL, 's'},
  91:application\command/command.c **** 	{"get", no_argument, NULL, 'g'},
  92:application\command/command.c **** 	{"help", no_argument, NULL, 'h'},
  93:application\command/command.c **** 	{0,0,0,0}
  94:application\command/command.c **** };
  95:application\command/command.c **** 
  96:application\command/command.c **** static const struct option power_long_options[] = {
  97:application\command/command.c **** 	{"fail", no_argument, NULL, 'f'},
  98:application\command/command.c **** 	{"turnon", no_argument, NULL, 't' },
  99:application\command/command.c **** 	{"uptime", no_argument, NULL, 'u' },
 100:application\command/command.c **** 	{"help", no_argument, NULL, 'h' },
 101:application\command/command.c **** 	{0,0,0,0}
 102:application\command/command.c **** };
 103:application\command/command.c **** */
 104:application\command/command.c **** 
 105:application\command/command.c **** void command_rhea(int argc, const char **argv);
 106:application\command/command.c **** void command_measure(int argc, const char **argv);
 107:application\command/command.c **** 
 108:application\command/command.c **** /**
 109:application\command/command.c ****  * @brief Puts one byte into the specified buffer.
 110:application\command/command.c ****  * @param [in] Pointer to the ringbuffer.
 111:application\command/command.c ****  * @param [in] The byte to put into the buffer.
 112:application\command/command.c ****  */
 113:application\command/command.c **** void ringbufferPutChar(volatile ringbuffer_t *buffer, uint8_t c) {
 133              		.loc 1 113 0
 134              		.cfi_startproc
 135              		@ args = 0, pretend = 0, frame = 8
 136              		@ frame_needed = 1, uses_anonymous_args = 0
 137              		@ link register save eliminated.
 138 0000 80B4     		push	{r7}
 139              		.cfi_def_cfa_offset 4
 140              		.cfi_offset 7, -4
 141 0002 83B0     		sub	sp, sp, #12
 142              		.cfi_def_cfa_offset 16
 143 0004 00AF     		add	r7, sp, #0
 144              		.cfi_def_cfa_register 7
 145 0006 7860     		str	r0, [r7, #4]
 146 0008 0B46     		mov	r3, r1
 147 000a FB70     		strb	r3, [r7, #3]
 114:application\command/command.c ****     
 115:application\command/command.c ****     // Checking read and write pointers
 116:application\command/command.c ****     if((buffer->head + 1) != buffer->tail) {
 148              		.loc 1 116 0
 149 000c 7B68     		ldr	r3, [r7, #4]
 150 000e 93F80031 		ldrb	r3, [r3, #256]
 151 0012 DBB2     		uxtb	r3, r3
 152 0014 0133     		adds	r3, r3, #1
ARM GAS  C:\Users\GYULAI~1\AppData\Local\Temp\ccMMaTPn.s 			page 6


 153 0016 7A68     		ldr	r2, [r7, #4]
 154 0018 92F80121 		ldrb	r2, [r2, #257]
 155 001c D2B2     		uxtb	r2, r2
 156 001e 9342     		cmp	r3, r2
 157 0020 0CD0     		beq	.L3
 117:application\command/command.c ****         
 118:application\command/command.c ****         // Writing into the buffer
 119:application\command/command.c ****         buffer->data[buffer->head++] = c;
 158              		.loc 1 119 0
 159 0022 7B68     		ldr	r3, [r7, #4]
 160 0024 93F80031 		ldrb	r3, [r3, #256]
 161 0028 DBB2     		uxtb	r3, r3
 162 002a 5A1C     		adds	r2, r3, #1
 163 002c D1B2     		uxtb	r1, r2
 164 002e 7A68     		ldr	r2, [r7, #4]
 165 0030 82F80011 		strb	r1, [r2, #256]
 166 0034 1946     		mov	r1, r3
 167 0036 7B68     		ldr	r3, [r7, #4]
 168 0038 FA78     		ldrb	r2, [r7, #3]
 169 003a 5A54     		strb	r2, [r3, r1]
 170              	.L3:
 120:application\command/command.c ****     }
 121:application\command/command.c **** }
 171              		.loc 1 121 0
 172 003c 00BF     		nop
 173 003e 0C37     		adds	r7, r7, #12
 174              		.cfi_def_cfa_offset 4
 175 0040 BD46     		mov	sp, r7
 176              		.cfi_def_cfa_register 13
 177              		@ sp needed
 178 0042 80BC     		pop	{r7}
 179              		.cfi_restore 7
 180              		.cfi_def_cfa_offset 0
 181 0044 7047     		bx	lr
 182              		.cfi_endproc
 183              	.LFE64:
 184              		.size	ringbufferPutChar, .-ringbufferPutChar
 185 0046 00BF     		.section	.text.ringbufferGetChar,"ax",%progbits
 186              		.align	2
 187              		.global	ringbufferGetChar
 188              		.thumb
 189              		.thumb_func
 190              		.type	ringbufferGetChar, %function
 191              	ringbufferGetChar:
 192              	.LFB65:
 122:application\command/command.c **** 
 123:application\command/command.c **** /**
 124:application\command/command.c ****  * @brief   Gets one byte from the specified buffer.
 125:application\command/command.c ****  * @param   [in] Pointer to the ringbuffer.
 126:application\command/command.c ****  * @returns The byte from the ringbuffer.
 127:application\command/command.c ****  */
 128:application\command/command.c **** uint8_t ringbufferGetChar(volatile ringbuffer_t *buffer) {
 193              		.loc 1 128 0
 194              		.cfi_startproc
 195              		@ args = 0, pretend = 0, frame = 8
 196              		@ frame_needed = 1, uses_anonymous_args = 0
 197              		@ link register save eliminated.
ARM GAS  C:\Users\GYULAI~1\AppData\Local\Temp\ccMMaTPn.s 			page 7


 198 0000 80B4     		push	{r7}
 199              		.cfi_def_cfa_offset 4
 200              		.cfi_offset 7, -4
 201 0002 83B0     		sub	sp, sp, #12
 202              		.cfi_def_cfa_offset 16
 203 0004 00AF     		add	r7, sp, #0
 204              		.cfi_def_cfa_register 7
 205 0006 7860     		str	r0, [r7, #4]
 129:application\command/command.c ****     
 130:application\command/command.c ****     // Checking read and write pointers
 131:application\command/command.c ****     if(buffer->tail != buffer->head) {
 206              		.loc 1 131 0
 207 0008 7B68     		ldr	r3, [r7, #4]
 208 000a 93F80131 		ldrb	r3, [r3, #257]
 209 000e DAB2     		uxtb	r2, r3
 210 0010 7B68     		ldr	r3, [r7, #4]
 211 0012 93F80031 		ldrb	r3, [r3, #256]
 212 0016 DBB2     		uxtb	r3, r3
 213 0018 9A42     		cmp	r2, r3
 214 001a 0DD0     		beq	.L5
 132:application\command/command.c ****         
 133:application\command/command.c ****         // Returning data
 134:application\command/command.c ****         return buffer->data[buffer->tail++];
 215              		.loc 1 134 0
 216 001c 7B68     		ldr	r3, [r7, #4]
 217 001e 93F80131 		ldrb	r3, [r3, #257]
 218 0022 DBB2     		uxtb	r3, r3
 219 0024 5A1C     		adds	r2, r3, #1
 220 0026 D1B2     		uxtb	r1, r2
 221 0028 7A68     		ldr	r2, [r7, #4]
 222 002a 82F80111 		strb	r1, [r2, #257]
 223 002e 1A46     		mov	r2, r3
 224 0030 7B68     		ldr	r3, [r7, #4]
 225 0032 9B5C     		ldrb	r3, [r3, r2]
 226 0034 DBB2     		uxtb	r3, r3
 227 0036 00E0     		b	.L6
 228              	.L5:
 135:application\command/command.c ****     }
 136:application\command/command.c **** 
 137:application\command/command.c ****     // Return zero when no data is available
 138:application\command/command.c ****     return 0;
 229              		.loc 1 138 0
 230 0038 0023     		movs	r3, #0
 231              	.L6:
 139:application\command/command.c **** }
 232              		.loc 1 139 0
 233 003a 1846     		mov	r0, r3
 234 003c 0C37     		adds	r7, r7, #12
 235              		.cfi_def_cfa_offset 4
 236 003e BD46     		mov	sp, r7
 237              		.cfi_def_cfa_register 13
 238              		@ sp needed
 239 0040 80BC     		pop	{r7}
 240              		.cfi_restore 7
 241              		.cfi_def_cfa_offset 0
 242 0042 7047     		bx	lr
 243              		.cfi_endproc
ARM GAS  C:\Users\GYULAI~1\AppData\Local\Temp\ccMMaTPn.s 			page 8


 244              	.LFE65:
 245              		.size	ringbufferGetChar, .-ringbufferGetChar
 246              		.section	.rodata
 247              		.align	2
 248              	.LC11:
 249 0150 2000     		.ascii	" \000"
 250              		.section	.text.toArgumentArray,"ax",%progbits
 251              		.align	2
 252              		.global	toArgumentArray
 253              		.thumb
 254              		.thumb_func
 255              		.type	toArgumentArray, %function
 256              	toArgumentArray:
 257              	.LFB66:
 140:application\command/command.c **** 
 141:application\command/command.c **** void toArgumentArray(char* str, int* argc, const char ** argv) {
 258              		.loc 1 141 0
 259              		.cfi_startproc
 260              		@ args = 0, pretend = 0, frame = 24
 261              		@ frame_needed = 1, uses_anonymous_args = 0
 262 0000 80B5     		push	{r7, lr}
 263              		.cfi_def_cfa_offset 8
 264              		.cfi_offset 7, -8
 265              		.cfi_offset 14, -4
 266 0002 86B0     		sub	sp, sp, #24
 267              		.cfi_def_cfa_offset 32
 268 0004 00AF     		add	r7, sp, #0
 269              		.cfi_def_cfa_register 7
 270 0006 F860     		str	r0, [r7, #12]
 271 0008 B960     		str	r1, [r7, #8]
 272 000a 7A60     		str	r2, [r7, #4]
 142:application\command/command.c **** 	char* token = strtok(str, " ");
 273              		.loc 1 142 0
 274 000c 0F49     		ldr	r1, .L10
 275 000e F868     		ldr	r0, [r7, #12]
 276 0010 FFF7FEFF 		bl	strtok
 277 0014 7861     		str	r0, [r7, #20]
 143:application\command/command.c **** 	int i = 0;
 278              		.loc 1 143 0
 279 0016 0023     		movs	r3, #0
 280 0018 3B61     		str	r3, [r7, #16]
 144:application\command/command.c **** 	while (token != NULL) {
 281              		.loc 1 144 0
 282 001a 0CE0     		b	.L8
 283              	.L9:
 145:application\command/command.c **** 		argv[i++] = token;
 284              		.loc 1 145 0
 285 001c 3B69     		ldr	r3, [r7, #16]
 286 001e 5A1C     		adds	r2, r3, #1
 287 0020 3A61     		str	r2, [r7, #16]
 288 0022 9B00     		lsls	r3, r3, #2
 289 0024 7A68     		ldr	r2, [r7, #4]
 290 0026 1344     		add	r3, r3, r2
 291 0028 7A69     		ldr	r2, [r7, #20]
 292 002a 1A60     		str	r2, [r3]
 146:application\command/command.c **** 		token = strtok(NULL, " ");
 293              		.loc 1 146 0
ARM GAS  C:\Users\GYULAI~1\AppData\Local\Temp\ccMMaTPn.s 			page 9


 294 002c 0749     		ldr	r1, .L10
 295 002e 0020     		movs	r0, #0
 296 0030 FFF7FEFF 		bl	strtok
 297 0034 7861     		str	r0, [r7, #20]
 298              	.L8:
 144:application\command/command.c **** 	while (token != NULL) {
 299              		.loc 1 144 0
 300 0036 7B69     		ldr	r3, [r7, #20]
 301 0038 002B     		cmp	r3, #0
 302 003a EFD1     		bne	.L9
 147:application\command/command.c **** 	}
 148:application\command/command.c **** 
 149:application\command/command.c **** 	*argc = i;
 303              		.loc 1 149 0
 304 003c BB68     		ldr	r3, [r7, #8]
 305 003e 3A69     		ldr	r2, [r7, #16]
 306 0040 1A60     		str	r2, [r3]
 150:application\command/command.c **** }
 307              		.loc 1 150 0
 308 0042 00BF     		nop
 309 0044 1837     		adds	r7, r7, #24
 310              		.cfi_def_cfa_offset 8
 311 0046 BD46     		mov	sp, r7
 312              		.cfi_def_cfa_register 13
 313              		@ sp needed
 314 0048 80BD     		pop	{r7, pc}
 315              	.L11:
 316 004a 00BF     		.align	2
 317              	.L10:
 318 004c 50010000 		.word	.LC11
 319              		.cfi_endproc
 320              	.LFE66:
 321              		.size	toArgumentArray, .-toArgumentArray
 322              		.section	.text.InitializeSerialCommandLine,"ax",%progbits
 323              		.align	2
 324              		.global	InitializeSerialCommandLine
 325              		.thumb
 326              		.thumb_func
 327              		.type	InitializeSerialCommandLine, %function
 328              	InitializeSerialCommandLine:
 329              	.LFB67:
 151:application\command/command.c ****     
 152:application\command/command.c **** void InitializeSerialCommandLine(void) {
 330              		.loc 1 152 0
 331              		.cfi_startproc
 332              		@ args = 0, pretend = 0, frame = 0
 333              		@ frame_needed = 1, uses_anonymous_args = 0
 334 0000 80B5     		push	{r7, lr}
 335              		.cfi_def_cfa_offset 8
 336              		.cfi_offset 7, -8
 337              		.cfi_offset 14, -4
 338 0002 00AF     		add	r7, sp, #0
 339              		.cfi_def_cfa_register 7
 153:application\command/command.c ****         
 154:application\command/command.c ****     // Initializing and enabling the serial interrupt
 155:application\command/command.c ****     UART_RX_INTR_StartEx(SERIAL_DATA_ARRIVED);
 340              		.loc 1 155 0
ARM GAS  C:\Users\GYULAI~1\AppData\Local\Temp\ccMMaTPn.s 			page 10


 341 0004 0648     		ldr	r0, .L13
 342 0006 FFF7FEFF 		bl	UART_RX_INTR_StartEx
 156:application\command/command.c ****         
 157:application\command/command.c ****     // Initializing receive buffer
 158:application\command/command.c ****     serialBuffer = (ringbuffer_t) {
 343              		.loc 1 158 0
 344 000a 064B     		ldr	r3, .L13+4
 345 000c 1846     		mov	r0, r3
 346 000e 4FF48173 		mov	r3, #258
 347 0012 1A46     		mov	r2, r3
 348 0014 0021     		movs	r1, #0
 349 0016 FFF7FEFF 		bl	memset
 159:application\command/command.c ****         .head = 0,
 160:application\command/command.c ****         .tail = 0
 161:application\command/command.c ****     };
 162:application\command/command.c **** }
 350              		.loc 1 162 0
 351 001a 00BF     		nop
 352 001c 80BD     		pop	{r7, pc}
 353              	.L14:
 354 001e 00BF     		.align	2
 355              	.L13:
 356 0020 00000000 		.word	SERIAL_DATA_ARRIVED
 357 0024 00000000 		.word	serialBuffer
 358              		.cfi_endproc
 359              	.LFE67:
 360              		.size	InitializeSerialCommandLine, .-InitializeSerialCommandLine
 361              		.section	.rodata
 362 0152 0000     		.align	2
 363              	.LC12:
 364 0154 0A0D00   		.ascii	"\012\015\000"
 365 0157 00       		.align	2
 366              	.LC13:
 367 0158 72686561 		.ascii	"rhea\000"
 367      00
 368 015d 000000   		.align	2
 369              	.LC14:
 370 0160 6D656173 		.ascii	"measure\000"
 370      75726500 
 371              		.align	2
 372              	.LC15:
 373 0168 556E7265 		.ascii	"Unrecognized command: \"\000"
 373      636F676E 
 373      697A6564 
 373      20636F6D 
 373      6D616E64 
 374              		.align	2
 375              	.LC16:
 376 0180 2200     		.ascii	"\"\000"
 377 0182 0000     		.align	2
 378              	.LC17:
 379 0184 0A0D5268 		.ascii	"\012\015Rhea testboard: >> \000"
 379      65612074 
 379      65737462 
 379      6F617264 
 379      3A203E3E 
 380              		.section	.text.ProcessCommandLine,"ax",%progbits
ARM GAS  C:\Users\GYULAI~1\AppData\Local\Temp\ccMMaTPn.s 			page 11


 381              		.align	2
 382              		.global	ProcessCommandLine
 383              		.thumb
 384              		.thumb_func
 385              		.type	ProcessCommandLine, %function
 386              	ProcessCommandLine:
 387              	.LFB68:
 163:application\command/command.c **** 
 164:application\command/command.c **** void ProcessCommandLine(void) {
 388              		.loc 1 164 0
 389              		.cfi_startproc
 390              		@ args = 0, pretend = 0, frame = 304
 391              		@ frame_needed = 1, uses_anonymous_args = 0
 392 0000 90B5     		push	{r4, r7, lr}
 393              		.cfi_def_cfa_offset 12
 394              		.cfi_offset 4, -12
 395              		.cfi_offset 7, -8
 396              		.cfi_offset 14, -4
 397 0002 CDB0     		sub	sp, sp, #308
 398              		.cfi_def_cfa_offset 320
 399 0004 00AF     		add	r7, sp, #0
 400              		.cfi_def_cfa_register 7
 165:application\command/command.c **** 
 166:application\command/command.c ****     // Checking ready flag
 167:application\command/command.c ****     if(!serial_data_ready) return;
 401              		.loc 1 167 0
 402 0006 3D4B     		ldr	r3, .L26
 403 0008 1B78     		ldrb	r3, [r3]
 404 000a DBB2     		uxtb	r3, r3
 405 000c 002B     		cmp	r3, #0
 406 000e 6FD0     		beq	.L25
 168:application\command/command.c ****     
 169:application\command/command.c ****     // Clearing ready flag
 170:application\command/command.c ****     serial_data_ready = 0;
 407              		.loc 1 170 0
 408 0010 3A4B     		ldr	r3, .L26
 409 0012 0022     		movs	r2, #0
 410 0014 1A70     		strb	r2, [r3]
 171:application\command/command.c ****     
 172:application\command/command.c ****     // Helpers for reading command
 173:application\command/command.c ****     char command[256];
 174:application\command/command.c ****     uint8_t i = 0;
 411              		.loc 1 174 0
 412 0016 0023     		movs	r3, #0
 413 0018 87F82F31 		strb	r3, [r7, #303]
 175:application\command/command.c ****     
 176:application\command/command.c ****     // Reading command
 177:application\command/command.c ****     while((command[i++] = ringbufferGetChar(&serialBuffer))) {
 414              		.loc 1 177 0
 415 001c 17E0     		b	.L18
 416              	.L21:
 178:application\command/command.c ****         if(command[i - 1] == '\r' || command[i - 1] == '\n') {
 417              		.loc 1 178 0
 418 001e 97F82F31 		ldrb	r3, [r7, #303]	@ zero_extendqisi2
 419 0022 013B     		subs	r3, r3, #1
 420 0024 07F12C02 		add	r2, r7, #44
 421 0028 D35C     		ldrb	r3, [r2, r3]	@ zero_extendqisi2
ARM GAS  C:\Users\GYULAI~1\AppData\Local\Temp\ccMMaTPn.s 			page 12


 422 002a 0D2B     		cmp	r3, #13
 423 002c 07D0     		beq	.L19
 424              		.loc 1 178 0 is_stmt 0 discriminator 1
 425 002e 97F82F31 		ldrb	r3, [r7, #303]	@ zero_extendqisi2
 426 0032 013B     		subs	r3, r3, #1
 427 0034 07F12C02 		add	r2, r7, #44
 428 0038 D35C     		ldrb	r3, [r2, r3]	@ zero_extendqisi2
 429 003a 0A2B     		cmp	r3, #10
 430 003c 07D1     		bne	.L18
 431              	.L19:
 179:application\command/command.c ****             command[i - 1] = '\0';
 432              		.loc 1 179 0 is_stmt 1
 433 003e 97F82F31 		ldrb	r3, [r7, #303]	@ zero_extendqisi2
 434 0042 013B     		subs	r3, r3, #1
 435 0044 07F12C02 		add	r2, r7, #44
 436 0048 0021     		movs	r1, #0
 437 004a D154     		strb	r1, [r2, r3]
 180:application\command/command.c ****             break;
 438              		.loc 1 180 0
 439 004c 12E0     		b	.L20
 440              	.L18:
 177:application\command/command.c ****         if(command[i - 1] == '\r' || command[i - 1] == '\n') {
 441              		.loc 1 177 0
 442 004e 97F82F31 		ldrb	r3, [r7, #303]	@ zero_extendqisi2
 443 0052 5A1C     		adds	r2, r3, #1
 444 0054 87F82F21 		strb	r2, [r7, #303]
 445 0058 1C46     		mov	r4, r3
 446 005a 2948     		ldr	r0, .L26+4
 447 005c FFF7FEFF 		bl	ringbufferGetChar
 448 0060 0346     		mov	r3, r0
 449 0062 1A46     		mov	r2, r3
 450 0064 07F12C03 		add	r3, r7, #44
 451 0068 1A55     		strb	r2, [r3, r4]
 452 006a 07F12C03 		add	r3, r7, #44
 453 006e 1B5D     		ldrb	r3, [r3, r4]	@ zero_extendqisi2
 454 0070 002B     		cmp	r3, #0
 455 0072 D4D1     		bne	.L21
 456              	.L20:
 181:application\command/command.c ****         }
 182:application\command/command.c ****     }
 183:application\command/command.c **** 
 184:application\command/command.c ****     // Command parsing helpers    
 185:application\command/command.c ****     int argc;
 186:application\command/command.c **** 	const char* argv[10];
 187:application\command/command.c **** 
 188:application\command/command.c ****     // Creating argc-argv format
 189:application\command/command.c **** 	toArgumentArray((char*) command, &argc, argv);
 457              		.loc 1 189 0
 458 0074 3A46     		mov	r2, r7
 459 0076 07F12801 		add	r1, r7, #40
 460 007a 07F12C03 		add	r3, r7, #44
 461 007e 1846     		mov	r0, r3
 462 0080 FFF7FEFF 		bl	toArgumentArray
 190:application\command/command.c ****     
 191:application\command/command.c ****     // Jumping to next line
 192:application\command/command.c ****     rhea_uart_WriteString("\n\r");
 463              		.loc 1 192 0
ARM GAS  C:\Users\GYULAI~1\AppData\Local\Temp\ccMMaTPn.s 			page 13


 464 0084 1F48     		ldr	r0, .L26+8
 465 0086 FFF7FEFF 		bl	rhea_uart_WriteString
 193:application\command/command.c ****     
 194:application\command/command.c ****     // Interpreting command
 195:application\command/command.c ****     if(strcmp(command, "rhea") == 0) 
 466              		.loc 1 195 0
 467 008a 07F12C03 		add	r3, r7, #44
 468 008e 1E49     		ldr	r1, .L26+12
 469 0090 1846     		mov	r0, r3
 470 0092 FFF7FEFF 		bl	strcmp
 471 0096 0346     		mov	r3, r0
 472 0098 002B     		cmp	r3, #0
 473 009a 08D1     		bne	.L22
 196:application\command/command.c ****     {
 197:application\command/command.c ****         command_rhea(argc, argv);
 474              		.loc 1 197 0
 475 009c 07F12803 		add	r3, r7, #40
 476 00a0 1B68     		ldr	r3, [r3]
 477 00a2 3A46     		mov	r2, r7
 478 00a4 1146     		mov	r1, r2
 479 00a6 1846     		mov	r0, r3
 480 00a8 FFF7FEFF 		bl	command_rhea
 481 00ac 1CE0     		b	.L23
 482              	.L22:
 198:application\command/command.c ****     } 
 199:application\command/command.c ****     else if(strcmp(command, "measure") == 0) 
 483              		.loc 1 199 0
 484 00ae 07F12C03 		add	r3, r7, #44
 485 00b2 1649     		ldr	r1, .L26+16
 486 00b4 1846     		mov	r0, r3
 487 00b6 FFF7FEFF 		bl	strcmp
 488 00ba 0346     		mov	r3, r0
 489 00bc 002B     		cmp	r3, #0
 490 00be 08D1     		bne	.L24
 200:application\command/command.c ****     {
 201:application\command/command.c ****         command_measure(argc, argv);
 491              		.loc 1 201 0
 492 00c0 07F12803 		add	r3, r7, #40
 493 00c4 1B68     		ldr	r3, [r3]
 494 00c6 3A46     		mov	r2, r7
 495 00c8 1146     		mov	r1, r2
 496 00ca 1846     		mov	r0, r3
 497 00cc FFF7FEFF 		bl	command_measure
 498 00d0 0AE0     		b	.L23
 499              	.L24:
 202:application\command/command.c ****     } 
 203:application\command/command.c ****     else 
 204:application\command/command.c ****     {
 205:application\command/command.c ****         rhea_uart_WriteString("Unrecognized command: \"");
 500              		.loc 1 205 0
 501 00d2 0F48     		ldr	r0, .L26+20
 502 00d4 FFF7FEFF 		bl	rhea_uart_WriteString
 206:application\command/command.c ****         rhea_uart_WriteString(command);
 503              		.loc 1 206 0
 504 00d8 07F12C03 		add	r3, r7, #44
 505 00dc 1846     		mov	r0, r3
 506 00de FFF7FEFF 		bl	rhea_uart_WriteString
ARM GAS  C:\Users\GYULAI~1\AppData\Local\Temp\ccMMaTPn.s 			page 14


 207:application\command/command.c ****         rhea_uart_WriteString("\"");
 507              		.loc 1 207 0
 508 00e2 0C48     		ldr	r0, .L26+24
 509 00e4 FFF7FEFF 		bl	rhea_uart_WriteString
 510              	.L23:
 208:application\command/command.c ****     }
 209:application\command/command.c ****     
 210:application\command/command.c ****     rhea_uart_WriteString("\n\rRhea testboard: >> ");
 511              		.loc 1 210 0
 512 00e8 0B48     		ldr	r0, .L26+28
 513 00ea FFF7FEFF 		bl	rhea_uart_WriteString
 514 00ee 00E0     		b	.L15
 515              	.L25:
 167:application\command/command.c ****     
 516              		.loc 1 167 0
 517 00f0 00BF     		nop
 518              	.L15:
 211:application\command/command.c **** }
 519              		.loc 1 211 0
 520 00f2 07F59A77 		add	r7, r7, #308
 521              		.cfi_def_cfa_offset 12
 522 00f6 BD46     		mov	sp, r7
 523              		.cfi_def_cfa_register 13
 524              		@ sp needed
 525 00f8 90BD     		pop	{r4, r7, pc}
 526              	.L27:
 527 00fa 00BF     		.align	2
 528              	.L26:
 529 00fc 00000000 		.word	serial_data_ready
 530 0100 00000000 		.word	serialBuffer
 531 0104 54010000 		.word	.LC12
 532 0108 58010000 		.word	.LC13
 533 010c 60010000 		.word	.LC14
 534 0110 68010000 		.word	.LC15
 535 0114 80010000 		.word	.LC16
 536 0118 84010000 		.word	.LC17
 537              		.cfi_endproc
 538              	.LFE68:
 539              		.size	ProcessCommandLine, .-ProcessCommandLine
 540              		.section	.text.SERIAL_DATA_ARRIVED,"ax",%progbits
 541              		.align	2
 542              		.global	SERIAL_DATA_ARRIVED
 543              		.thumb
 544              		.thumb_func
 545              		.type	SERIAL_DATA_ARRIVED, %function
 546              	SERIAL_DATA_ARRIVED:
 547              	.LFB69:
 212:application\command/command.c **** 
 213:application\command/command.c **** CY_ISR(SERIAL_DATA_ARRIVED) {
 548              		.loc 1 213 0
 549              		.cfi_startproc
 550              		@ args = 0, pretend = 0, frame = 8
 551              		@ frame_needed = 1, uses_anonymous_args = 0
 552 0000 90B5     		push	{r4, r7, lr}
 553              		.cfi_def_cfa_offset 12
 554              		.cfi_offset 4, -12
 555              		.cfi_offset 7, -8
ARM GAS  C:\Users\GYULAI~1\AppData\Local\Temp\ccMMaTPn.s 			page 15


 556              		.cfi_offset 14, -4
 557 0002 83B0     		sub	sp, sp, #12
 558              		.cfi_def_cfa_offset 24
 559 0004 00AF     		add	r7, sp, #0
 560              		.cfi_def_cfa_register 7
 214:application\command/command.c **** 
 215:application\command/command.c ****     uint8_t status = CyEnterCriticalSection();
 561              		.loc 1 215 0
 562 0006 FFF7FEFF 		bl	CyEnterCriticalSection
 563 000a 0346     		mov	r3, r0
 564 000c FB71     		strb	r3, [r7, #7]
 216:application\command/command.c ****     
 217:application\command/command.c ****     while(rhea_uart_BytesAvailable()) {
 565              		.loc 1 217 0
 566 000e 12E0     		b	.L29
 567              	.L30:
 568              	.LBB2:
 218:application\command/command.c ****         
 219:application\command/command.c ****         // Reading character from UART
 220:application\command/command.c ****         unsigned char c = rhea_uart_ReadChar();
 569              		.loc 1 220 0
 570 0010 FFF7FEFF 		bl	rhea_uart_ReadChar
 571 0014 0346     		mov	r3, r0
 572 0016 BB71     		strb	r3, [r7, #6]
 221:application\command/command.c **** 
 222:application\command/command.c ****         // Storing character to serial buffer
 223:application\command/command.c ****         ringbufferPutChar(&serialBuffer, c);
 573              		.loc 1 223 0
 574 0018 BB79     		ldrb	r3, [r7, #6]	@ zero_extendqisi2
 575 001a 1946     		mov	r1, r3
 576 001c 0D48     		ldr	r0, .L31
 577 001e FFF7FEFF 		bl	ringbufferPutChar
 224:application\command/command.c ****         
 225:application\command/command.c ****         // Echoing character to terminal
 226:application\command/command.c ****         rhea_uart_WriteChar(c);
 578              		.loc 1 226 0
 579 0022 BB79     		ldrb	r3, [r7, #6]	@ zero_extendqisi2
 580 0024 1846     		mov	r0, r3
 581 0026 FFF7FEFF 		bl	rhea_uart_WriteChar
 227:application\command/command.c ****         
 228:application\command/command.c ****         // Setting ready flag
 229:application\command/command.c ****         if(c == '\r') serial_data_ready = 1;
 582              		.loc 1 229 0
 583 002a BB79     		ldrb	r3, [r7, #6]	@ zero_extendqisi2
 584 002c 0D2B     		cmp	r3, #13
 585 002e 02D1     		bne	.L29
 586              		.loc 1 229 0 is_stmt 0 discriminator 1
 587 0030 094B     		ldr	r3, .L31+4
 588 0032 0122     		movs	r2, #1
 589 0034 1A70     		strb	r2, [r3]
 590              	.L29:
 591              	.LBE2:
 217:application\command/command.c ****         
 592              		.loc 1 217 0 is_stmt 1
 593 0036 FFF7FEFF 		bl	rhea_uart_BytesAvailable
 594 003a 0346     		mov	r3, r0
 595 003c 0C46     		mov	r4, r1
ARM GAS  C:\Users\GYULAI~1\AppData\Local\Temp\ccMMaTPn.s 			page 16


 596 003e 2343     		orrs	r3, r3, r4
 597 0040 E6D1     		bne	.L30
 230:application\command/command.c ****     }
 231:application\command/command.c **** 
 232:application\command/command.c ****     CyExitCriticalSection(status);
 598              		.loc 1 232 0
 599 0042 FB79     		ldrb	r3, [r7, #7]	@ zero_extendqisi2
 600 0044 1846     		mov	r0, r3
 601 0046 FFF7FEFF 		bl	CyExitCriticalSection
 233:application\command/command.c **** }
 602              		.loc 1 233 0
 603 004a 00BF     		nop
 604 004c 0C37     		adds	r7, r7, #12
 605              		.cfi_def_cfa_offset 12
 606 004e BD46     		mov	sp, r7
 607              		.cfi_def_cfa_register 13
 608              		@ sp needed
 609 0050 90BD     		pop	{r4, r7, pc}
 610              	.L32:
 611 0052 00BF     		.align	2
 612              	.L31:
 613 0054 00000000 		.word	serialBuffer
 614 0058 00000000 		.word	serial_data_ready
 615              		.cfi_endproc
 616              	.LFE69:
 617              		.size	SERIAL_DATA_ARRIVED, .-SERIAL_DATA_ARRIVED
 618              		.section	.rodata
 619 019a 0000     		.align	2
 620              	.LC18:
 621 019c 20202020 		.ascii	"                                                   "
 621      20202020 
 621      20202020 
 621      20202020 
 621      20202020 
 622 01cf 20202020 		.ascii	"            \012\015Command: rhea                  "
 622      20202020 
 622      20202020 
 622      0A0D436F 
 622      6D6D616E 
 623 01fc 20202020 		.ascii	"                                \012\015-----------"
 623      20202020 
 623      20202020 
 623      20202020 
 623      20202020 
 624 0229 2D2D2020 		.ascii	"--                                                 "
 624      20202020 
 624      20202020 
 624      20202020 
 624      20202020 
 625 025c 200A0D20 		.ascii	" \012\015                                          "
 625      20202020 
 625      20202020 
 625      20202020 
 625      20202020 
 626 0289 20202020 		.ascii	"                     \012\015-h, --help            "
 626      20202020 
 626      20202020 
ARM GAS  C:\Users\GYULAI~1\AppData\Local\Temp\ccMMaTPn.s 			page 17


 626      20202020 
 626      20202020 
 627 02b6 20202020 		.ascii	"                                         \012\015Pr"
 627      20202020 
 627      20202020 
 627      20202020 
 627      20202020 
 628 02e3 696E7473 		.ascii	"ints the available commands.                       "
 628      20746865 
 628      20617661 
 628      696C6162 
 628      6C652063 
 629 0316 20202020 		.ascii	"          \012\015                                 "
 629      20202020 
 629      20200A0D 
 629      20202020 
 629      20202020 
 630 0343 20202020 		.ascii	"                              \012\015-v, --version"
 630      20202020 
 630      20202020 
 630      20202020 
 630      20202020 
 631 0370 20202020 		.ascii	"                                                  \012"
 631      20202020 
 631      20202020 
 631      20202020 
 631      20202020 
 632 03a3 0D507269 		.ascii	"\015Prints the Rhea firmware version.              "
 632      6E747320 
 632      74686520 
 632      52686561 
 632      20666972 
 633 03d3 20202020 		.ascii	"                \012\015                           "
 633      20202020 
 633      20202020 
 633      20202020 
 633      0A0D2020 
 634 0400 20202020 		.ascii	"                                    \012\015       "
 634      20202020 
 634      20202020 
 634      20202020 
 634      20202020 
 635 042d 20202020 		.ascii	"                                                   "
 635      20202020 
 635      20202020 
 635      20202020 
 635      20202020 
 636 0460 20202020 		.ascii	"     \012\015Command: measure                      "
 636      200A0D43 
 636      6F6D6D61 
 636      6E643A20 
 636      6D656173 
 637 048d 20202020 		.ascii	"                         \012\015----------------  "
 637      20202020 
 637      20202020 
 637      20202020 
 637      20202020 
ARM GAS  C:\Users\GYULAI~1\AppData\Local\Temp\ccMMaTPn.s 			page 18


 638 04ba 20202020 		.ascii	"                                             \012\015"
 638      20202020 
 638      20202020 
 638      20202020 
 638      20202020 
 639 04e9 20202020 		.ascii	"                                                   "
 639      20202020 
 639      20202020 
 639      20202020 
 639      20202020 
 640 051c 20202020 		.ascii	"            \012\015-t, --temperature              "
 640      20202020 
 640      20202020 
 640      0A0D2D74 
 640      2C202D2D 
 641 0549 20202020 		.ascii	"                                \012\015Selects the"
 641      20202020 
 641      20202020 
 641      20202020 
 641      20202020 
 642 0576 2074656D 		.ascii	" temperature measurement for subsequent commands.  "
 642      70657261 
 642      74757265 
 642      206D6561 
 642      73757265 
 643 05a9 200A0D20 		.ascii	" \012\015                                          "
 643      20202020 
 643      20202020 
 643      20202020 
 643      20202020 
 644 05d6 20202020 		.ascii	"                     \012\015-p, --pressure        "
 644      20202020 
 644      20202020 
 644      20202020 
 644      20202020 
 645 0603 20202020 		.ascii	"                                         \012\015Se"
 645      20202020 
 645      20202020 
 645      20202020 
 645      20202020 
 646 0630 6C656374 		.ascii	"lects the pressure measurement for subsequent comma"
 646      73207468 
 646      65207072 
 646      65737375 
 646      7265206D 
 647 0663 6E64732E 		.ascii	"nds.      \012\015                                 "
 647      20202020 
 647      20200A0D 
 647      20202020 
 647      20202020 
 648 0690 20202020 		.ascii	"                              \012\015-m, --moistur"
 648      20202020 
 648      20202020 
 648      20202020 
 648      20202020 
 649 06bd 652C202D 		.ascii	"e, --humidity                                     \012"
 649      2D68756D 
ARM GAS  C:\Users\GYULAI~1\AppData\Local\Temp\ccMMaTPn.s 			page 19


 649      69646974 
 649      79202020 
 649      20202020 
 650 06f0 0D53656C 		.ascii	"\015Selects the humidity measurement for subsequent"
 650      65637473 
 650      20746865 
 650      2068756D 
 650      69646974 
 651 0720 20636F6D 		.ascii	" commands.      \012\015                           "
 651      6D616E64 
 651      732E2020 
 651      20202020 
 651      0A0D2020 
 652 074d 20202020 		.ascii	"                                    \012\015-f, --f"
 652      20202020 
 652      20202020 
 652      20202020 
 652      20202020 
 653 077a 696C7465 		.ascii	"ilter (OFF|2|4|8|16)                               "
 653      7220284F 
 653      46467C32 
 653      7C347C38 
 653      7C313629 
 654 07ad 20202020 		.ascii	"     \012\015Sets the global IIR filter coefficient"
 654      200A0D53 
 654      65747320 
 654      74686520 
 654      676C6F62 
 655 07da 20616C6C 		.ascii	" all measurements.       \012\015                  "
 655      206D6561 
 655      73757265 
 655      6D656E74 
 655      732E2020 
 656 0807 20202020 		.ascii	"                                             \012\015"
 656      20202020 
 656      20202020 
 656      20202020 
 656      20202020 
 657 0836 2D6F2C20 		.ascii	"-o, --oversampling (1|2|4|8|16)                    "
 657      2D2D6F76 
 657      65727361 
 657      6D706C69 
 657      6E672028 
 658 0869 20202020 		.ascii	"            \012\015Sets the oversampling mode for "
 658      20202020 
 658      20202020 
 658      0A0D5365 
 658      74732074 
 659 0896 74686520 		.ascii	"the selected measurements.      \012\015           "
 659      73656C65 
 659      63746564 
 659      206D6561 
 659      73757265 
 660 08c3 20202020 		.ascii	"                                                   "
 660      20202020 
 660      20202020 
 660      20202020 
ARM GAS  C:\Users\GYULAI~1\AppData\Local\Temp\ccMMaTPn.s 			page 20


 660      20202020 
 661 08f6 200A0D2D 		.ascii	" \012\015-T, --period <millisecs>                  "
 661      542C202D 
 661      2D706572 
 661      696F6420 
 661      3C6D696C 
 662 0923 20202020 		.ascii	"                     \012\015Sets the measurement p"
 662      20202020 
 662      20202020 
 662      20202020 
 662      20202020 
 663 0950 6572696F 		.ascii	"eriod for the selected measu"
 663      6420666F 
 663      72207468 
 663      65207365 
 663      6C656374 
 664 096c 72656D65 		.ascii	"rements.     \012\015                              "
 664      6E74732E 
 664      20202020 
 664      200A0D20 
 664      20202020 
 665 0999 20202020 		.ascii	"                                 \012\015-d, --disp"
 665      20202020 
 665      20202020 
 665      20202020 
 665      20202020 
 666 09c6 6C61792C 		.ascii	"lay, --print                                       "
 666      202D2D70 
 666      72696E74 
 666      20202020 
 666      20202020 
 667 09f9 20200A0D 		.ascii	"  \012\015Prints the selected measurements.        "
 667      5072696E 
 667      74732074 
 667      68652073 
 667      656C6563 
 668 0a26 20202020 		.ascii	"                      \012\015                     "
 668      20202020 
 668      20202020 
 668      20202020 
 668      20202020 
 669 0a53 20202020 		.ascii	"                                          \012\015-"
 669      20202020 
 669      20202020 
 669      20202020 
 669      20202020 
 670 0a80 682C202D 		.ascii	"h, --help                                          "
 670      2D68656C 
 670      70202020 
 670      20202020 
 670      20202020 
 671 0ab3 20202020 		.ascii	"           \012\015Prints this help.               "
 671      20202020 
 671      2020200A 
 671      0D507269 
 671      6E747320 
 672 0ae0 20202020 		.ascii	"                               \012\015\000"
ARM GAS  C:\Users\GYULAI~1\AppData\Local\Temp\ccMMaTPn.s 			page 21


 672      20202020 
 672      20202020 
 672      20202020 
 672      20202020 
 673              		.section	.text.rhea_print_help,"ax",%progbits
 674              		.align	2
 675              		.global	rhea_print_help
 676              		.thumb
 677              		.thumb_func
 678              		.type	rhea_print_help, %function
 679              	rhea_print_help:
 680              	.LFB70:
 234:application\command/command.c **** 
 235:application\command/command.c **** ////////////////////////////////////////////////////////////
 236:application\command/command.c **** // 
 237:application\command/command.c **** // Command handlers
 238:application\command/command.c **** //
 239:application\command/command.c **** ////////////////////////////////////////////////////////////
 240:application\command/command.c **** 
 241:application\command/command.c **** 
 242:application\command/command.c **** void rhea_print_help() {
 681              		.loc 1 242 0
 682              		.cfi_startproc
 683              		@ args = 0, pretend = 0, frame = 0
 684              		@ frame_needed = 1, uses_anonymous_args = 0
 685 0000 80B5     		push	{r7, lr}
 686              		.cfi_def_cfa_offset 8
 687              		.cfi_offset 7, -8
 688              		.cfi_offset 14, -4
 689 0002 00AF     		add	r7, sp, #0
 690              		.cfi_def_cfa_register 7
 243:application\command/command.c ****     rhea_uart_WriteString(
 691              		.loc 1 243 0
 692 0004 0248     		ldr	r0, .L34
 693 0006 FFF7FEFF 		bl	rhea_uart_WriteString
 244:application\command/command.c ****         "                                                               \n\r"
 245:application\command/command.c ****         "Command: rhea                                                  \n\r"
 246:application\command/command.c ****         "-------------                                                  \n\r"
 247:application\command/command.c ****         "                                                               \n\r"
 248:application\command/command.c ****         "-h, --help                                                     \n\r"    
 249:application\command/command.c ****         "Prints the available commands.                                 \n\r"
 250:application\command/command.c ****         "                                                               \n\r"
 251:application\command/command.c ****         "-v, --version                                                  \n\r"
 252:application\command/command.c ****         "Prints the Rhea firmware version.                              \n\r"
 253:application\command/command.c ****         "                                                               \n\r"
 254:application\command/command.c ****         "                                                               \n\r"
 255:application\command/command.c ****         "Command: measure                                               \n\r"
 256:application\command/command.c ****         "----------------                                               \n\r"
 257:application\command/command.c ****         "                                                               \n\r"
 258:application\command/command.c ****         "-t, --temperature                                              \n\r"
 259:application\command/command.c ****         "Selects the temperature measurement for subsequent commands.   \n\r"
 260:application\command/command.c ****         "                                                               \n\r"
 261:application\command/command.c ****         "-p, --pressure                                                 \n\r"
 262:application\command/command.c ****         "Selects the pressure measurement for subsequent commands.      \n\r"
 263:application\command/command.c ****         "                                                               \n\r"  
 264:application\command/command.c ****         "-m, --moisture, --humidity                                     \n\r"
 265:application\command/command.c ****         "Selects the humidity measurement for subsequent commands.      \n\r"
ARM GAS  C:\Users\GYULAI~1\AppData\Local\Temp\ccMMaTPn.s 			page 22


 266:application\command/command.c ****         "                                                               \n\r"
 267:application\command/command.c ****         "-f, --filter (OFF|2|4|8|16)                                    \n\r"
 268:application\command/command.c ****         "Sets the global IIR filter coefficient all measurements.       \n\r"
 269:application\command/command.c ****         "                                                               \n\r"
 270:application\command/command.c ****         "-o, --oversampling (1|2|4|8|16)                                \n\r"
 271:application\command/command.c ****         "Sets the oversampling mode for the selected measurements.      \n\r"
 272:application\command/command.c ****         "                                                               \n\r"
 273:application\command/command.c ****         "-T, --period <millisecs>                                       \n\r"
 274:application\command/command.c ****         "Sets the measurement period for the selected measurements.     \n\r"
 275:application\command/command.c ****         "                                                               \n\r"
 276:application\command/command.c ****         "-d, --display, --print                                         \n\r"
 277:application\command/command.c ****         "Prints the selected measurements.                              \n\r"
 278:application\command/command.c ****         "                                                               \n\r"
 279:application\command/command.c ****         "-h, --help                                                     \n\r"
 280:application\command/command.c ****         "Prints this help.                                              \n\r"
 281:application\command/command.c ****     );
 282:application\command/command.c **** }
 694              		.loc 1 282 0
 695 000a 00BF     		nop
 696 000c 80BD     		pop	{r7, pc}
 697              	.L35:
 698 000e 00BF     		.align	2
 699              	.L34:
 700 0010 9C010000 		.word	.LC18
 701              		.cfi_endproc
 702              	.LFE70:
 703              		.size	rhea_print_help, .-rhea_print_help
 704              		.section	.rodata
 705 0b02 0000     		.align	2
 706              	.LC19:
 707 0b04 312E302E 		.ascii	"1.0.0\012\015\000"
 707      300A0D00 
 708              		.section	.text.rhea_print_version,"ax",%progbits
 709              		.align	2
 710              		.global	rhea_print_version
 711              		.thumb
 712              		.thumb_func
 713              		.type	rhea_print_version, %function
 714              	rhea_print_version:
 715              	.LFB71:
 283:application\command/command.c **** 
 284:application\command/command.c **** void rhea_print_version() {
 716              		.loc 1 284 0
 717              		.cfi_startproc
 718              		@ args = 0, pretend = 0, frame = 0
 719              		@ frame_needed = 1, uses_anonymous_args = 0
 720 0000 80B5     		push	{r7, lr}
 721              		.cfi_def_cfa_offset 8
 722              		.cfi_offset 7, -8
 723              		.cfi_offset 14, -4
 724 0002 00AF     		add	r7, sp, #0
 725              		.cfi_def_cfa_register 7
 285:application\command/command.c ****     rhea_uart_WriteString("1.0.0\n\r");
 726              		.loc 1 285 0
 727 0004 0248     		ldr	r0, .L37
 728 0006 FFF7FEFF 		bl	rhea_uart_WriteString
 286:application\command/command.c **** }
ARM GAS  C:\Users\GYULAI~1\AppData\Local\Temp\ccMMaTPn.s 			page 23


 729              		.loc 1 286 0
 730 000a 00BF     		nop
 731 000c 80BD     		pop	{r7, pc}
 732              	.L38:
 733 000e 00BF     		.align	2
 734              	.L37:
 735 0010 040B0000 		.word	.LC19
 736              		.cfi_endproc
 737              	.LFE71:
 738              		.size	rhea_print_version, .-rhea_print_version
 739              		.section	.rodata
 740              		.align	2
 741              	.LC20:
 742 0b0c 4572726F 		.ascii	"Error: Unrecognized argument.\012\015\000"
 742      723A2055 
 742      6E726563 
 742      6F676E69 
 742      7A656420 
 743              		.section	.text.rhea_print_error,"ax",%progbits
 744              		.align	2
 745              		.global	rhea_print_error
 746              		.thumb
 747              		.thumb_func
 748              		.type	rhea_print_error, %function
 749              	rhea_print_error:
 750              	.LFB72:
 287:application\command/command.c **** 
 288:application\command/command.c **** void rhea_print_error() {
 751              		.loc 1 288 0
 752              		.cfi_startproc
 753              		@ args = 0, pretend = 0, frame = 0
 754              		@ frame_needed = 1, uses_anonymous_args = 0
 755 0000 80B5     		push	{r7, lr}
 756              		.cfi_def_cfa_offset 8
 757              		.cfi_offset 7, -8
 758              		.cfi_offset 14, -4
 759 0002 00AF     		add	r7, sp, #0
 760              		.cfi_def_cfa_register 7
 289:application\command/command.c ****     rhea_uart_WriteString("Error: Unrecognized argument.\n\r");
 761              		.loc 1 289 0
 762 0004 0248     		ldr	r0, .L40
 763 0006 FFF7FEFF 		bl	rhea_uart_WriteString
 290:application\command/command.c **** }
 764              		.loc 1 290 0
 765 000a 00BF     		nop
 766 000c 80BD     		pop	{r7, pc}
 767              	.L41:
 768 000e 00BF     		.align	2
 769              	.L40:
 770 0010 0C0B0000 		.word	.LC20
 771              		.cfi_endproc
 772              	.LFE72:
 773              		.size	rhea_print_error, .-rhea_print_error
 774              		.section	.rodata
 775              		.align	2
 776              	.LC21:
 777 0b2c 687600   		.ascii	"hv\000"
ARM GAS  C:\Users\GYULAI~1\AppData\Local\Temp\ccMMaTPn.s 			page 24


 778              		.section	.text.command_rhea,"ax",%progbits
 779              		.align	2
 780              		.global	command_rhea
 781              		.thumb
 782              		.thumb_func
 783              		.type	command_rhea, %function
 784              	command_rhea:
 785              	.LFB73:
 291:application\command/command.c **** 
 292:application\command/command.c **** void command_rhea(int argc, const char **argv) {
 786              		.loc 1 292 0
 787              		.cfi_startproc
 788              		@ args = 0, pretend = 0, frame = 16
 789              		@ frame_needed = 1, uses_anonymous_args = 0
 790 0000 80B5     		push	{r7, lr}
 791              		.cfi_def_cfa_offset 8
 792              		.cfi_offset 7, -8
 793              		.cfi_offset 14, -4
 794 0002 86B0     		sub	sp, sp, #24
 795              		.cfi_def_cfa_offset 32
 796 0004 02AF     		add	r7, sp, #8
 797              		.cfi_def_cfa 7, 24
 798 0006 7860     		str	r0, [r7, #4]
 799 0008 3960     		str	r1, [r7]
 293:application\command/command.c **** 	int opt = 0;
 800              		.loc 1 293 0
 801 000a 0023     		movs	r3, #0
 802 000c FB60     		str	r3, [r7, #12]
 294:application\command/command.c **** 	int longopt = 0;
 803              		.loc 1 294 0
 804 000e 0023     		movs	r3, #0
 805 0010 BB60     		str	r3, [r7, #8]
 295:application\command/command.c **** 	optind = 1;
 806              		.loc 1 295 0
 807 0012 114B     		ldr	r3, .L47
 808 0014 0122     		movs	r2, #1
 809 0016 1A60     		str	r2, [r3]
 296:application\command/command.c ****   
 297:application\command/command.c **** 	while ((opt = getopt_long(argc, (char*const*)argv, "hv", rhea_long_options, &longopt)) != -1) {
 810              		.loc 1 297 0
 811 0018 0CE0     		b	.L43
 812              	.L46:
 298:application\command/command.c **** 		switch (optopt) {
 813              		.loc 1 298 0
 814 001a 104B     		ldr	r3, .L47+4
 815 001c 1B68     		ldr	r3, [r3]
 816 001e 682B     		cmp	r3, #104
 817 0020 02D0     		beq	.L44
 818 0022 762B     		cmp	r3, #118
 819 0024 03D0     		beq	.L45
 820 0026 05E0     		b	.L43
 821              	.L44:
 299:application\command/command.c **** 		case 'h': rhea_print_help();
 822              		.loc 1 299 0
 823 0028 FFF7FEFF 		bl	rhea_print_help
 300:application\command/command.c **** 		   break;
 824              		.loc 1 300 0
ARM GAS  C:\Users\GYULAI~1\AppData\Local\Temp\ccMMaTPn.s 			page 25


 825 002c 02E0     		b	.L43
 826              	.L45:
 301:application\command/command.c **** 		case 'v': rhea_print_version();
 827              		.loc 1 301 0
 828 002e FFF7FEFF 		bl	rhea_print_version
 302:application\command/command.c **** 		   break;
 829              		.loc 1 302 0
 830 0032 00BF     		nop
 831              	.L43:
 297:application\command/command.c **** 		switch (optopt) {
 832              		.loc 1 297 0
 833 0034 07F10803 		add	r3, r7, #8
 834 0038 0093     		str	r3, [sp]
 835 003a 094B     		ldr	r3, .L47+8
 836 003c 094A     		ldr	r2, .L47+12
 837 003e 3968     		ldr	r1, [r7]
 838 0040 7868     		ldr	r0, [r7, #4]
 839 0042 FFF7FEFF 		bl	getopt_long
 840 0046 F860     		str	r0, [r7, #12]
 841 0048 FB68     		ldr	r3, [r7, #12]
 842 004a B3F1FF3F 		cmp	r3, #-1
 843 004e E4D1     		bne	.L46
 303:application\command/command.c **** 		};
 304:application\command/command.c **** 	}
 305:application\command/command.c **** }
 844              		.loc 1 305 0
 845 0050 00BF     		nop
 846 0052 1037     		adds	r7, r7, #16
 847              		.cfi_def_cfa_offset 8
 848 0054 BD46     		mov	sp, r7
 849              		.cfi_def_cfa_register 13
 850              		@ sp needed
 851 0056 80BD     		pop	{r7, pc}
 852              	.L48:
 853              		.align	2
 854              	.L47:
 855 0058 00000000 		.word	optind
 856 005c 00000000 		.word	optopt
 857 0060 10000000 		.word	rhea_long_options
 858 0064 2C0B0000 		.word	.LC21
 859              		.cfi_endproc
 860              	.LFE73:
 861              		.size	command_rhea, .-command_rhea
 862              		.section	.rodata
 863 0b2f 00       		.align	2
 864              	.LC22:
 865 0b30 4F464600 		.ascii	"OFF\000"
 866              		.align	2
 867              	.LC23:
 868 0b34 424D4532 		.ascii	"BME280\000"
 868      383000
 869 0b3b 00       		.align	2
 870              	.LC24:
 871 0b3c 3100     		.ascii	"1\000"
 872 0b3e 0000     		.align	2
 873              	.LC25:
 874 0b40 3200     		.ascii	"2\000"
ARM GAS  C:\Users\GYULAI~1\AppData\Local\Temp\ccMMaTPn.s 			page 26


 875 0b42 0000     		.align	2
 876              	.LC26:
 877 0b44 3400     		.ascii	"4\000"
 878 0b46 0000     		.align	2
 879              	.LC27:
 880 0b48 3800     		.ascii	"8\000"
 881 0b4a 0000     		.align	2
 882              	.LC28:
 883 0b4c 313600   		.ascii	"16\000"
 884 0b4f 00       		.align	2
 885              	.LC29:
 886 0b50 57726F6E 		.ascii	"Wrong oversampling value.\012\015\000"
 886      67206F76 
 886      65727361 
 886      6D706C69 
 886      6E672076 
 887              		.align	2
 888              	.LC30:
 889 0b6c 74706D66 		.ascii	"tpmf:o:T:dh\000"
 889      3A6F3A54 
 889      3A646800 
 890              		.align	2
 891              	.LC31:
 892 0b78 54656D70 		.ascii	"Temperature: %.1lf Celsius\012\015\000"
 892      65726174 
 892      7572653A 
 892      20252E31 
 892      6C662043 
 893              		.global	__aeabi_d2uiz
 894 0b95 000000   		.align	2
 895              	.LC32:
 896 0b98 50726573 		.ascii	"Pressure: %u Pa\012\015\000"
 896      73757265 
 896      3A202575 
 896      2050610A 
 896      0D00
 897 0baa 0000     		.align	2
 898              	.LC33:
 899 0bac 48756D69 		.ascii	"Humidity: %u %%\012\015\000"
 899      64697479 
 899      3A202575 
 899      2025250A 
 899      0D00
 900              		.section	.text.command_measure,"ax",%progbits
 901              		.align	2
 902              		.global	command_measure
 903              		.thumb
 904              		.thumb_func
 905              		.type	command_measure, %function
 906              	command_measure:
 907              	.LFB74:
 306:application\command/command.c **** 
 307:application\command/command.c **** void command_measure(int argc, const char **argv) {
 908              		.loc 1 307 0
 909              		.cfi_startproc
 910              		@ args = 0, pretend = 0, frame = 112
 911              		@ frame_needed = 1, uses_anonymous_args = 0
ARM GAS  C:\Users\GYULAI~1\AppData\Local\Temp\ccMMaTPn.s 			page 27


 912 0000 90B5     		push	{r4, r7, lr}
 913              		.cfi_def_cfa_offset 12
 914              		.cfi_offset 4, -12
 915              		.cfi_offset 7, -8
 916              		.cfi_offset 14, -4
 917 0002 9FB0     		sub	sp, sp, #124
 918              		.cfi_def_cfa_offset 136
 919 0004 02AF     		add	r7, sp, #8
 920              		.cfi_def_cfa 7, 128
 921 0006 7860     		str	r0, [r7, #4]
 922 0008 3960     		str	r1, [r7]
 308:application\command/command.c **** 	
 309:application\command/command.c **** 	// Getopt parameters
 310:application\command/command.c **** 	int longopt = 0;
 923              		.loc 1 310 0
 924 000a 0023     		movs	r3, #0
 925 000c FB63     		str	r3, [r7, #60]
 311:application\command/command.c **** 	int opt = 0;
 926              		.loc 1 311 0
 927 000e 0023     		movs	r3, #0
 928 0010 FB65     		str	r3, [r7, #92]
 312:application\command/command.c **** 	optind = 1;
 929              		.loc 1 312 0
 930 0012 B14B     		ldr	r3, .L76
 931 0014 0122     		movs	r2, #1
 932 0016 1A60     		str	r2, [r3]
 313:application\command/command.c **** 
 314:application\command/command.c **** 	// Flags and option arguments
 315:application\command/command.c **** 	int t = 0, p = 0, m = 0, d = 0, ovrs = 0, T = 0;
 933              		.loc 1 315 0
 934 0018 0023     		movs	r3, #0
 935 001a FB66     		str	r3, [r7, #108]
 936 001c 0023     		movs	r3, #0
 937 001e BB66     		str	r3, [r7, #104]
 938 0020 0023     		movs	r3, #0
 939 0022 7B66     		str	r3, [r7, #100]
 940 0024 0023     		movs	r3, #0
 941 0026 3B66     		str	r3, [r7, #96]
 942 0028 0023     		movs	r3, #0
 943 002a BB65     		str	r3, [r7, #88]
 944 002c 0023     		movs	r3, #0
 945 002e 7B65     		str	r3, [r7, #84]
 316:application\command/command.c **** 
 317:application\command/command.c **** 	// Parsing options
 318:application\command/command.c **** 	while ((opt = getopt_long(argc, (char*const*)argv, "tpmf:o:T:dh", measure_long_options, &longopt))
 946              		.loc 1 318 0
 947 0030 DBE0     		b	.L50
 948              	.L71:
 319:application\command/command.c **** 		switch (opt) {
 949              		.loc 1 319 0
 950 0032 FB6D     		ldr	r3, [r7, #92]
 951 0034 543B     		subs	r3, r3, #84
 952 0036 202B     		cmp	r3, #32
 953 0038 00F2D480 		bhi	.L51
 954 003c 01A2     		adr	r2, .L53
 955 003e 52F823F0 		ldr	pc, [r2, r3, lsl #2]
 956 0042 00BF     		.p2align 2
ARM GAS  C:\Users\GYULAI~1\AppData\Local\Temp\ccMMaTPn.s 			page 28


 957              	.L53:
 958 0044 7F010000 		.word	.L52+1
 959 0048 E5010000 		.word	.L51+1
 960 004c E5010000 		.word	.L51+1
 961 0050 E5010000 		.word	.L51+1
 962 0054 E5010000 		.word	.L51+1
 963 0058 E5010000 		.word	.L51+1
 964 005c E5010000 		.word	.L51+1
 965 0060 E5010000 		.word	.L51+1
 966 0064 E5010000 		.word	.L51+1
 967 0068 E5010000 		.word	.L51+1
 968 006c E5010000 		.word	.L51+1
 969 0070 E5010000 		.word	.L51+1
 970 0074 E5010000 		.word	.L51+1
 971 0078 E5010000 		.word	.L51+1
 972 007c E5010000 		.word	.L51+1
 973 0080 E5010000 		.word	.L51+1
 974 0084 D9010000 		.word	.L54+1
 975 0088 E5010000 		.word	.L51+1
 976 008c DB000000 		.word	.L55+1
 977 0090 E5010000 		.word	.L51+1
 978 0094 DF010000 		.word	.L56+1
 979 0098 E5010000 		.word	.L51+1
 980 009c E5010000 		.word	.L51+1
 981 00a0 E5010000 		.word	.L51+1
 982 00a4 E5010000 		.word	.L51+1
 983 00a8 D5000000 		.word	.L57+1
 984 00ac E5010000 		.word	.L51+1
 985 00b0 FF000000 		.word	.L58+1
 986 00b4 CF000000 		.word	.L59+1
 987 00b8 E5010000 		.word	.L51+1
 988 00bc E5010000 		.word	.L51+1
 989 00c0 E5010000 		.word	.L51+1
 990 00c4 C9000000 		.word	.L60+1
 991              		.p2align 1
 992              	.L60:
 320:application\command/command.c **** 
 321:application\command/command.c **** 		// Setting measurement flags
 322:application\command/command.c **** 		case 't': t = 1; break;
 993              		.loc 1 322 0
 994 00c8 0123     		movs	r3, #1
 995 00ca FB66     		str	r3, [r7, #108]
 996 00cc 8DE0     		b	.L50
 997              	.L59:
 323:application\command/command.c **** 		case 'p': p = 1; break;
 998              		.loc 1 323 0
 999 00ce 0123     		movs	r3, #1
 1000 00d0 BB66     		str	r3, [r7, #104]
 1001 00d2 8AE0     		b	.L50
 1002              	.L57:
 324:application\command/command.c **** 		case 'm': m = 1; break;
 1003              		.loc 1 324 0
 1004 00d4 0123     		movs	r3, #1
 1005 00d6 7B66     		str	r3, [r7, #100]
 1006 00d8 87E0     		b	.L50
 1007              	.L55:
 325:application\command/command.c **** 
ARM GAS  C:\Users\GYULAI~1\AppData\Local\Temp\ccMMaTPn.s 			page 29


 326:application\command/command.c **** 		case 'f': 
 327:application\command/command.c **** 			// Setting IIR filter mode
 328:application\command/command.c **** 			if (strcmp(optarg, "OFF") == 0) rhea_sensor_SetAttribute("BME280", "filter", BME280_FILTER_OFF);
 1008              		.loc 1 328 0
 1009 00da 804B     		ldr	r3, .L76+4
 1010 00dc 1B68     		ldr	r3, [r3]
 1011 00de 8049     		ldr	r1, .L76+8
 1012 00e0 1846     		mov	r0, r3
 1013 00e2 FFF7FEFF 		bl	strcmp
 1014 00e6 0346     		mov	r3, r0
 1015 00e8 002B     		cmp	r3, #0
 1016 00ea 7ED1     		bne	.L50
 1017              		.loc 1 328 0 is_stmt 0 discriminator 1
 1018 00ec 4FF00002 		mov	r2, #0
 1019 00f0 4FF00003 		mov	r3, #0
 1020 00f4 7B49     		ldr	r1, .L76+12
 1021 00f6 7C48     		ldr	r0, .L76+16
 1022 00f8 FFF7FEFF 		bl	rhea_sensor_SetAttribute
 1023 00fc 75E0     		b	.L50
 1024              	.L58:
 329:application\command/command.c **** 			if (strcmp(optarg, "2") == 0)   rhea_sensor_SetAttribute("BME280", "filter", BME280_FILTER_COEFF
 330:application\command/command.c **** 			if (strcmp(optarg, "4") == 0)   rhea_sensor_SetAttribute("BME280", "filter", BME280_FILTER_COEFF
 331:application\command/command.c **** 			if (strcmp(optarg, "8") == 0)   rhea_sensor_SetAttribute("BME280", "filter", BME280_FILTER_COEFF
 332:application\command/command.c **** 			if (strcmp(optarg, "16") == 0)  rhea_sensor_SetAttribute("BME280", "filter", BME280_FILTER_COEFF
 333:application\command/command.c **** 			rhea_uart_WriteString("Wrong IIR filter value.\n\r"); break;
 334:application\command/command.c **** 
 335:application\command/command.c **** 		case 'o': 
 336:application\command/command.c **** 			// Getting oversampling rate
 337:application\command/command.c **** 			if      (strcmp(optarg, "1") == 0)  ovrs = 1;
 1025              		.loc 1 337 0 is_stmt 1
 1026 00fe 774B     		ldr	r3, .L76+4
 1027 0100 1B68     		ldr	r3, [r3]
 1028 0102 7A49     		ldr	r1, .L76+20
 1029 0104 1846     		mov	r0, r3
 1030 0106 FFF7FEFF 		bl	strcmp
 1031 010a 0346     		mov	r3, r0
 1032 010c 002B     		cmp	r3, #0
 1033 010e 02D1     		bne	.L62
 1034              		.loc 1 337 0 is_stmt 0 discriminator 1
 1035 0110 0123     		movs	r3, #1
 1036 0112 BB65     		str	r3, [r7, #88]
 1037 0114 69E0     		b	.L50
 1038              	.L62:
 338:application\command/command.c **** 			else if (strcmp(optarg, "2") == 0)  ovrs = 2;
 1039              		.loc 1 338 0 is_stmt 1
 1040 0116 714B     		ldr	r3, .L76+4
 1041 0118 1B68     		ldr	r3, [r3]
 1042 011a 7549     		ldr	r1, .L76+24
 1043 011c 1846     		mov	r0, r3
 1044 011e FFF7FEFF 		bl	strcmp
 1045 0122 0346     		mov	r3, r0
 1046 0124 002B     		cmp	r3, #0
 1047 0126 02D1     		bne	.L64
 1048              		.loc 1 338 0 is_stmt 0 discriminator 1
 1049 0128 0223     		movs	r3, #2
 1050 012a BB65     		str	r3, [r7, #88]
 1051 012c 5DE0     		b	.L50
ARM GAS  C:\Users\GYULAI~1\AppData\Local\Temp\ccMMaTPn.s 			page 30


 1052              	.L64:
 339:application\command/command.c **** 			else if (strcmp(optarg, "4") == 0)  ovrs = 4;
 1053              		.loc 1 339 0 is_stmt 1
 1054 012e 6B4B     		ldr	r3, .L76+4
 1055 0130 1B68     		ldr	r3, [r3]
 1056 0132 7049     		ldr	r1, .L76+28
 1057 0134 1846     		mov	r0, r3
 1058 0136 FFF7FEFF 		bl	strcmp
 1059 013a 0346     		mov	r3, r0
 1060 013c 002B     		cmp	r3, #0
 1061 013e 02D1     		bne	.L65
 1062              		.loc 1 339 0 is_stmt 0 discriminator 1
 1063 0140 0423     		movs	r3, #4
 1064 0142 BB65     		str	r3, [r7, #88]
 1065 0144 51E0     		b	.L50
 1066              	.L65:
 340:application\command/command.c **** 			else if (strcmp(optarg, "8") == 0)  ovrs = 8;
 1067              		.loc 1 340 0 is_stmt 1
 1068 0146 654B     		ldr	r3, .L76+4
 1069 0148 1B68     		ldr	r3, [r3]
 1070 014a 6B49     		ldr	r1, .L76+32
 1071 014c 1846     		mov	r0, r3
 1072 014e FFF7FEFF 		bl	strcmp
 1073 0152 0346     		mov	r3, r0
 1074 0154 002B     		cmp	r3, #0
 1075 0156 02D1     		bne	.L66
 1076              		.loc 1 340 0 is_stmt 0 discriminator 1
 1077 0158 0823     		movs	r3, #8
 1078 015a BB65     		str	r3, [r7, #88]
 1079 015c 45E0     		b	.L50
 1080              	.L66:
 341:application\command/command.c **** 			else if (strcmp(optarg, "16") == 0) ovrs = 16;
 1081              		.loc 1 341 0 is_stmt 1
 1082 015e 5F4B     		ldr	r3, .L76+4
 1083 0160 1B68     		ldr	r3, [r3]
 1084 0162 6649     		ldr	r1, .L76+36
 1085 0164 1846     		mov	r0, r3
 1086 0166 FFF7FEFF 		bl	strcmp
 1087 016a 0346     		mov	r3, r0
 1088 016c 002B     		cmp	r3, #0
 1089 016e 02D1     		bne	.L67
 1090              		.loc 1 341 0 is_stmt 0 discriminator 1
 1091 0170 1023     		movs	r3, #16
 1092 0172 BB65     		str	r3, [r7, #88]
 1093 0174 39E0     		b	.L50
 1094              	.L67:
 342:application\command/command.c **** 			else rhea_uart_WriteString("Wrong oversampling value.\n\r"); break;
 1095              		.loc 1 342 0 is_stmt 1
 1096 0176 6248     		ldr	r0, .L76+40
 1097 0178 FFF7FEFF 		bl	rhea_uart_WriteString
 1098 017c 35E0     		b	.L50
 1099              	.L52:
 343:application\command/command.c **** 
 344:application\command/command.c **** 			// Applying temperature oversampling
 345:application\command/command.c **** 			if (t) {
 346:application\command/command.c **** 				switch (ovrs) {
 347:application\command/command.c **** 				case 1:  rhea_sensor_SetAttribute("BME280", "temperatureOVRS", BME280_TEMPERATURE_OVERSAMPLING_
ARM GAS  C:\Users\GYULAI~1\AppData\Local\Temp\ccMMaTPn.s 			page 31


 348:application\command/command.c **** 				case 2:  rhea_sensor_SetAttribute("BME280", "temperatureOVRS", BME280_TEMPERATURE_OVERSAMPLING_
 349:application\command/command.c **** 				case 4:  rhea_sensor_SetAttribute("BME280", "temperatureOVRS", BME280_TEMPERATURE_OVERSAMPLING_
 350:application\command/command.c **** 				case 8:  rhea_sensor_SetAttribute("BME280", "temperatureOVRS", BME280_TEMPERATURE_OVERSAMPLING_
 351:application\command/command.c **** 				case 16: rhea_sensor_SetAttribute("BME280", "temperatureOVRS", BME280_TEMPERATURE_OVERSAMPLING_
 352:application\command/command.c **** 				};
 353:application\command/command.c **** 			}
 354:application\command/command.c **** 
 355:application\command/command.c **** 			// Applying pressure oversampling
 356:application\command/command.c **** 			if (p) {
 357:application\command/command.c **** 				switch (ovrs) {
 358:application\command/command.c **** 				case 1:  rhea_sensor_SetAttribute("BME280", "pressureOVRS", BME280_PRESSURE_OVERSAMPLING_1X); b
 359:application\command/command.c **** 				case 2:  rhea_sensor_SetAttribute("BME280", "pressureOVRS", BME280_PRESSURE_OVERSAMPLING_2X); b
 360:application\command/command.c **** 				case 4:  rhea_sensor_SetAttribute("BME280", "pressureOVRS", BME280_PRESSURE_OVERSAMPLING_4X); b
 361:application\command/command.c **** 				case 8:  rhea_sensor_SetAttribute("BME280", "pressureOVRS", BME280_PRESSURE_OVERSAMPLING_8X); b
 362:application\command/command.c **** 				case 16: rhea_sensor_SetAttribute("BME280", "pressureOVRS", BME280_PRESSURE_OVERSAMPLING_16X); 
 363:application\command/command.c **** 				};
 364:application\command/command.c **** 			}
 365:application\command/command.c **** 
 366:application\command/command.c **** 			// Applying humidity oversampling
 367:application\command/command.c **** 			if (m) {
 368:application\command/command.c **** 				switch (ovrs) {
 369:application\command/command.c **** 				case 1:  rhea_sensor_SetAttribute("BME280", "humidityOVRS", BME280_HUMIDITY_OVERSAMPLING_1X); b
 370:application\command/command.c **** 				case 2:  rhea_sensor_SetAttribute("BME280", "humidityOVRS", BME280_HUMIDITY_OVERSAMPLING_2X); b
 371:application\command/command.c **** 				case 4:  rhea_sensor_SetAttribute("BME280", "humidityOVRS", BME280_HUMIDITY_OVERSAMPLING_4X); b
 372:application\command/command.c **** 				case 8:  rhea_sensor_SetAttribute("BME280", "humidityOVRS", BME280_HUMIDITY_OVERSAMPLING_8X); b
 373:application\command/command.c **** 				case 16: rhea_sensor_SetAttribute("BME280", "humidityOVRS", BME280_HUMIDITY_OVERSAMPLING_16X); 
 374:application\command/command.c **** 				};
 375:application\command/command.c **** 			} break;
 376:application\command/command.c **** 
 377:application\command/command.c **** 		case 'T': 
 378:application\command/command.c **** 			T = strtol(optarg, NULL, 10);
 1100              		.loc 1 378 0
 1101 017e 574B     		ldr	r3, .L76+4
 1102 0180 1B68     		ldr	r3, [r3]
 1103 0182 0A22     		movs	r2, #10
 1104 0184 0021     		movs	r1, #0
 1105 0186 1846     		mov	r0, r3
 1106 0188 FFF7FEFF 		bl	strtol
 1107 018c 7865     		str	r0, [r7, #84]
 379:application\command/command.c **** 			if (t) rhea_sensor_SetMeasurementPeriod("BME280", "temperature", T);
 1108              		.loc 1 379 0
 1109 018e FB6E     		ldr	r3, [r7, #108]
 1110 0190 002B     		cmp	r3, #0
 1111 0192 08D0     		beq	.L68
 1112              		.loc 1 379 0 is_stmt 0 discriminator 1
 1113 0194 7B6D     		ldr	r3, [r7, #84]
 1114 0196 4FEAE374 		asr	r4, r3, #31
 1115 019a 1A46     		mov	r2, r3
 1116 019c 2346     		mov	r3, r4
 1117 019e 5949     		ldr	r1, .L76+44
 1118 01a0 5148     		ldr	r0, .L76+16
 1119 01a2 FFF7FEFF 		bl	rhea_sensor_SetMeasurementPeriod
 1120              	.L68:
 380:application\command/command.c **** 			if (p) rhea_sensor_SetMeasurementPeriod("BME280", "pressure", T);
 1121              		.loc 1 380 0 is_stmt 1
 1122 01a6 BB6E     		ldr	r3, [r7, #104]
 1123 01a8 002B     		cmp	r3, #0
ARM GAS  C:\Users\GYULAI~1\AppData\Local\Temp\ccMMaTPn.s 			page 32


 1124 01aa 08D0     		beq	.L69
 1125              		.loc 1 380 0 is_stmt 0 discriminator 1
 1126 01ac 7B6D     		ldr	r3, [r7, #84]
 1127 01ae 4FEAE374 		asr	r4, r3, #31
 1128 01b2 1A46     		mov	r2, r3
 1129 01b4 2346     		mov	r3, r4
 1130 01b6 5449     		ldr	r1, .L76+48
 1131 01b8 4B48     		ldr	r0, .L76+16
 1132 01ba FFF7FEFF 		bl	rhea_sensor_SetMeasurementPeriod
 1133              	.L69:
 381:application\command/command.c **** 			if (m) rhea_sensor_SetMeasurementPeriod("BME280", "humidity", T);
 1134              		.loc 1 381 0 is_stmt 1
 1135 01be 7B6E     		ldr	r3, [r7, #100]
 1136 01c0 002B     		cmp	r3, #0
 1137 01c2 12D0     		beq	.L50
 1138              		.loc 1 381 0 is_stmt 0 discriminator 1
 1139 01c4 7B6D     		ldr	r3, [r7, #84]
 1140 01c6 4FEAE374 		asr	r4, r3, #31
 1141 01ca 1A46     		mov	r2, r3
 1142 01cc 2346     		mov	r3, r4
 1143 01ce 4F49     		ldr	r1, .L76+52
 1144 01d0 4548     		ldr	r0, .L76+16
 1145 01d2 FFF7FEFF 		bl	rhea_sensor_SetMeasurementPeriod
 382:application\command/command.c **** 			break;
 1146              		.loc 1 382 0 is_stmt 1 discriminator 1
 1147 01d6 08E0     		b	.L50
 1148              	.L54:
 383:application\command/command.c **** 
 384:application\command/command.c **** 		case 'd': d = 1;
 1149              		.loc 1 384 0
 1150 01d8 0123     		movs	r3, #1
 1151 01da 3B66     		str	r3, [r7, #96]
 385:application\command/command.c **** 			break;
 1152              		.loc 1 385 0
 1153 01dc 05E0     		b	.L50
 1154              	.L56:
 386:application\command/command.c **** 
 387:application\command/command.c **** 		case 'h': 
 388:application\command/command.c **** 			rhea_print_help();
 1155              		.loc 1 388 0
 1156 01de FFF7FEFF 		bl	rhea_print_help
 389:application\command/command.c **** 			break;
 1157              		.loc 1 389 0
 1158 01e2 02E0     		b	.L50
 1159              	.L51:
 390:application\command/command.c **** 
 391:application\command/command.c **** 		default: 
 392:application\command/command.c **** 			rhea_print_error();
 1160              		.loc 1 392 0
 1161 01e4 FFF7FEFF 		bl	rhea_print_error
 393:application\command/command.c **** 			break;
 1162              		.loc 1 393 0
 1163 01e8 00BF     		nop
 1164              	.L50:
 318:application\command/command.c **** 		switch (opt) {
 1165              		.loc 1 318 0
 1166 01ea 07F13C03 		add	r3, r7, #60
ARM GAS  C:\Users\GYULAI~1\AppData\Local\Temp\ccMMaTPn.s 			page 33


 1167 01ee 0093     		str	r3, [sp]
 1168 01f0 474B     		ldr	r3, .L76+56
 1169 01f2 484A     		ldr	r2, .L76+60
 1170 01f4 3968     		ldr	r1, [r7]
 1171 01f6 7868     		ldr	r0, [r7, #4]
 1172 01f8 FFF7FEFF 		bl	getopt_long
 1173 01fc F865     		str	r0, [r7, #92]
 1174 01fe FB6D     		ldr	r3, [r7, #92]
 1175 0200 B3F1FF3F 		cmp	r3, #-1
 1176 0204 7FF415AF 		bne	.L71
 394:application\command/command.c **** 		};
 395:application\command/command.c **** 	}
 396:application\command/command.c ****     
 397:application\command/command.c ****     if(d) {
 1177              		.loc 1 397 0
 1178 0208 3B6E     		ldr	r3, [r7, #96]
 1179 020a 002B     		cmp	r3, #0
 1180 020c 5FD0     		beq	.L75
 398:application\command/command.c ****         if (t) {
 1181              		.loc 1 398 0
 1182 020e FB6E     		ldr	r3, [r7, #108]
 1183 0210 002B     		cmp	r3, #0
 1184 0212 18D0     		beq	.L73
 1185              	.LBB3:
 399:application\command/command.c ****             double temperature = rhea_sensor_GetMeasurement("BME280", "temperature");
 1186              		.loc 1 399 0
 1187 0214 3B49     		ldr	r1, .L76+44
 1188 0216 3448     		ldr	r0, .L76+16
 1189 0218 FFF7FEFF 		bl	rhea_sensor_GetMeasurement
 1190 021c C7E91201 		strd	r0, [r7, #72]
 400:application\command/command.c ****             char temp[50] = {0};
 1191              		.loc 1 400 0
 1192 0220 07F10803 		add	r3, r7, #8
 1193 0224 3222     		movs	r2, #50
 1194 0226 0021     		movs	r1, #0
 1195 0228 1846     		mov	r0, r3
 1196 022a FFF7FEFF 		bl	memset
 401:application\command/command.c ****             sprintf(temp, "Temperature: %.1lf Celsius\n\r", temperature);
 1197              		.loc 1 401 0
 1198 022e 07F10800 		add	r0, r7, #8
 1199 0232 D7E91223 		ldrd	r2, [r7, #72]
 1200 0236 3849     		ldr	r1, .L76+64
 1201 0238 FFF7FEFF 		bl	sprintf
 402:application\command/command.c ****             rhea_uart_WriteString(temp);
 1202              		.loc 1 402 0
 1203 023c 07F10803 		add	r3, r7, #8
 1204 0240 1846     		mov	r0, r3
 1205 0242 FFF7FEFF 		bl	rhea_uart_WriteString
 1206              	.L73:
 1207              	.LBE3:
 403:application\command/command.c ****         }
 404:application\command/command.c ****     	if (p) {
 1208              		.loc 1 404 0
 1209 0246 BB6E     		ldr	r3, [r7, #104]
 1210 0248 002B     		cmp	r3, #0
 1211 024a 1ED0     		beq	.L74
 1212              	.LBB4:
ARM GAS  C:\Users\GYULAI~1\AppData\Local\Temp\ccMMaTPn.s 			page 34


 405:application\command/command.c ****             unsigned pressure = rhea_sensor_GetMeasurement("BME280", "pressure");
 1213              		.loc 1 405 0
 1214 024c 2E49     		ldr	r1, .L76+48
 1215 024e 2648     		ldr	r0, .L76+16
 1216 0250 FFF7FEFF 		bl	rhea_sensor_GetMeasurement
 1217 0254 0346     		mov	r3, r0
 1218 0256 0C46     		mov	r4, r1
 1219 0258 1846     		mov	r0, r3
 1220 025a 2146     		mov	r1, r4
 1221 025c FFF7FEFF 		bl	__aeabi_d2uiz
 1222 0260 0346     		mov	r3, r0
 1223 0262 7B64     		str	r3, [r7, #68]
 406:application\command/command.c ****             char temp[50] = {0};
 1224              		.loc 1 406 0
 1225 0264 07F10803 		add	r3, r7, #8
 1226 0268 3222     		movs	r2, #50
 1227 026a 0021     		movs	r1, #0
 1228 026c 1846     		mov	r0, r3
 1229 026e FFF7FEFF 		bl	memset
 407:application\command/command.c ****             sprintf(temp, "Pressure: %u Pa\n\r", pressure);
 1230              		.loc 1 407 0
 1231 0272 07F10803 		add	r3, r7, #8
 1232 0276 7A6C     		ldr	r2, [r7, #68]
 1233 0278 2849     		ldr	r1, .L76+68
 1234 027a 1846     		mov	r0, r3
 1235 027c FFF7FEFF 		bl	sprintf
 408:application\command/command.c ****             rhea_uart_WriteString(temp);
 1236              		.loc 1 408 0
 1237 0280 07F10803 		add	r3, r7, #8
 1238 0284 1846     		mov	r0, r3
 1239 0286 FFF7FEFF 		bl	rhea_uart_WriteString
 1240              	.L74:
 1241              	.LBE4:
 409:application\command/command.c ****         }
 410:application\command/command.c ****     	if (m) {
 1242              		.loc 1 410 0
 1243 028a 7B6E     		ldr	r3, [r7, #100]
 1244 028c 002B     		cmp	r3, #0
 1245 028e 1ED0     		beq	.L75
 1246              	.LBB5:
 411:application\command/command.c ****             unsigned humidity = rhea_sensor_GetMeasurement("BME280", "humidity");
 1247              		.loc 1 411 0
 1248 0290 1E49     		ldr	r1, .L76+52
 1249 0292 1548     		ldr	r0, .L76+16
 1250 0294 FFF7FEFF 		bl	rhea_sensor_GetMeasurement
 1251 0298 0346     		mov	r3, r0
 1252 029a 0C46     		mov	r4, r1
 1253 029c 1846     		mov	r0, r3
 1254 029e 2146     		mov	r1, r4
 1255 02a0 FFF7FEFF 		bl	__aeabi_d2uiz
 1256 02a4 0346     		mov	r3, r0
 1257 02a6 3B64     		str	r3, [r7, #64]
 412:application\command/command.c ****             char temp[50] = {0};
 1258              		.loc 1 412 0
 1259 02a8 07F10803 		add	r3, r7, #8
 1260 02ac 3222     		movs	r2, #50
 1261 02ae 0021     		movs	r1, #0
ARM GAS  C:\Users\GYULAI~1\AppData\Local\Temp\ccMMaTPn.s 			page 35


 1262 02b0 1846     		mov	r0, r3
 1263 02b2 FFF7FEFF 		bl	memset
 413:application\command/command.c ****             sprintf(temp, "Humidity: %u %%\n\r", humidity);
 1264              		.loc 1 413 0
 1265 02b6 07F10803 		add	r3, r7, #8
 1266 02ba 3A6C     		ldr	r2, [r7, #64]
 1267 02bc 1849     		ldr	r1, .L76+72
 1268 02be 1846     		mov	r0, r3
 1269 02c0 FFF7FEFF 		bl	sprintf
 414:application\command/command.c ****             rhea_uart_WriteString(temp);
 1270              		.loc 1 414 0
 1271 02c4 07F10803 		add	r3, r7, #8
 1272 02c8 1846     		mov	r0, r3
 1273 02ca FFF7FEFF 		bl	rhea_uart_WriteString
 1274              	.L75:
 1275              	.LBE5:
 415:application\command/command.c ****         }
 416:application\command/command.c ****     }
 417:application\command/command.c **** }
 1276              		.loc 1 417 0
 1277 02ce 00BF     		nop
 1278 02d0 7437     		adds	r7, r7, #116
 1279              		.cfi_def_cfa_offset 12
 1280 02d2 BD46     		mov	sp, r7
 1281              		.cfi_def_cfa_register 13
 1282              		@ sp needed
 1283 02d4 90BD     		pop	{r4, r7, pc}
 1284              	.L77:
 1285 02d6 00BF     		.align	2
 1286              	.L76:
 1287 02d8 00000000 		.word	optind
 1288 02dc 00000000 		.word	optarg
 1289 02e0 300B0000 		.word	.LC22
 1290 02e4 70000000 		.word	.LC6
 1291 02e8 340B0000 		.word	.LC23
 1292 02ec 3C0B0000 		.word	.LC24
 1293 02f0 400B0000 		.word	.LC25
 1294 02f4 440B0000 		.word	.LC26
 1295 02f8 480B0000 		.word	.LC27
 1296 02fc 4C0B0000 		.word	.LC28
 1297 0300 500B0000 		.word	.LC29
 1298 0304 40000000 		.word	.LC2
 1299 0308 4C000000 		.word	.LC3
 1300 030c 64000000 		.word	.LC5
 1301 0310 A0000000 		.word	measure_long_options
 1302 0314 6C0B0000 		.word	.LC30
 1303 0318 780B0000 		.word	.LC31
 1304 031c 980B0000 		.word	.LC32
 1305 0320 AC0B0000 		.word	.LC33
 1306              		.cfi_endproc
 1307              	.LFE74:
 1308              		.size	command_measure, .-command_measure
 1309              		.text
 1310              	.Letext0:
 1311              		.file 2 "e:\\cypress\\psoc creator\\4.2\\psoc creator\\import\\gnu\\arm\\5.4.1\\arm-none-eabi\\inc
 1312              		.file 3 "e:\\cypress\\psoc creator\\4.2\\psoc creator\\import\\gnu\\arm\\5.4.1\\arm-none-eabi\\inc
 1313              		.file 4 "e:\\cypress\\psoc creator\\4.2\\psoc creator\\import\\gnu\\arm\\5.4.1\\arm-none-eabi\\inc
ARM GAS  C:\Users\GYULAI~1\AppData\Local\Temp\ccMMaTPn.s 			page 36


 1314              		.file 5 "application\\command\\command.h"
 1315              		.file 6 "Generated_Source\\PSoC5/core_cm3.h"