ARM GAS  C:\Users\GYULAI~1\AppData\Local\Temp\cc4j4Lh9.s 			page 1


   1              		.syntax unified
   2              		.cpu cortex-m3
   3              		.fpu softvfp
   4              		.eabi_attribute 20, 1
   5              		.eabi_attribute 21, 1
   6              		.eabi_attribute 23, 3
   7              		.eabi_attribute 24, 1
   8              		.eabi_attribute 25, 1
   9              		.eabi_attribute 26, 1
  10              		.eabi_attribute 30, 6
  11              		.eabi_attribute 34, 1
  12              		.eabi_attribute 18, 4
  13              		.thumb
  14              		.syntax unified
  15              		.file	"datetime.c"
  16              		.text
  17              	.Ltext0:
  18              		.cfi_sections	.debug_frame
  19              		.section	.rodata
  20              		.align	2
  21              		.type	rhea_rtc_datetimeFormatGeneral, %object
  22              		.size	rhea_rtc_datetimeFormatGeneral, 20
  23              	rhea_rtc_datetimeFormatGeneral:
  24 0000 59595959 		.ascii	"YYYY/MM/dd hh:mm:ss\000"
  24      2F4D4D2F 
  24      64642068 
  24      683A6D6D 
  24      3A737300 
  25              		.align	2
  26              		.type	rhea_rtc_datetimeFormatGeneralUS, %object
  27              		.size	rhea_rtc_datetimeFormatGeneralUS, 22
  28              	rhea_rtc_datetimeFormatGeneralUS:
  29 0014 64642F4D 		.ascii	"dd/MM/YYYY hh:mm:ss t\000"
  29      4D2F5959 
  29      59592068 
  29      683A6D6D 
  29      3A737320 
  30 002a 0000     		.align	2
  31              		.type	rhea_rtc_datetimeFormatFull, %object
  32              		.size	rhea_rtc_datetimeFormatFull, 22
  33              	rhea_rtc_datetimeFormatFull:
  34 002c 772C204D 		.ascii	"w, MMMM d, YYYY h:m:s\000"
  34      4D4D4D20 
  34      642C2059 
  34      59595920 
  34      683A6D3A 
  35 0042 0000     		.align	2
  36              	.LC1:
  37 0044 4E4F4E45 		.ascii	"NONE\000"
  37      00
  38 0049 000000   		.align	2
  39              	.LC2:
  40 004c 53756E64 		.ascii	"Sunday\000"
  40      617900
  41 0053 00       		.align	2
  42              	.LC3:
  43 0054 4D6F6E64 		.ascii	"Monday\000"
ARM GAS  C:\Users\GYULAI~1\AppData\Local\Temp\cc4j4Lh9.s 			page 2


  43      617900
  44 005b 00       		.align	2
  45              	.LC4:
  46 005c 54756573 		.ascii	"Tuesday\000"
  46      64617900 
  47              		.align	2
  48              	.LC5:
  49 0064 5765646E 		.ascii	"Wednesday\000"
  49      65736461 
  49      7900
  50 006e 0000     		.align	2
  51              	.LC6:
  52 0070 54687572 		.ascii	"Thursday\000"
  52      73646179 
  52      00
  53 0079 000000   		.align	2
  54              	.LC7:
  55 007c 46726964 		.ascii	"Friday\000"
  55      617900
  56 0083 00       		.align	2
  57              	.LC8:
  58 0084 53617475 		.ascii	"Saturday\000"
  58      72646179 
  58      00
  59 008d 000000   		.align	2
  60              		.type	rhea_rtc_weekdayNamesLong, %object
  61              		.size	rhea_rtc_weekdayNamesLong, 32
  62              	rhea_rtc_weekdayNamesLong:
  63 0090 44000000 		.word	.LC1
  64 0094 4C000000 		.word	.LC2
  65 0098 54000000 		.word	.LC3
  66 009c 5C000000 		.word	.LC4
  67 00a0 64000000 		.word	.LC5
  68 00a4 70000000 		.word	.LC6
  69 00a8 7C000000 		.word	.LC7
  70 00ac 84000000 		.word	.LC8
  71              		.align	2
  72              	.LC9:
  73 00b0 53756E00 		.ascii	"Sun\000"
  74              		.align	2
  75              	.LC10:
  76 00b4 4D6F6E00 		.ascii	"Mon\000"
  77              		.align	2
  78              	.LC11:
  79 00b8 54756500 		.ascii	"Tue\000"
  80              		.align	2
  81              	.LC12:
  82 00bc 57656400 		.ascii	"Wed\000"
  83              		.align	2
  84              	.LC13:
  85 00c0 54687500 		.ascii	"Thu\000"
  86              		.align	2
  87              	.LC14:
  88 00c4 46726900 		.ascii	"Fri\000"
  89              		.align	2
  90              	.LC15:
  91 00c8 53617400 		.ascii	"Sat\000"
ARM GAS  C:\Users\GYULAI~1\AppData\Local\Temp\cc4j4Lh9.s 			page 3


  92              		.align	2
  93              		.type	rhea_rtc_weekdayNamesShort, %object
  94              		.size	rhea_rtc_weekdayNamesShort, 32
  95              	rhea_rtc_weekdayNamesShort:
  96 00cc 44000000 		.word	.LC1
  97 00d0 B0000000 		.word	.LC9
  98 00d4 B4000000 		.word	.LC10
  99 00d8 B8000000 		.word	.LC11
 100 00dc BC000000 		.word	.LC12
 101 00e0 C0000000 		.word	.LC13
 102 00e4 C4000000 		.word	.LC14
 103 00e8 C8000000 		.word	.LC15
 104              		.align	2
 105              	.LC16:
 106 00ec 4A616E75 		.ascii	"January\000"
 106      61727900 
 107              		.align	2
 108              	.LC17:
 109 00f4 46656272 		.ascii	"February\000"
 109      75617279 
 109      00
 110 00fd 000000   		.align	2
 111              	.LC18:
 112 0100 4D617263 		.ascii	"March\000"
 112      6800
 113 0106 0000     		.align	2
 114              	.LC19:
 115 0108 41707269 		.ascii	"April\000"
 115      6C00
 116 010e 0000     		.align	2
 117              	.LC20:
 118 0110 4D617900 		.ascii	"May\000"
 119              		.align	2
 120              	.LC21:
 121 0114 4A756E65 		.ascii	"June\000"
 121      00
 122 0119 000000   		.align	2
 123              	.LC22:
 124 011c 4A756C79 		.ascii	"July\000"
 124      00
 125 0121 000000   		.align	2
 126              	.LC23:
 127 0124 41756775 		.ascii	"August\000"
 127      737400
 128 012b 00       		.align	2
 129              	.LC24:
 130 012c 53657074 		.ascii	"September\000"
 130      656D6265 
 130      7200
 131 0136 0000     		.align	2
 132              	.LC25:
 133 0138 4F63746F 		.ascii	"October\000"
 133      62657200 
 134              		.align	2
 135              	.LC26:
 136 0140 4E6F7665 		.ascii	"November\000"
 136      6D626572 
ARM GAS  C:\Users\GYULAI~1\AppData\Local\Temp\cc4j4Lh9.s 			page 4


 136      00
 137 0149 000000   		.align	2
 138              	.LC27:
 139 014c 44656365 		.ascii	"December\000"
 139      6D626572 
 139      00
 140 0155 000000   		.align	2
 141              		.type	rhea_rtc_monthNamesLong, %object
 142              		.size	rhea_rtc_monthNamesLong, 52
 143              	rhea_rtc_monthNamesLong:
 144 0158 44000000 		.word	.LC1
 145 015c EC000000 		.word	.LC16
 146 0160 F4000000 		.word	.LC17
 147 0164 00010000 		.word	.LC18
 148 0168 08010000 		.word	.LC19
 149 016c 10010000 		.word	.LC20
 150 0170 14010000 		.word	.LC21
 151 0174 1C010000 		.word	.LC22
 152 0178 24010000 		.word	.LC23
 153 017c 2C010000 		.word	.LC24
 154 0180 38010000 		.word	.LC25
 155 0184 40010000 		.word	.LC26
 156 0188 4C010000 		.word	.LC27
 157              		.align	2
 158              	.LC28:
 159 018c 4A616E00 		.ascii	"Jan\000"
 160              		.align	2
 161              	.LC29:
 162 0190 46656200 		.ascii	"Feb\000"
 163              		.align	2
 164              	.LC30:
 165 0194 4D617200 		.ascii	"Mar\000"
 166              		.align	2
 167              	.LC31:
 168 0198 41707200 		.ascii	"Apr\000"
 169              		.align	2
 170              	.LC32:
 171 019c 4A756E4A 		.ascii	"JunJul\000"
 171      756C00
 172 01a3 00       		.align	2
 173              	.LC33:
 174 01a4 41756700 		.ascii	"Aug\000"
 175              		.align	2
 176              	.LC34:
 177 01a8 53657000 		.ascii	"Sep\000"
 178              		.align	2
 179              	.LC35:
 180 01ac 4F637400 		.ascii	"Oct\000"
 181              		.align	2
 182              	.LC36:
 183 01b0 4E6F7600 		.ascii	"Nov\000"
 184              		.align	2
 185              	.LC37:
 186 01b4 44656300 		.ascii	"Dec\000"
 187              		.align	2
 188              		.type	rhea_rtc_monthNamesShort, %object
 189              		.size	rhea_rtc_monthNamesShort, 48
ARM GAS  C:\Users\GYULAI~1\AppData\Local\Temp\cc4j4Lh9.s 			page 5


 190              	rhea_rtc_monthNamesShort:
 191 01b8 44000000 		.word	.LC1
 192 01bc 8C010000 		.word	.LC28
 193 01c0 90010000 		.word	.LC29
 194 01c4 94010000 		.word	.LC30
 195 01c8 98010000 		.word	.LC31
 196 01cc 10010000 		.word	.LC20
 197 01d0 9C010000 		.word	.LC32
 198 01d4 A4010000 		.word	.LC33
 199 01d8 A8010000 		.word	.LC34
 200 01dc AC010000 		.word	.LC35
 201 01e0 B0010000 		.word	.LC36
 202 01e4 B4010000 		.word	.LC37
 203              		.align	2
 204              	.LC38:
 205 01e8 252E2A75 		.ascii	"%.*u\000"
 205      00
 206 01ed 000000   		.align	2
 207              	.LC39:
 208 01f0 414D00   		.ascii	"AM\000"
 209 01f3 00       		.align	2
 210              	.LC40:
 211 01f4 504D00   		.ascii	"PM\000"
 212              		.section	.text.rhea_rtc_formatDate,"ax",%progbits
 213              		.align	2
 214              		.global	rhea_rtc_formatDate
 215              		.thumb
 216              		.thumb_func
 217              		.type	rhea_rtc_formatDate, %function
 218              	rhea_rtc_formatDate:
 219              	.LFB1:
 220              		.file 1 "rhea\\rtc\\datetime\\datetime.c"
   1:rhea\rtc\datetime/datetime.c **** /*********************************************************************************
   2:rhea\rtc\datetime/datetime.c ****  * Copyright (c) 2020 Peter Gyulai
   3:rhea\rtc\datetime/datetime.c ****  *
   4:rhea\rtc\datetime/datetime.c ****  * Permission is hereby granted, free of charge, to any person obtaining a copy
   5:rhea\rtc\datetime/datetime.c ****  * of this software and associated documentation files (the "Software"), to deal
   6:rhea\rtc\datetime/datetime.c ****  * in the Software without restriction, including without limitation the rights
   7:rhea\rtc\datetime/datetime.c ****  * to use, copy, modify, merge, publish, distribute, sublicense, and/or sell
   8:rhea\rtc\datetime/datetime.c ****  * copies of the Software, and to permit persons to whom the Software is
   9:rhea\rtc\datetime/datetime.c ****  * furnished to do so, subject to the following conditions:
  10:rhea\rtc\datetime/datetime.c ****  *
  11:rhea\rtc\datetime/datetime.c ****  * The above copyright notice and this permission notice shall be included in all
  12:rhea\rtc\datetime/datetime.c ****  * copies or substantial portions of the Software.
  13:rhea\rtc\datetime/datetime.c ****  *
  14:rhea\rtc\datetime/datetime.c ****  * THE SOFTWARE IS PROVIDED "AS IS", WITHOUT WARRANTY OF ANY KIND,
  15:rhea\rtc\datetime/datetime.c ****  * EXPRESS OR IMPLIED, INCLUDING BUT NOT LIMITED TO THE WARRANTIES OF
  16:rhea\rtc\datetime/datetime.c ****  * MERCHANTABILITY, FITNESS FOR A PARTICULAR PURPOSE AND NONINFRINGEMENT.
  17:rhea\rtc\datetime/datetime.c ****  * IN NO EVENT SHALL THE AUTHORS OR COPYRIGHT HOLDERS BE LIABLE FOR ANY CLAIM,
  18:rhea\rtc\datetime/datetime.c ****  * DAMAGES OR OTHER LIABILITY, WHETHER IN AN ACTION OF CONTRACT, TORT OR
  19:rhea\rtc\datetime/datetime.c ****  * OTHERWISE, ARISING FROM, OUT OF OR IN CONNECTION WITH THE SOFTWARE OR THE USE
  20:rhea\rtc\datetime/datetime.c ****  * OR OTHER DEALINGS IN THE SOFTWARE.
  21:rhea\rtc\datetime/datetime.c **** **********************************************************************************/
  22:rhea\rtc\datetime/datetime.c **** 
  23:rhea\rtc\datetime/datetime.c **** /**
  24:rhea\rtc\datetime/datetime.c ****  * @file    datetime.c
  25:rhea\rtc\datetime/datetime.c ****  * @author  Peter Gyulai
ARM GAS  C:\Users\GYULAI~1\AppData\Local\Temp\cc4j4Lh9.s 			page 6


  26:rhea\rtc\datetime/datetime.c ****  * @version 0.0.1
  27:rhea\rtc\datetime/datetime.c ****  * @date    2020.03.23
  28:rhea\rtc\datetime/datetime.c ****  * @brief   Library implementation.
  29:rhea\rtc\datetime/datetime.c ****  * @details
  30:rhea\rtc\datetime/datetime.c ****  * This file contains the datetime utility implementation.
  31:rhea\rtc\datetime/datetime.c ****  */
  32:rhea\rtc\datetime/datetime.c **** 
  33:rhea\rtc\datetime/datetime.c **** // Doxygen documentation duplication suppression
  34:rhea\rtc\datetime/datetime.c **** #ifndef DOXYGEN_SHOULD_SKIP_THIS
  35:rhea\rtc\datetime/datetime.c **** 
  36:rhea\rtc\datetime/datetime.c **** // Standard includes
  37:rhea\rtc\datetime/datetime.c **** #include <stdlib.h>
  38:rhea\rtc\datetime/datetime.c **** #include <stdio.h>
  39:rhea\rtc\datetime/datetime.c **** #include <string.h>
  40:rhea\rtc\datetime/datetime.c **** #include <math.h>
  41:rhea\rtc\datetime/datetime.c ****     
  42:rhea\rtc\datetime/datetime.c **** // Project includes
  43:rhea\rtc\datetime/datetime.c **** #include "datetime.h"
  44:rhea\rtc\datetime/datetime.c ****     
  45:rhea\rtc\datetime/datetime.c ****     
  46:rhea\rtc\datetime/datetime.c **** static const char * const rhea_rtc_weekdayNamesLong[] = {
  47:rhea\rtc\datetime/datetime.c ****     "NONE", "Sunday", "Monday", "Tuesday", "Wednesday",
  48:rhea\rtc\datetime/datetime.c ****     "Thursday", "Friday", "Saturday"
  49:rhea\rtc\datetime/datetime.c **** };
  50:rhea\rtc\datetime/datetime.c **** 
  51:rhea\rtc\datetime/datetime.c **** static const char * const rhea_rtc_weekdayNamesShort[] = {
  52:rhea\rtc\datetime/datetime.c ****     "NONE", "Sun", "Mon", "Tue", "Wed", "Thu", "Fri", "Sat"
  53:rhea\rtc\datetime/datetime.c **** };
  54:rhea\rtc\datetime/datetime.c **** 
  55:rhea\rtc\datetime/datetime.c **** static const char * const rhea_rtc_monthNamesLong[] = {
  56:rhea\rtc\datetime/datetime.c ****     "NONE", "January", "February", "March", "April", "May", "June", 
  57:rhea\rtc\datetime/datetime.c ****     "July", "August", "September", "October", "November", "December"
  58:rhea\rtc\datetime/datetime.c **** };
  59:rhea\rtc\datetime/datetime.c **** 
  60:rhea\rtc\datetime/datetime.c **** static const char * const rhea_rtc_monthNamesShort[] = {
  61:rhea\rtc\datetime/datetime.c ****     "NONE", "Jan", "Feb", "Mar", "Apr", "May", "Jun"
  62:rhea\rtc\datetime/datetime.c ****     "Jul", "Aug", "Sep", "Oct", "Nov", "Dec"
  63:rhea\rtc\datetime/datetime.c **** };
  64:rhea\rtc\datetime/datetime.c **** 
  65:rhea\rtc\datetime/datetime.c **** void rhea_rtc_formatDate(rhea_rtc_datetime datetime, const char *format, char *buffer) {
 221              		.loc 1 65 0
 222              		.cfi_startproc
 223              		@ args = 0, pretend = 0, frame = 24
 224              		@ frame_needed = 1, uses_anonymous_args = 0
 225 0000 90B5     		push	{r4, r7, lr}
 226              		.cfi_def_cfa_offset 12
 227              		.cfi_offset 4, -12
 228              		.cfi_offset 7, -8
 229              		.cfi_offset 14, -4
 230 0002 87B0     		sub	sp, sp, #28
 231              		.cfi_def_cfa_offset 40
 232 0004 00AF     		add	r7, sp, #0
 233              		.cfi_def_cfa_register 7
 234 0006 07F10804 		add	r4, r7, #8
 235 000a 84E80300 		stmia	r4, {r0, r1}
 236 000e 7A60     		str	r2, [r7, #4]
 237 0010 3B60     		str	r3, [r7]
ARM GAS  C:\Users\GYULAI~1\AppData\Local\Temp\cc4j4Lh9.s 			page 7


  66:rhea\rtc\datetime/datetime.c **** 
  67:rhea\rtc\datetime/datetime.c ****     // Logic value indicating whether AM/PM format is used or not
  68:rhea\rtc\datetime/datetime.c ****     uint8_t ampm_format = 0;
 238              		.loc 1 68 0
 239 0012 0023     		movs	r3, #0
 240 0014 FB75     		strb	r3, [r7, #23]
  69:rhea\rtc\datetime/datetime.c ****     
  70:rhea\rtc\datetime/datetime.c ****     // Index for iterating format string
  71:rhea\rtc\datetime/datetime.c ****     uint8_t i = 0;
 241              		.loc 1 71 0
 242 0016 0023     		movs	r3, #0
 243 0018 BB75     		strb	r3, [r7, #22]
  72:rhea\rtc\datetime/datetime.c ****     
  73:rhea\rtc\datetime/datetime.c ****     // Determining whether AM/PM format is used
  74:rhea\rtc\datetime/datetime.c ****     while(format[i] != '\0') if(format[i++] == 't') ampm_format = 1;
 244              		.loc 1 74 0
 245 001a 0AE0     		b	.L2
 246              	.L3:
 247              		.loc 1 74 0 is_stmt 0 discriminator 4
 248 001c BB7D     		ldrb	r3, [r7, #22]	@ zero_extendqisi2
 249 001e 5A1C     		adds	r2, r3, #1
 250 0020 BA75     		strb	r2, [r7, #22]
 251 0022 1A46     		mov	r2, r3
 252 0024 7B68     		ldr	r3, [r7, #4]
 253 0026 1344     		add	r3, r3, r2
 254 0028 1B78     		ldrb	r3, [r3]	@ zero_extendqisi2
 255 002a 742B     		cmp	r3, #116
 256 002c 01D1     		bne	.L2
 257              		.loc 1 74 0 discriminator 1
 258 002e 0123     		movs	r3, #1
 259 0030 FB75     		strb	r3, [r7, #23]
 260              	.L2:
 261              		.loc 1 74 0 discriminator 3
 262 0032 BB7D     		ldrb	r3, [r7, #22]	@ zero_extendqisi2
 263 0034 7A68     		ldr	r2, [r7, #4]
 264 0036 1344     		add	r3, r3, r2
 265 0038 1B78     		ldrb	r3, [r3]	@ zero_extendqisi2
 266 003a 002B     		cmp	r3, #0
 267 003c EED1     		bne	.L3
  75:rhea\rtc\datetime/datetime.c ****     
  76:rhea\rtc\datetime/datetime.c ****     // Resetting index
  77:rhea\rtc\datetime/datetime.c ****     i = 0;
 268              		.loc 1 77 0 is_stmt 1
 269 003e 0023     		movs	r3, #0
 270 0040 BB75     		strb	r3, [r7, #22]
  78:rhea\rtc\datetime/datetime.c ****     
  79:rhea\rtc\datetime/datetime.c ****     // Parsing format and writing buffer
  80:rhea\rtc\datetime/datetime.c ****     while(format[i] != '\0') {
 271              		.loc 1 80 0
 272 0042 BAE1     		b	.L4
 273              	.L47:
  81:rhea\rtc\datetime/datetime.c ****         
  82:rhea\rtc\datetime/datetime.c ****         // Handling years
  83:rhea\rtc\datetime/datetime.c ****         if(format[i] == 'Y') {
 274              		.loc 1 83 0
 275 0044 BB7D     		ldrb	r3, [r7, #22]	@ zero_extendqisi2
 276 0046 7A68     		ldr	r2, [r7, #4]
ARM GAS  C:\Users\GYULAI~1\AppData\Local\Temp\cc4j4Lh9.s 			page 8


 277 0048 1344     		add	r3, r3, r2
 278 004a 1B78     		ldrb	r3, [r3]	@ zero_extendqisi2
 279 004c 592B     		cmp	r3, #89
 280 004e 45D1     		bne	.L5
 281              	.LBB2:
  84:rhea\rtc\datetime/datetime.c ****             uint8_t yearDigits = 1;
 282              		.loc 1 84 0
 283 0050 0123     		movs	r3, #1
 284 0052 7B75     		strb	r3, [r7, #21]
  85:rhea\rtc\datetime/datetime.c ****             while(format[++i] == 'Y') yearDigits++;
 285              		.loc 1 85 0
 286 0054 02E0     		b	.L6
 287              	.L7:
 288              		.loc 1 85 0 is_stmt 0 discriminator 2
 289 0056 7B7D     		ldrb	r3, [r7, #21]	@ zero_extendqisi2
 290 0058 0133     		adds	r3, r3, #1
 291 005a 7B75     		strb	r3, [r7, #21]
 292              	.L6:
 293              		.loc 1 85 0 discriminator 1
 294 005c BB7D     		ldrb	r3, [r7, #22]
 295 005e 0133     		adds	r3, r3, #1
 296 0060 BB75     		strb	r3, [r7, #22]
 297 0062 BB7D     		ldrb	r3, [r7, #22]	@ zero_extendqisi2
 298 0064 7A68     		ldr	r2, [r7, #4]
 299 0066 1344     		add	r3, r3, r2
 300 0068 1B78     		ldrb	r3, [r3]	@ zero_extendqisi2
 301 006a 592B     		cmp	r3, #89
 302 006c F3D0     		beq	.L7
  86:rhea\rtc\datetime/datetime.c ****             if(yearDigits == 1) datetime.year %= 10;
 303              		.loc 1 86 0 is_stmt 1
 304 006e 7B7D     		ldrb	r3, [r7, #21]	@ zero_extendqisi2
 305 0070 012B     		cmp	r3, #1
 306 0072 0BD1     		bne	.L8
 307              		.loc 1 86 0 is_stmt 0 discriminator 1
 308 0074 3A89     		ldrh	r2, [r7, #8]
 309 0076 A04B     		ldr	r3, .L48
 310 0078 A3FB0213 		umull	r1, r3, r3, r2
 311 007c D908     		lsrs	r1, r3, #3
 312 007e 0B46     		mov	r3, r1
 313 0080 9B00     		lsls	r3, r3, #2
 314 0082 0B44     		add	r3, r3, r1
 315 0084 5B00     		lsls	r3, r3, #1
 316 0086 D31A     		subs	r3, r2, r3
 317 0088 9BB2     		uxth	r3, r3
 318 008a 3B81     		strh	r3, [r7, #8]	@ movhi
 319              	.L8:
  87:rhea\rtc\datetime/datetime.c ****             if(yearDigits == 2) datetime.year %= 100;
 320              		.loc 1 87 0 is_stmt 1
 321 008c 7B7D     		ldrb	r3, [r7, #21]	@ zero_extendqisi2
 322 008e 022B     		cmp	r3, #2
 323 0090 0AD1     		bne	.L9
 324              		.loc 1 87 0 is_stmt 0 discriminator 1
 325 0092 3B89     		ldrh	r3, [r7, #8]
 326 0094 994A     		ldr	r2, .L48+4
 327 0096 A2FB0312 		umull	r1, r2, r2, r3
 328 009a 5209     		lsrs	r2, r2, #5
 329 009c 6421     		movs	r1, #100
ARM GAS  C:\Users\GYULAI~1\AppData\Local\Temp\cc4j4Lh9.s 			page 9


 330 009e 01FB02F2 		mul	r2, r1, r2
 331 00a2 9B1A     		subs	r3, r3, r2
 332 00a4 9BB2     		uxth	r3, r3
 333 00a6 3B81     		strh	r3, [r7, #8]	@ movhi
 334              	.L9:
  88:rhea\rtc\datetime/datetime.c ****             if(yearDigits == 3) datetime.year %= 1000;
 335              		.loc 1 88 0 is_stmt 1
 336 00a8 7B7D     		ldrb	r3, [r7, #21]	@ zero_extendqisi2
 337 00aa 032B     		cmp	r3, #3
 338 00ac 0BD1     		bne	.L10
 339              		.loc 1 88 0 is_stmt 0 discriminator 1
 340 00ae 3B89     		ldrh	r3, [r7, #8]
 341 00b0 934A     		ldr	r2, .L48+8
 342 00b2 A2FB0312 		umull	r1, r2, r2, r3
 343 00b6 9209     		lsrs	r2, r2, #6
 344 00b8 4FF47A71 		mov	r1, #1000
 345 00bc 01FB02F2 		mul	r2, r1, r2
 346 00c0 9B1A     		subs	r3, r3, r2
 347 00c2 9BB2     		uxth	r3, r3
 348 00c4 3B81     		strh	r3, [r7, #8]	@ movhi
 349              	.L10:
  89:rhea\rtc\datetime/datetime.c ****             sprintf(buffer, "%.*u", yearDigits, datetime.year);
 350              		.loc 1 89 0 is_stmt 1
 351 00c6 7A7D     		ldrb	r2, [r7, #21]	@ zero_extendqisi2
 352 00c8 3B89     		ldrh	r3, [r7, #8]
 353 00ca 8E49     		ldr	r1, .L48+12
 354 00cc 3868     		ldr	r0, [r7]
 355 00ce FFF7FEFF 		bl	sprintf
  90:rhea\rtc\datetime/datetime.c ****             buffer = buffer + yearDigits;
 356              		.loc 1 90 0
 357 00d2 7B7D     		ldrb	r3, [r7, #21]	@ zero_extendqisi2
 358 00d4 3A68     		ldr	r2, [r7]
 359 00d6 1344     		add	r3, r3, r2
 360 00d8 3B60     		str	r3, [r7]
 361              	.LBE2:
 362 00da 6EE1     		b	.L4
 363              	.L5:
  91:rhea\rtc\datetime/datetime.c ****         }
  92:rhea\rtc\datetime/datetime.c ****         
  93:rhea\rtc\datetime/datetime.c ****         // Handling months
  94:rhea\rtc\datetime/datetime.c ****         else if(format[i] == 'M') {
 364              		.loc 1 94 0
 365 00dc BB7D     		ldrb	r3, [r7, #22]	@ zero_extendqisi2
 366 00de 7A68     		ldr	r2, [r7, #4]
 367 00e0 1344     		add	r3, r3, r2
 368 00e2 1B78     		ldrb	r3, [r3]	@ zero_extendqisi2
 369 00e4 4D2B     		cmp	r3, #77
 370 00e6 50D1     		bne	.L11
 371              	.LBB3:
  95:rhea\rtc\datetime/datetime.c ****             uint8_t monthDigits = 1;
 372              		.loc 1 95 0
 373 00e8 0123     		movs	r3, #1
 374 00ea 3B75     		strb	r3, [r7, #20]
  96:rhea\rtc\datetime/datetime.c ****             while(format[++i] == 'M') monthDigits++;
 375              		.loc 1 96 0
 376 00ec 02E0     		b	.L12
 377              	.L13:
ARM GAS  C:\Users\GYULAI~1\AppData\Local\Temp\cc4j4Lh9.s 			page 10


 378              		.loc 1 96 0 is_stmt 0 discriminator 2
 379 00ee 3B7D     		ldrb	r3, [r7, #20]	@ zero_extendqisi2
 380 00f0 0133     		adds	r3, r3, #1
 381 00f2 3B75     		strb	r3, [r7, #20]
 382              	.L12:
 383              		.loc 1 96 0 discriminator 1
 384 00f4 BB7D     		ldrb	r3, [r7, #22]
 385 00f6 0133     		adds	r3, r3, #1
 386 00f8 BB75     		strb	r3, [r7, #22]
 387 00fa BB7D     		ldrb	r3, [r7, #22]	@ zero_extendqisi2
 388 00fc 7A68     		ldr	r2, [r7, #4]
 389 00fe 1344     		add	r3, r3, r2
 390 0100 1B78     		ldrb	r3, [r3]	@ zero_extendqisi2
 391 0102 4D2B     		cmp	r3, #77
 392 0104 F3D0     		beq	.L13
  97:rhea\rtc\datetime/datetime.c ****             if(monthDigits == 3) {
 393              		.loc 1 97 0 is_stmt 1
 394 0106 3B7D     		ldrb	r3, [r7, #20]	@ zero_extendqisi2
 395 0108 032B     		cmp	r3, #3
 396 010a 15D1     		bne	.L14
  98:rhea\rtc\datetime/datetime.c ****                 sprintf(buffer, "%s", rhea_rtc_monthNamesShort[datetime.month]);
 397              		.loc 1 98 0
 398 010c BB7A     		ldrb	r3, [r7, #10]	@ zero_extendqisi2
 399 010e 1A46     		mov	r2, r3
 400 0110 7D4B     		ldr	r3, .L48+16
 401 0112 53F82230 		ldr	r3, [r3, r2, lsl #2]
 402 0116 1946     		mov	r1, r3
 403 0118 3868     		ldr	r0, [r7]
 404 011a FFF7FEFF 		bl	strcpy
  99:rhea\rtc\datetime/datetime.c ****                 buffer = buffer + strlen(rhea_rtc_monthNamesShort[datetime.month]);
 405              		.loc 1 99 0
 406 011e BB7A     		ldrb	r3, [r7, #10]	@ zero_extendqisi2
 407 0120 1A46     		mov	r2, r3
 408 0122 794B     		ldr	r3, .L48+16
 409 0124 53F82230 		ldr	r3, [r3, r2, lsl #2]
 410 0128 1846     		mov	r0, r3
 411 012a FFF7FEFF 		bl	strlen
 412 012e 0246     		mov	r2, r0
 413 0130 3B68     		ldr	r3, [r7]
 414 0132 1344     		add	r3, r3, r2
 415 0134 3B60     		str	r3, [r7]
 416 0136 40E1     		b	.L4
 417              	.L14:
 100:rhea\rtc\datetime/datetime.c ****             } 
 101:rhea\rtc\datetime/datetime.c ****             else if(monthDigits == 4) {
 418              		.loc 1 101 0
 419 0138 3B7D     		ldrb	r3, [r7, #20]	@ zero_extendqisi2
 420 013a 042B     		cmp	r3, #4
 421 013c 15D1     		bne	.L16
 102:rhea\rtc\datetime/datetime.c ****                 sprintf(buffer, "%s", rhea_rtc_monthNamesLong[datetime.month]);
 422              		.loc 1 102 0
 423 013e BB7A     		ldrb	r3, [r7, #10]	@ zero_extendqisi2
 424 0140 1A46     		mov	r2, r3
 425 0142 724B     		ldr	r3, .L48+20
 426 0144 53F82230 		ldr	r3, [r3, r2, lsl #2]
 427 0148 1946     		mov	r1, r3
 428 014a 3868     		ldr	r0, [r7]
ARM GAS  C:\Users\GYULAI~1\AppData\Local\Temp\cc4j4Lh9.s 			page 11


 429 014c FFF7FEFF 		bl	strcpy
 103:rhea\rtc\datetime/datetime.c ****                 buffer = buffer + strlen(rhea_rtc_monthNamesLong[datetime.month]);
 430              		.loc 1 103 0
 431 0150 BB7A     		ldrb	r3, [r7, #10]	@ zero_extendqisi2
 432 0152 1A46     		mov	r2, r3
 433 0154 6D4B     		ldr	r3, .L48+20
 434 0156 53F82230 		ldr	r3, [r3, r2, lsl #2]
 435 015a 1846     		mov	r0, r3
 436 015c FFF7FEFF 		bl	strlen
 437 0160 0246     		mov	r2, r0
 438 0162 3B68     		ldr	r3, [r7]
 439 0164 1344     		add	r3, r3, r2
 440 0166 3B60     		str	r3, [r7]
 441 0168 27E1     		b	.L4
 442              	.L16:
 104:rhea\rtc\datetime/datetime.c ****             }
 105:rhea\rtc\datetime/datetime.c ****             else {
 106:rhea\rtc\datetime/datetime.c ****                 sprintf(buffer, "%.*u", monthDigits, datetime.month);
 443              		.loc 1 106 0
 444 016a 3A7D     		ldrb	r2, [r7, #20]	@ zero_extendqisi2
 445 016c BB7A     		ldrb	r3, [r7, #10]	@ zero_extendqisi2
 446 016e 6549     		ldr	r1, .L48+12
 447 0170 3868     		ldr	r0, [r7]
 448 0172 FFF7FEFF 		bl	sprintf
 107:rhea\rtc\datetime/datetime.c ****                 buffer = buffer + (datetime.month < 9 ? monthDigits : 2);
 449              		.loc 1 107 0
 450 0176 BB7A     		ldrb	r3, [r7, #10]	@ zero_extendqisi2
 451 0178 082B     		cmp	r3, #8
 452 017a 01D8     		bhi	.L17
 453              		.loc 1 107 0 is_stmt 0 discriminator 1
 454 017c 3B7D     		ldrb	r3, [r7, #20]	@ zero_extendqisi2
 455 017e 00E0     		b	.L18
 456              	.L17:
 457              		.loc 1 107 0 discriminator 2
 458 0180 0223     		movs	r3, #2
 459              	.L18:
 460              		.loc 1 107 0 discriminator 4
 461 0182 3A68     		ldr	r2, [r7]
 462 0184 1344     		add	r3, r3, r2
 463 0186 3B60     		str	r3, [r7]
 464              	.LBE3:
 465 0188 17E1     		b	.L4
 466              	.L11:
 108:rhea\rtc\datetime/datetime.c ****             }
 109:rhea\rtc\datetime/datetime.c ****         }
 110:rhea\rtc\datetime/datetime.c ****         
 111:rhea\rtc\datetime/datetime.c ****         // Handling dates
 112:rhea\rtc\datetime/datetime.c ****         else if(format[i] == 'd') {
 467              		.loc 1 112 0 is_stmt 1
 468 018a BB7D     		ldrb	r3, [r7, #22]	@ zero_extendqisi2
 469 018c 7A68     		ldr	r2, [r7, #4]
 470 018e 1344     		add	r3, r3, r2
 471 0190 1B78     		ldrb	r3, [r3]	@ zero_extendqisi2
 472 0192 642B     		cmp	r3, #100
 473 0194 1ED1     		bne	.L19
 474              	.LBB4:
 113:rhea\rtc\datetime/datetime.c ****             uint8_t dateDigits = 1;
ARM GAS  C:\Users\GYULAI~1\AppData\Local\Temp\cc4j4Lh9.s 			page 12


 475              		.loc 1 113 0
 476 0196 0123     		movs	r3, #1
 477 0198 FB74     		strb	r3, [r7, #19]
 114:rhea\rtc\datetime/datetime.c ****             while(format[++i] == 'd') dateDigits++;
 478              		.loc 1 114 0
 479 019a 02E0     		b	.L20
 480              	.L21:
 481              		.loc 1 114 0 is_stmt 0 discriminator 2
 482 019c FB7C     		ldrb	r3, [r7, #19]	@ zero_extendqisi2
 483 019e 0133     		adds	r3, r3, #1
 484 01a0 FB74     		strb	r3, [r7, #19]
 485              	.L20:
 486              		.loc 1 114 0 discriminator 1
 487 01a2 BB7D     		ldrb	r3, [r7, #22]
 488 01a4 0133     		adds	r3, r3, #1
 489 01a6 BB75     		strb	r3, [r7, #22]
 490 01a8 BB7D     		ldrb	r3, [r7, #22]	@ zero_extendqisi2
 491 01aa 7A68     		ldr	r2, [r7, #4]
 492 01ac 1344     		add	r3, r3, r2
 493 01ae 1B78     		ldrb	r3, [r3]	@ zero_extendqisi2
 494 01b0 642B     		cmp	r3, #100
 495 01b2 F3D0     		beq	.L21
 115:rhea\rtc\datetime/datetime.c ****             sprintf(buffer, "%.*u", dateDigits, datetime.date);
 496              		.loc 1 115 0 is_stmt 1
 497 01b4 FA7C     		ldrb	r2, [r7, #19]	@ zero_extendqisi2
 498 01b6 FB7A     		ldrb	r3, [r7, #11]	@ zero_extendqisi2
 499 01b8 5249     		ldr	r1, .L48+12
 500 01ba 3868     		ldr	r0, [r7]
 501 01bc FFF7FEFF 		bl	sprintf
 116:rhea\rtc\datetime/datetime.c ****             buffer = buffer + (datetime.date < 9 ? dateDigits : 2);
 502              		.loc 1 116 0
 503 01c0 FB7A     		ldrb	r3, [r7, #11]	@ zero_extendqisi2
 504 01c2 082B     		cmp	r3, #8
 505 01c4 01D8     		bhi	.L22
 506              		.loc 1 116 0 is_stmt 0 discriminator 1
 507 01c6 FB7C     		ldrb	r3, [r7, #19]	@ zero_extendqisi2
 508 01c8 00E0     		b	.L23
 509              	.L22:
 510              		.loc 1 116 0 discriminator 2
 511 01ca 0223     		movs	r3, #2
 512              	.L23:
 513              		.loc 1 116 0 discriminator 4
 514 01cc 3A68     		ldr	r2, [r7]
 515 01ce 1344     		add	r3, r3, r2
 516 01d0 3B60     		str	r3, [r7]
 517              	.LBE4:
 518 01d2 F2E0     		b	.L4
 519              	.L19:
 117:rhea\rtc\datetime/datetime.c ****         }
 118:rhea\rtc\datetime/datetime.c ****         
 119:rhea\rtc\datetime/datetime.c ****         // Handling short weekdays
 120:rhea\rtc\datetime/datetime.c ****         else if(format[i] == 'w') {
 520              		.loc 1 120 0 is_stmt 1
 521 01d4 BB7D     		ldrb	r3, [r7, #22]	@ zero_extendqisi2
 522 01d6 7A68     		ldr	r2, [r7, #4]
 523 01d8 1344     		add	r3, r3, r2
 524 01da 1B78     		ldrb	r3, [r3]	@ zero_extendqisi2
ARM GAS  C:\Users\GYULAI~1\AppData\Local\Temp\cc4j4Lh9.s 			page 13


 525 01dc 772B     		cmp	r3, #119
 526 01de 18D1     		bne	.L24
 121:rhea\rtc\datetime/datetime.c ****             sprintf(buffer, "%s", rhea_rtc_weekdayNamesShort[datetime.weekday]);
 527              		.loc 1 121 0
 528 01e0 3B7B     		ldrb	r3, [r7, #12]	@ zero_extendqisi2
 529 01e2 1A46     		mov	r2, r3
 530 01e4 4A4B     		ldr	r3, .L48+24
 531 01e6 53F82230 		ldr	r3, [r3, r2, lsl #2]
 532 01ea 1946     		mov	r1, r3
 533 01ec 3868     		ldr	r0, [r7]
 534 01ee FFF7FEFF 		bl	strcpy
 122:rhea\rtc\datetime/datetime.c ****             buffer = buffer + strlen(rhea_rtc_weekdayNamesShort[datetime.weekday]);
 535              		.loc 1 122 0
 536 01f2 3B7B     		ldrb	r3, [r7, #12]	@ zero_extendqisi2
 537 01f4 1A46     		mov	r2, r3
 538 01f6 464B     		ldr	r3, .L48+24
 539 01f8 53F82230 		ldr	r3, [r3, r2, lsl #2]
 540 01fc 1846     		mov	r0, r3
 541 01fe FFF7FEFF 		bl	strlen
 542 0202 0246     		mov	r2, r0
 543 0204 3B68     		ldr	r3, [r7]
 544 0206 1344     		add	r3, r3, r2
 545 0208 3B60     		str	r3, [r7]
 123:rhea\rtc\datetime/datetime.c ****             i++;
 546              		.loc 1 123 0
 547 020a BB7D     		ldrb	r3, [r7, #22]	@ zero_extendqisi2
 548 020c 0133     		adds	r3, r3, #1
 549 020e BB75     		strb	r3, [r7, #22]
 550 0210 D3E0     		b	.L4
 551              	.L24:
 124:rhea\rtc\datetime/datetime.c ****         }
 125:rhea\rtc\datetime/datetime.c ****         
 126:rhea\rtc\datetime/datetime.c ****         // Handling long weekdays
 127:rhea\rtc\datetime/datetime.c ****         else if(format[i] == 'W') {
 552              		.loc 1 127 0
 553 0212 BB7D     		ldrb	r3, [r7, #22]	@ zero_extendqisi2
 554 0214 7A68     		ldr	r2, [r7, #4]
 555 0216 1344     		add	r3, r3, r2
 556 0218 1B78     		ldrb	r3, [r3]	@ zero_extendqisi2
 557 021a 572B     		cmp	r3, #87
 558 021c 18D1     		bne	.L25
 128:rhea\rtc\datetime/datetime.c ****             sprintf(buffer, "%s", rhea_rtc_weekdayNamesLong[datetime.weekday]);
 559              		.loc 1 128 0
 560 021e 3B7B     		ldrb	r3, [r7, #12]	@ zero_extendqisi2
 561 0220 1A46     		mov	r2, r3
 562 0222 3C4B     		ldr	r3, .L48+28
 563 0224 53F82230 		ldr	r3, [r3, r2, lsl #2]
 564 0228 1946     		mov	r1, r3
 565 022a 3868     		ldr	r0, [r7]
 566 022c FFF7FEFF 		bl	strcpy
 129:rhea\rtc\datetime/datetime.c ****             buffer = buffer + strlen(rhea_rtc_weekdayNamesLong[datetime.weekday]);
 567              		.loc 1 129 0
 568 0230 3B7B     		ldrb	r3, [r7, #12]	@ zero_extendqisi2
 569 0232 1A46     		mov	r2, r3
 570 0234 374B     		ldr	r3, .L48+28
 571 0236 53F82230 		ldr	r3, [r3, r2, lsl #2]
 572 023a 1846     		mov	r0, r3
ARM GAS  C:\Users\GYULAI~1\AppData\Local\Temp\cc4j4Lh9.s 			page 14


 573 023c FFF7FEFF 		bl	strlen
 574 0240 0246     		mov	r2, r0
 575 0242 3B68     		ldr	r3, [r7]
 576 0244 1344     		add	r3, r3, r2
 577 0246 3B60     		str	r3, [r7]
 130:rhea\rtc\datetime/datetime.c ****             i++;
 578              		.loc 1 130 0
 579 0248 BB7D     		ldrb	r3, [r7, #22]	@ zero_extendqisi2
 580 024a 0133     		adds	r3, r3, #1
 581 024c BB75     		strb	r3, [r7, #22]
 582 024e B4E0     		b	.L4
 583              	.L25:
 131:rhea\rtc\datetime/datetime.c ****         }
 132:rhea\rtc\datetime/datetime.c ****         
 133:rhea\rtc\datetime/datetime.c ****         // Handling hours
 134:rhea\rtc\datetime/datetime.c ****         else if(format[i] == 'h') {
 584              		.loc 1 134 0
 585 0250 BB7D     		ldrb	r3, [r7, #22]	@ zero_extendqisi2
 586 0252 7A68     		ldr	r2, [r7, #4]
 587 0254 1344     		add	r3, r3, r2
 588 0256 1B78     		ldrb	r3, [r3]	@ zero_extendqisi2
 589 0258 682B     		cmp	r3, #104
 590 025a 2DD1     		bne	.L26
 591              	.LBB5:
 135:rhea\rtc\datetime/datetime.c ****             uint8_t hourDigits = 1;
 592              		.loc 1 135 0
 593 025c 0123     		movs	r3, #1
 594 025e BB74     		strb	r3, [r7, #18]
 136:rhea\rtc\datetime/datetime.c ****             while(format[++i] == 'h') hourDigits++;
 595              		.loc 1 136 0
 596 0260 02E0     		b	.L27
 597              	.L28:
 598              		.loc 1 136 0 is_stmt 0 discriminator 2
 599 0262 BB7C     		ldrb	r3, [r7, #18]	@ zero_extendqisi2
 600 0264 0133     		adds	r3, r3, #1
 601 0266 BB74     		strb	r3, [r7, #18]
 602              	.L27:
 603              		.loc 1 136 0 discriminator 1
 604 0268 BB7D     		ldrb	r3, [r7, #22]
 605 026a 0133     		adds	r3, r3, #1
 606 026c BB75     		strb	r3, [r7, #22]
 607 026e BB7D     		ldrb	r3, [r7, #22]	@ zero_extendqisi2
 608 0270 7A68     		ldr	r2, [r7, #4]
 609 0272 1344     		add	r3, r3, r2
 610 0274 1B78     		ldrb	r3, [r3]	@ zero_extendqisi2
 611 0276 682B     		cmp	r3, #104
 612 0278 F3D0     		beq	.L28
 137:rhea\rtc\datetime/datetime.c ****             sprintf(buffer, "%.*u", hourDigits, (ampm_format && datetime.hour > 12 ? datetime.hour 
 613              		.loc 1 137 0 is_stmt 1
 614 027a BA7C     		ldrb	r2, [r7, #18]	@ zero_extendqisi2
 615 027c FB7D     		ldrb	r3, [r7, #23]	@ zero_extendqisi2
 616 027e 002B     		cmp	r3, #0
 617 0280 05D0     		beq	.L29
 618              		.loc 1 137 0 is_stmt 0 discriminator 1
 619 0282 7B7B     		ldrb	r3, [r7, #13]	@ zero_extendqisi2
 620 0284 0C2B     		cmp	r3, #12
 621 0286 02D9     		bls	.L29
ARM GAS  C:\Users\GYULAI~1\AppData\Local\Temp\cc4j4Lh9.s 			page 15


 622              		.loc 1 137 0 discriminator 3
 623 0288 7B7B     		ldrb	r3, [r7, #13]	@ zero_extendqisi2
 624 028a 0C3B     		subs	r3, r3, #12
 625 028c 00E0     		b	.L30
 626              	.L29:
 627              		.loc 1 137 0 discriminator 4
 628 028e 7B7B     		ldrb	r3, [r7, #13]	@ zero_extendqisi2
 629              	.L30:
 630              		.loc 1 137 0 discriminator 6
 631 0290 1C49     		ldr	r1, .L48+12
 632 0292 3868     		ldr	r0, [r7]
 633 0294 FFF7FEFF 		bl	sprintf
 138:rhea\rtc\datetime/datetime.c ****             buffer = buffer + (datetime.hour < 9 || (datetime.hour > 12 && ampm_format) ? hourDigit
 634              		.loc 1 138 0 is_stmt 1 discriminator 6
 635 0298 7B7B     		ldrb	r3, [r7, #13]	@ zero_extendqisi2
 636 029a 082B     		cmp	r3, #8
 637 029c 05D9     		bls	.L31
 638              		.loc 1 138 0 is_stmt 0 discriminator 2
 639 029e 7B7B     		ldrb	r3, [r7, #13]	@ zero_extendqisi2
 640 02a0 0C2B     		cmp	r3, #12
 641 02a2 04D9     		bls	.L32
 642              		.loc 1 138 0 discriminator 3
 643 02a4 FB7D     		ldrb	r3, [r7, #23]	@ zero_extendqisi2
 644 02a6 002B     		cmp	r3, #0
 645 02a8 01D0     		beq	.L32
 646              	.L31:
 647              		.loc 1 138 0 discriminator 5
 648 02aa BB7C     		ldrb	r3, [r7, #18]	@ zero_extendqisi2
 649 02ac 00E0     		b	.L33
 650              	.L32:
 651              		.loc 1 138 0 discriminator 6
 652 02ae 0223     		movs	r3, #2
 653              	.L33:
 654              		.loc 1 138 0 discriminator 8
 655 02b0 3A68     		ldr	r2, [r7]
 656 02b2 1344     		add	r3, r3, r2
 657 02b4 3B60     		str	r3, [r7]
 658              	.LBE5:
 659 02b6 80E0     		b	.L4
 660              	.L26:
 139:rhea\rtc\datetime/datetime.c ****         }
 140:rhea\rtc\datetime/datetime.c ****         
 141:rhea\rtc\datetime/datetime.c ****         // Handling AM/PM designator
 142:rhea\rtc\datetime/datetime.c ****         else if(format[i] == 't') {
 661              		.loc 1 142 0 is_stmt 1
 662 02b8 BB7D     		ldrb	r3, [r7, #22]	@ zero_extendqisi2
 663 02ba 7A68     		ldr	r2, [r7, #4]
 664 02bc 1344     		add	r3, r3, r2
 665 02be 1B78     		ldrb	r3, [r3]	@ zero_extendqisi2
 666 02c0 742B     		cmp	r3, #116
 667 02c2 10D1     		bne	.L34
 143:rhea\rtc\datetime/datetime.c ****             sprintf(buffer, "%s", datetime.hour <= 12 ? "AM" : "PM");
 668              		.loc 1 143 0
 669 02c4 7B7B     		ldrb	r3, [r7, #13]	@ zero_extendqisi2
 670 02c6 0C2B     		cmp	r3, #12
 671 02c8 01D8     		bhi	.L35
 672              		.loc 1 143 0 is_stmt 0 discriminator 1
ARM GAS  C:\Users\GYULAI~1\AppData\Local\Temp\cc4j4Lh9.s 			page 16


 673 02ca 134B     		ldr	r3, .L48+32
 674 02cc 00E0     		b	.L36
 675              	.L35:
 676              		.loc 1 143 0 discriminator 2
 677 02ce 134B     		ldr	r3, .L48+36
 678              	.L36:
 679              		.loc 1 143 0 discriminator 4
 680 02d0 1946     		mov	r1, r3
 681 02d2 3868     		ldr	r0, [r7]
 682 02d4 FFF7FEFF 		bl	strcpy
 144:rhea\rtc\datetime/datetime.c ****             buffer = buffer + 2;
 683              		.loc 1 144 0 is_stmt 1 discriminator 4
 684 02d8 3B68     		ldr	r3, [r7]
 685 02da 0233     		adds	r3, r3, #2
 686 02dc 3B60     		str	r3, [r7]
 145:rhea\rtc\datetime/datetime.c ****             i++;
 687              		.loc 1 145 0 discriminator 4
 688 02de BB7D     		ldrb	r3, [r7, #22]	@ zero_extendqisi2
 689 02e0 0133     		adds	r3, r3, #1
 690 02e2 BB75     		strb	r3, [r7, #22]
 691 02e4 69E0     		b	.L4
 692              	.L34:
 146:rhea\rtc\datetime/datetime.c ****         }
 147:rhea\rtc\datetime/datetime.c ****         
 148:rhea\rtc\datetime/datetime.c ****         // Handling minutes
 149:rhea\rtc\datetime/datetime.c ****         else if(format[i] == 'm') {
 693              		.loc 1 149 0
 694 02e6 BB7D     		ldrb	r3, [r7, #22]	@ zero_extendqisi2
 695 02e8 7A68     		ldr	r2, [r7, #4]
 696 02ea 1344     		add	r3, r3, r2
 697 02ec 1B78     		ldrb	r3, [r3]	@ zero_extendqisi2
 698 02ee 6D2B     		cmp	r3, #109
 699 02f0 32D1     		bne	.L37
 700              	.LBB6:
 150:rhea\rtc\datetime/datetime.c ****             uint8_t minuteDigits = 1;
 701              		.loc 1 150 0
 702 02f2 0123     		movs	r3, #1
 703 02f4 7B74     		strb	r3, [r7, #17]
 151:rhea\rtc\datetime/datetime.c ****             while(format[++i] == 'm') minuteDigits++;
 704              		.loc 1 151 0
 705 02f6 16E0     		b	.L38
 706              	.L49:
 707              		.align	2
 708              	.L48:
 709 02f8 CDCCCCCC 		.word	-858993459
 710 02fc 1F85EB51 		.word	1374389535
 711 0300 D34D6210 		.word	274877907
 712 0304 E8010000 		.word	.LC38
 713 0308 B8010000 		.word	rhea_rtc_monthNamesShort
 714 030c 58010000 		.word	rhea_rtc_monthNamesLong
 715 0310 CC000000 		.word	rhea_rtc_weekdayNamesShort
 716 0314 90000000 		.word	rhea_rtc_weekdayNamesLong
 717 0318 F0010000 		.word	.LC39
 718 031c F4010000 		.word	.LC40
 719              	.L39:
 720              		.loc 1 151 0 is_stmt 0 discriminator 2
 721 0320 7B7C     		ldrb	r3, [r7, #17]	@ zero_extendqisi2
ARM GAS  C:\Users\GYULAI~1\AppData\Local\Temp\cc4j4Lh9.s 			page 17


 722 0322 0133     		adds	r3, r3, #1
 723 0324 7B74     		strb	r3, [r7, #17]
 724              	.L38:
 725              		.loc 1 151 0 discriminator 1
 726 0326 BB7D     		ldrb	r3, [r7, #22]
 727 0328 0133     		adds	r3, r3, #1
 728 032a BB75     		strb	r3, [r7, #22]
 729 032c BB7D     		ldrb	r3, [r7, #22]	@ zero_extendqisi2
 730 032e 7A68     		ldr	r2, [r7, #4]
 731 0330 1344     		add	r3, r3, r2
 732 0332 1B78     		ldrb	r3, [r3]	@ zero_extendqisi2
 733 0334 6D2B     		cmp	r3, #109
 734 0336 F3D0     		beq	.L39
 152:rhea\rtc\datetime/datetime.c ****             sprintf(buffer, "%.*u", minuteDigits, datetime.minute);
 735              		.loc 1 152 0 is_stmt 1
 736 0338 7A7C     		ldrb	r2, [r7, #17]	@ zero_extendqisi2
 737 033a BB7B     		ldrb	r3, [r7, #14]	@ zero_extendqisi2
 738 033c 2449     		ldr	r1, .L50
 739 033e 3868     		ldr	r0, [r7]
 740 0340 FFF7FEFF 		bl	sprintf
 153:rhea\rtc\datetime/datetime.c ****             buffer = buffer + (datetime.minute < 9 ? minuteDigits : 2);
 741              		.loc 1 153 0
 742 0344 BB7B     		ldrb	r3, [r7, #14]	@ zero_extendqisi2
 743 0346 082B     		cmp	r3, #8
 744 0348 01D8     		bhi	.L40
 745              		.loc 1 153 0 is_stmt 0 discriminator 1
 746 034a 7B7C     		ldrb	r3, [r7, #17]	@ zero_extendqisi2
 747 034c 00E0     		b	.L41
 748              	.L40:
 749              		.loc 1 153 0 discriminator 2
 750 034e 0223     		movs	r3, #2
 751              	.L41:
 752              		.loc 1 153 0 discriminator 4
 753 0350 3A68     		ldr	r2, [r7]
 754 0352 1344     		add	r3, r3, r2
 755 0354 3B60     		str	r3, [r7]
 756              	.LBE6:
 757 0356 30E0     		b	.L4
 758              	.L37:
 154:rhea\rtc\datetime/datetime.c ****         }
 155:rhea\rtc\datetime/datetime.c ****         
 156:rhea\rtc\datetime/datetime.c ****         // Handling seconds
 157:rhea\rtc\datetime/datetime.c ****         else if(format[i] == 's') {
 759              		.loc 1 157 0 is_stmt 1
 760 0358 BB7D     		ldrb	r3, [r7, #22]	@ zero_extendqisi2
 761 035a 7A68     		ldr	r2, [r7, #4]
 762 035c 1344     		add	r3, r3, r2
 763 035e 1B78     		ldrb	r3, [r3]	@ zero_extendqisi2
 764 0360 732B     		cmp	r3, #115
 765 0362 1ED1     		bne	.L42
 766              	.LBB7:
 158:rhea\rtc\datetime/datetime.c ****             uint8_t secondDigits = 1;
 767              		.loc 1 158 0
 768 0364 0123     		movs	r3, #1
 769 0366 3B74     		strb	r3, [r7, #16]
 159:rhea\rtc\datetime/datetime.c ****             while(format[++i] == 's') secondDigits++;
 770              		.loc 1 159 0
ARM GAS  C:\Users\GYULAI~1\AppData\Local\Temp\cc4j4Lh9.s 			page 18


 771 0368 02E0     		b	.L43
 772              	.L44:
 773              		.loc 1 159 0 is_stmt 0 discriminator 2
 774 036a 3B7C     		ldrb	r3, [r7, #16]	@ zero_extendqisi2
 775 036c 0133     		adds	r3, r3, #1
 776 036e 3B74     		strb	r3, [r7, #16]
 777              	.L43:
 778              		.loc 1 159 0 discriminator 1
 779 0370 BB7D     		ldrb	r3, [r7, #22]
 780 0372 0133     		adds	r3, r3, #1
 781 0374 BB75     		strb	r3, [r7, #22]
 782 0376 BB7D     		ldrb	r3, [r7, #22]	@ zero_extendqisi2
 783 0378 7A68     		ldr	r2, [r7, #4]
 784 037a 1344     		add	r3, r3, r2
 785 037c 1B78     		ldrb	r3, [r3]	@ zero_extendqisi2
 786 037e 732B     		cmp	r3, #115
 787 0380 F3D0     		beq	.L44
 160:rhea\rtc\datetime/datetime.c ****             sprintf(buffer, "%.*u", secondDigits, datetime.second);
 788              		.loc 1 160 0 is_stmt 1
 789 0382 3A7C     		ldrb	r2, [r7, #16]	@ zero_extendqisi2
 790 0384 FB7B     		ldrb	r3, [r7, #15]	@ zero_extendqisi2
 791 0386 1249     		ldr	r1, .L50
 792 0388 3868     		ldr	r0, [r7]
 793 038a FFF7FEFF 		bl	sprintf
 161:rhea\rtc\datetime/datetime.c ****             buffer = buffer + (datetime.second < 9 ? secondDigits : 2);
 794              		.loc 1 161 0
 795 038e FB7B     		ldrb	r3, [r7, #15]	@ zero_extendqisi2
 796 0390 082B     		cmp	r3, #8
 797 0392 01D8     		bhi	.L45
 798              		.loc 1 161 0 is_stmt 0 discriminator 1
 799 0394 3B7C     		ldrb	r3, [r7, #16]	@ zero_extendqisi2
 800 0396 00E0     		b	.L46
 801              	.L45:
 802              		.loc 1 161 0 discriminator 2
 803 0398 0223     		movs	r3, #2
 804              	.L46:
 805              		.loc 1 161 0 discriminator 4
 806 039a 3A68     		ldr	r2, [r7]
 807 039c 1344     		add	r3, r3, r2
 808 039e 3B60     		str	r3, [r7]
 809              	.LBE7:
 810 03a0 0BE0     		b	.L4
 811              	.L42:
 162:rhea\rtc\datetime/datetime.c ****         }
 163:rhea\rtc\datetime/datetime.c ****         
 164:rhea\rtc\datetime/datetime.c ****         // Handling other characters
 165:rhea\rtc\datetime/datetime.c ****         else {
 166:rhea\rtc\datetime/datetime.c ****             buffer[0] = format[i++];
 812              		.loc 1 166 0 is_stmt 1
 813 03a2 BB7D     		ldrb	r3, [r7, #22]	@ zero_extendqisi2
 814 03a4 5A1C     		adds	r2, r3, #1
 815 03a6 BA75     		strb	r2, [r7, #22]
 816 03a8 1A46     		mov	r2, r3
 817 03aa 7B68     		ldr	r3, [r7, #4]
 818 03ac 1344     		add	r3, r3, r2
 819 03ae 1A78     		ldrb	r2, [r3]	@ zero_extendqisi2
 820 03b0 3B68     		ldr	r3, [r7]
ARM GAS  C:\Users\GYULAI~1\AppData\Local\Temp\cc4j4Lh9.s 			page 19


 821 03b2 1A70     		strb	r2, [r3]
 167:rhea\rtc\datetime/datetime.c ****             buffer++;
 822              		.loc 1 167 0
 823 03b4 3B68     		ldr	r3, [r7]
 824 03b6 0133     		adds	r3, r3, #1
 825 03b8 3B60     		str	r3, [r7]
 826              	.L4:
  80:rhea\rtc\datetime/datetime.c ****         
 827              		.loc 1 80 0
 828 03ba BB7D     		ldrb	r3, [r7, #22]	@ zero_extendqisi2
 829 03bc 7A68     		ldr	r2, [r7, #4]
 830 03be 1344     		add	r3, r3, r2
 831 03c0 1B78     		ldrb	r3, [r3]	@ zero_extendqisi2
 832 03c2 002B     		cmp	r3, #0
 833 03c4 7FF43EAE 		bne	.L47
 168:rhea\rtc\datetime/datetime.c ****         }
 169:rhea\rtc\datetime/datetime.c ****     }
 170:rhea\rtc\datetime/datetime.c **** }
 834              		.loc 1 170 0
 835 03c8 00BF     		nop
 836 03ca 1C37     		adds	r7, r7, #28
 837              		.cfi_def_cfa_offset 12
 838 03cc BD46     		mov	sp, r7
 839              		.cfi_def_cfa_register 13
 840              		@ sp needed
 841 03ce 90BD     		pop	{r4, r7, pc}
 842              	.L51:
 843              		.align	2
 844              	.L50:
 845 03d0 E8010000 		.word	.LC38
 846              		.cfi_endproc
 847              	.LFE1:
 848              		.size	rhea_rtc_formatDate, .-rhea_rtc_formatDate
 849              		.global	__aeabi_ldivmod
 850              		.section	.text.rhea_rtc_toSeconds,"ax",%progbits
 851              		.align	2
 852              		.global	rhea_rtc_toSeconds
 853              		.thumb
 854              		.thumb_func
 855              		.type	rhea_rtc_toSeconds, %function
 856              	rhea_rtc_toSeconds:
 857              	.LFB2:
 171:rhea\rtc\datetime/datetime.c **** 
 172:rhea\rtc\datetime/datetime.c **** int64_t rhea_rtc_toSeconds(const rhea_rtc_datetime datetime) {
 858              		.loc 1 172 0
 859              		.cfi_startproc
 860              		@ args = 0, pretend = 0, frame = 48
 861              		@ frame_needed = 1, uses_anonymous_args = 0
 862 0000 2DE9B04F 		push	{r4, r5, r7, r8, r9, r10, fp, lr}
 863              		.cfi_def_cfa_offset 32
 864              		.cfi_offset 4, -32
 865              		.cfi_offset 5, -28
 866              		.cfi_offset 7, -24
 867              		.cfi_offset 8, -20
 868              		.cfi_offset 9, -16
 869              		.cfi_offset 10, -12
 870              		.cfi_offset 11, -8
ARM GAS  C:\Users\GYULAI~1\AppData\Local\Temp\cc4j4Lh9.s 			page 20


 871              		.cfi_offset 14, -4
 872 0004 8CB0     		sub	sp, sp, #48
 873              		.cfi_def_cfa_offset 80
 874 0006 00AF     		add	r7, sp, #0
 875              		.cfi_def_cfa_register 7
 876 0008 3B46     		mov	r3, r7
 877 000a 83E80300 		stmia	r3, {r0, r1}
 173:rhea\rtc\datetime/datetime.c ****     int64_t y = datetime.year;
 878              		.loc 1 173 0
 879 000e 3B88     		ldrh	r3, [r7]
 880 0010 9AB2     		uxth	r2, r3
 881 0012 4FF00003 		mov	r3, #0
 882 0016 C7E90A23 		strd	r2, [r7, #40]
 174:rhea\rtc\datetime/datetime.c ****     uint8_t m = datetime.month;
 883              		.loc 1 174 0
 884 001a BB78     		ldrb	r3, [r7, #2]
 885 001c 87F82730 		strb	r3, [r7, #39]
 175:rhea\rtc\datetime/datetime.c ****     uint8_t d = datetime.date;
 886              		.loc 1 175 0
 887 0020 FB78     		ldrb	r3, [r7, #3]
 888 0022 87F82630 		strb	r3, [r7, #38]
 176:rhea\rtc\datetime/datetime.c ****     
 177:rhea\rtc\datetime/datetime.c ****     // Algorithm source: https://howardhinnant.github.io/date_algorithms.html#days_from_civil
 178:rhea\rtc\datetime/datetime.c ****     // This algorithm calculates the number of days since epoch 1970.01.01.
 179:rhea\rtc\datetime/datetime.c ****     // Correction for hours, minutes and seconds are included.
 180:rhea\rtc\datetime/datetime.c ****     
 181:rhea\rtc\datetime/datetime.c ****     y -= m <= 2;
 889              		.loc 1 181 0
 890 0026 97F82730 		ldrb	r3, [r7, #39]	@ zero_extendqisi2
 891 002a 022B     		cmp	r3, #2
 892 002c 94BF     		ite	ls
 893 002e 0123     		movls	r3, #1
 894 0030 0023     		movhi	r3, #0
 895 0032 DBB2     		uxtb	r3, r3
 896 0034 DAB2     		uxtb	r2, r3
 897 0036 4FF00003 		mov	r3, #0
 898 003a D7E90A01 		ldrd	r0, [r7, #40]
 899 003e 821A     		subs	r2, r0, r2
 900 0040 61EB0303 		sbc	r3, r1, r3
 901 0044 C7E90A23 		strd	r2, [r7, #40]
 182:rhea\rtc\datetime/datetime.c ****     const int era = (y >= 0 ? y : y-399) / 400;
 902              		.loc 1 182 0
 903 0048 D7E90A23 		ldrd	r2, [r7, #40]
 904 004c 002A     		cmp	r2, #0
 905 004e 73F10003 		sbcs	r3, r3, #0
 906 0052 12DA     		bge	.L53
 907              		.loc 1 182 0 is_stmt 0 discriminator 1
 908 0054 D7E90A23 		ldrd	r2, [r7, #40]
 909 0058 6FF4C770 		mvn	r0, #398
 910 005c 4FF0FF31 		mov	r1, #-1
 911 0060 8018     		adds	r0, r0, r2
 912 0062 41EB0301 		adc	r1, r1, r3
 913 0066 4FF4C872 		mov	r2, #400
 914 006a 4FF00003 		mov	r3, #0
 915 006e FFF7FEFF 		bl	__aeabi_ldivmod
 916 0072 0246     		mov	r2, r0
 917 0074 0B46     		mov	r3, r1
ARM GAS  C:\Users\GYULAI~1\AppData\Local\Temp\cc4j4Lh9.s 			page 21


 918 0076 1346     		mov	r3, r2
 919 0078 0AE0     		b	.L54
 920              	.L53:
 921              		.loc 1 182 0 discriminator 2
 922 007a D7E90A01 		ldrd	r0, [r7, #40]
 923 007e 4FF4C872 		mov	r2, #400
 924 0082 4FF00003 		mov	r3, #0
 925 0086 FFF7FEFF 		bl	__aeabi_ldivmod
 926 008a 0246     		mov	r2, r0
 927 008c 0B46     		mov	r3, r1
 928 008e 1346     		mov	r3, r2
 929              	.L54:
 930              		.loc 1 182 0 discriminator 4
 931 0090 3B62     		str	r3, [r7, #32]
 183:rhea\rtc\datetime/datetime.c ****     const unsigned yoe = (y - era * 400);      // [0, 399]
 932              		.loc 1 183 0 is_stmt 1 discriminator 4
 933 0092 BB6A     		ldr	r3, [r7, #40]
 934 0094 3A6A     		ldr	r2, [r7, #32]
 935 0096 4549     		ldr	r1, .L58
 936 0098 01FB02F2 		mul	r2, r1, r2
 937 009c 1344     		add	r3, r3, r2
 938 009e FB61     		str	r3, [r7, #28]
 184:rhea\rtc\datetime/datetime.c ****     const unsigned doy = (153*(m + (m > 2 ? -3 : 9)) + 2)/5 + d-1;  // [0, 365]
 939              		.loc 1 184 0 discriminator 4
 940 00a0 97F82720 		ldrb	r2, [r7, #39]	@ zero_extendqisi2
 941 00a4 97F82730 		ldrb	r3, [r7, #39]	@ zero_extendqisi2
 942 00a8 022B     		cmp	r3, #2
 943 00aa 02D9     		bls	.L55
 944              		.loc 1 184 0 is_stmt 0 discriminator 1
 945 00ac 6FF00203 		mvn	r3, #2
 946 00b0 00E0     		b	.L56
 947              	.L55:
 948              		.loc 1 184 0 discriminator 2
 949 00b2 0923     		movs	r3, #9
 950              	.L56:
 951              		.loc 1 184 0 discriminator 4
 952 00b4 1A44     		add	r2, r2, r3
 953 00b6 1346     		mov	r3, r2
 954 00b8 DB00     		lsls	r3, r3, #3
 955 00ba 1344     		add	r3, r3, r2
 956 00bc 1A01     		lsls	r2, r3, #4
 957 00be 1344     		add	r3, r3, r2
 958 00c0 0233     		adds	r3, r3, #2
 959 00c2 3B4A     		ldr	r2, .L58+4
 960 00c4 82FB0312 		smull	r1, r2, r2, r3
 961 00c8 5210     		asrs	r2, r2, #1
 962 00ca DB17     		asrs	r3, r3, #31
 963 00cc D21A     		subs	r2, r2, r3
 964 00ce 97F82630 		ldrb	r3, [r7, #38]	@ zero_extendqisi2
 965 00d2 1344     		add	r3, r3, r2
 966 00d4 013B     		subs	r3, r3, #1
 967 00d6 BB61     		str	r3, [r7, #24]
 185:rhea\rtc\datetime/datetime.c ****     const unsigned doe = yoe * 365 + yoe/4 - yoe/100 + doy;         // [0, 146096]
 968              		.loc 1 185 0 is_stmt 1 discriminator 4
 969 00d8 FB69     		ldr	r3, [r7, #28]
 970 00da 40F26D12 		movw	r2, #365
 971 00de 02FB03F2 		mul	r2, r2, r3
ARM GAS  C:\Users\GYULAI~1\AppData\Local\Temp\cc4j4Lh9.s 			page 22


 972 00e2 FB69     		ldr	r3, [r7, #28]
 973 00e4 9B08     		lsrs	r3, r3, #2
 974 00e6 1A44     		add	r2, r2, r3
 975 00e8 FB69     		ldr	r3, [r7, #28]
 976 00ea 3249     		ldr	r1, .L58+8
 977 00ec A1FB0313 		umull	r1, r3, r1, r3
 978 00f0 5B09     		lsrs	r3, r3, #5
 979 00f2 D21A     		subs	r2, r2, r3
 980 00f4 BB69     		ldr	r3, [r7, #24]
 981 00f6 1344     		add	r3, r3, r2
 982 00f8 7B61     		str	r3, [r7, #20]
 186:rhea\rtc\datetime/datetime.c ****     const int64_t days_from_civil = era * 146097 + doe - 719468;
 983              		.loc 1 186 0 discriminator 4
 984 00fa 3B6A     		ldr	r3, [r7, #32]
 985 00fc 2E4A     		ldr	r2, .L58+12
 986 00fe 02FB03F3 		mul	r3, r2, r3
 987 0102 1A46     		mov	r2, r3
 988 0104 7B69     		ldr	r3, [r7, #20]
 989 0106 1344     		add	r3, r3, r2
 990 0108 A3F52F23 		sub	r3, r3, #716800
 991 010c A3F66C23 		subw	r3, r3, #2668
 992 0110 1A46     		mov	r2, r3
 993 0112 4FF00003 		mov	r3, #0
 994 0116 C7E90223 		strd	r2, [r7, #8]
 187:rhea\rtc\datetime/datetime.c ****     
 188:rhea\rtc\datetime/datetime.c ****     return days_from_civil * RHEA_RTC_SECONDS_PER_DAY + 
 995              		.loc 1 188 0 discriminator 4
 996 011a D7E90201 		ldrd	r0, [r7, #8]
 997 011e 0246     		mov	r2, r0
 998 0120 0B46     		mov	r3, r1
 999 0122 9218     		adds	r2, r2, r2
 1000 0124 43EB0303 		adc	r3, r3, r3
 1001 0128 1218     		adds	r2, r2, r0
 1002 012a 43EB0103 		adc	r3, r3, r1
 1003 012e 1D01     		lsls	r5, r3, #4
 1004 0130 45EA1275 		orr	r5, r5, r2, lsr #28
 1005 0134 1401     		lsls	r4, r2, #4
 1006 0136 A41A     		subs	r4, r4, r2
 1007 0138 65EB0305 		sbc	r5, r5, r3
 1008 013c 4FEA0519 		lsl	r9, r5, #4
 1009 0140 49EA1479 		orr	r9, r9, r4, lsr #28
 1010 0144 4FEA0418 		lsl	r8, r4, #4
 1011 0148 B8EB0408 		subs	r8, r8, r4
 1012 014c 69EB0509 		sbc	r9, r9, r5
 1013 0150 4FEAC91B 		lsl	fp, r9, #7
 1014 0154 4BEA586B 		orr	fp, fp, r8, lsr #25
 1015 0158 4FEAC81A 		lsl	r10, r8, #7
 1016 015c D046     		mov	r8, r10
 1017 015e D946     		mov	r9, fp
 1018 0160 4146     		mov	r1, r8
 1019 0162 4A46     		mov	r2, r9
 189:rhea\rtc\datetime/datetime.c ****            datetime.hour   * RHEA_RTC_SECONDS_PER_HOUR + 
 1020              		.loc 1 189 0 discriminator 4
 1021 0164 7B79     		ldrb	r3, [r7, #5]	@ zero_extendqisi2
 1022 0166 1846     		mov	r0, r3
 1023 0168 4FF46163 		mov	r3, #3600
 1024 016c 03FB00F3 		mul	r3, r3, r0
ARM GAS  C:\Users\GYULAI~1\AppData\Local\Temp\cc4j4Lh9.s 			page 23


 188:rhea\rtc\datetime/datetime.c ****            datetime.hour   * RHEA_RTC_SECONDS_PER_HOUR + 
 1025              		.loc 1 188 0 discriminator 4
 1026 0170 4FEAE374 		asr	r4, r3, #31
 1027 0174 C918     		adds	r1, r1, r3
 1028 0176 42EB0402 		adc	r2, r2, r4
 190:rhea\rtc\datetime/datetime.c ****            datetime.minute * RHEA_RTC_SECONDS_PER_MINUTE +
 1029              		.loc 1 190 0 discriminator 4
 1030 017a BB79     		ldrb	r3, [r7, #6]	@ zero_extendqisi2
 1031 017c 1846     		mov	r0, r3
 1032 017e 0346     		mov	r3, r0
 1033 0180 1B01     		lsls	r3, r3, #4
 1034 0182 1B1A     		subs	r3, r3, r0
 1035 0184 9B00     		lsls	r3, r3, #2
 189:rhea\rtc\datetime/datetime.c ****            datetime.hour   * RHEA_RTC_SECONDS_PER_HOUR + 
 1036              		.loc 1 189 0 discriminator 4
 1037 0186 4FEAE374 		asr	r4, r3, #31
 1038 018a C918     		adds	r1, r1, r3
 1039 018c 42EB0402 		adc	r2, r2, r4
 191:rhea\rtc\datetime/datetime.c ****            datetime.second;
 1040              		.loc 1 191 0 discriminator 4
 1041 0190 FB79     		ldrb	r3, [r7, #7]	@ zero_extendqisi2
 190:rhea\rtc\datetime/datetime.c ****            datetime.minute * RHEA_RTC_SECONDS_PER_MINUTE +
 1042              		.loc 1 190 0 discriminator 4
 1043 0192 DBB2     		uxtb	r3, r3
 1044 0194 4FF00004 		mov	r4, #0
 188:rhea\rtc\datetime/datetime.c ****            datetime.hour   * RHEA_RTC_SECONDS_PER_HOUR + 
 1045              		.loc 1 188 0 discriminator 4
 1046 0198 5B18     		adds	r3, r3, r1
 1047 019a 44EB0204 		adc	r4, r4, r2
 192:rhea\rtc\datetime/datetime.c **** }
 1048              		.loc 1 192 0 discriminator 4
 1049 019e 1846     		mov	r0, r3
 1050 01a0 2146     		mov	r1, r4
 1051 01a2 3037     		adds	r7, r7, #48
 1052              		.cfi_def_cfa_offset 32
 1053 01a4 BD46     		mov	sp, r7
 1054              		.cfi_def_cfa_register 13
 1055              		@ sp needed
 1056 01a6 BDE8B08F 		pop	{r4, r5, r7, r8, r9, r10, fp, pc}
 1057              	.L59:
 1058 01aa 00BF     		.align	2
 1059              	.L58:
 1060 01ac 70FEFFFF 		.word	-400
 1061 01b0 67666666 		.word	1717986919
 1062 01b4 1F85EB51 		.word	1374389535
 1063 01b8 B13A0200 		.word	146097
 1064              		.cfi_endproc
 1065              	.LFE2:
 1066              		.size	rhea_rtc_toSeconds, .-rhea_rtc_toSeconds
 1067              		.global	__aeabi_l2d
 1068              		.global	__aeabi_ddiv
 1069              		.global	__aeabi_d2lz
 1070              		.section	.text.rhea_rtc_fromSeconds,"ax",%progbits
 1071              		.align	2
 1072              		.global	rhea_rtc_fromSeconds
 1073              		.thumb
 1074              		.thumb_func
ARM GAS  C:\Users\GYULAI~1\AppData\Local\Temp\cc4j4Lh9.s 			page 24


 1075              		.type	rhea_rtc_fromSeconds, %function
 1076              	rhea_rtc_fromSeconds:
 1077              	.LFB3:
 193:rhea\rtc\datetime/datetime.c **** 
 194:rhea\rtc\datetime/datetime.c **** rhea_rtc_datetime rhea_rtc_fromSeconds(int64_t seconds) {
 1078              		.loc 1 194 0
 1079              		.cfi_startproc
 1080              		@ args = 0, pretend = 0, frame = 64
 1081              		@ frame_needed = 1, uses_anonymous_args = 0
 1082 0000 2DE99048 		push	{r4, r7, fp, lr}
 1083              		.cfi_def_cfa_offset 16
 1084              		.cfi_offset 4, -16
 1085              		.cfi_offset 7, -12
 1086              		.cfi_offset 11, -8
 1087              		.cfi_offset 14, -4
 1088 0004 90B0     		sub	sp, sp, #64
 1089              		.cfi_def_cfa_offset 80
 1090 0006 00AF     		add	r7, sp, #0
 1091              		.cfi_def_cfa_register 7
 1092 0008 F860     		str	r0, [r7, #12]
 1093 000a C7E90023 		strd	r2, [r7]
 195:rhea\rtc\datetime/datetime.c ****     
 196:rhea\rtc\datetime/datetime.c ****     // Datetime object to populate
 197:rhea\rtc\datetime/datetime.c ****     rhea_rtc_datetime datetime;
 198:rhea\rtc\datetime/datetime.c ****     
 199:rhea\rtc\datetime/datetime.c ****     // Calculating datetime parameters
 200:rhea\rtc\datetime/datetime.c ****     // Algorithm source: https://howardhinnant.github.io/date_algorithms.html#civil_from_days
 201:rhea\rtc\datetime/datetime.c ****     // This algorithm calculates the date from the number of days since epoch 1970.01.01.
 202:rhea\rtc\datetime/datetime.c ****     // Correction for hours, minutes and seconds are included.
 203:rhea\rtc\datetime/datetime.c ****     int64_t z = floor((double)seconds / RHEA_RTC_SECONDS_PER_DAY);
 1094              		.loc 1 203 0
 1095 000e D7E90001 		ldrd	r0, [r7]
 1096 0012 FFF7FEFF 		bl	__aeabi_l2d
 1097 0016 84A3     		adr	r3, .L66
 1098 0018 D3E90023 		ldrd	r2, [r3]
 1099 001c FFF7FEFF 		bl	__aeabi_ddiv
 1100 0020 0346     		mov	r3, r0
 1101 0022 0C46     		mov	r4, r1
 1102 0024 1846     		mov	r0, r3
 1103 0026 2146     		mov	r1, r4
 1104 0028 FFF7FEFF 		bl	floor
 1105 002c 0346     		mov	r3, r0
 1106 002e 0C46     		mov	r4, r1
 1107 0030 1846     		mov	r0, r3
 1108 0032 2146     		mov	r1, r4
 1109 0034 FFF7FEFF 		bl	__aeabi_d2lz
 1110 0038 0346     		mov	r3, r0
 1111 003a 0C46     		mov	r4, r1
 1112 003c C7E90E34 		strd	r3, [r7, #56]
 204:rhea\rtc\datetime/datetime.c ****     seconds = abs(seconds - (z * RHEA_RTC_SECONDS_PER_DAY));
 1113              		.loc 1 204 0
 1114 0040 BB6B     		ldr	r3, [r7, #56]
 1115 0042 7B4A     		ldr	r2, .L66+8
 1116 0044 02FB03F2 		mul	r2, r2, r3
 1117 0048 3B68     		ldr	r3, [r7]
 1118 004a 1344     		add	r3, r3, r2
 1119 004c 002B     		cmp	r3, #0
ARM GAS  C:\Users\GYULAI~1\AppData\Local\Temp\cc4j4Lh9.s 			page 25


 1120 004e B8BF     		it	lt
 1121 0050 5B42     		rsblt	r3, r3, #0
 1122 0052 4FEAE374 		asr	r4, r3, #31
 1123 0056 C7E90034 		strd	r3, [r7]
 205:rhea\rtc\datetime/datetime.c ****     datetime.hour = seconds / RHEA_RTC_SECONDS_PER_HOUR; seconds = seconds % RHEA_RTC_SECONDS_PER_H
 1124              		.loc 1 205 0
 1125 005a D7E90001 		ldrd	r0, [r7]
 1126 005e 4FF46162 		mov	r2, #3600
 1127 0062 4FF00003 		mov	r3, #0
 1128 0066 FFF7FEFF 		bl	__aeabi_ldivmod
 1129 006a 0346     		mov	r3, r0
 1130 006c 0C46     		mov	r4, r1
 1131 006e DBB2     		uxtb	r3, r3
 1132 0070 7B75     		strb	r3, [r7, #21]
 1133 0072 D7E90001 		ldrd	r0, [r7]
 1134 0076 4FF46162 		mov	r2, #3600
 1135 007a 4FF00003 		mov	r3, #0
 1136 007e FFF7FEFF 		bl	__aeabi_ldivmod
 1137 0082 1C46     		mov	r4, r3
 1138 0084 1346     		mov	r3, r2
 1139 0086 C7E90034 		strd	r3, [r7]
 206:rhea\rtc\datetime/datetime.c ****     datetime.minute = seconds / RHEA_RTC_SECONDS_PER_MINUTE; seconds = seconds % RHEA_RTC_SECONDS_P
 1140              		.loc 1 206 0
 1141 008a D7E90001 		ldrd	r0, [r7]
 1142 008e 4FF03C02 		mov	r2, #60
 1143 0092 4FF00003 		mov	r3, #0
 1144 0096 FFF7FEFF 		bl	__aeabi_ldivmod
 1145 009a 0346     		mov	r3, r0
 1146 009c 0C46     		mov	r4, r1
 1147 009e DBB2     		uxtb	r3, r3
 1148 00a0 BB75     		strb	r3, [r7, #22]
 1149 00a2 D7E90001 		ldrd	r0, [r7]
 1150 00a6 4FF03C02 		mov	r2, #60
 1151 00aa 4FF00003 		mov	r3, #0
 1152 00ae FFF7FEFF 		bl	__aeabi_ldivmod
 1153 00b2 1C46     		mov	r4, r3
 1154 00b4 1346     		mov	r3, r2
 1155 00b6 C7E90034 		strd	r3, [r7]
 207:rhea\rtc\datetime/datetime.c ****     datetime.second = seconds;
 1156              		.loc 1 207 0
 1157 00ba 3B78     		ldrb	r3, [r7]	@ zero_extendqisi2
 1158 00bc FB75     		strb	r3, [r7, #23]
 208:rhea\rtc\datetime/datetime.c ****      
 209:rhea\rtc\datetime/datetime.c ****     z += 719468;
 1159              		.loc 1 209 0
 1160 00be D7E90E34 		ldrd	r3, [r7, #56]
 1161 00c2 5C49     		ldr	r1, .L66+12
 1162 00c4 4FF00002 		mov	r2, #0
 1163 00c8 5B18     		adds	r3, r3, r1
 1164 00ca 44EB0204 		adc	r4, r4, r2
 1165 00ce C7E90E34 		strd	r3, [r7, #56]
 210:rhea\rtc\datetime/datetime.c ****     const int era = (z >= 0 ? z : z - 146096) / 146097;
 1166              		.loc 1 210 0
 1167 00d2 D7E90E34 		ldrd	r3, [r7, #56]
 1168 00d6 002B     		cmp	r3, #0
 1169 00d8 74F10003 		sbcs	r3, r4, #0
 1170 00dc 12DA     		bge	.L61
ARM GAS  C:\Users\GYULAI~1\AppData\Local\Temp\cc4j4Lh9.s 			page 26


 1171              		.loc 1 210 0 is_stmt 0 discriminator 1
 1172 00de D7E90E34 		ldrd	r3, [r7, #56]
 1173 00e2 5549     		ldr	r1, .L66+16
 1174 00e4 4FF0FF32 		mov	r2, #-1
 1175 00e8 13EB010B 		adds	fp, r3, r1
 1176 00ec 44EB020C 		adc	ip, r4, r2
 1177 00f0 5846     		mov	r0, fp
 1178 00f2 6146     		mov	r1, ip
 1179 00f4 514A     		ldr	r2, .L66+20
 1180 00f6 4FF00003 		mov	r3, #0
 1181 00fa FFF7FEFF 		bl	__aeabi_ldivmod
 1182 00fe 0346     		mov	r3, r0
 1183 0100 0C46     		mov	r4, r1
 1184 0102 08E0     		b	.L62
 1185              	.L61:
 1186              		.loc 1 210 0 discriminator 2
 1187 0104 D7E90E01 		ldrd	r0, [r7, #56]
 1188 0108 4C4A     		ldr	r2, .L66+20
 1189 010a 4FF00003 		mov	r3, #0
 1190 010e FFF7FEFF 		bl	__aeabi_ldivmod
 1191 0112 0346     		mov	r3, r0
 1192 0114 0C46     		mov	r4, r1
 1193              	.L62:
 1194              		.loc 1 210 0 discriminator 4
 1195 0116 7B63     		str	r3, [r7, #52]
 211:rhea\rtc\datetime/datetime.c ****     const unsigned doe = z - era * 146097;         // [0, 146096]
 1196              		.loc 1 211 0 is_stmt 1 discriminator 4
 1197 0118 BB6B     		ldr	r3, [r7, #56]
 1198 011a 7A6B     		ldr	r2, [r7, #52]
 1199 011c 4849     		ldr	r1, .L66+24
 1200 011e 01FB02F2 		mul	r2, r1, r2
 1201 0122 1344     		add	r3, r3, r2
 1202 0124 3B63     		str	r3, [r7, #48]
 212:rhea\rtc\datetime/datetime.c ****     const unsigned yoe = (doe - doe/1460 + doe/36524 - doe/146096) / 365;  // [0, 399]
 1203              		.loc 1 212 0 discriminator 4
 1204 0126 3B6B     		ldr	r3, [r7, #48]
 1205 0128 9B08     		lsrs	r3, r3, #2
 1206 012a 464A     		ldr	r2, .L66+28
 1207 012c A2FB0323 		umull	r2, r3, r2, r3
 1208 0130 DB09     		lsrs	r3, r3, #7
 1209 0132 3A6B     		ldr	r2, [r7, #48]
 1210 0134 D21A     		subs	r2, r2, r3
 1211 0136 3B6B     		ldr	r3, [r7, #48]
 1212 0138 9B08     		lsrs	r3, r3, #2
 1213 013a 4349     		ldr	r1, .L66+32
 1214 013c A1FB0313 		umull	r1, r3, r1, r3
 1215 0140 DB0A     		lsrs	r3, r3, #11
 1216 0142 1A44     		add	r2, r2, r3
 1217 0144 3B6B     		ldr	r3, [r7, #48]
 1218 0146 1B09     		lsrs	r3, r3, #4
 1219 0148 4049     		ldr	r1, .L66+36
 1220 014a A1FB0313 		umull	r1, r3, r1, r3
 1221 014e 1B09     		lsrs	r3, r3, #4
 1222 0150 D21A     		subs	r2, r2, r3
 1223 0152 3F4B     		ldr	r3, .L66+40
 1224 0154 A3FB0213 		umull	r1, r3, r3, r2
 1225 0158 D21A     		subs	r2, r2, r3
ARM GAS  C:\Users\GYULAI~1\AppData\Local\Temp\cc4j4Lh9.s 			page 27


 1226 015a 5208     		lsrs	r2, r2, #1
 1227 015c 1344     		add	r3, r3, r2
 1228 015e 1B0A     		lsrs	r3, r3, #8
 1229 0160 FB62     		str	r3, [r7, #44]
 213:rhea\rtc\datetime/datetime.c ****     const int y = yoe + era * 400;
 1230              		.loc 1 213 0 discriminator 4
 1231 0162 7B6B     		ldr	r3, [r7, #52]
 1232 0164 4FF4C872 		mov	r2, #400
 1233 0168 02FB03F3 		mul	r3, r2, r3
 1234 016c 1A46     		mov	r2, r3
 1235 016e FB6A     		ldr	r3, [r7, #44]
 1236 0170 1344     		add	r3, r3, r2
 1237 0172 BB62     		str	r3, [r7, #40]
 214:rhea\rtc\datetime/datetime.c ****     const unsigned doy = doe - (365*yoe + yoe/4 - yoe/100);                // [0, 365]
 1238              		.loc 1 214 0 discriminator 4
 1239 0174 FB6A     		ldr	r3, [r7, #44]
 1240 0176 374A     		ldr	r2, .L66+44
 1241 0178 A2FB0323 		umull	r2, r3, r2, r3
 1242 017c 5A09     		lsrs	r2, r3, #5
 1243 017e FB6A     		ldr	r3, [r7, #44]
 1244 0180 40F26D11 		movw	r1, #365
 1245 0184 01FB03F1 		mul	r1, r1, r3
 1246 0188 FB6A     		ldr	r3, [r7, #44]
 1247 018a 9B08     		lsrs	r3, r3, #2
 1248 018c 0B44     		add	r3, r3, r1
 1249 018e D21A     		subs	r2, r2, r3
 1250 0190 3B6B     		ldr	r3, [r7, #48]
 1251 0192 1344     		add	r3, r3, r2
 1252 0194 7B62     		str	r3, [r7, #36]
 215:rhea\rtc\datetime/datetime.c ****     const unsigned mp = (5*doy + 2)/153;                                   // [0, 11]
 1253              		.loc 1 215 0 discriminator 4
 1254 0196 7A6A     		ldr	r2, [r7, #36]
 1255 0198 1346     		mov	r3, r2
 1256 019a 9B00     		lsls	r3, r3, #2
 1257 019c 1344     		add	r3, r3, r2
 1258 019e 0233     		adds	r3, r3, #2
 1259 01a0 2D4A     		ldr	r2, .L66+48
 1260 01a2 A2FB0323 		umull	r2, r3, r2, r3
 1261 01a6 DB09     		lsrs	r3, r3, #7
 1262 01a8 3B62     		str	r3, [r7, #32]
 216:rhea\rtc\datetime/datetime.c ****     const unsigned d = doy - (153*mp+2)/5 + 1;                             // [1, 31]
 1263              		.loc 1 216 0 discriminator 4
 1264 01aa 3A6A     		ldr	r2, [r7, #32]
 1265 01ac 1346     		mov	r3, r2
 1266 01ae DB00     		lsls	r3, r3, #3
 1267 01b0 1344     		add	r3, r3, r2
 1268 01b2 1A01     		lsls	r2, r3, #4
 1269 01b4 1344     		add	r3, r3, r2
 1270 01b6 0233     		adds	r3, r3, #2
 1271 01b8 284A     		ldr	r2, .L66+52
 1272 01ba A2FB0323 		umull	r2, r3, r2, r3
 1273 01be 9B08     		lsrs	r3, r3, #2
 1274 01c0 7A6A     		ldr	r2, [r7, #36]
 1275 01c2 D31A     		subs	r3, r2, r3
 1276 01c4 0133     		adds	r3, r3, #1
 1277 01c6 FB61     		str	r3, [r7, #28]
 217:rhea\rtc\datetime/datetime.c ****     const unsigned m = mp + (mp < 10 ? 3 : -9);                            // [1, 12]
ARM GAS  C:\Users\GYULAI~1\AppData\Local\Temp\cc4j4Lh9.s 			page 28


 1278              		.loc 1 217 0 discriminator 4
 1279 01c8 3B6A     		ldr	r3, [r7, #32]
 1280 01ca 092B     		cmp	r3, #9
 1281 01cc 01D8     		bhi	.L63
 1282              		.loc 1 217 0 is_stmt 0 discriminator 1
 1283 01ce 0322     		movs	r2, #3
 1284 01d0 01E0     		b	.L64
 1285              	.L63:
 1286              		.loc 1 217 0 discriminator 2
 1287 01d2 6FF00802 		mvn	r2, #8
 1288              	.L64:
 1289              		.loc 1 217 0 discriminator 4
 1290 01d6 3B6A     		ldr	r3, [r7, #32]
 1291 01d8 1344     		add	r3, r3, r2
 1292 01da BB61     		str	r3, [r7, #24]
 218:rhea\rtc\datetime/datetime.c ****     datetime.year = y + (m <= 2);
 1293              		.loc 1 218 0 is_stmt 1 discriminator 4
 1294 01dc BB69     		ldr	r3, [r7, #24]
 1295 01de 022B     		cmp	r3, #2
 1296 01e0 94BF     		ite	ls
 1297 01e2 0123     		movls	r3, #1
 1298 01e4 0023     		movhi	r3, #0
 1299 01e6 DBB2     		uxtb	r3, r3
 1300 01e8 9AB2     		uxth	r2, r3
 1301 01ea BB6A     		ldr	r3, [r7, #40]
 1302 01ec 9BB2     		uxth	r3, r3
 1303 01ee 1344     		add	r3, r3, r2
 1304 01f0 9BB2     		uxth	r3, r3
 1305 01f2 3B82     		strh	r3, [r7, #16]	@ movhi
 219:rhea\rtc\datetime/datetime.c ****     datetime.month = m;
 1306              		.loc 1 219 0 discriminator 4
 1307 01f4 BB69     		ldr	r3, [r7, #24]
 1308 01f6 DBB2     		uxtb	r3, r3
 1309 01f8 BB74     		strb	r3, [r7, #18]
 220:rhea\rtc\datetime/datetime.c ****     datetime.date = d;
 1310              		.loc 1 220 0 discriminator 4
 1311 01fa FB69     		ldr	r3, [r7, #28]
 1312 01fc DBB2     		uxtb	r3, r3
 1313 01fe FB74     		strb	r3, [r7, #19]
 221:rhea\rtc\datetime/datetime.c ****     
 222:rhea\rtc\datetime/datetime.c ****     // Setting weekday field
 223:rhea\rtc\datetime/datetime.c ****     rhea_rtc_setWeekday(&datetime);
 1314              		.loc 1 223 0 discriminator 4
 1315 0200 07F11003 		add	r3, r7, #16
 1316 0204 1846     		mov	r0, r3
 1317 0206 FFF7FEFF 		bl	rhea_rtc_setWeekday
 224:rhea\rtc\datetime/datetime.c ****     
 225:rhea\rtc\datetime/datetime.c ****     // Returning datetime
 226:rhea\rtc\datetime/datetime.c ****     return datetime;
 1318              		.loc 1 226 0 discriminator 4
 1319 020a FB68     		ldr	r3, [r7, #12]
 1320 020c 1A46     		mov	r2, r3
 1321 020e 07F11003 		add	r3, r7, #16
 1322 0212 03CB     		ldmia	r3!, {r0, r1}
 1323 0214 1060     		str	r0, [r2]	@ unaligned
 1324 0216 5160     		str	r1, [r2, #4]	@ unaligned
 227:rhea\rtc\datetime/datetime.c **** }
ARM GAS  C:\Users\GYULAI~1\AppData\Local\Temp\cc4j4Lh9.s 			page 29


 1325              		.loc 1 227 0 discriminator 4
 1326 0218 F868     		ldr	r0, [r7, #12]
 1327 021a 4037     		adds	r7, r7, #64
 1328              		.cfi_def_cfa_offset 16
 1329 021c BD46     		mov	sp, r7
 1330              		.cfi_def_cfa_register 13
 1331              		@ sp needed
 1332 021e BDE89088 		pop	{r4, r7, fp, pc}
 1333              	.L67:
 1334 0222 00BFAFF3 		.align	3
 1334      0080
 1335              	.L66:
 1336 0228 00000000 		.word	0
 1337 022c 0018F540 		.word	1089804288
 1338 0230 80AEFEFF 		.word	-86400
 1339 0234 6CFA0A00 		.word	719468
 1340 0238 50C5FDFF 		.word	-146096
 1341 023c B13A0200 		.word	146097
 1342 0240 4FC5FDFF 		.word	-146097
 1343 0244 D97CC659 		.word	1506180313
 1344 0248 7F206B39 		.word	963321983
 1345 024c 41D67200 		.word	7525953
 1346 0250 61F31967 		.word	1729753953
 1347 0254 1F85EB51 		.word	1374389535
 1348 0258 D7802BD6 		.word	-701792041
 1349 025c CDCCCCCC 		.word	-858993459
 1350              		.cfi_endproc
 1351              	.LFE3:
 1352              		.size	rhea_rtc_fromSeconds, .-rhea_rtc_fromSeconds
 1353              		.section	.rodata
 1354 01f7 00       		.align	2
 1355              	.LC41:
 1356 01f8 25752E25 		.ascii	"%u.%u.%u %u:%u:%u\000"
 1356      752E2575 
 1356      2025753A 
 1356      25753A25 
 1356      7500
 1357 020a 0000     		.align	2
 1358              	.LC42:
 1359 020c 25752F25 		.ascii	"%u/%u/%u %u:%u:%u\000"
 1359      752F2575 
 1359      2025753A 
 1359      25753A25 
 1359      7500
 1360              		.section	.text.rhea_rtc_fromString,"ax",%progbits
 1361              		.align	2
 1362              		.global	rhea_rtc_fromString
 1363              		.thumb
 1364              		.thumb_func
 1365              		.type	rhea_rtc_fromString, %function
 1366              	rhea_rtc_fromString:
 1367              	.LFB4:
 228:rhea\rtc\datetime/datetime.c **** 
 229:rhea\rtc\datetime/datetime.c **** rhea_rtc_datetime rhea_rtc_fromString(const char *str) {
 1368              		.loc 1 229 0
 1369              		.cfi_startproc
 1370              		@ args = 0, pretend = 0, frame = 16
ARM GAS  C:\Users\GYULAI~1\AppData\Local\Temp\cc4j4Lh9.s 			page 30


 1371              		@ frame_needed = 1, uses_anonymous_args = 0
 1372 0000 80B5     		push	{r7, lr}
 1373              		.cfi_def_cfa_offset 8
 1374              		.cfi_offset 7, -8
 1375              		.cfi_offset 14, -4
 1376 0002 88B0     		sub	sp, sp, #32
 1377              		.cfi_def_cfa_offset 40
 1378 0004 04AF     		add	r7, sp, #16
 1379              		.cfi_def_cfa 7, 24
 1380 0006 7860     		str	r0, [r7, #4]
 1381 0008 3960     		str	r1, [r7]
 230:rhea\rtc\datetime/datetime.c ****     
 231:rhea\rtc\datetime/datetime.c ****     // Creating datetime to store the results
 232:rhea\rtc\datetime/datetime.c ****     rhea_rtc_datetime d;
 233:rhea\rtc\datetime/datetime.c ****     
 234:rhea\rtc\datetime/datetime.c ****     // Parsing string input
 235:rhea\rtc\datetime/datetime.c ****     if (sscanf(str,"%u.%u.%u %u:%u:%u", // YYYY.MM.DD hh:mm:ss
 1382              		.loc 1 235 0
 1383 000a 07F10803 		add	r3, r7, #8
 1384 000e 991C     		adds	r1, r3, #2
 1385 0010 07F10802 		add	r2, r7, #8
 1386 0014 07F10803 		add	r3, r7, #8
 1387 0018 0733     		adds	r3, r3, #7
 1388 001a 0393     		str	r3, [sp, #12]
 1389 001c 07F10803 		add	r3, r7, #8
 1390 0020 0633     		adds	r3, r3, #6
 1391 0022 0293     		str	r3, [sp, #8]
 1392 0024 07F10803 		add	r3, r7, #8
 1393 0028 0533     		adds	r3, r3, #5
 1394 002a 0193     		str	r3, [sp, #4]
 1395 002c 07F10803 		add	r3, r7, #8
 1396 0030 0333     		adds	r3, r3, #3
 1397 0032 0093     		str	r3, [sp]
 1398 0034 0B46     		mov	r3, r1
 1399 0036 1A49     		ldr	r1, .L72
 1400 0038 3868     		ldr	r0, [r7]
 1401 003a FFF7FEFF 		bl	sscanf
 1402 003e 0346     		mov	r3, r0
 1403 0040 062B     		cmp	r3, #6
 1404 0042 1CD0     		beq	.L69
 236:rhea\rtc\datetime/datetime.c ****         (unsigned*)&(d.year), (unsigned*)&(d.month),  (unsigned*)&(d.date), 
 237:rhea\rtc\datetime/datetime.c ****         (unsigned*)&(d.hour), (unsigned*)&(d.minute), (unsigned*)&(d.second)) == 6 ||
 238:rhea\rtc\datetime/datetime.c ****         sscanf(str,"%u/%u/%u %u:%u:%u", // YYYY/MM/DD hh:mm:ss
 1405              		.loc 1 238 0
 1406 0044 07F10803 		add	r3, r7, #8
 1407 0048 991C     		adds	r1, r3, #2
 1408 004a 07F10802 		add	r2, r7, #8
 1409 004e 07F10803 		add	r3, r7, #8
 1410 0052 0733     		adds	r3, r3, #7
 1411 0054 0393     		str	r3, [sp, #12]
 1412 0056 07F10803 		add	r3, r7, #8
 1413 005a 0633     		adds	r3, r3, #6
 1414 005c 0293     		str	r3, [sp, #8]
 1415 005e 07F10803 		add	r3, r7, #8
 1416 0062 0533     		adds	r3, r3, #5
 1417 0064 0193     		str	r3, [sp, #4]
 1418 0066 07F10803 		add	r3, r7, #8
ARM GAS  C:\Users\GYULAI~1\AppData\Local\Temp\cc4j4Lh9.s 			page 31


 1419 006a 0333     		adds	r3, r3, #3
 1420 006c 0093     		str	r3, [sp]
 1421 006e 0B46     		mov	r3, r1
 1422 0070 0C49     		ldr	r1, .L72+4
 1423 0072 3868     		ldr	r0, [r7]
 1424 0074 FFF7FEFF 		bl	sscanf
 1425 0078 0346     		mov	r3, r0
 237:rhea\rtc\datetime/datetime.c ****         sscanf(str,"%u/%u/%u %u:%u:%u", // YYYY/MM/DD hh:mm:ss
 1426              		.loc 1 237 0
 1427 007a 062B     		cmp	r3, #6
 1428 007c 04D1     		bne	.L70
 1429              	.L69:
 239:rhea\rtc\datetime/datetime.c ****         (unsigned*)&(d.year), (unsigned*)&(d.month),  (unsigned*)&(d.date), 
 240:rhea\rtc\datetime/datetime.c ****         (unsigned*)&(d.hour), (unsigned*)&(d.minute), (unsigned*)&(d.second)) == 6) 
 241:rhea\rtc\datetime/datetime.c ****     {
 242:rhea\rtc\datetime/datetime.c ****         // Calculating weekday
 243:rhea\rtc\datetime/datetime.c ****         rhea_rtc_setWeekday(&d);
 1430              		.loc 1 243 0
 1431 007e 07F10803 		add	r3, r7, #8
 1432 0082 1846     		mov	r0, r3
 1433 0084 FFF7FEFF 		bl	rhea_rtc_setWeekday
 1434              	.L70:
 244:rhea\rtc\datetime/datetime.c ****     }
 245:rhea\rtc\datetime/datetime.c ****     
 246:rhea\rtc\datetime/datetime.c ****     return d;
 1435              		.loc 1 246 0
 1436 0088 7B68     		ldr	r3, [r7, #4]
 1437 008a 1A46     		mov	r2, r3
 1438 008c 07F10803 		add	r3, r7, #8
 1439 0090 03CB     		ldmia	r3!, {r0, r1}
 1440 0092 1060     		str	r0, [r2]	@ unaligned
 1441 0094 5160     		str	r1, [r2, #4]	@ unaligned
 247:rhea\rtc\datetime/datetime.c **** }
 1442              		.loc 1 247 0
 1443 0096 7868     		ldr	r0, [r7, #4]
 1444 0098 1037     		adds	r7, r7, #16
 1445              		.cfi_def_cfa_offset 8
 1446 009a BD46     		mov	sp, r7
 1447              		.cfi_def_cfa_register 13
 1448              		@ sp needed
 1449 009c 80BD     		pop	{r7, pc}
 1450              	.L73:
 1451 009e 00BF     		.align	2
 1452              	.L72:
 1453 00a0 F8010000 		.word	.LC41
 1454 00a4 0C020000 		.word	.LC42
 1455              		.cfi_endproc
 1456              	.LFE4:
 1457              		.size	rhea_rtc_fromString, .-rhea_rtc_fromString
 1458              		.section	.rodata
 1459 021e 0000     		.align	2
 1460              	.LC0:
 1461 0220 FF       		.byte	-1
 1462 0221 00       		.byte	0
 1463 0222 03       		.byte	3
 1464 0223 03       		.byte	3
 1465 0224 06       		.byte	6
ARM GAS  C:\Users\GYULAI~1\AppData\Local\Temp\cc4j4Lh9.s 			page 32


 1466 0225 01       		.byte	1
 1467 0226 04       		.byte	4
 1468 0227 06       		.byte	6
 1469 0228 02       		.byte	2
 1470 0229 05       		.byte	5
 1471 022a 00       		.byte	0
 1472 022b 03       		.byte	3
 1473 022c 05       		.byte	5
 1474              		.section	.text.rhea_rtc_setWeekday,"ax",%progbits
 1475              		.align	2
 1476              		.global	rhea_rtc_setWeekday
 1477              		.thumb
 1478              		.thumb_func
 1479              		.type	rhea_rtc_setWeekday, %function
 1480              	rhea_rtc_setWeekday:
 1481              	.LFB5:
 248:rhea\rtc\datetime/datetime.c **** 
 249:rhea\rtc\datetime/datetime.c **** void rhea_rtc_setWeekday(rhea_rtc_datetime *d) {
 1482              		.loc 1 249 0
 1483              		.cfi_startproc
 1484              		@ args = 0, pretend = 0, frame = 32
 1485              		@ frame_needed = 1, uses_anonymous_args = 0
 1486              		@ link register save eliminated.
 1487 0000 90B4     		push	{r4, r7}
 1488              		.cfi_def_cfa_offset 8
 1489              		.cfi_offset 4, -8
 1490              		.cfi_offset 7, -4
 1491 0002 88B0     		sub	sp, sp, #32
 1492              		.cfi_def_cfa_offset 40
 1493 0004 00AF     		add	r7, sp, #0
 1494              		.cfi_def_cfa_register 7
 1495 0006 7860     		str	r0, [r7, #4]
 250:rhea\rtc\datetime/datetime.c **** 
 251:rhea\rtc\datetime/datetime.c ****     // This weekday calculation algorithm is only correct between [1900; 2099],
 252:rhea\rtc\datetime/datetime.c **** 
 253:rhea\rtc\datetime/datetime.c ****     // Monthcode corrections: First entry is invalid (January corresponds to monthCodes[1])
 254:rhea\rtc\datetime/datetime.c ****     int8_t monthCodes[] = {-1, 0, 3, 3, 6, 1, 4, 6, 2, 5, 0, 3, 5};
 1496              		.loc 1 254 0
 1497 0008 384A     		ldr	r2, .L80
 1498 000a 07F10C03 		add	r3, r7, #12
 1499 000e 1446     		mov	r4, r2
 1500 0010 2068     		ldr	r0, [r4]	@ unaligned
 1501 0012 6168     		ldr	r1, [r4, #4]	@ unaligned
 1502 0014 A268     		ldr	r2, [r4, #8]	@ unaligned
 1503 0016 07C3     		stmia	r3!, {r0, r1, r2}
 1504 0018 227B     		ldrb	r2, [r4, #12]
 1505 001a 1A70     		strb	r2, [r3]
 255:rhea\rtc\datetime/datetime.c **** 
 256:rhea\rtc\datetime/datetime.c ****     // Calculating correction codes
 257:rhea\rtc\datetime/datetime.c ****     uint8_t yearCode = ((d->year % 100) + ((d->year % 100) / 4)) % 7;
 1506              		.loc 1 257 0
 1507 001c 7B68     		ldr	r3, [r7, #4]
 1508 001e 1B88     		ldrh	r3, [r3]
 1509 0020 334A     		ldr	r2, .L80+4
 1510 0022 A2FB0312 		umull	r1, r2, r2, r3
 1511 0026 5209     		lsrs	r2, r2, #5
 1512 0028 6421     		movs	r1, #100
ARM GAS  C:\Users\GYULAI~1\AppData\Local\Temp\cc4j4Lh9.s 			page 33


 1513 002a 01FB02F2 		mul	r2, r1, r2
 1514 002e 9B1A     		subs	r3, r3, r2
 1515 0030 9BB2     		uxth	r3, r3
 1516 0032 1846     		mov	r0, r3
 1517 0034 7B68     		ldr	r3, [r7, #4]
 1518 0036 1B88     		ldrh	r3, [r3]
 1519 0038 2D4A     		ldr	r2, .L80+4
 1520 003a A2FB0312 		umull	r1, r2, r2, r3
 1521 003e 5209     		lsrs	r2, r2, #5
 1522 0040 6421     		movs	r1, #100
 1523 0042 01FB02F2 		mul	r2, r1, r2
 1524 0046 9B1A     		subs	r3, r3, r2
 1525 0048 9BB2     		uxth	r3, r3
 1526 004a 9B08     		lsrs	r3, r3, #2
 1527 004c 9BB2     		uxth	r3, r3
 1528 004e C218     		adds	r2, r0, r3
 1529 0050 284B     		ldr	r3, .L80+8
 1530 0052 82FB0334 		smull	r3, r4, r2, r3
 1531 0056 1319     		adds	r3, r2, r4
 1532 0058 9910     		asrs	r1, r3, #2
 1533 005a D317     		asrs	r3, r2, #31
 1534 005c C91A     		subs	r1, r1, r3
 1535 005e 0B46     		mov	r3, r1
 1536 0060 DB00     		lsls	r3, r3, #3
 1537 0062 5B1A     		subs	r3, r3, r1
 1538 0064 D11A     		subs	r1, r2, r3
 1539 0066 0B46     		mov	r3, r1
 1540 0068 FB77     		strb	r3, [r7, #31]
 258:rhea\rtc\datetime/datetime.c ****     uint8_t monthCode = monthCodes[d->month];
 1541              		.loc 1 258 0
 1542 006a 7B68     		ldr	r3, [r7, #4]
 1543 006c 9B78     		ldrb	r3, [r3, #2]	@ zero_extendqisi2
 1544 006e 07F12002 		add	r2, r7, #32
 1545 0072 1344     		add	r3, r3, r2
 1546 0074 13F9143C 		ldrsb	r3, [r3, #-20]
 1547 0078 BB77     		strb	r3, [r7, #30]
 259:rhea\rtc\datetime/datetime.c ****     uint8_t centuryCode = d->year < 2000 ? 0 : 6;
 1548              		.loc 1 259 0
 1549 007a 7B68     		ldr	r3, [r7, #4]
 1550 007c 1B88     		ldrh	r3, [r3]
 1551 007e B3F5FA6F 		cmp	r3, #2000
 1552 0082 01D2     		bcs	.L75
 1553              		.loc 1 259 0 is_stmt 0 discriminator 1
 1554 0084 0023     		movs	r3, #0
 1555 0086 00E0     		b	.L76
 1556              	.L75:
 1557              		.loc 1 259 0 discriminator 2
 1558 0088 0623     		movs	r3, #6
 1559              	.L76:
 1560              		.loc 1 259 0 discriminator 4
 1561 008a 7B77     		strb	r3, [r7, #29]
 260:rhea\rtc\datetime/datetime.c ****     uint8_t leapyearCode = ((d->year) / 4 == 0 && (d->month == 1 || d->month == 2)) ? 1 : 0;
 1562              		.loc 1 260 0 is_stmt 1 discriminator 4
 1563 008c 7B68     		ldr	r3, [r7, #4]
 1564 008e 1B88     		ldrh	r3, [r3]
 1565 0090 032B     		cmp	r3, #3
 1566 0092 09D8     		bhi	.L77
ARM GAS  C:\Users\GYULAI~1\AppData\Local\Temp\cc4j4Lh9.s 			page 34


 1567              		.loc 1 260 0 is_stmt 0 discriminator 1
 1568 0094 7B68     		ldr	r3, [r7, #4]
 1569 0096 9B78     		ldrb	r3, [r3, #2]	@ zero_extendqisi2
 1570 0098 012B     		cmp	r3, #1
 1571 009a 03D0     		beq	.L78
 1572              		.loc 1 260 0 discriminator 4
 1573 009c 7B68     		ldr	r3, [r7, #4]
 1574 009e 9B78     		ldrb	r3, [r3, #2]	@ zero_extendqisi2
 1575 00a0 022B     		cmp	r3, #2
 1576 00a2 01D1     		bne	.L77
 1577              	.L78:
 1578              		.loc 1 260 0 discriminator 5
 1579 00a4 0123     		movs	r3, #1
 1580 00a6 00E0     		b	.L79
 1581              	.L77:
 1582              		.loc 1 260 0 discriminator 6
 1583 00a8 0023     		movs	r3, #0
 1584              	.L79:
 1585              		.loc 1 260 0 discriminator 8
 1586 00aa 3B77     		strb	r3, [r7, #28]
 261:rhea\rtc\datetime/datetime.c **** 
 262:rhea\rtc\datetime/datetime.c ****     // Setting weekday (Correction result in Sunday being 0, one is added for MCP7940N's driver con
 263:rhea\rtc\datetime/datetime.c ****     d->weekday = ((yearCode + monthCode + centuryCode + d->date - leapyearCode) % 7) + 1;
 1587              		.loc 1 263 0 is_stmt 1 discriminator 8
 1588 00ac FA7F     		ldrb	r2, [r7, #31]	@ zero_extendqisi2
 1589 00ae BB7F     		ldrb	r3, [r7, #30]	@ zero_extendqisi2
 1590 00b0 1A44     		add	r2, r2, r3
 1591 00b2 7B7F     		ldrb	r3, [r7, #29]	@ zero_extendqisi2
 1592 00b4 1344     		add	r3, r3, r2
 1593 00b6 7A68     		ldr	r2, [r7, #4]
 1594 00b8 D278     		ldrb	r2, [r2, #3]	@ zero_extendqisi2
 1595 00ba 1A44     		add	r2, r2, r3
 1596 00bc 3B7F     		ldrb	r3, [r7, #28]	@ zero_extendqisi2
 1597 00be D21A     		subs	r2, r2, r3
 1598 00c0 0C4B     		ldr	r3, .L80+8
 1599 00c2 82FB0334 		smull	r3, r4, r2, r3
 1600 00c6 1319     		adds	r3, r2, r4
 1601 00c8 9910     		asrs	r1, r3, #2
 1602 00ca D317     		asrs	r3, r2, #31
 1603 00cc C91A     		subs	r1, r1, r3
 1604 00ce 0B46     		mov	r3, r1
 1605 00d0 DB00     		lsls	r3, r3, #3
 1606 00d2 5B1A     		subs	r3, r3, r1
 1607 00d4 D11A     		subs	r1, r2, r3
 1608 00d6 CBB2     		uxtb	r3, r1
 1609 00d8 0133     		adds	r3, r3, #1
 1610 00da DAB2     		uxtb	r2, r3
 1611 00dc 7B68     		ldr	r3, [r7, #4]
 1612 00de 1A71     		strb	r2, [r3, #4]
 264:rhea\rtc\datetime/datetime.c **** }
 1613              		.loc 1 264 0 discriminator 8
 1614 00e0 00BF     		nop
 1615 00e2 2037     		adds	r7, r7, #32
 1616              		.cfi_def_cfa_offset 8
 1617 00e4 BD46     		mov	sp, r7
 1618              		.cfi_def_cfa_register 13
 1619              		@ sp needed
ARM GAS  C:\Users\GYULAI~1\AppData\Local\Temp\cc4j4Lh9.s 			page 35


 1620 00e6 90BC     		pop	{r4, r7}
 1621              		.cfi_restore 7
 1622              		.cfi_restore 4
 1623              		.cfi_def_cfa_offset 0
 1624 00e8 7047     		bx	lr
 1625              	.L81:
 1626 00ea 00BF     		.align	2
 1627              	.L80:
 1628 00ec 20020000 		.word	.LC0
 1629 00f0 1F85EB51 		.word	1374389535
 1630 00f4 93244992 		.word	-1840700269
 1631              		.cfi_endproc
 1632              	.LFE5:
 1633              		.size	rhea_rtc_setWeekday, .-rhea_rtc_setWeekday
 1634              		.section	.text.rhea_rtc_compareDatetime,"ax",%progbits
 1635              		.align	2
 1636              		.global	rhea_rtc_compareDatetime
 1637              		.thumb
 1638              		.thumb_func
 1639              		.type	rhea_rtc_compareDatetime, %function
 1640              	rhea_rtc_compareDatetime:
 1641              	.LFB6:
 265:rhea\rtc\datetime/datetime.c **** 
 266:rhea\rtc\datetime/datetime.c **** int64_t rhea_rtc_compareDatetime(const rhea_rtc_datetime lhs, const rhea_rtc_datetime rhs) {
 1642              		.loc 1 266 0
 1643              		.cfi_startproc
 1644              		@ args = 0, pretend = 0, frame = 16
 1645              		@ frame_needed = 1, uses_anonymous_args = 0
 1646 0000 F0B5     		push	{r4, r5, r6, r7, lr}
 1647              		.cfi_def_cfa_offset 20
 1648              		.cfi_offset 4, -20
 1649              		.cfi_offset 5, -16
 1650              		.cfi_offset 6, -12
 1651              		.cfi_offset 7, -8
 1652              		.cfi_offset 14, -4
 1653 0002 85B0     		sub	sp, sp, #20
 1654              		.cfi_def_cfa_offset 40
 1655 0004 00AF     		add	r7, sp, #0
 1656              		.cfi_def_cfa_register 7
 1657 0006 07F10804 		add	r4, r7, #8
 1658 000a 84E80300 		stmia	r4, {r0, r1}
 1659 000e 3946     		mov	r1, r7
 1660 0010 81E80C00 		stmia	r1, {r2, r3}
 267:rhea\rtc\datetime/datetime.c ****     return rhea_rtc_toSeconds(rhs) - rhea_rtc_toSeconds(lhs);
 1661              		.loc 1 267 0
 1662 0014 3B46     		mov	r3, r7
 1663 0016 93E80300 		ldmia	r3, {r0, r1}
 1664 001a FFF7FEFF 		bl	rhea_rtc_toSeconds
 1665 001e 0546     		mov	r5, r0
 1666 0020 0E46     		mov	r6, r1
 1667 0022 07F10803 		add	r3, r7, #8
 1668 0026 93E80300 		ldmia	r3, {r0, r1}
 1669 002a FFF7FEFF 		bl	rhea_rtc_toSeconds
 1670 002e 0346     		mov	r3, r0
 1671 0030 0C46     		mov	r4, r1
 1672 0032 EB1A     		subs	r3, r5, r3
 1673 0034 66EB0404 		sbc	r4, r6, r4
ARM GAS  C:\Users\GYULAI~1\AppData\Local\Temp\cc4j4Lh9.s 			page 36


 268:rhea\rtc\datetime/datetime.c **** }
 1674              		.loc 1 268 0
 1675 0038 1846     		mov	r0, r3
 1676 003a 2146     		mov	r1, r4
 1677 003c 1437     		adds	r7, r7, #20
 1678              		.cfi_def_cfa_offset 20
 1679 003e BD46     		mov	sp, r7
 1680              		.cfi_def_cfa_register 13
 1681              		@ sp needed
 1682 0040 F0BD     		pop	{r4, r5, r6, r7, pc}
 1683              		.cfi_endproc
 1684              	.LFE6:
 1685              		.size	rhea_rtc_compareDatetime, .-rhea_rtc_compareDatetime
 1686 0042 00BF     		.section	.text.rhea_rtc_addDatetime,"ax",%progbits
 1687              		.align	2
 1688              		.global	rhea_rtc_addDatetime
 1689              		.thumb
 1690              		.thumb_func
 1691              		.type	rhea_rtc_addDatetime, %function
 1692              	rhea_rtc_addDatetime:
 1693              	.LFB7:
 269:rhea\rtc\datetime/datetime.c **** 
 270:rhea\rtc\datetime/datetime.c **** rhea_rtc_datetime rhea_rtc_addDatetime(const rhea_rtc_datetime lhs, const rhea_rtc_datetime rhs) {
 1694              		.loc 1 270 0
 1695              		.cfi_startproc
 1696              		@ args = 12, pretend = 8, frame = 32
 1697              		@ frame_needed = 1, uses_anonymous_args = 0
 1698 0000 82B0     		sub	sp, sp, #8
 1699              		.cfi_def_cfa_offset 8
 1700 0002 90B5     		push	{r4, r7, lr}
 1701              		.cfi_def_cfa_offset 20
 1702              		.cfi_offset 4, -20
 1703              		.cfi_offset 7, -16
 1704              		.cfi_offset 14, -12
 1705 0004 89B0     		sub	sp, sp, #36
 1706              		.cfi_def_cfa_offset 56
 1707 0006 00AF     		add	r7, sp, #0
 1708              		.cfi_def_cfa_register 7
 1709 0008 F860     		str	r0, [r7, #12]
 1710 000a 381D     		adds	r0, r7, #4
 1711 000c 80E80600 		stmia	r0, {r1, r2}
 1712 0010 7B63     		str	r3, [r7, #52]
 271:rhea\rtc\datetime/datetime.c ****     uint64_t lhsSeconds = rhea_rtc_toSeconds(lhs);
 1713              		.loc 1 271 0
 1714 0012 3B1D     		adds	r3, r7, #4
 1715 0014 93E80300 		ldmia	r3, {r0, r1}
 1716 0018 FFF7FEFF 		bl	rhea_rtc_toSeconds
 1717 001c 0346     		mov	r3, r0
 1718 001e 0C46     		mov	r4, r1
 1719 0020 C7E90634 		strd	r3, [r7, #24]
 272:rhea\rtc\datetime/datetime.c ****     uint64_t rhsSeconds = rhea_rtc_toSeconds(rhs);
 1720              		.loc 1 272 0
 1721 0024 07F13403 		add	r3, r7, #52
 1722 0028 93E80300 		ldmia	r3, {r0, r1}
 1723 002c FFF7FEFF 		bl	rhea_rtc_toSeconds
 1724 0030 0346     		mov	r3, r0
 1725 0032 0C46     		mov	r4, r1
ARM GAS  C:\Users\GYULAI~1\AppData\Local\Temp\cc4j4Lh9.s 			page 37


 1726 0034 C7E90434 		strd	r3, [r7, #16]
 273:rhea\rtc\datetime/datetime.c ****     return rhea_rtc_fromSeconds(lhsSeconds + rhsSeconds);
 1727              		.loc 1 273 0
 1728 0038 D7E90612 		ldrd	r1, [r7, #24]
 1729 003c D7E90434 		ldrd	r3, [r7, #16]
 1730 0040 5B18     		adds	r3, r3, r1
 1731 0042 44EB0204 		adc	r4, r4, r2
 1732 0046 F968     		ldr	r1, [r7, #12]
 1733 0048 1A46     		mov	r2, r3
 1734 004a 2346     		mov	r3, r4
 1735 004c 0846     		mov	r0, r1
 1736 004e FFF7FEFF 		bl	rhea_rtc_fromSeconds
 274:rhea\rtc\datetime/datetime.c **** }
 1737              		.loc 1 274 0
 1738 0052 F868     		ldr	r0, [r7, #12]
 1739 0054 2437     		adds	r7, r7, #36
 1740              		.cfi_def_cfa_offset 20
 1741 0056 BD46     		mov	sp, r7
 1742              		.cfi_def_cfa_register 13
 1743              		@ sp needed
 1744 0058 BDE89040 		pop	{r4, r7, lr}
 1745              		.cfi_restore 14
 1746              		.cfi_restore 7
 1747              		.cfi_restore 4
 1748              		.cfi_def_cfa_offset 8
 1749 005c 02B0     		add	sp, sp, #8
 1750              		.cfi_def_cfa_offset 0
 1751 005e 7047     		bx	lr
 1752              		.cfi_endproc
 1753              	.LFE7:
 1754              		.size	rhea_rtc_addDatetime, .-rhea_rtc_addDatetime
 1755              		.text
 1756              	.Letext0:
 1757              		.file 2 "e:\\cypress\\psoc creator\\4.2\\psoc creator\\import\\gnu\\arm\\5.4.1\\arm-none-eabi\\inc
 1758              		.file 3 "e:\\cypress\\psoc creator\\4.2\\psoc creator\\import\\gnu\\arm\\5.4.1\\arm-none-eabi\\inc
 1759              		.file 4 "rhea\\rtc\\datetime\\datetime.h"