ARM GAS  C:\Users\GYULAI~1\AppData\Local\Temp\cc4j4Lh9.s 			page 1


   1              		.syntax unified
   2              		.cpu cortex-m3
   3              		.fpu softvfp
   4              		.eabi_attribute 20, 1
   5              		.eabi_attribute 21, 1
   6              		.eabi_attribute 23, 3
   7              		.eabi_attribute 24, 1
   8              		.eabi_attribute 25, 1
   9              		.eabi_attribute 26, 1
  10              		.eabi_attribute 30, 6
  11              		.eabi_attribute 34, 1
  12              		.eabi_attribute 18, 4
  13              		.thumb
  14              		.syntax unified
  15              		.file	"datetime.c"
  16              		.text
  17              	.Ltext0:
  18              		.cfi_sections	.debug_frame
  19              		.section	.rodata
  20              		.align	2
  21              		.type	rhea_rtc_datetimeFormatGeneral, %object
  22              		.size	rhea_rtc_datetimeFormatGeneral, 20
  23              	rhea_rtc_datetimeFormatGeneral:
  24 0000 59595959 		.ascii	"YYYY/MM/dd hh:mm:ss\000"
  24      2F4D4D2F 
  24      64642068 
  24      683A6D6D 
  24      3A737300 
  25              		.align	2
  26              		.type	rhea_rtc_datetimeFormatGeneralUS, %object
  27              		.size	rhea_rtc_datetimeFormatGeneralUS, 22
  28              	rhea_rtc_datetimeFormatGeneralUS:
  29 0014 64642F4D 		.ascii	"dd/MM/YYYY hh:mm:ss t\000"
  29      4D2F5959 
  29      59592068 
  29      683A6D6D 
  29      3A737320 
  30 002a 0000     		.align	2
  31              		.type	rhea_rtc_datetimeFormatFull, %object
  32              		.size	rhea_rtc_datetimeFormatFull, 22
  33              	rhea_rtc_datetimeFormatFull:
  34 002c 772C204D 		.ascii	"w, MMMM d, YYYY h:m:s\000"
  34      4D4D4D20 
  34      642C2059 
  34      59595920 
  34      683A6D3A 
  35 0042 0000     		.align	2
  36              	.LC1:
  37 0044 4E4F4E45 		.ascii	"NONE\000"
  37      00
  38 0049 000000   		.align	2
  39              	.LC2:
  40 004c 53756E64 		.ascii	"Sunday\000"
  40      617900
  41 0053 00       		.align	2
  42              	.LC3:
  43 0054 4D6F6E64 		.ascii	"Monday\000"
ARM GAS  C:\Users\GYULAI~1\AppData\Local\Temp\cc4j4Lh9.s 			page 2


  43      617900
  44 005b 00       		.align	2
  45              	.LC4:
  46 005c 54756573 		.ascii	"Tuesday\000"
  46      64617900 
  47              		.align	2
  48              	.LC5:
  49 0064 5765646E 		.ascii	"Wednesday\000"
  49      65736461 
  49      7900
  50 006e 0000     		.align	2
  51              	.LC6:
  52 0070 54687572 		.ascii	"Thursday\000"
  52      73646179 
  52      00
  53 0079 000000   		.align	2
  54              	.LC7:
  55 007c 46726964 		.ascii	"Friday\000"
  55      617900
  56 0083 00       		.align	2
  57              	.LC8:
  58 0084 53617475 		.ascii	"Saturday\000"
  58      72646179 
  58      00
  59 008d 000000   		.align	2
  60              		.type	rhea_rtc_weekdayNamesLong, %object
  61              		.size	rhea_rtc_weekdayNamesLong, 32
  62              	rhea_rtc_weekdayNamesLong:
  63 0090 44000000 		.word	.LC1
  64 0094 4C000000 		.word	.LC2
  65 0098 54000000 		.word	.LC3
  66 009c 5C000000 		.word	.LC4
  67 00a0 64000000 		.word	.LC5
  68 00a4 70000000 		.word	.LC6
  69 00a8 7C000000 		.word	.LC7
  70 00ac 84000000 		.word	.LC8
  71              		.align	2
  72              	.LC9:
  73 00b0 53756E00 		.ascii	"Sun\000"
  74              		.align	2
  75              	.LC10:
  76 00b4 4D6F6E00 		.ascii	"Mon\000"
  77              		.align	2
  78              	.LC11:
  79 00b8 54756500 		.ascii	"Tue\000"
  80              		.align	2
  81              	.LC12:
  82 00bc 57656400 		.ascii	"Wed\000"
  83              		.align	2
  84              	.LC13:
  85 00c0 54687500 		.ascii	"Thu\000"
  86              		.align	2
  87              	.LC14:
  88 00c4 46726900 		.ascii	"Fri\000"
  89              		.align	2
  90              	.LC15:
  91 00c8 53617400 		.ascii	"Sat\000"
ARM GAS  C:\Users\GYULAI~1\AppData\Local\Temp\cc4j4Lh9.s 			page 3


  92              		.align	2
  93              		.type	rhea_rtc_weekdayNamesShort, %object
  94              		.size	rhea_rtc_weekdayNamesShort, 32
  95              	rhea_rtc_weekdayNamesShort:
  96 00cc 44000000 		.word	.LC1
  97 00d0 B0000000 		.word	.LC9
  98 00d4 B4000000 		.word	.LC10
  99 00d8 B8000000 		.word	.LC11
 100 00dc BC000000 		.word	.LC12
 101 00e0 C0000000 		.word	.LC13
 102 00e4 C4000000 		.word	.LC14
 103 00e8 C8000000 		.word	.LC15
 104              		.align	2
 105              	.LC16:
 106 00ec 4A616E75 		.ascii	"January\000"
 106      61727900 
 107              		.align	2
 108              	.LC17:
 109 00f4 46656272 		.ascii	"February\000"
 109      75617279 
 109      00
 110 00fd 000000   		.align	2
 111              	.LC18:
 112 0100 4D617263 		.ascii	"March\000"
 112      6800
 113 0106 0000     		.align	2
 114              	.LC19:
 115 0108 41707269 		.ascii	"April\000"
 115      6C00
 116 010e 0000     		.align	2
 117              	.LC20:
 118 0110 4D617900 		.ascii	"May\000"
 119              		.align	2
 120              	.LC21:
 121 0114 4A756E65 		.ascii	"June\000"
 121      00
 122 0119 000000   		.align	2
 123              	.LC22:
 124 011c 4A756C79 		.ascii	"July\000"
 124      00
 125 0121 000000   		.align	2
 126              	.LC23:
 127 0124 41756775 		.ascii	"August\000"
 127      737400
 128 012b 00       		.align	2
 129              	.LC24:
 130 012c 53657074 		.ascii	"September\000"
 130      656D6265 
 130      7200
 131 0136 0000     		.align	2
 132              	.LC25:
 133 0138 4F63746F 		.ascii	"October\000"
 133      62657200 
 134              		.align	2
 135              	.LC26:
 136 0140 4E6F7665 		.ascii	"November\000"
 136      6D626572 
ARM GAS  C:\Users\GYULAI~1\AppData\Local\Temp\cc4j4Lh9.s 			page 4


 136      00
 137 0149 000000   		.align	2
 138              	.LC27:
 139 014c 44656365 		.ascii	"December\000"
 139      6D626572 
 139      00
 140 0155 000000   		.align	2
 141              		.type	rhea_rtc_monthNamesLong, %object
 142              		.size	rhea_rtc_monthNamesLong, 52
 143              	rhea_rtc_monthNamesLong:
 144 0158 44000000 		.word	.LC1
 145 015c EC000000 		.word	.LC16
 146 0160 F4000000 		.word	.LC17
 147 0164 00010000 		.word	.LC18
 148 0168 08010000 		.word	.LC19
 149 016c 10010000 		.word	.LC20
 150 0170 14010000 		.word	.LC21
 151 0174 1C010000 		.word	.LC22
 152 0178 24010000 		.word	.LC23
 153 017c 2C010000 		.word	.LC24
 154 0180 38010000 		.word	.LC25
 155 0184 40010000 		.word	.LC26
 156 0188 4C010000 		.word	.LC27
 157              		.align	2
 158              	.LC28:
 159 018c 4A616E00 		.ascii	"Jan\000"
 160              		.align	2
 161              	.LC29:
 162 0190 46656200 		.ascii	"Feb\000"
 163              		.align	2
 164              	.LC30:
 165 0194 4D617200 		.ascii	"Mar\000"
 166              		.align	2
 167              	.LC31:
 168 0198 41707200 		.ascii	"Apr\000"
 169              		.align	2
 170              	.LC32:
 171 019c 4A756E4A 		.ascii	"JunJul\000"
 171      756C00
 172 01a3 00       		.align	2
 173              	.LC33:
 174 01a4 41756700 		.ascii	"Aug\000"
 175              		.align	2
 176              	.LC34:
 177 01a8 53657000 		.ascii	"Sep\000"
 178              		.align	2
 179              	.LC35:
 180 01ac 4F637400 		.ascii	"Oct\000"
 181              		.align	2
 182              	.LC36:
 183 01b0 4E6F7600 		.ascii	"Nov\000"
 184              		.align	2
 185              	.LC37:
 186 01b4 44656300 		.ascii	"Dec\000"
 187              		.align	2
 188              		.type	rhea_rtc_monthNamesShort, %object
 189              		.size	rhea_rtc_monthNamesShort, 48
ARM GAS  C:\Users\GYULAI~1\AppData\Local\Temp\cc4j4Lh9.s 			page 5


 190              	rhea_rtc_monthNamesShort:
 191 01b8 44000000 		.word	.LC1
 192 01bc 8C010000 		.word	.LC28
 193 01c0 90010000 		.word	.LC29
 194 01c4 94010000 		.word	.LC30
 195 01c8 98010000 		.word	.LC31
 196 01cc 10010000 		.word	.LC20
 197 01d0 9C010000 		.word	.LC32
 198 01d4 A4010000 		.word	.LC33
 199 01d8 A8010000 		.word	.LC34
 200 01dc AC010000 		.word	.LC35
 201 01e0 B0010000 		.word	.LC36
 202 01e4 B4010000 		.word	.LC37
 203              		.align	2
 204              	.LC38:
 205 01e8 252E2A75 		.ascii	"%.*u\000"
 205      00
 206 01ed 000000   		.align	2
 207              	.LC39:
 208 01f0 414D00   		.ascii	"AM\000"
 209 01f3 00       		.align	2
 210              	.LC40:
 211 01f4 504D00   		.ascii	"PM\000"
 212              		.section	.text.rhea_rtc_formatDate,"ax",%progbits
 213              		.align	2
 214              		.global	rhea_rtc_formatDate
 215              		.thumb
 216              		.thumb_func
 217              		.type	rhea_rtc_formatDate, %function
 218              	rhea_rtc_formatDate:
 219              	.LFB1:
 220              		.file 1 "rhea\\rtc\\datetime\\datetime.c"
   1:rhea\rtc\datetime/datetime.c **** /*********************************************************************************
   2:rhea\rtc\datetime/datetime.c ****  * Copyright (c) 2020 Peter Gyulai
   3:rhea\rtc\datetime/datetime.c ****  *
   4:rhea\rtc\datetime/datetime.c ****  * Permission is hereby granted, free of charge, to any person obtaining a copy
   5:rhea\rtc\datetime/datetime.c ****  * of this software and associated documentation files (the "Software"), to deal
   6:rhea\rtc\datetime/datetime.c ****  * in the Software without restriction, including without limitation the rights
   7:rhea\rtc\datetime/datetime.c ****  * to use, copy, modify, merge, publish, distribute, sublicense, and/or sell
   8:rhea\rtc\datetime/datetime.c ****  * copies of the Software, and to permit persons to whom the Software is
   9:rhea\rtc\datetime/datetime.c ****  * furnished to do so, subject to the following conditions:
  10:rhea\rtc\datetime/datetime.c ****  *
  11:rhea\rtc\datetime/datetime.c ****  * The above copyright notice and this permission notice shall be included in all
  12:rhea\rtc\datetime/datetime.c ****  * copies or substantial portions of the Software.
  13:rhea\rtc\datetime/datetime.c ****  *
  14:rhea\rtc\datetime/datetime.c ****  * THE SOFTWARE IS PROVIDED "AS IS", WITHOUT WARRANTY OF ANY KIND,
  15:rhea\rtc\datetime/datetime.c ****  * EXPRESS OR IMPLIED, INCLUDING BUT NOT LIMITED TO THE WARRANTIES OF
  16:rhea\rtc\datetime/datetime.c ****  * MERCHANTABILITY, FITNESS FOR A PARTICULAR PURPOSE AND NONINFRINGEMENT.
  17:rhea\rtc\datetime/datetime.c ****  * IN NO EVENT SHALL THE AUTHORS OR COPYRIGHT HOLDERS BE LIABLE FOR ANY CLAIM,
  18:rhea\rtc\datetime/datetime.c ****  * DAMAGES OR OTHER LIABILITY, WHETHER IN AN ACTION OF CONTRACT, TORT OR
  19:rhea\rtc\datetime/datetime.c ****  * OTHERWISE, ARISING FROM, OUT OF OR IN CONNECTION WITH THE SOFTWARE OR THE USE
  20:rhea\rtc\datetime/datetime.c ****  * OR OTHER DEALINGS IN THE SOFTWARE.
  21:rhea\rtc\datetime/datetime.c **** **********************************************************************************/
  22:rhea\rtc\datetime/datetime.c **** 
  23:rhea\rtc\datetime/datetime.c **** /**
  24:rhea\rtc\datetime/datetime.c ****  * @file    datetime.c
  25:rhea\rtc\datetime/datetime.c ****  * @author  Peter Gyulai
ARM GAS  C:\Users\GYULAI~1\AppData\Local\Temp\cc4j4Lh9.s 			page 6


  26:rhea\rtc\datetime/datetime.c ****  * @version 0.0.1
  27:rhea\rtc\datetime/datetime.c ****  * @date    2020.03.23
  28:rhea\rtc\datetime/datetime.c ****  * @brief   Library implementation.
  29:rhea\rtc\datetime/datetime.c ****  * @details
  30:rhea\rtc\datetime/datetime.c ****  * This file contains the datetime utility implementation.
  31:rhea\rtc\datetime/datetime.c ****  */
  32:rhea\rtc\datetime/datetime.c **** 
  33:rhea\rtc\datetime/datetime.c **** // Doxygen documentation duplication suppression
  34:rhea\rtc\datetime/datetime.c **** #ifndef DOXYGEN_SHOULD_SKIP_THIS
  35:rhea\rtc\datetime/datetime.c **** 
  36:rhea\rtc\datetime/datetime.c **** // Standard includes
  37:rhea\rtc\datetime/datetime.c **** #include <stdlib.h>
  38:rhea\rtc\datetime/datetime.c **** #include <stdio.h>
  39:rhea\rtc\datetime/datetime.c **** #include <string.h>
  40:rhea\rtc\datetime/datetime.c **** #include <math.h>
  41:rhea\rtc\datetime/datetime.c ****     
  42:rhea\rtc\datetime/datetime.c **** // Project includes
  43:rhea\rtc\datetime/datetime.c **** #include "datetime.h"
  44:rhea\rtc\datetime/datetime.c ****     
  45:rhea\rtc\datetime/datetime.c ****     
  46:rhea\rtc\datetime/datetime.c **** static const char * const rhea_rtc_weekdayNamesLong[] = {
  47:rhea\rtc\datetime/datetime.c ****     "NONE", "Sunday", "Monday", "Tuesday", "Wednesday",
  48:rhea\rtc\datetime/datetime.c ****     "Thursday", "Friday", "Saturday"
  49:rhea\rtc\datetime/datetime.c **** };
  50:rhea\rtc\datetime/datetime.c **** 
  51:rhea\rtc\datetime/datetime.c **** static const char * const rhea_rtc_weekdayNamesShort[] = {
  52:rhea\rtc\datetime/datetime.c ****     "NONE", "Sun", "Mon", "Tue", "Wed", "Thu", "Fri", "Sat"
  53:rhea\rtc\datetime/datetime.c **** };
  54:rhea\rtc\datetime/datetime.c **** 
  55:rhea\rtc\datetime/datetime.c **** static const char * const rhea_rtc_monthNamesLong[] = {
  56:rhea\rtc\datetime/datetime.c ****     "NONE", "January", "February", "March", "April", "May", "June", 
  57:rhea\rtc\datetime/datetime.c ****     "July", "August", "September", "October", "November", "December"
  58:rhea\rtc\datetime/datetime.c **** };
  59:rhea\rtc\datetime/datetime.c **** 
  60:rhea\rtc\datetime/datetime.c **** static const char * const rhea_rtc_monthNamesShort[] = {
  61:rhea\rtc\datetime/datetime.c ****     "NONE", "Jan", "Feb", "Mar", "Apr", "May", "Jun"
  62:rhea\rtc\datetime/datetime.c ****     "Jul", "Aug", "Sep", "Oct", "Nov", "Dec"
  63:rhea\rtc\datetime/datetime.c **** };
  64:rhea\rtc\datetime/datetime.c **** 
  65:rhea\rtc\datetime/datetime.c **** void rhea_rtc_formatDate(rhea_rtc_datetime datetime, const char *format, char *buffer) {
 221              		.loc 1 65 0
 222              		.cfi_startproc
 223              		@ args = 0, pretend = 0, frame = 24
 224              		@ frame_needed = 1, uses_anonymous_args = 0
 225 0000 90B5     		push	{r4, r7, lr}
 226              		.cfi_def_cfa_offset 12
 227              		.cfi_offset 4, -12
 228              		.cfi_offset 7, -8
 229              		.cfi_offset 14, -4
 230 0002 87B0     		sub	sp, sp, #28
 231              		.cfi_def_cfa_offset 40
 232 0004 00AF     		add	r7, sp, #0
 233              		.cfi_def_cfa_register 7
 234 0006 07F10804 		add	r4, r7, #8
 235 000a 84E80300 		stmia	r4, {r0, r1}
 236 000e 7A60     		str	r2, [r7, #4]
 237 0010 3B60     		str	r3, [r7]
ARM GAS  C:\Users\GYULAI~1\AppData\Local\Temp\cc4j4Lh9.s 			page 7


  66:rhea\rtc\datetime/datetime.c **** 
  67:rhea\rtc\datetime/datetime.c ****     // Logic value indicating whether AM/PM format is used or not
  68:rhea\rtc\datetime/datetime.c ****     uint8_t ampm_format = 0;
 238              		.loc 1 68 0
 239 0012 0023     		movs	r3, #0
 240 0014 FB75     		strb	r3, [r7, #23]
  69:rhea\rtc\datetime/datetime.c ****     
  70:rhea\rtc\datetime/datetime.c ****     // Index for iterating format string
  71:rhea\rtc\datetime/datetime.c ****     uint8_t i = 0;
 241              		.loc 1 71 0
 242 0016 0023     		movs	r3, #0
 243 0018 BB75     		strb	r3, [r7, #22]
  72:rhea\rtc\datetime/datetime.c ****     
  73:rhea\rtc\datetime/datetime.c ****     // Determining whether AM/PM format is used
  74:rhea\rtc\datetime/datetime.c ****     while(format[i] != '\0') if(format[i++] == 't') ampm_format = 1;
 244              		.loc 1 74 0
 245 001a 0AE0     		b	.L2
 246              	.L3:
 247              		.loc 1 74 0 is_stmt 0 discriminator 4
 248 001c BB7D     		ldrb	r3, [r7, #22]	@ zero_extendqisi2
 249 001e 5A1C     		adds	r2, r3, #1
 250 0020 BA75     		strb	r2, [r7, #22]
 251 0022 1A46     		mov	r2, r3
 252 0024 7B68     		ldr	r3, [r7, #4]
 253 0026 1344     		add	r3, r3, r2
 254 0028 1B78     		ldrb	r3, [r3]	@ zero_extendqisi2
 255 002a 742B     		cmp	r3, #116
 256 002c 01D1     		bne	.L2
 257              		.loc 1 74 0 discriminator 1
 258 002e 0123     		movs	r3, #1
 259 0030 FB75     		strb	r3, [r7, #23]
 260              	.L2:
 261              		.loc 1 74 0 discriminator 3
 262 0032 BB7D     		ldrb	r3, [r7, #22]	@ zero_extendqisi2
 263 0034 7A68     		ldr	r2, [r7, #4]
 264 0036 1344     		add	r3, r3, r2
 265 0038 1B78     		ldrb	r3, [r3]	@ zero_extendqisi2
 266 003a 002B     		cmp	r3, #0
 267 003c EED1     		bne	.L3
  75:rhea\rtc\datetime/datetime.c ****     
  76:rhea\rtc\datetime/datetime.c ****     // Resetting index
  77:rhea\rtc\datetime/datetime.c ****     i = 0;
 268              		.loc 1 77 0 is_stmt 1
 269 003e 0023     		movs	r3, #0
 270 0040 BB75     		strb	r3, [r7, #22]
  78:rhea\rtc\datetime/datetime.c ****     
  79:rhea\rtc\datetime/datetime.c ****     // Parsing format and writing buffer
  80:rhea\rtc\datetime/datetime.c ****     while(format[i] != '\0') {
 271              		.loc 1 80 0
 272 0042 BAE1     		b	.L4
 273              	.L47:
  81:rhea\rtc\datetime/datetime.c ****         
  82:rhea\rtc\datetime/datetime.c ****         // Handling years
  83:rhea\rtc\datetime/datetime.c ****         if(format[i] == 'Y') {
 274              		.loc 1 83 0
 275 0044 BB7D     		ldrb	r3, [r7, #22]	@ zero_extendqisi2
 276 0046 7A68     		ldr	r2, [r7, #4]
ARM GAS  C:\Users\GYULAI~1\AppData\Local\Temp\cc4j4Lh9.s 			page 8


 277 0048 1344     		add	r3, r3, r2
 278 004a 1B78     		ldrb	r3, [r3]	@ zero_extendqisi2
 279 004c 592B     		cmp	r3, #89
 280 004e 45D1     		bne	.L5
 281              	.LBB2:
  84:rhea\rtc\datetime/datetime.c ****             uint8_t yearDigits = 1;
 282              		.loc 1 84 0
 283 0050 0123     		movs	r3, #1
 284 0052 7B75     		strb	r3, [r7, #21]
  85:rhea\rtc\datetime/datetime.c ****             while(format[++i] == 'Y') yearDigits++;
 285              		.loc 1 85 0
 286 0054 02E0     		b	.L6
 287              	.L7:
 288              		.loc 1 85 0 is_stmt 0 discriminator 2
 289 0056 7B7D     		ldrb	r3, [r7, #21]	@ zero_extendqisi2
 290 0058 0133     		adds	r3, r3, #1
 291 005a 7B75     		strb	r3, [r7, #21]
 292              	.L6:
 293              		.loc 1 85 0 discriminator 1
 294 005c BB7D     		ldrb	r3, [r7, #22]
 295 005e 0133     		adds	r3, r3, #1
 296 0060 BB75     		strb	r3, [r7, #22]
 297 0062 BB7D     		ldrb	r3, [r7, #22]	@ zero_extendqisi2
 298 0064 7A68     		ldr	r2, [r7, #4]
 299 0066 1344     		add	r3, r3, r2
 300 0068 1B78     		ldrb	r3, [r3]	@ zero_extendqisi2
 301 006a 592B     		cmp	r3, #89
 302 006c F3D0     		beq	.L7
  86:rhea\rtc\datetime/datetime.c ****             if(yearDigits == 1) datetime.year %= 10;
 303              		.loc 1 86 0 is_stmt 1
 304 006e 7B7D     		ldrb	r3, [r7, #21]	@ zero_extendqisi2
 305 0070 012B     		cmp	r3, #1
 306 0072 0BD1     		bne	.L8
 307              		.loc 1 86 0 is_stmt 0 discriminator 1
 308 0074 3A89     		ldrh	r2, [r7, #8]
 309 0076 A04B     		ldr	r3, .L48
 310 0078 A3FB0213 		umull	r1, r3, r3, r2
 311 007c D908     		lsrs	r1, r3, #3
 312 007e 0B46     		mov	r3, r1
 313 0080 9B00     		lsls	r3, r3, #2
 314 0082 0B44     		add	r3, r3, r1
 315 0084 5B00     		lsls	r3, r3, #1
 316 0086 D31A     		subs	r3, r2, r3
 317 0088 9BB2     		uxth	r3, r3
 318 008a 3B81     		strh	r3, [r7, #8]	@ movhi
 319              	.L8:
  87:rhea\rtc\datetime/datetime.c ****             if(yearDigits == 2) datetime.year %= 100;
 320              		.loc 1 87 0 is_stmt 1
 321 008c 7B7D     		ldrb	r3, [r7, #21]	@ zero_extendqisi2
 322 008e 022B     		cmp	r3, #2
 323 0090 0AD1     		bne	.L9
 324              		.loc 1 87 0 is_stmt 0 discriminator 1
 325 0092 3B89     		ldrh	r3, [r7, #8]
 326 0094 994A     		ldr	r2, .L48+4
 327 0096 A2FB0312 		umull	r1, r2, r2, r3
 328 009a 5209     		lsrs	r2, r2, #5
 329 009c 6421     		movs	r1, #100
ARM GAS  C:\Users\GYULAI~1\AppData\Local\Temp\cc4j4Lh9.s 			page 9


 330 009e 01FB02F2 		mul	r2, r1, r2
 331 00a2 9B1A     		subs	r3, r3, r2
 332 00a4 9BB2     		uxth	r3, r3
 333 00a6 3B81     		strh	r3, [r7, #8]	@ movhi
 334              	.L9:
  88:rhea\rtc\datetime/datetime.c ****             if(yearDigits == 3) datetime.year %= 1000;
 335              		.loc 1 88 0 is_stmt 1
 336 00a8 7B7D     		ldrb	r3, [r7, #21]	@ zero_extendqisi2
 337 00aa 032B     		cmp	r3, #3
 338 00ac 0BD1     		bne	.L10
 339              		.loc 1 88 0 is_stmt 0 discriminator 1
 340 00ae 3B89     		ldrh	r3, [r7, #8]
 341 00b0 934A     		ldr	r2, .L48+8
 342 00b2 A2FB0312 		umull	r1, r2, r2, r3
 343 00b6 9209     		lsrs	r2, r2, #6
 344 00b8 4FF47A71 		mov	r1, #1000
 345 00bc 01FB02F2 		mul	r2, r1, r2
 346 00c0 9B1A     		subs	r3, r3, r2
 347 00c2 9BB2     		uxth	r3, r3
 348 00c4 3B81     		strh	r3, [r7, #8]	@ movhi
 349              	.L10:
  89:rhea\rtc\datetime/datetime.c ****             sprintf(buffer, "%.*u", yearDigits, datetime.year);
 350              		.loc 1 89 0 is_stmt 1
 351 00c6 7A7D     		ldrb	r2, [r7, #21]	@ zero_extendqisi2
 352 00c8 3B89     		ldrh	r3, [r7, #8]
 353 00ca 8E49     		ldr	r1, .L48+12
 354 00cc 3868     		ldr	r0, [r7]
 355 00ce FFF7FEFF 		bl	sprintf
  90:rhea\rtc\datetime/datetime.c ****             buffer = buffer + yearDigits;
 356              		.loc 1 90 0
 357 00d2 7B7D     		ldrb	r3, [r7, #21]	@ zero_extendqisi2
 358 00d4 3A68     		ldr	r2, [r7]
 359 00d6 1344     		add	r3, r3, r2
 360 00d8 3B60     		str	r3, [r7]
 361              	.LBE2:
 362 00da 6EE1     		b	.L4
 363              	.L5:
  91:rhea\rtc\datetime/datetime.c ****         }
  92:rhea\rtc\datetime/datetime.c ****         
  93:rhea\rtc\datetime/datetime.c ****         // Handling months
  94:rhea\rtc\datetime/datetime.c ****         else if(format[i] == 'M') {
 364              		.loc 1 94 0
 365 00dc BB7D     		ldrb	r3, [r7, #22]	@ zero_extendqisi2
 366 00de 7A68     		ldr	r2, [r7, #4]
 367 00e0 1344     		add	r3, r3, r2
 368 00e2 1B78     		ldrb	r3, [r3]	@ zero_extendqisi2
 369 00e4 4D2B     		cmp	r3, #77
 370 00e6 50D1     		bne	.L11
 371              	.LBB3:
  95:rhea\rtc\datetime/datetime.c ****             uint8_t monthDigits = 1;
 372              		.loc 1 95 0
 373 00e8 0123     		movs	r3, #1
 374 00ea 3B75     		strb	r3, [r7, #20]
  96:rhea\rtc\datetime/datetime.c ****             while(format[++i] == 'M') monthDigits++;
 375              		.loc 1 96 0
 376 00ec 02E0     		b	.L12
 377              	.L13:
ARM GAS  C:\Users\GYULAI~1\AppData\Local\Temp\cc4j4Lh9.s 			page 10


 378              		.loc 1 96 0 is_stmt 0 discriminator 2
 379 00ee 3B7D     		ldrb	r3, [r7, #20]	@ zero_extendqisi2
 380 00f0 0133     		adds	r3, r3, #1
 381 00f2 3B75     		strb	r3, [r7, #20]
 382              	.L12:
 383              		.loc 1 96 0 discriminator 1
 384 00f4 BB7D     		ldrb	r3, [r7, #22]
 385 00f6 0133     		adds	r3, r3, #1
 386 00f8 BB75     		strb	r3, [r7, #22]
 387 00fa BB7D     		ldrb	r3, [r7, #22]	@ zero_extendqisi2
 388 00fc 7A68     		ldr	r2, [r7, #4]
 389 00fe 1344     		add	r3, r3, r2
 390 0100 1B78     		ldrb	r3, [r3]	@ zero_extendqisi2
 391 0102 4D2B     		cmp	r3, #77
 392 0104 F3D0     		beq	.L13
  97:rhea\rtc\datetime/datetime.c ****             if(monthDigits == 3) {
 393              		.loc 1 97 0 is_stmt 1
 394 0106 3B7D     		ldrb	r3, [r7, #20]	@ zero_extendqisi2
 395 0108 032B     		cmp	r3, #3
 396 010a 15D1     		bne	.L14
  98:rhea\rtc\datetime/datetime.c ****                 sprintf(buffer, "%s", rhea_rtc_monthNamesShort[datetime.month]);
 397              		.loc 1 98 0
 398 010c BB7A     		ldrb	r3, [r7, #10]	@ zero_extendqisi2
 399 010e 1A46     		mov	r2, r3
 400 0110 7D4B     		ldr	r3, .L48+16
 401 0112 53F82230 		ldr	r3, [r3, r2, lsl #2]
 402 0116 1946     		mov	r1, r3
 403 0118 3868     		ldr	r0, [r7]
 404 011a FFF7FEFF 		bl	strcpy
  99:rhea\rtc\datetime/datetime.c ****                 buffer = buffer + strlen(rhea_rtc_monthNamesShort[datetime.month]);
 405              		.loc 1 99 0
 406 011e BB7A     		ldrb	r3, [r7, #10]	@ zero_extendqisi2
 407 0120 1A46     		mov	r2, r3
 408 0122 794B     		ldr	r3, .L48+16
 409 0124 53F82230 		ldr	r3, [r3, r2, lsl #2]
 410 0128 1846     		mov	r0, r3
 411 012a FFF7FEFF 		bl	strlen
 412 012e 0246     		mov	r2, r0
 413 0130 3B68     		ldr	r3, [r7]
 414 0132 1344     		add	r3, r3, r2
 415 0134 3B60     		str	r3, [r7]
 416 0136 40E1     		b	.L4
 417              	.L14:
 100:rhea\rtc\datetime/datetime.c ****             } 
 101:rhea\rtc\datetime/datetime.c ****             else if(monthDigits == 4) {
 418              		.loc 1 101 0
 419 0138 3B7D     		ldrb	r3, [r7, #20]	@ zero_extendqisi2
 420 013a 042B     		cmp	r3, #4
 421 013c 15D1     		bne	.L16
 102:rhea\rtc\datetime/datetime.c ****                 sprintf(buffer, "%s", rhea_rtc_monthNamesLong[datetime.month]);
 422              		.loc 1 102 0
 423 013e BB7A     		ldrb	r3, [r7, #10]	@ zero_extendqisi2
 424 0140 1A46     		mov	r2, r3
 425 0142 724B     		ldr	r3, .L48+20
 426 0144 53F82230 		ldr	r3, [r3, r2, lsl #2]
 427 0148 1946     		mov	r1, r3
 428 014a 3868     		ldr	r0, [r7]
ARM GAS  C:\Users\GYULAI~1\AppData\Local\Temp\cc4j4Lh9.s 			page 11


 429 014c FFF7FEFF 		bl	strcpy
 103:rhea\rtc\datetime/datetime.c ****                 buffer = buffer + strlen(rhea_rtc_monthNamesLong[datetime.month]);
 430              		.loc 1 103 0
 431 0150 BB7A     		ldrb	r3, [r7, #10]	@ zero_extendqisi2
 432 0152 1A46     		mov	r2, r3
 433 0154 6D4B     		ldr	r3, .L48+20
 434 0156 53F82230 		ldr	r3, [r3, r2, lsl #2]
 435 015a 1846     		mov	r0, r3
 436 015c FFF7FEFF 		bl	strlen
 437 0160 0246     		mov	r2, r0
 438 0162 3B68     		ldr	r3, [r7]
 439 0164 1344     		add	r3, r3, r2
 440 0166 3B60     		str	r3, [r7]
 441 0168 27E1     		b	.L4
 442              	.L16:
 104:rhea\rtc\datetime/datetime.c ****             }
 105:rhea\rtc\datetime/datetime.c ****             else {
 106:rhea\rtc\datetime/datetime.c ****                 sprintf(buffer, "%.*u", monthDigits, datetime.month);
 443              		.loc 1 106 0
 444 016a 3A7D     		ldrb	r2, [r7, #20]	@ zero_extendqisi2
 445 016c BB7A     		ldrb	r3, [r7, #10]	@ zero_extendqisi2
 446 016e 6549     		ldr	r1, .L48+12
 447 0170 3868     		ldr	r0, [r7]
 448 0172 FFF7FEFF 		bl	sprintf
 107:rhea\rtc\datetime/datetime.c ****                 buffer = buffer + (datetime.month < 9 ? monthDigits : 2);
 449              		.loc 1 107 0
 450 0176 BB7A     		ldrb	r3, [r7, #10]	@ zero_extendqisi2
 451 0178 082B     		cmp	r3, #8
 452 017a 01D8     		bhi	.L17
 453              		.loc 1 107 0 is_stmt 0 discriminator 1
 454 017c 3B7D     		ldrb	r3, [r7, #20]	@ zero_extendqisi2
 455 017e 00E0     		b	.L18
 456              	.L17:
 457              		.loc 1 107 0 discriminator 2
 458 0180 0223     		movs	r3, #2
 459              	.L18:
 460              		.loc 1 107 0 discriminator 4
 461 0182 3A68     		ldr	r2, [r7]
 462 0184 1344     		add	r3, r3, r2
 463 0186 3B60     		str	r3, [r7]
 464              	.LBE3:
 465 0188 17E1     		b	.L4
 466              	.L11:
 108:rhea\rtc\datetime/datetime.c ****             }
 109:rhea\rtc\datetime/datetime.c ****         }
 110:rhea\rtc\datetime/datetime.c ****         
 111:rhea\rtc\datetime/datetime.c ****         // Handling dates
 112:rhea\rtc\datetime/datetime.c ****         else if(format[i] == 'd') {
 467              		.loc 1 112 0 is_stmt 1
 468 018a BB7D     		ldrb	r3, [r7, #22]	@ zero_extendqisi2
 469 018c 7A68     		ldr	r2, [r7, #4]
 470 018e 1344     		add	r3, r3, r2
 471 0190 1B78     		ldrb	r3, [r3]	@ zero_extendqisi2
 472 0192 642B     		cmp	r3, #100
 473 0194 1ED1     		bne	.L19
 474              	.LBB4:
 113:rhea\rtc\datetime/datetime.c ****             uint8_t dateDigits = 1;
ARM GAS  C:\Users\GYULAI~1\AppData\Local\Temp\cc4j4Lh9.s 			page 12


 475              		.loc 1 113 0
 476 0196 0123     		movs	r3, #1
 477 0198 FB74     		strb	r3, [r7, #19]
 114:rhea\rtc\datetime/datetime.c ****             while(format[++i] == 'd') dateDigits++;
 478              		.loc 1 114 0
 479 019a 02E0     		b	.L20
 480              	.L21:
 481              		.loc 1 114 0 is_stmt 0 discriminator 2
 482 019c FB7C     		ldrb	r3, [r7, #19]	@ zero_extendqisi2
 483 019e 0133     		adds	r3, r3, #1
 484 01a0 FB74     		strb	r3, [r7, #19]
 485              	.L20:
 486              		.loc 1 114 0 discriminator 1
 487 01a2 BB7D     		ldrb	r3, [r7, #22]
 488 01a4 0133     		adds	r3, r3, #1
 489 01a6 BB75     		strb	r3, [r7, #22]
 490 01a8 BB7D     		ldrb	r3, [r7, #22]	@ zero_extendqisi2
 491 01aa 7A68     		ldr	r2, [r7, #4]
 492 01ac 1344     		add	r3, r3, r2
 493 01ae 1B78     		ldrb	r3, [r3]	@ zero_extendqisi2
 494 01b0 642B     		cmp	r3, #100
 495 01b2 F3D0     		beq	.L21
 115:rhea\rtc\datetime/datetime.c ****             sprintf(buffer, "%.*u", dateDigits, datetime.date);
 496              		.loc 1 115 0 is_stmt 1
 497 01b4 FA7C     		ldrb	r2, [r7, #19]	@ zero_extendqisi2
 498 01b6 FB7A     		ldrb	r3, [r7, #11]	@ zero_extendqisi2
 499 01b8 5249     		ldr	r1, .L48+12
 500 01ba 3868     		ldr	r0, [r7]
 501 01bc FFF7FEFF 		bl	sprintf
 116:rhea\rtc\datetime/datetime.c ****             buffer = buffer + (datetime.date < 9 ? dateDigits : 2);
 502              		.loc 1 116 0
 503 01c0 FB7A     		ldrb	r3, [r7, #11]	@ zero_extendqisi2
 504 01c2 082B     		cmp	r3, #8
 505 01c4 01D8     		bhi	.L22
 506              		.loc 1 116 0 is_stmt 0 discriminator 1
 507 01c6 FB7C     		ldrb	r3, [r7, #19]	@ zero_extendqisi2
 508 01c8 00E0     		b	.L23
 509              	.L22:
 510              		.loc 1 116 0 discriminator 2
 511 01ca 0223     		movs	r3, #2
 512              	.L23:
 513              		.loc 1 116 0 discriminator 4
 514 01cc 3A68     		ldr	r2, [r7]
 515 01ce 1344     		add	r3, r3, r2
 516 01d0 3B60     		str	r3, [r7]
 517              	.LBE4:
 518 01d2 F2E0     		b	.L4
 519              	.L19:
 117:rhea\rtc\datetime/datetime.c ****         }
 118:rhea\rtc\datetime/datetime.c ****         
 119:rhea\rtc\datetime/datetime.c ****         // Handling short weekdays
 120:rhea\rtc\datetime/datetime.c ****         else if(format[i] == 'w') {
 520              		.loc 1 120 0 is_stmt 1
 521 01d4 BB7D     		ldrb	r3, [r7, #22]	@ zero_extendqisi2
 522 01d6 7A68     		ldr	r2, [r7, #4]
 523 01d8 1344     		add	r3, r3, r2
 524 01da 1B78     		ldrb	r3, [r3]	@ zero_extendqisi2
ARM GAS  C:\Users\GYULAI~1\AppData\Local\Temp\cc4j4Lh9.s 			page 13


 525 01dc 772B     		cmp	r3, #119
 526 01de 18D1     		bne	.L24
 121:rhea\rtc\datetime/datetime.c ****             sprintf(buffer, "%s", rhea_rtc_weekdayNamesShort[datetime.weekday]);
 527              		.loc 1 121 0
 528 01e0 3B7B     		ldrb	r3, [r7, #12]	@ zero_extendqisi2
 529 01e2 1A46     		mov	r2, r3
 530 01e4 4A4B     		ldr	r3, .L48+24
 531 01e6 53F82230 		ldr	r3, [r3, r2, lsl #2]
 532 01ea 1946     		mov	r1, r3
 533 01ec 3868     		ldr	r0, [r7]
 534 01ee FFF7FEFF 		bl	strcpy
 122:rhea\rtc\datetime/datetime.c ****             buffer = buffer + strlen(rhea_rtc_weekdayNamesShort[datetime.weekday]);
 535              		.loc 1 122 0
 536 01f2 3B7B     		ldrb	r3, [r7, #12]	@ zero_extendqisi2
 537 01f4 1A46     		mov	r2, r3
 538 01f6 464B     		ldr	r3, .L48+24
 539 01f8 53F82230 		ldr	r3, [r3, r2, lsl #2]
 540 01fc 1846     		mov	r0, r3
 541 01fe FFF7FEFF 		bl	strlen
 542 0202 0246     		mov	r2, r0
 543 0204 3B68     		ldr	r3, [r7]
 544 0206 1344     		add	r3, r3, r2
 545 0208 3B60     		str	r3, [r7]
 123:rhea\rtc\datetime/datetime.c ****             i++;
 546              		.loc 1 123 0
 547 020a BB7D     		ldrb	r3, [r7, #22]	@ zero_extendqisi2
 548 020c 0133     		adds	r3, r3, #1
 549 020e BB75     		strb	r3, [r7, #22]
 550 0210 D3E0     		b	.L4
 551              	.L24:
 124:rhea\rtc\datetime/datetime.c ****         }
 125:rhea\rtc\datetime/datetime.c ****         
 126:rhea\rtc\datetime/datetime.c ****         // Handling long weekdays
 127:rhea\rtc\datetime/datetime.c ****         else if(format[i] == 'W') {
 552              		.loc 1 127 0
 553 0212 BB7D     		ldrb	r3, [r7, #22]	@ zero_extendqisi2
 554 0214 7A68     		ldr	r2, [r7, #4]
 555 0216 1344     		add	r3, r3, r2
 556 0218 1B78     		ldrb	r3, [r3]	@ zero_extendqisi2
 557 021a 572B     		cmp	r3, #87
 558 021c 18D1     		bne	.L25
 128:rhea\rtc\datetime/datetime.c ****             sprintf(buffer, "%s", rhea_rtc_weekdayNamesLong[datetime.weekday]);
 559              		.loc 1 128 0
 560 021e 3B7B     		ldrb	r3, [r7, #12]	@ zero_extendqisi2
 561 0220 1A46     		mov	r2, r3
 562 0222 3C4B     		ldr	r3, .L48+28
 563 0224 53F82230 		ldr	r3, [r3, r2, lsl #2]
 564 0228 1946     		mov	r1, r3
 565 022a 3868     		ldr	r0, [r7]
 566 022c FFF7FEFF 		bl	strcpy
 129:rhea\rtc\datetime/datetime.c ****             buffer = buffer + strlen(rhea_rtc_weekdayNamesLong[datetime.weekday]);
 567              		.loc 1 129 0
 568 0230 3B7B     		ldrb	r3, [r7, #12]	@ zero_extendqisi2
 569 0232 1A46     		mov	r2, r3
 570 0234 374B     		ldr	r3, .L48+28
 571 0236 53F82230 		ldr	r3, [r3, r2, lsl #2]
 572 023a 1846     		mov	r0, r3
ARM GAS  C:\Users\GYULAI~1\AppData\Local\Temp\cc4j4Lh9.s 			page 14


 573 023c FFF7FEFF 		bl	strlen
 574 0240 0246     		mov	r2, r0
 575 0242 3B68     		ldr	r3, [r7]
 576 0244 1344     		add	r3, r3, r2
 577 0246 3B60     		str	r3, [r7]
 130:rhea\rtc\datetime/datetime.c ****             i++;
 578              		.loc 1 130 0
 579 0248 BB7D     		ldrb	r3, [r7, #22]	@ zero_extendqisi2
 580 024a 0133     		adds	r3, r3, #1
 581 024c BB75     		strb	r3, [r7, #22]
 582 024e B4E0     		b	.L4
 583              	.L25:
 131:rhea\rtc\datetime/datetime.c ****         }
 132:rhea\rtc\datetime/datetime.c ****         
 133:rhea\rtc\datetime/datetime.c ****         // Handling hours
 134:rhea\rtc\datetime/datetime.c ****         else if(format[i] == 'h') {
 584              		.loc 1 134 0
 585 0250 BB7D     		ldrb	r3, [r7, #22]	@ zero_extendqisi2
 586 0252 7A68     		ldr	r2, [r7, #4]
 587 0254 1344     		add	r3, r3, r2
 588 0256 1B78     		ldrb	r3, [r3]	@ zero_extendqisi2
 589 0258 682B     		cmp	r3, #104
 590 025a 2DD1     		bne	.L26
 591              	.LBB5:
 135:rhea\rtc\datetime/datetime.c ****             uint8_t hourDigits = 1;
 592              		.loc 1 135 0
 593 025c 0123     		movs	r3, #1
 594 025e BB74     		strb	r3, [r7, #18]
 136:rhea\rtc\datetime/datetime.c ****             while(format[++i] == 'h') hourDigits++;
 595              		.loc 1 136 0
 596 0260 02E0     		b	.L27
 597              	.L28:
 598              		.loc 1 136 0 is_stmt 0 discriminator 2
 599 0262 BB7C     		ldrb	r3, [r7, #18]	@ zero_extendqisi2
 600 0264 0133     		adds	r3, r3, #1
 601 0266 BB74     		strb	r3, [r7, #18]
 602              	.L27:
 603              		.loc 1 136 0 discriminator 1
 604 0268 BB7D     		ldrb	r3, [r7, #22]
 605 026a 0133     		adds	r3, r3, #1
 606 026c BB75     		strb	r3, [r7, #22]
 607 026e BB7D     		ldrb	r3, [r7, #22]	@ zero_extendqisi2
 608 0270 7A68     		ldr	r2, [r7, #4]
 609 0272 1344     		add	r3, r3, r2
 610 0274 1B78     		ldrb	r3, [r3]	@ zero_extendqisi2
 611 0276 682B     		cmp	r3, #104
 612 0278 F3D0     		beq	.L28
 137:rhea\rtc\datetime/datetime.c ****             sprintf(buffer, "%.*u", hourDigits, (ampm_format && datetime.hour > 12 ? datetime.hour 
 613              		.loc 1 137 0 is_stmt 1
 614 027a BA7C     		ldrb	r2, [r7, #18]	@ zero_extendqisi2
 615 027c FB7D     		ldrb	r3, [r7, #23]	@ zero_extendqisi2
 616 027e 002B     		cmp	r3, #0
 617 0280 05D0     		beq	.L29
 618              		.loc 1 137 0 is_stmt 0 discriminator 1
 619 0282 7B7B     		ldrb	r3, [r7, #13]	@ zero_extendqisi2
 620 0284 0C2B     		cmp	r3, #12
 621 0286 02D9     		bls	.L29
ARM GAS  C:\Users\GYULAI~1\AppData\Local\Temp\cc4j4Lh9.s 			page 15


 622              		.loc 1 137 0 discriminator 3
 623 0288 7B7B     		ldrb	r3, [r7, #13]	@ zero_extendqisi2
 624 028a 0C3B     		subs	r3, r3, #12
 625 028c 00E0     		b	.L30
 626              	.L29:
 627              		.loc 1 137 0 discriminator 4
 628 028e 7B7B     		ldrb	r3, [r7, #13]	@ zero_extendqisi2
 629              	.L30:
 630              		.loc 1 137 0 discriminator 6
 631 0290 1C49     		ldr	r1, .L48+12
 632 0292 3868     		ldr	r0, [r7]
 633 0294 FFF7FEFF 		bl	sprintf
 138:rhea\rtc\datetime/datetime.c ****             buffer = buffer + (datetime.hour < 9 || (datetime.hour > 12 && ampm_format) ? hourDigit
 634              		.loc 1 138 0 is_stmt 1 discriminator 6
 635 0298 7B7B     		ldrb	r3, [r7, #13]	@ zero_extendqisi2
 636 029a 082B     		cmp	r3, #8
 637 029c 05D9     		bls	.L31
 638              		.loc 1 138 0 is_stmt 0 discriminator 2
 639 029e 7B7B     		ldrb	r3, [r7, #13]	@ zero_extendqisi2
 640 02a0 0C2B     		cmp	r3, #12
 641 02a2 04D9     		bls	.L32
 642              		.loc 1 138 0 discriminator 3
 643 02a4 FB7D     		ldrb	r3, [r7, #23]	@ zero_extendqisi2
 644 02a6 002B     		cmp	r3, #0
 645 02a8 01D0     		beq	.L32
 646              	.L31:
 647              		.loc 1 138 0 discriminator 5
 648 02aa BB7C     		ldrb	r3, [r7, #18]	@ zero_extendqisi2
 649 02ac 00E0     		b	.L33
 650              	.L32:
 651              		.loc 1 138 0 discriminator 6
 652 02ae 0223     		movs	r3, #2
 653              	.L33:
 654              		.loc 1 138 0 discriminator 8
 655 02b0 3A68     		ldr	r2, [r7]
 656 02b2 1344     		add	r3, r3, r2
 657 02b4 3B60     		str	r3, [r7]
 658              	.LBE5:
 659 02b6 80E0     		b	.L4
 660              	.L26:
 139:rhea\rtc\datetime/datetime.c ****         }
 140:rhea\rtc\datetime/datetime.c ****         
 141:rhea\rtc\datetime/datetime.c ****         // Handling AM/PM designator
 142:rhea\rtc\datetime/datetime.c ****         else if(format[i] == 't') {
 661              		.loc 1 142 0 is_stmt 1
 662 02b8 BB7D     		ldrb	r3, [r7, #22]	@ zero_extendqisi2
 663 02ba 7A68     		ldr	r2, [r7, #4]
 664 02bc 1344     		add	r3, r3, r2
 665 02be 1B78     		ldrb	r3, [r3]	@ zero_extendqisi2
 666 02c0 742B     		cmp	r3, #116
 667 02c2 10D1     		bne	.L34
 143:rhea\rtc\datetime/datetime.c ****             sprintf(buffer, "%s", datetime.hour <= 12 ? "AM" : "PM");
 668              		.loc 1 143 0
 669 02c4 7B7B     		ldrb	r3, [r7, #13]	@ zero_extendqisi2
 670 02c6 0C2B     		cmp	r3, #12
 671 02c8 01D8     		bhi	.L35
 672              		.loc 1 143 0 is_stmt 0 discriminator 1
ARM GAS  C:\Users\GYULAI~1\AppData\Local\Temp\cc4j4Lh9.s 			page 16


 673 02ca 134B     		ldr	r3, .L48+32
 674 02cc 00E0     		b	.L36
 675              	.L35:
 676              		.loc 1 143 0 discriminator 2
 677 02ce 134B     		ldr	r3, .L48+36
 678              	.L36:
 679              		.loc 1 143 0 discriminator 4
 680 02d0 1946     		mov	r1, r3
 681 02d2 3868     		ldr	r0, [r7]
 682 02d4 FFF7FEFF 		bl	strcpy
 144:rhea\rtc\datetime/datetime.c ****             buffer = buffer + 2;
 683              		.loc 1 144 0 is_stmt 1 discriminator 4
 684 02d8 3B68     		ldr	r3, [r7]
 685 02da 0233     		adds	r3, r3, #2
 686 02dc 3B60     		str	r3, [r7]
 145:rhea\rtc\datetime/datetime.c ****             i++;
 687              		.loc 1 145 0 discriminator 4
 688 02de BB7D     		ldrb	r3, [r7, #22]	@ zero_extendqisi2
 689 02e0 0133     		adds	r3, r3, #1
 690 02e2 BB75     		strb	r3, [r7, #22]
 691 02e4 69E0     		b	.L4
 692              	.L34:
 146:rhea\rtc\datetime/datetime.c ****         }
 147:rhea\rtc\datetime/datetime.c ****         
 148:rhea\rtc\datetime/datetime.c ****         // Handling minutes
 149:rhea\rtc\datetime/datetime.c ****         else if(format[i] == 'm') {
 693              		.loc 1 149 0
 694 02e6 BB7D     		ldrb	r3, [r7, #22]	@ zero_extendqisi2
 695 02e8 7A68     		ldr	r2, [r7, #4]
 696 02ea 1344     		add	r3, r3, r2
 697 02ec 1B78     		ldrb	r3, [r3]	@ zero_extendqisi2
 698 02ee 6D2B     		cmp	r3, #109
 699 02f0 32D1     		bne	.L37
 700              	.LBB6:
 150:rhea\rtc\datetime/datetime.c ****             uint8_t minuteDigits = 1;
 701              		.loc 1 150 0
 702 02f2 0123     		movs	r3, #1
 703 02f4 7B74     		strb	r3, [r7, #17]
 151:rhea\rtc\datetime/datetime.c ****             while(format[++i] == 'm') minuteDigits++;
 704              		.loc 1 151 0
 705 02f6 16E0     		b	.L38
 706              	.L49:
 707              		.align	2
 708              	.L48:
 709 02f8 CDCCCCCC 		.word	-858993459
 710 02fc 1F85EB51 		.word	1374389535
 711 0300 D34D6210 		.word	274877907
 712 0304 E8010000 		.word	.LC38
 713 0308 B8010000 		.word	rhea_rtc_monthNamesShort
 714 030c 58010000 		.word	rhea_rtc_monthNamesLong
 715 0310 CC000000 		.word	rhea_rtc_weekdayNamesShort
 716 0314 90000000 		.word	rhea_rtc_weekdayNamesLong
 717 0318 F0010000 		.word	.LC39
 718 031c F4010000 		.word	.LC40
 719              	.L39:
 720              		.loc 1 151 0 is_stmt 0 discriminator 2
 721 0320 7B7C     		ldrb	r3, [r7, #17]	@ zero_extendqisi2
ARM GAS  C:\Users\GYULAI~1\AppData\Local\Temp\cc4j4Lh9.s 			page 17


 722 0322 0133     		adds	r3, r3, #1
 723 0324 7B74     		strb	r3, [r7, #17]
 724              	.L38:
 725              		.loc 1 151 0 discriminator 1
 726 0326 BB7D     		ldrb	r3, [r7, #22]
 727 0328 0133     		adds	r3, r3, #1
 728 032a BB75     		strb	r3, [r7, #22]
 729 032c BB7D     		ldrb	r3, [r7, #22]	@ zero_extendqisi2
 730 032e 7A68     		ldr	r2, [r7, #4]
 731 0330 1344     		add	r3, r3, r2
 732 0332 1B78     		ldrb	r3, [r3]	@ zero_extendqisi2
 733 0334 6D2B     		cmp	r3, #109
 734 0336 F3D0     		beq	.L39
 152:rhea\rtc\datetime/datetime.c ****             sprintf(buffer, "%.*u", minuteDigits, datetime.minute);
 735              		.loc 1 152 0 is_stmt 1
 736 0338 7A7C     		ldrb	r2, [r7, #17]	@ zero_extendqisi2
 737 033a BB7B     		ldrb	r3, [r7, #14]	@ zero_extendqisi2
 738 033c 2449     		ldr	r1, .L50
 739 033e 3868     		ldr	r0, [r7]
 740 0340 FFF7FEFF 		bl	sprintf
 153:rhea\rtc\datetime/datetime.c ****             buffer = buffer + (datetime.minute < 9 ? minuteDigits : 2);
 741              		.loc 1 153 0
 742 0344 BB7B     		ldrb	r3, [r7, #14]	@ zero_extendqisi2
 743 0346 082B     		cmp	r3, #8
 744 0348 01D8     		bhi	.L40
 745              		.loc 1 153 0 is_stmt 0 discriminator 1
 746 034a 7B7C     		ldrb	r3, [r7, #17]	@ zero_extendqisi2
 747 034c 00E0     		b	.L41
 748              	.L40:
 749              		.loc 1 153 0 discriminator 2
 750 034e 0223     		movs	r3, #2
 751              	.L41:
 752              		.loc 1 153 0 discriminator 4
 753 0350 3A68     		ldr	r2, [r7]
 754 0352 1344     		add	r3, r3, r2
 755 0354 3B60     		str	r3, [r7]
 756              	.LBE6:
 757 0356 30E0     		b	.L4
 758              	.L37:
 154:rhea\rtc\datetime/datetime.c ****         }
 155:rhea\rtc\datetime/datetime.c ****         
 156:rhea\rtc\datetime/datetime.c ****         // Handling seconds
 157:rhea\rtc\datetime/datetime.c ****         else if(format[i] == 's') {
 759              		.loc 1 157 0 is_stmt 1
 760 0358 BB7D     		ldrb	r3, [r7, #22]	@ zero_extendqisi2
 761 035a 7A68     		ldr	r2, [r7, #4]
 762 035c 1344     		add	r3, r3, r2
 763 035e 1B78     		ldrb	r3, [r3]	@ zero_extendqisi2
 764 0360 732B     		cmp	r3, #115
 765 0362 1ED1     		bne	.L42
 766              	.LBB7:
 158:rhea\rtc\datetime/datetime.c ****             uint8_t secondDigits = 1;
 767              		.loc 1 158 0
 768 0364 0123     		movs	r3, #1
 769 0366 3B74     		strb	r3, [r7, #16]
 159:rhea\rtc\datetime/datetime.c ****             while(format[++i] == 's') secondDigits++;
 770              		.loc 1 159 0
ARM GAS  C:\Users\GYULAI~1\AppData\Local\Temp\cc4j4Lh9.s 			page 18


 771 0368 02E0     		b	.L43
 772              	.L44:
 773              		.loc 1 159 0 is_stmt 0 discriminator 2
 774 036a 3B7C     		ldrb	r3, [r7, #16]	@ zero_extendqisi2
 775 036c 0133     		adds	r3, r3, #1
 776 036e 3B74     		strb	r3, [r7, #16]
 777              	.L43:
 778              		.loc 1 159 0 discriminator 1
 779 0370 BB7D     		ldrb	r3, [r7, #22]
 780 0372 0133     		adds	r3, r3, #1
 781 0374 BB75     		strb	r3, [r7, #22]
 782 0376 BB7D     		ldrb	r3, [r7, #22]	@ zero_extendqisi2
 783 0378 7A68     		ldr	r2, [r7, #4]
 784 037a 1344     		add	r3, r3, r2
 785 037c 1B78     		ldrb	r3, [r3]	@ zero_extendqisi2
 786 037e 732B     		cmp	r3, #115
 787 0380 F3D0     		beq	.L44
 160:rhea\rtc\datetime/datetime.c ****             sprintf(buffer, "%.*u", secondDigits, datetime.second);
 788              		.loc 1 160 0 is_stmt 1
 789 0382 3A7C     		ldrb	r2, [r7, #16]	@ zero_extendqisi2
 790 0384 FB7B     		ldrb	r3, [r7, #15]	@ zero_extendqisi2
 791 0386 1249     		ldr	r1, .L50
 792 0388 3868     		ldr	r0, [r7]
 793 038a FFF7FEFF 		bl	sprintf
 161:rhea\rtc\datetime/datetime.c ****             buffer = buffer + (datetime.second < 9 ? secondDigits : 2);
 794              		.loc 1 161 0
 795 038e FB7B     		ldrb	r3, [r7, #15]	@ zero_extendqisi2
 796 0390 082B     		cmp	r3, #8
 797 0392 01D8     		bhi	.L45
 798              		.loc 1 161 0 is_stmt 0 discriminator 1
 799 0394 3B7C     		ldrb	r3, [r7, #16]	@ zero_extendqisi2
 800 0396 00E0     		b	.L46
 801              	.L45:
 802              		.loc 1 161 0 discriminator 2
 803 0398 0223     		movs	r3, #2
 804              	.L46:
 805              		.loc 1 161 0 discriminator 4
 806 039a 3A68     		ldr	r2, [r7]
 807 039c 1344     		add	r3, r3, r2
 808 039e 3B60     		str	r3, [r7]
 809              	.LBE7:
 810 03a0 0BE0     		b	.L4
 811              	.L42:
 162:rhea\rtc\datetime/datetime.c ****         }
 163:rhea\rtc\datetime/datetime.c ****         
 164:rhea\rtc\datetime/datetime.c ****         // Handling other characters
 165:rhea\rtc\datetime/datetime.c ****         else {
 166:rhea\rtc\datetime/datetime.c ****             buffer[0] = format[i++];
 812              		.loc 1 166 0 is_stmt 1
 813 03a2 BB7D     		ldrb	r3, [r7, #22]	@ zero_extendqisi2
 814 03a4 5A1C     		adds	r2, r3, #1
 815 03a6 BA75     		strb	r2, [r7, #22]
 816 03a8 1A46     		mov	r2, r3
 817 03aa 7B68     		ldr	r3, [r7, #4]
 818 03ac 1344     		add	r3, r3, r2
 819 03ae 1A78     		ldrb	r2, [r3]	@ zero_extendqisi2
 820 03b0 3B68     		ldr	r3, [r7]
ARM GAS  C:\Users\GYULAI~1\AppData\Local\Temp\cc4j4Lh9.s 			page 19


 821 03b2 1A70     		strb	r2, [r3]
 167:rhea\rtc\datetime/datetime.c ****             buffer++;
 822              		.loc 1 167 0
 823 03b4 3B68     		ldr	r3, [r7]
 824 03b6 0133     		adds	r3, r3, #1
 825 03b8 3B60     		str	r3, [r7]
 826              	.L4:
  80:rhea\rtc\datetime/datetime.c ****         
 827              		.loc 1 80 0
 828 03ba BB7D     		ldrb	r3, [r7, #22]	@ zero_extendqisi2
 829 03bc 7A68     		ldr	r2, [r7, #4]
 830 03be 1344     		add	r3, r3, r2
 831 03c0 1B78     		ldrb	r3, [r3]	@ zero_extendqisi2
 832 03c2 002B     		cmp	r3, #0
 833 03c4 7FF43EAE 		bne	.L47
 168:rhea\rtc\datetime/datetime.c ****         }
 169:rhea\rtc\datetime/datetime.c ****     }
 170:rhea\rtc\datetime/datetime.c **** }
 834              		.loc 1 170 0
 835 03c8 00BF     		nop
 836 03ca 1C37     		adds	r7, r7, #28
 837              		.cfi_def_cfa_offset 12
 838 03cc BD46     		mov	sp, r7
 839              		.cfi_def_cfa_register 13
 840              		@ sp needed
 841 03ce 90BD     		pop	{r4, r7, pc}
 842              	.L51:
 843              		.align	2
 844              	.L50:
 845 03d0 E8010000 		.word	.LC38
 846              		.cfi_endproc
 847              	.LFE1:
 848              		.size	rhea_rtc_formatDate, .-rhea_rtc_formatDate
 849              		.global	__aeabi_ldivmod
 850              		.section	.text.rhea_rtc_toSeconds,"ax",%progbits
 851              		.align	2
 852              		.global	rhea_rtc_toSeconds
 853              		.thumb
 854              		.thumb_func
 855              		.type	rhea_rtc_toSeconds, %function
 856              	rhea_rtc_toSeconds:
 857              	.LFB2:
 171:rhea\rtc\datetime/datetime.c **** 
 172:rhea\rtc\datetime/datetime.c **** int64_t rhea_rtc_toSeconds(const rhea_rtc_datetime datetime) {
 858              		.loc 1 172 0
 859              		.cfi_startproc
 860              		@ args = 0, pretend = 0, frame = 48
 861              		@ frame_needed = 1, uses_anonymous_args = 0
 862 0000 2DE9B04F 		push	{r4, r5, r7, r8, r9, r10, fp, lr}
 863              		.cfi_def_cfa_offset 32
 864              		.cfi_offset 4, -32
 865              		.cfi_offset 5, -28
 866              		.cfi_offset 7, -24
 867              		.cfi_offset 8, -20
 868              		.cfi_offset 9, -16
 869              		.cfi_offset 10, -12
 870              		.cfi_offset 11, -8
ARM GAS  C:\Users\GYULAI~1\AppData\Local\Temp\cc4j4Lh9.s 			page 20


 871              		.cfi_offset 14, -4
 872 0004 8CB0     		sub	sp, sp, #48
 873              		.cfi_def_cfa_offset 80
 874 0006 00AF     		add	r7, sp, #0
 875              		.cfi_def_cfa_register 7
 876 0008 3B46     		mov	r3, r7
 877 000a 83E80300 		stmia	r3, {r0, r1}
 173:rhea\rtc\datetime/datetime.c ****     int64_t y = datetime.year;
 878              		.loc 1 173 0
 879 000e 3B88     		ldrh	r3, [r7]
 880 0010 9AB2     		uxth	r2, r3
 881 0012 4FF00003 		mov	r3, #0
 882 0016 C7E90A23 		strd	r2, [r7, #40]
 174:rhea\rtc\datetime/datetime.c ****     uint8_t m = datetime.month;
 883              		.loc 1 174 0
 884 001a BB78     		ldrb	r3, [r7, #2]
 885 001c 87F82730 		strb	r3, [r7, #39]
 175:rhea\rtc\datetime/datetime.c ****     uint8_t d = datetime.date;
 886              		.loc 1 175 0
 887 0020 FB78     		ldrb	r3, [r7, #3]
 888 0022 87F82630 		strb	r3, [r7, #38]
 176:rhea\rtc\datetime/datetime.c ****     
 177:rhea\rtc\datetime/datetime.c ****     // Algorithm source: https://howardhinnant.github.io/date_algorithms.html#days_from_civil
 178:rhea\rtc\datetime/datetime.c ****     // This algorithm calculates the number of days since epoch 1970.01.01.
 179:rhea\rtc\datetime/datetime.c ****     // Correction for hours, minutes and seconds are included.
 180:rhea\rtc\datetime/datetime.c ****     
 181:rhea\rtc\datetime/datetime.c ****     y -= m <= 2;
 889              		.loc 1 181 0
 890 0026 97F82730 		ldrb	r3, [r7, #39]	@ zero_extendqisi2
 891 002a 022B     		cmp	r3, #2
 892 002c 94BF     		ite	ls
 893 002e 0123     		movls	r3, #1
 894 0030 0023     		movhi	r3, #0
 895 0032 DBB2     		uxtb	r3, r3
 896 0034 DAB2     		uxtb	r2, r3
 897 0036 4FF00003 		mov	r3, #0
 898 003a D7E90A01 		ldrd	r0, [r7, #40]
 899 003e 821A     		subs	r2, r0, r2
 900 0040 61EB0303 		sbc	r3, r1, r3
 901 0044 C7E90A23 		strd	r2, [r7, #40]
 182:rhea\rtc\datetime/datetime.c ****     const int era = (y >= 0 ? y : y-399) / 400;
 902              		.loc 1 182 0
 903 0048 D7E90A23 		ldrd	r2, [r7, #40]
 904 004c 002A     		cmp	r2, #0
 905 004e 73F10003 		sbcs	r3, r3, #0
 906 0052 12DA     		bge	.L53
 907              		.loc 1 182 0 is_stmt 0 discriminator 1
 908 0054 D7E90A23 		ldrd	r2, [r7, #40]
 909 0058 6FF4C770 		mvn	r0, #398
 910 005c 4FF0FF31 		mov	r1, #-1
 911 0060 8018     		adds	r0, r0, r2
 912 0062 41EB0301 		adc	r1, r1, r3
 913 0066 4FF4C872 		mov	r2, #400
 914 006a 4FF00003 		mov	r3, #0
 915 006e FFF7FEFF 		bl	__aeabi_ldivmod
 916 0072 0246     		mov	r2, r0
 917 0074 0B46     		mov	r3, r1
ARM GAS  C:\Users\GYULAI~1\AppData\Local\Temp\cc4j4Lh9.s 			page 21


 918 0076 1346     		mov	r3, r2
 919 0078 0AE0     		b	.L54
 920              	.L53:
 921              		.loc 1 182 0 discriminator 2
 922 007a D7E90A01 		ldrd	r0, [r7, #40]
 923 007e 4FF4C872 		mov	r2, #400
 924 0082 4FF00003 		mov	r3, #0
 925 0086 FFF7FEFF 		bl	__aeabi_ldivmod
 926 008a 0246     		mov	r2, r0
 927 008c 0B46     		mov	r3, r1
 928 008e 1346     		mov	r3, r2
 929              	.L54:
 930              		.loc 1 182 0 discriminator 4
 931 0090 3B62     		str	r3, [r7, #32]
 183:rhea\rtc\datetime/datetime.c ****     const unsigned yoe = (y - era * 400);      // [0, 399]
 932              		.loc 1 183 0 is_stmt 1 discriminator 4
 933 0092 BB6A     		ldr	r3, [r7, #40]
 934 0094 3A6A     		ldr	r2, [r7, #32]
 935 0096 4549     		ldr	r1, .L58
 936 0098 01FB02F2 		mul	r2, r1, r2
 937 009c 1344     		add	r3, r3, r2
 938 009e FB61     		str	r3, [r7, #28]
 184:rhea\rtc\datetime/datetime.c ****     const unsigned doy = (153*(m + (m > 2 ? -3 : 9)) + 2)/5 + d-1;  // [0, 365]
 939              		.loc 1 184 0 discriminator 4
 940 00a0 97F82720 		ldrb	r2, [r7, #39]	@ zero_extendqisi2
 941 00a4 97F82730 		ldrb	r3, [r7, #39]	@ zero_extendqisi2
 942 00a8 022B     		cmp	r3, #2
 943 00aa 02D9     		bls	.L55
 944              		.loc 1 184 0 is_stmt 0 discriminator 1
 945 00ac 6FF00203 		mvn	r3, #2
 946 00b0 00E0     		b	.L56
 947              	.L55:
 948              		.loc 1 184 0 discriminator 2
 949 00b2 0923     		movs	r3, #9
 950              	.L56:
 951              		.loc 1 184 0 discriminator 4
 952 00b4 1A44     		add	r2, r2, r3
 953 00b6 1346     		mov	r3, r2
 954 00b8 DB00     		lsls	r3, r3, #3
 955 00ba 1344     		add	r3, r3, r2
 956 00bc 1A01     		lsls	r2, r3, #4
 957 00be 1344     		add	r3, r3, r2
 958 00c0 0233     		adds	r3, r3, #2
 959 00c2 3B4A     		ldr	r2, .L58+4
 960 00c4 82FB0312 		smull	r1, r2, r2, r3
 961 00c8 5210     		asrs	r2, r2, #1
 962 00ca DB17     		asrs	r3, r3, #31
 963 00cc D21A     		subs	r2, r2, r3
 964 00ce 97F82630 		ldrb	r3, [r7, #38]	@ zero_extendqisi2
 965 00d2 1344     		add	r3, r3, r2
 966 00d4 013B     		subs	r3, r3, #1
 967 00d6 BB61     		str	r3, [r7, #24]
 185:rhea\rtc\datetime/datetime.c ****     const unsigned doe = yoe * 365 + yoe/4 - yoe/100 + doy;         // [0, 146096]
 968              		.loc 1 185 0 is_stmt 1 discriminator 4
 969 00d8 FB69     		ldr	r3, [r7, #28]
 970 00da 40F26D12 		movw	r2, #365
 971 00de 02FB03F2 		mul	r2, r2, r3
ARM GAS  C:\Users\GYULAI~1\AppData\Local\Temp\cc4j4Lh9.s 			page 22


 972 00e2 FB69     		ldr	r3, [r7, #28]
 973 00e4 9B08     		lsrs	r3, r3, #2
 974 00e6 1A44     		add	r2, r2, r3
 975 00e8 FB69     		ldr	r3, [r7, #28]
 976 00ea 3249     		ldr	r1, .L58+8
 977 00ec A1FB0313 		umull	r1, r3, r1, r3
 978 00f0 5B09     		lsrs	r3, r3, #5
 979 00f2 D21A     		subs	r2, r2, r3
 980 00f4 BB69     		ldr	r3, [r7, #24]
 981 00f6 1344     		add	r3, r3, r2
 982 00f8 7B61     		str	r3, [r7, #20]
 186:rhea\rtc\datetime/datetime.c ****     const int64_t days_from_civil = era * 146097 + doe - 719468;
 983              		.loc 1 186 0 discriminator 4
 984 00fa 3B6A     		ldr	r3, [r7, #32]
 985 00fc 2E4A     		ldr	r2, .L58+12
 986 00fe 02FB03F3 		mul	r3, r2, r3
 987 0102 1A46     		mov	r2, r3
 988 0104 7B69     		ldr	r3, [r7, #20]
 989 0106 1344     		add	r3, r3, r2
 990 0108 A3F52F23 		sub	r3, r3, #716800
 991 010c A3F66C23 		subw	r3, r3, #2668
 992 0110 1A46     		mov	r2, r3
 993 0112 4FF00003 		mov	r3, #0
 994 0116 C7E90223 		strd	r2, [r7, #8]
 187:rhea\rtc\datetime/datetime.c ****     
 188:rhea\rtc\datetime/datetime.c ****     return days_from_civil * RHEA_RTC_SECONDS_PER_DAY + 
 995              		.loc 1 188 0 discriminator 4
 996 011a D7E90201 		ldrd	r0, [r7, #8]
 997 011e 0246     		mov	r2, r0
 998 0120 0B46     		mov	r3, r1
 999 0122 9218     		adds	r2, r2, r2
 1000 0124 43EB0303 		adc	r3, r3, r3
 1001 0128 1218     		adds	r2, r2, r0
 1002 012a 43EB0103 		adc	r3, r3, r1
 1003 012e 1D01     		lsls	r5, r3, #4
 1004 0130 45EA1275 		orr	r5, r5, r2, lsr #28
 1005 0134 1401     		lsls	r4, r2, #4
 1006 0136 A41A     		subs	r4, r4, r2
 1007 0138 65EB0305 		sbc	r5, r5, r3
 1008 013c 4FEA0519 		lsl	r9, r5, #4
 1009 0140 49EA1479 		orr	r9, r9, r4, lsr #28
 1010 0144 4FEA0418 		lsl	r8, r4, #4
 1011 0148 B8EB0408 		subs	r8, r8, r4
 1012 014c 69EB0509 		sbc	r9, r9, r5
 1013 0150 4FEAC91B 		lsl	fp, r9, #7
 1014 0154 4BEA586B 		orr	fp, fp, r8, lsr #25
 1015 0158 4FEAC81A 		lsl	r10, r8, #7
 1016 015c D046     		mov	r8, r10
 1017 015e D946     		mov	r9, fp
 1018 0160 4146     		mov	r1, r8
 1019 0162 4A46     		mov	r2, r9
 189:rhea\rtc\datetime/datetime.c ****            datetime.hour   * RHEA_RTC_SECONDS_PER_HOUR + 
 1020              		.loc 1 189 0 discriminator 4
 1021 0164 7B79     		ldrb	r3, [r7, #5]	@ zero_extendqisi2
 1022 0166 1846     		mov	r0, r3
 1023 0168 4FF46163 		mov	r3, #3600
 1024 016c 03FB00F3 		mul	r3, r3, r0
ARM GAS  C:\Users\GYULAI~1\AppData\Local\Temp\cc4j4Lh9.s 			page 23


 188:rhea\rtc\datetime/datetime.c ****            datetime.hour   * RHEA_RTC_SECONDS_PER_HOUR + 
 1025              		.loc 1 188 0 discriminator 4
 1026 0170 4FEAE374 		asr	r4, r3, #31
 1027 0174 C918     		adds	r1, r1, r3
 1028 0176 42EB0402 		adc	r2, r2, r4
 190:rhea\rtc\datetime/datetime.c ****            datetime.minute * RHEA_RTC_SECONDS_PER_MINUTE +
 1029              		.loc 1 190 0 discriminator 4
 1030 017a BB79     		ldrb	r3, [r7, #6]	@ zero_extendqisi2
 1031 017c 1846     		mov	r0, r3
 1032 017e 0346     		mov	r3, r0
 1033 0180 1B01     		lsls	r3, r3, #4
 1034 0182 1B1A     		subs	r3, r3, r0
 1035 0184 9B00     		lsls	r3, r3, #2
 189:rhea\rtc\datetime/datetime.c ****            datetime.hour   * RHEA_RTC_SECONDS_PER_HOUR + 
 1036              		.loc 1 189 0 discriminator 4
 1037 0186 4FEAE374 		asr	r4, r3, #31
 1038 018a C918     		adds	r1, r1, r3
 1039 018c 42EB0402 		adc	r2, r2, r4
 191:rhea\rtc\datetime/datetime.c ****            datetime.second;
 1040              		.loc 1 191 0 discriminator 4
 1041 0190 FB79     		ldrb	r3, [r7, #7]	@ zero_extendqisi2
 190:rhea\rtc\datetime/datetime.c ****            datetime.minute * RHEA_RTC_SECONDS_PER_MINUTE +
 1042              		.loc 1 190 0 discriminator 4
 1043 0192 DBB2     		uxtb	r3, r3
 1044 0194 4FF00004 		mov	r4, #0
 188:rhea\rtc\datetime/datetime.c ****            datetime.hour   * RHEA_RTC_SECONDS_PER_HOUR + 
 1045              		.loc 1 188 0 discriminator 4
 1046 0198 5B18     		adds	r3, r3, r1
 1047 019a 44EB0204 		adc	r4, r4, r2
 192:rhea\rtc\datetime/datetime.c **** }
 1048              		.loc 1 192 0 discriminator 4
 1049 019e 1846     		mov	r0, r3
 1050 01a0 2146     		mov	r1, r4
 1051 01a2 3037     		adds	r7, r7, #48
 1052              		.cfi_def_cfa_offset 32
 1053 01a4 BD46     		mov	sp, r7
 1054              		.cfi_def_cfa_register 13
 1055              		@ sp needed
 1056 01a6 BDE8B08F 		pop	{r4, r5, r7, r8, r9, r10, fp, pc}
 1057              	.L59:
 1058 01aa 00BF     		.align	2
 1059              	.L58:
 1060 01ac 70FEFFFF 		.word	-400
 1061 01b0 67666666 		.word	1717986919
 1062 01b4 1F85EB51 		.word	1374389535
 1063 01b8 B13A0200 		.word	146097
 1064              		.cfi_endproc
 1065              	.LFE2:
 1066              		.size	rhea_rtc_toSeconds, .-rhea_rtc_toSeconds
 1067              		.global	__aeabi_l2d
 1068              		.global	__aeabi_ddiv
 1069              		.global	__aeabi_d2lz
 1070              		.section	.text.rhea_rtc_fromSeconds,"ax",%progbits
 1071              		.align	2
 1072              		.global	rhea_rtc_fromSeconds
 1073              		.thumb
 1074              		.thumb_func
ARM GAS  C:\Users\GYULAI~1\AppData\Local\Temp\cc4j4Lh9.s 			page 24


 1075              		.type	rhea_rtc_fromSeconds, %function
 1076              	rhea_rtc_fromSeconds:
 1077              	.LFB3:
 193:rhea\rtc\datetime/datetime.c **** 
 194:rhea\rtc\datetime/datetime.c **** rhea_rtc_datetime rhea_rtc_fromSeconds(int64_t seconds) {
 1078              		.loc 1 194 0
 1079              		.cfi_startproc
 1080              		@ args = 0, pretend = 0, frame = 64
 1081              		@ frame_needed = 1, uses_anonymous_args = 0
 1082 0000 2DE99048 		push	{r4, r7, fp, lr}
 1083              		.cfi_def_cfa_offset 16
 1084              		.cfi_offset 4, -16
 1085              		.cfi_offset 7, -12
 1086              		.cfi_offset 11, -8
 1087              		.cfi_offset 14, -4
 1088 0004 90B0     		sub	sp, sp, #64
 1089              		.cfi_def_cfa_offset 80
 1090 0006 00AF     		add	r7, sp, #0
 1091              		.cfi_def_cfa_register 7
 1092 0008 F860     		str	r0, [r7, #12]
 1093 000a C7E90023 		strd	r2, [r7]
 195:rhea\rtc\datetime/datetime.c ****     
 196:rhea\rtc\datetime/datetime.c ****     // Datetime object to populate
 197:rhea\rtc\datetime/datetime.c ****     rhea_rtc_datetime datetime;
 198:rhea\rtc\datetime/datetime.c ****     
 199:rhea\rtc\datetime/datetime.c ****     // Calculating datetime parameters
 200:rhea\rtc\datetime/datetime.c ****     // Algorithm source: https://howardhinnant.github.io/date_algorithms.html#civil_from_days
 201:rhea\rtc\datetime/datetime.c ****     // This algorithm calculates the date from the number of days since epoch 1970.01.01.
 202:rhea\rtc\datetime/datetime.c ****     // Correction for hours, minutes and seconds are included.
 203:rhea\rtc\datetime/datetime.c ****     int64_t z = floor((double)seconds / RHEA_RTC_SECONDS_PER_DAY);
 1094              		.loc 1 203 0
 1095 000e D7E90001 		ldrd	r0, [r7]
 1096 0012 FFF7FEFF 		bl	__aeabi_l2d
 1097 0016 84A3     		adr	r3, .L66
 1098 0018 D3E90023 		ldrd	r2, [r3]
 1099 001c FFF7FEFF 		bl	__aeabi_ddiv
 1100 0020 0346     		mov	r3, r0
 1101 0022 0C46     		mov	r4, r1
 1102 0024 1846     		mov	r0, r3
 1103 0026 2146     		mov	r1, r4
 1104 0028 FFF7FEFF 		bl	floor
 1105 002c 0346     		mov	r3, r0
 1106 002e 0C46     		mov	r4, r1
 1107 0030 1846     		mov	r0, r3
 1108 0032 2146     		mov	r1, r4
 1109 0034 FFF7FEFF 		bl	__aeabi_d2lz
 1110 0038 0346     		mov	r3, r0
 1111 003a 0C46     		mov	r4, r1
 1112 003c C7E90E34 		strd	r3, [r7, #56]
 204:rhea\rtc\datetime/datetime.c ****     seconds = abs(seconds - (z * RHEA_RTC_SECONDS_PER_DAY));
 1113              		.loc 1 204 0
 1114 0040 BB6B     		ldr	r3, [r7, #56]
 1115 0042 7B4A     		ldr	r2, .L66+8
 1116 0044 02FB03F2 		mul	r2, r2, r3
 1117 0048 3B68     		ldr	r3, [r7]
 1118 004a 1344     		add	r3, r3, r2
 1119 004c 002B     		cmp	r3, #0
ARM GAS  C:\Users\GYULAI~1\AppData\Local\Temp\cc4j4Lh9.s 			page 25


 1120 004e B8BF     		it	lt
 1121 0050 5B42     		rsblt	r3, r3, #0
 1122 0052 4FEAE374 		asr	r4, r3, #31
 1123 0056 C7E90034 		strd	r3, [r7]
 205:rhea\rtc\datetime/datetime.c ****     datetime.hour = seconds / RHEA_RTC_SECONDS_PER_HOUR; seconds = seconds % RHEA_RTC_SECONDS_PER_H
 1124              		.loc 1 205 0
 1125 005a D7E90001 		ldrd	r0, [r7]
 1126 005e 4FF46162 		mov	r2, #3600
 1127 0062 4FF00003 		mov	r3, #0
 1128 0066 FFF7FEFF 		bl	__aeabi_ldivmod
 1129 006a 0346     		mov	r3, r0
 1130 006c 0C46     		mov	r4, r1
 1131 006e DBB2     		uxtb	r3, r3
 1132 0070 7B75     		strb	r3, [r7, #21]
 1133 0072 D7E90001 		ldrd	r0, [r7]
 1134 0076 4FF46162 		mov	r2, #3600
 1135 007a 4FF00003 		mov	r3, #0
 1136 007e FFF7FEFF 		bl	__aeabi_ldivmod
 1137 0082 1C46     		mov	r4, r3
 1138 0084 1346     		mov	r3, r2
 1139 0086 C7E90034 		strd	r3, [r7]
 206:rhea\rtc\datetime/datetime.c ****     datetime.minute = seconds / RHEA_RTC_SECONDS_PER_MINUTE; seconds = seconds % RHEA_RTC_SECONDS_P
 1140              		.loc 1 206 0
 1141 008a D7E90001 		ldrd	r0, [r7]
 1142 008e 4FF03C02 		mov	r2, #60
 1143 0092 4FF00003 		mov	r3, #0
 1144 0096 FFF7FEFF 		bl	__aeabi_ldivmod
 1145 009a 0346     		mov	r3, r0
 1146 009c 0C46     		mov	r4, r1
 1147 009e DBB2     		uxtb	r3, r3
 1148 00a0 BB75     		strb	r3, [r7, #22]
 1149 00a2 D7E90001 		ldrd	r0, [r7]
 1150 00a6 4FF03C02 		mov	r2, #60
 1151 00aa 4FF00003 		mov	r3, #0
 1152 00ae FFF7FEFF 		bl	__aeabi_ldivmod
 1153 00b2 1C46     		mov	r4, r3
 1154 00b4 1346     		mov	r3, r2
 1155 00b6 C7E90034 		strd	r3, [r7]
 207:rhea\rtc\datetime/datetime.c ****     datetime.second = seconds;
 1156              		.loc 1 207 0
 1157 00ba 3B78     		ldrb	r3, [r7]	@ zero_extendqisi2
 1158 00bc FB75     		strb	r3, [r7, #23]
 208:rhea\rtc\datetime/datetime.c ****      
 209:rhea\rtc\datetime/datetime.c ****     z += 719468;
 1159              		.loc 1 209 0
 1160 00be D7E90E34 		ldrd	r3, [r7, #56]
 1161 00c2 5C49     		ldr	r1, .L66+12
 1162 00c4 4FF00002 		mov	r2, #0
 1163 00c8 5B18     		adds	r3, r3, r1
 1164 00ca 44EB0204 		adc	r4, r4, r2
 1165 00ce C7E90E34 		strd	r3, [r7, #56]
 210:rhea\rtc\datetime/datetime.c ****     const int era = (z >= 0 ? z : z - 146096) / 146097;
 1166              		.loc 1 210 0
 1167 00d2 D7E90E34 		ldrd	r3, [r7, #56]
 1168 00d6 002B     		cmp	r3, #0
 1169 00d8 74F10003 		sbcs	r3, r4, #0
 1170 00dc 12DA     		bge	.L61
ARM GAS  C:\Users\GYULAI~1\AppData\Local\Temp\cc4j4Lh9.s 			page 26


 1171              		.loc 1 210 0 is_stmt 0 discriminator 1
 1172 00de D7E90E34 		ldrd	r3, [r7, #56]
 1173 00e2 5549     		ldr	r1, .L66+16
 1174 00e4 4FF0FF32 		mov	r2, #-1
 1175 00e8 13EB010B 		adds	fp, r3, r1
 1176 00ec 44EB020C 		adc	ip, r4, r2
 1177 00f0 5846     		mov	r0, fp
 1178 00f2 6146     		mov	r1, ip
 1179 00f4 514A     		ldr	r2, .L66+20
 1180 00f6 4FF00003 		mov	r3, #0
 1181 00fa FFF7FEFF 		bl	__aeabi_ldivmod
 1182 00fe 0346     		mov	r3, r0
 1183 0100 0C46     		mov	r4, r1
 1184 0102 08E0     		b	.L62
 1185              	.L61:
 1186              		.loc 1 210 0 discriminator 2
 1187 0104 D7E90E01 		ldrd	r0, [r7, #56]
 1188 0108 4C4A     		ldr	r2, .L66+20
 1189 010a 4FF00003 		mov	r3, #0
 1190 010e FFF7FEFF 		bl	__aeabi_ldivmod
 1191 0112 0346     		mov	r3, r0
 1192 0114 0C46     		mov	r4, r1
 1193              	.L62:
 1194              		.loc 1 210 0 discriminator 4
 1195 0116 7B63     		str	r3, [r7, #52]
 211:rhea\rtc\datetime/datetime.c ****     const unsigned doe = z - era * 146097;         // [0, 146096]
 1196              		.loc 1 211 0 is_stmt 1 discriminator 4
 1197 0118 BB6B     		ldr	r3, [r7, #56]
 1198 011a 7A6B     		ldr	r2, [r7, #52]
 1199 011c 4849     		ldr	r1, .L66+24
 1200 011e 01FB02F2 		mul	r2, r1, r2
 1201 0122 1344     		add	r3, r3, r2
 1202 0124 3B63     		str	r3, [r7, #48]
 212:rhea\rtc\datetime/datetime.c ****     const unsigned yoe = (doe - doe/1460 + doe/36524 - doe/146096) / 365;  // [0, 399]
 1203              		.loc 1 212 0 discriminator 4
 1204 0126 3B6B     		ldr	r3, [r7, #48]
 1205 0128 9B08     		lsrs	r3, r3, #2
 1206 012a 464A     		ldr	r2, .L66+28
 1207 012c A2FB0323 		umull	r2, r3, r2, r3
 1208 0130 DB09     		lsrs	r3, r3, #7
 1209 0132 3A6B     		ldr	r2, [r7, #48]
 1210 0134 D21A     		subs	r2, r2, r3
 1211 0136 3B6B     		ldr	r3, [r7, #48]
 1212 0138 9B08     		lsrs	r3, r3, #2
 1213 013a 4349     		ldr	r1, .L66+32
 1214 013c A1FB0313 		umull	r1, r3, r1, r3
 1215 0140 DB0A     		lsrs	r3, r3, #11
 1216 0142 1A44     		add	r2, r2, r3
 1217 0144 3B6B     		ldr	r3, [r7, #48]
 1218 0146 1B09     		lsrs	r3, r3, #4
 1219 0148 4049     		ldr	r1, .L66+36
 1220 014a A1FB0313 		umull	r1, r3, r1, r3
 1221 014e 1B09     		lsrs	r3, r3, #4
 1222 0150 D21A     		subs	r2, r2, r3
 1223 0152 3F4B     		ldr	r3, .L66+40
 1224 0154 A3FB0213 		umull	r1, r3, r3, r2
 1225 0158 D21A     		subs	r2, r2, r3
ARM GAS  C:\Users\GYULAI~1\AppData\Local\Temp\cc4j4Lh9.s 			page 27


 1226 015a 5208     		lsrs	r2, r2, #1
 1227 015c 1344     		add	r3, r3, r2
 1228 015e 1B0A     		lsrs	r3, r3, #8
 1229 0160 FB62     		str	r3, [r7, #44]
 213:rhea\rtc\datetime/datetime.c ****     const int y = yoe + era * 400;
 1230              		.loc 1 213 0 discriminator 4
 1231 0162 7B6B     		ldr	r3, [r7, #52]
 1232 0164 4FF4C872 		mov	r2, #400
 1233 0168 02FB03F3 		mul	r3, r2, r3
 1234 016c 1A46     		mov	r2, r3
 1235 016e FB6A     		ldr	r3, [r7, #44]
 1236 0170 1344     		add	r3, r3, r2
 1237 0172 BB62     		str	r3, [r7, #40]
 214:rhea\rtc\datetime/datetime.c ****     const unsigned doy = doe - (365*yoe + yoe/4 - yoe/100);                // [0, 365]
 1238              		.loc 1 214 0 discriminator 4
 1239 0174 FB6A     		ldr	r3, [r7, #44]
 1240 0176 374A     		ldr	r2, .L66+44
 1241 0178 A2FB0323 		umull	r2, r3, r2, r3
 1242 017c 5A09     		lsrs	r2, r3, #5
 1243 017e FB6A     		ldr	r3, [r7, #44]
 1244 0180 40F26D11 		movw	r1, #365
 1245 0184 01FB03F1 		mul	r1, r1, r3
 1246 0188 FB6A     		ldr	r3, [r7, #44]
 1247 018a 9B08     		lsrs	r3, r3, #2
 1248 018c 0B44     		add	r3, r3, r1
 1249 018e D21A     		subs	r2, r2, r3
 1250 0190 3B6B     		ldr	r3, [r7, #48]
 1251 0192 1344     		add	r3, r3, r2
 1252 0194 7B62     		str	r3, [r7, #36]
 215:rhea\rtc\datetime/datetime.c ****     const unsigned mp = (5*doy + 2)/153;                                   // [0, 11]
 1253              		.loc 1 215 0 discriminator 4
 1254 0196 7A6A     		ldr	r2, [r7, #36]
 1255 0198 1346     		mov	r3, r2
 1256 019a 9B00     		lsls	r3, r3, #2
 1257 019c 1344     		add	r3, r3, r2
 1258 019e 0233     		adds	r3, r3, #2
 1259 01a0 2D4A     		ldr	r2, .L66+48
 1260 01a2 A2FB0323 		umull	r2, r3, r2, r3
 1261 01a6 DB09     		lsrs	r3, r3, #7
 1262 01a8 3B62     		str	r3, [r7, #32]
 216:rhea\rtc\datetime/datetime.c ****     const unsigned d = doy - (153*mp+2)/5 + 1;                             // [1, 31]
 1263              		.loc 1 216 0 discriminator 4
 1264 01aa 3A6A     		ldr	r2, [r7, #32]
 1265 01ac 1346     		mov	r3, r2
 1266 01ae DB00     		lsls	r3, r3, #3
 1267 01b0 1344     		add	r3, r3, r2
 1268 01b2 1A01     		lsls	r2, r3, #4
 1269 01b4 1344     		add	r3, r3, r2
 1270 01b6 0233     		adds	r3, r3, #2
 1271 01b8 284A     		ldr	r2, .L66+52
 1272 01ba A2FB0323 		umull	r2, r3, r2, r3
 1273 01be 9B08     		lsrs	r3, r3, #2
 1274 01c0 7A6A     		ldr	r2, [r7, #36]
 1275 01c2 D31A     		subs	r3, r2, r3
 1276 01c4 0133     		adds	r3, r3, #1
 1277 01c6 FB61     		str	r3, [r7, #28]
 217:rhea\rtc\datetime/datetime.c ****     const unsigned m = mp + (mp < 10 ? 3 : -9);                            // [1, 12]
ARM GAS  C:\Users\GYULAI~1\AppData\Local\Temp\cc4j4Lh9.s 			page 28


 1278              		.loc 1 217 0 discriminator 4
 1279 01c8 3B6A     		ldr	r3, [r7, #32]
 1280 01ca 092B     		cmp	r3, #9
 1281 01cc 01D8     		bhi	.L63
 1282              		.loc 1 217 0 is_stmt 0 discriminator 1
 1283 01ce 0322     		movs	r2, #3
 1284 01d0 01E0     		b	.L64
 1285              	.L63:
 1286              		.loc 1 217 0 discriminator 2
 1287 01d2 6FF00802 		mvn	r2, #8
 1288              	.L64:
 1289              		.loc 1 217 0 discriminator 4
 1290 01d6 3B6A     		ldr	r3, [r7, #32]
 1291 01d8 1344     		add	r3, r3, r2
 1292 01da BB61     		str	r3, [r7, #24]
 218:rhea\rtc\datetime/datetime.c ****     datetime.year = y + (m <= 2);
 1293              		.loc 1 218 0 is_stmt 1 discriminator 4
 1294 01dc BB69     		ldr	r3, [r7, #24]
 1295 01de 022B     		cmp	r3, #2
 1296 01e0 94BF     		ite	ls
 1297 01e2 0123     		movls	r3, #1
 1298 01e4 0023     		movhi	r3, #0
 1299 01e6 DBB2     		uxtb	r3, r3
 1300 01e8 9AB2     		uxth	r2, r3
 1301 01ea BB6A     		ldr	r3, [r7, #40]
 1302 01ec 9BB2     		uxth	r3, r3
 1303 01ee 1344     		add	r3, r3, r2
 1304 01f0 9BB2     		uxth	r3, r3
 1305 01f2 3B82     		strh	r3, [r7, #16]	@ movhi
 219:rhea\rtc\datetime/datetime.c ****     datetime.month = m;
 1306              		.loc 1 219 0 discriminator 4
 1307 01f4 BB69     		ldr	r3, [r7, #24]
 1308 01f6 DBB2     		uxtb	r3, r3
 1309 01f8 BB74     		strb	r3, [r7, #18]
 220:rhea\rtc\datetime/datetime.c ****     datetime.date = d;
 1310              		.loc 1 220 0 discriminator 4
 1311 01fa FB69     		ldr	r3, [r7, #28]
 1312 01fc DBB2     		uxtb	r3, r3
 1313 01fe FB74     		strb	r3, [r7, #19]
 221:rhea\rtc\datetime/datetime.c ****     
 222:rhea\rtc\datetime/datetime.c ****     // Setting weekday field
 223:rhea\rtc\datetime/datetime.c ****     rhea_rtc_setWeekday(&datetime);
 1314              		.loc 1 223 0 discriminator 4
 1315 0200 07F11003 		add	r3, r7, #16
 1316 0204 1846     		mov	r0, r3
 1317 0206 FFF7FEFF 		bl	rhea_rtc_setWeekday
 224:rhea\rtc\datetime/datetime.c ****     
 225:rhea\rtc\datetime/datetime.c ****     // Returning datetime
 226:rhea\rtc\datetime/datetime.c ****     return datetime;
 1318              		.loc 1 226 0 discriminator 4
 1319 020a FB68     		ldr	r3, [r7, #12]
 1320 020c 1A46     		mov	r2, r3
 1321 020e 07F11003 		add	r3, r7, #16
 1322 0212 03CB     		ldmia	r3!, {r0, r1}
 1323 0214 1060     		str	r0, [r2]	@ unaligned
 1324 0216 5160     		str	r1, [r2, #4]	@ unaligned
 227:rhea\rtc\datetime/datetime.c **** }
ARM GAS  C:\Users\GYULAI~1\AppData\Local\Temp\cc4j4Lh9.s 			page 29


 1325              		.loc 1 227 0 discriminator 4
 1326 0218 F868     		ldr	r0, [r7, #12]
 1327 021a 4037     		adds	r7, r7, #64
 1328              		.cfi_def_cfa_offset 16
 1329 021c BD46     		mov	sp, r7
 1330              		.cfi_def_cfa_register 13
 1331              		@ sp needed
 1332 021e BDE89088 		pop	{r4, r7, fp, pc}
 1333              	.L67:
 1334 0222 00BFAFF3 		.align	3
 1334      0080
 1335              	.L66:
 1336 0228 00000000 		.word	0
 1337 022c 0018F540 		.word	1089804288
 1338 0230 80AEFEFF 		.word	-86400
 1339 0234 6CFA0A00 		.word	719468
 1340 0238 50C5FDFF 		.word	-146096
 1341 023c B13A0200 		.word	146097
 1342 0240 4FC5FDFF 		.word	-146097
 1343 0244 D97CC659 		.word	1506180313
 1344 0248 7F206B39 		.word	963321983
 1345 024c 41D67200 		.word	7525953
 1346 0250 61F31967 		.word	1729753953
 1347 0254 1F85EB51 		.word	1374389535
 1348 0258 D7802BD6 		.word	-701792041
 1349 025c CDCCCCCC 		.word	-858993459
 1350              		.cfi_endproc
 1351              	.LFE3:
 1352              		.size	rhea_rtc_fromSeconds, .-rhea_rtc_fromSeconds
 1353              		.section	.rodata
 1354 01f7 00       		.align	2
 1355              	.LC41:
 1356 01f8 25752E25 		.ascii	"%u.%u.%u %u:%u:%u\000"
 1356      752E2575 
 1356      2025753A 
 1356      25753A25 
 1356      7500
 1357 020a 0000     		.align	2
 1358              	.LC42:
 1359 020c 25752F25 		.ascii	"%u/%u/%u %u:%u:%u\000"
 1359      752F2575 
 1359      2025753A 
 1359      25753A25 
 1359      7500
 1360              		.section	.text.rhea_rtc_fromString,"ax",%progbits
 1361              		.align	2
 1362              		.global	rhea_rtc_fromString
 1363              		.thumb
 1364              		.thumb_func
 1365              		.type	rhea_rtc_fromString, %function
 1366              	rhea_rtc_fromString:
 1367              	.LFB4:
 228:rhea\rtc\datetime/datetime.c **** 
 229:rhea\rtc\datetime/datetime.c **** rhea_rtc_datetime rhea_rtc_fromString(const char *str) {
 1368              		.loc 1 229 0
 1369              		.cfi_startproc
 1370              		@ args = 0, pretend = 0, frame = 16
ARM GAS  C:\Users\GYULAI~1\AppData\Local\Temp\cc4j4Lh9.s 			page 30


 1371              		@ frame_needed = 1, uses_anonymous_args = 0
 1372 0000 80B5     		push	{r7, lr}
 1373              		.cfi_def_cfa_offset 8
 1374              		.cfi_offset 7, -8
 1375              		.cfi_offset 14, -4
 1376 0002 88B0     		sub	sp, sp, #32
 1377              		.cfi_def_cfa_offset 40
 1378 0004 04AF     		add	r7, sp, #16
 1379              		.cfi_def_cfa 7, 24
 1380 0006 7860     		str	r0, [r7, #4]
 1381 0008 3960     		str	r1, [r7]
 230:rhea\rtc\datetime/datetime.c ****     
 231:rhea\rtc\datetime/datetime.c ****     // Creating datetime to store the results
 232:rhea\rtc\datetime/datetime.c ****     rhea_rtc_datetime d;
 233:rhea\rtc\datetime/datetime.c ****     
 234:rhea\rtc\datetime/datetime.c ****     // Parsing string input
 235:rhea\rtc\datetime/datetime.c ****     if (sscanf(str,"%u.%u.%u %u:%u:%u", // YYYY.MM.DD hh:mm:ss
 1382              		.loc 1 235 0
 1383 000a 07F10803 		add	r3, r7, #8
 1384 000e 991C     		adds	r1, r3, #2
 1385 0010 07F10802 		add	r2, r7, #8
 1386 0014 07F10803 		add	r3, r7, #8
 1387 0018 0733     		adds	r3, r3, #7
 1388 001a 0393     		str	r3, [sp, #12]
 1389 001c 07F10803 		add	r3, r7, #8
 1390 0020 0633     		adds	r3, r3, #6
 1391 0022 0293     		str	r3, [sp, #8]
 1392 0024 07F10803 		add	r3, r7, #8
 1393 0028 0533     		adds	r3, r3, #5
 1394 002a 0193     		str	r3, [sp, #4]
 1395 002c 07F10803 		add	r3, r7, #8
 1396 0030 0333     		adds	r3, r3, #3
 1397 0032 0093     		str	r3, [sp]
 1398 0034 0B46     		mov	r3, r1
 1399 0036 1A49     		ldr	r1, .L72
 1400 0038 3868     		ldr	r0, [r7]
 1401 003a FFF7FEFF 		bl	sscanf
 1402 003e 0346     		mov	r3, r0
 1403 0040 062B     		cmp	r3, #6
 1404 0042 1CD0     		beq	.L69
 236:rhea\rtc\datetime/datetime.c ****         (unsigned*)&(d.year), (unsigned*)&(d.month),  (unsigned*)&(d.date), 
 237:rhea\rtc\datetime/datetime.c ****         (unsigned*)&(d.hour), (unsigned*)&(d.minute), (unsigned*)&(d.second)) == 6 ||
 238:rhea\rtc\datetime/datetime.c ****         sscanf(str,"%u/%u/%u %u:%u:%u", // YYYY/MM/DD hh:mm:ss
 1405              		.loc 1 238 0
 1406 0044 07F10803 		add	r3, r7, #8
 1407 0048 991C     		adds	r1, r3, #2
 1408 004a 07F10802 		add	r2, r7, #8
 1409 004e 07F10803 		add	r3, r7, #8
 1410 0052 0733     		adds	r3, r3, #7
 1411 0054 0393     		str	r3, [sp, #12]
 1412 0056 07F10803 		add	r3, r7, #8
 1413 005a 0633     		adds	r3, r3, #6
 1414 005c 0293     		str	r3, [sp, #8]
 1415 005e 07F10803 		add	r3, r7, #8
 1416 0062 0533     		adds	r3, r3, #5
 1417 0064 0193     		str	r3, [sp, #4]
 1418 0066 07F10803 		add	r3, r7, #8
ARM GAS  C:\Users\GYULAI~1\AppData\Local\Temp\cc4j4Lh9.s 			page 31


 1419 006a 0333     		adds	r3, r3, #3
 1420 006c 0093     		str	r3, [sp]
 1421 006e 0B46     		mov	r3, r1
 1422 0070 0C49     		ldr	r1, .L72+4
 1423 0072 3868     		ldr	r0, [r7]
 1424 0074 FFF7FEFF 		bl	sscanf
 1425 0078 0346     		mov	r3, r0
 237:rhea\rtc\datetime/datetime.c ****         sscanf(str,"%u/%u/%u %u:%u:%u", // YYYY/MM/DD hh:mm:ss
 1426              		.loc 1 237 0
 1427 007a 062B     		cmp	r3, #6
 1428 007c 04D1     		bne	.L70
 1429              	.L69:
 239:rhea\rtc\datetime/datetime.c ****         (unsigned*)&(d.year), (unsigned*)&(d.month),  (unsigned*)&(d.date), 
 240:rhea\rtc\datetime/datetime.c ****         (unsigned*)&(d.hour), (unsigned*)&(d.minute), (unsigned*)&(d.second)) == 6) 
 241:rhea\rtc\datetime/datetime.c ****     {
 242:rhea\rtc\datetime/datetime.c ****         // Calculating weekday
 243:rhea\rtc\datetime/datetime.c ****         rhea_rtc_setWeekday(&d);
 1430              		.loc 1 243 0
 1431 007e 07F10803 		add	r3, r7, #8
 1432 0082 1846     		mov	r0, r3
 1433 0084 FFF7FEFF 		bl	rhea_rtc_setWeekday
 1434              	.L70:
 244:rhea\rtc\datetime/datetime.c ****     }
 245:rhea\rtc\datetime/datetime.c ****     
 246:rhea\rtc\datetime/datetime.c ****     return d;
 1435              		.loc 1 246 0
 1436 0088 7B68     		ldr	r3, [r7, #4]
 1437 008a 1A46     		mov	r2, r3
 1438 008c 07F10803 		add	r3, r7, #8
 1439 0090 03CB     		ldmia	r3!, {r0, r1}
 1440 0092 1060     		str	r0, [r2]	@ unaligned
 1441 0094 5160     		str	r1, [r2, #4]	@ unaligned
 247:rhea\rtc\datetime/datetime.c **** }
 1442              		.loc 1 247 0
 1443 0096 7868     		ldr	r0, [r7, #4]
 1444 0098 1037     		adds	r7, r7, #16
 1445              		.cfi_def_cfa_offset 8
 1446 009a BD46     		mov	sp, r7
 1447              		.cfi_def_cfa_register 13
 1448              		@ sp needed
 1449 009c 80BD     		pop	{r7, pc}
 1450              	.L73:
 1451 009e 00BF     		.align	2
 1452              	.L72:
 1453 00a0 F8010000 		.word	.LC41
 1454 00a4 0C020000 		.word	.LC42
 1455              		.cfi_endproc
 1456              	.LFE4:
 1457              		.size	rhea_rtc_fromString, .-rhea_rtc_fromString
 1458              		.section	.rodata
 1459 021e 0000     		.align	2
 1460              	.LC0:
 1461 0220 FF       		.byte	-1
 1462 0221 00       		.byte	0
 1463 0222 03       		.byte	3
 1464 0223 03       		.byte	3
 1465 0224 06       		.byte	6
ARM GAS  C:\Users\GYULAI~1\AppData\Local\Temp\cc4j4Lh9.s 			page 32


 1466 0225 01       		.byte	1
 1467 0226 04       		.byte	4
 1468 0227 06       		.byte	6
 1469 0228 02       		.byte	2
 1470 0229 05       		.byte	5
 1471 022a 00       		.byte	0
 1472 022b 03       		.byte	3
 1473 022c 05       		.byte	5
 1474              		.section	.text.rhea_rtc_setWeekday,"ax",%progbits
 1475              		.align	2
 1476              		.global	rhea_rtc_setWeekday
 1477              		.thumb
 1478              		.thumb_func
 1479              		.type	rhea_rtc_setWeekday, %function
 1480              	rhea_rtc_setWeekday:
 1481              	.LFB5:
 248:rhea\rtc\datetime/datetime.c **** 
 249:rhea\rtc\datetime/datetime.c **** void rhea_rtc_setWeekday(rhea_rtc_datetime *d) {
 1482              		.loc 1 249 0
 1483              		.cfi_startproc
 1484              		@ args = 0, pretend = 0, frame = 32
 1485              		@ frame_needed = 1, uses_anonymous_args = 0
 1486              		@ link register save eliminated.
 1487 0000 90B4     		push	{r4, r7}
 1488              		.cfi_def_cfa_offset 8
 1489              		.cfi_offset 4, -8
 1490              		.cfi_offset 7, -4
 1491 0002 88B0     		sub	sp, sp, #32
 1492              		.cfi_def_cfa_offset 40
 1493 0004 00AF     		add	r7, sp, #0
 1494              		.cfi_def_cfa_register 7
 1495 0006 7860     		str	r0, [r7, #4]
 250:rhea\rtc\datetime/datetime.c **** 
 251:rhea\rtc\datetime/datetime.c ****     // This weekday calculation algorithm is only correct between [1900; 2099],
 252:rhea\rtc\datetime/datetime.c **** 
 253:rhea\rtc\datetime/datetime.c ****     // Monthcode corrections: First entry is invalid (January corresponds to monthCodes[1])
 254:rhea\rtc\datetime/datetime.c ****     int8_t monthCodes[] = {-1, 0, 3, 3, 6, 1, 4, 6, 2, 5, 0, 3, 5};
 1496              		.loc 1 254 0
 1497 0008 384A     		ldr	r2, .L80
 1498 000a 07F10C03 		add	r3, r7, #12
 1499 000e 1446     		mov	r4, r2
 1500 0010 2068     		ldr	r0, [r4]	@ unaligned
 1501 0012 6168     		ldr	r1, [r4, #4]	@ unaligned
 1502 0014 A268     		ldr	r2, [r4, #8]	@ unaligned
 1503 0016 07C3     		stmia	r3!, {r0, r1, r2}
 1504 0018 227B     		ldrb	r2, [r4, #12]
 1505 001a 1A70     		strb	r2, [r3]
 255:rhea\rtc\datetime/datetime.c **** 
 256:rhea\rtc\datetime/datetime.c ****     // Calculating correction codes
 257:rhea\rtc\datetime/datetime.c ****     uint8_t yearCode = ((d->year % 100) + ((d->year % 100) / 4)) % 7;
 1506              		.loc 1 257 0
 1507 001c 7B68     		ldr	r3, [r7, #4]
 1508 001e 1B88     		ldrh	r3, [r3]
 1509 0020 334A     		ldr	r2, .L80+4
 1510 0022 A2FB0312 		umull	r1, r2, r2, r3
 1511 0026 5209     		lsrs	r2, r2, #5
 1512 0028 6421     		movs	r1, #100
ARM GAS  C:\Users\GYULAI~1\AppData\Local\Temp\cc4j4Lh9.s 			page 33


 1513 002a 01FB02F2 		mul	r2, r1, r2
 1514 002e 9B1A     		subs	r3, r3, r2
 1515 0030 9BB2     		uxth	r3, r3
 1516 0032 1846     		mov	r0, r3
 1517 0034 7B68     		ldr	r3, [r7, #4]
 1518 0036 1B88     		ldrh	r3, [r3]
 1519 0038 2D4A     		ldr	r2, .L80+4
 1520 003a A2FB0312 		umull	r1, r2, r2, r3
 1521 003e 5209     		lsrs	r2, r2, #5
 1522 0040 6421     		movs	r1, #100
 1523 0042 01FB02F2 		mul	r2, r1, r2
 1524 0046 9B1A     		subs	r3, r3, r2
 1525 0048 9BB2     		uxth	r3, r3
 1526 004a 9B08     		lsrs	r3, r3, #2
 1527 004c 9BB2     		uxth	r3, r3
 1528 004e C218     		adds	r2, r0, r3
 1529 0050 284B     		ldr	r3, .L80+8
 1530 0052 82FB0334 		smull	r3, r4, r2, r3
 1531 0056 1319     		adds	r3, r2, r4
 1532 0058 9910     		asrs	r1, r3, #2
 1533 005a D317     		asrs	r3, r2, #31
 1534 005c C91A     		subs	r1, r1, r3
 1535 005e 0B46     		mov	r3, r1
 1536 0060 DB00     		lsls	r3, r3, #3
 1537 0062 5B1A     		subs	r3, r3, r1
 1538 0064 D11A     		subs	r1, r2, r3
 1539 0066 0B46     		mov	r3, r1
 1540 0068 FB77     		strb	r3, [r7, #31]
 258:rhea\rtc\datetime/datetime.c ****     uint8_t monthCode = monthCodes[d->month];
 1541              		.loc 1 258 0
 1542 006a 7B68     		ldr	r3, [r7, #4]
 1543 006c 9B78     		ldrb	r3, [r3, #2]	@ zero_extendqisi2
 1544 006e 07F12002 		add	r2, r7, #32
 1545 0072 1344     		add	r3, r3, r2
 1546 0074 13F9143C 		ldrsb	r3, [r3, #-20]
 1547 0078 BB77     		strb	r3, [r7, #30]
 259:rhea\rtc\datetime/datetime.c ****     uint8_t centuryCode = d->year < 2000 ? 0 : 6;
 1548              		.loc 1 259 0
 1549 007a 7B68     		ldr	r3, [r7, #4]
 1550 007c 1B88     		ldrh	r3, [r3]
 1551 007e B3F5FA6F 		cmp	r3, #2000
 1552 0082 01D2     		bcs	.L75
 1553              		.loc 1 259 0 is_stmt 0 discriminator 1
 1554 0084 0023     		movs	r3, #0
 1555 0086 00E0     		b	.L76
 1556              	.L75:
 1557              		.loc 1 259 0 discriminator 2
 1558 0088 0623     		movs	r3, #6
 1559              	.L76:
 1560              		.loc 1 259 0 discriminator 4
 1561 008a 7B77     		strb	r3, [r7, #29]
 260:rhea\rtc\datetime/datetime.c ****     uint8_t leapyearCode = ((d->year) / 4 == 0 && (d->month == 1 || d->month == 2)) ? 1 : 0;
 1562              		.loc 1 260 0 is_stmt 1 discriminator 4
 1563 008c 7B68     		ldr	r3, [r7, #4]
 1564 008e 1B88     		ldrh	r3, [r3]
 1565 0090 032B     		cmp	r3, #3
 1566 0092 09D8     		bhi	.L77
ARM GAS  C:\Users\GYULAI~1\AppData\Local\Temp\cc4j4Lh9.s 			page 34


 1567              		.loc 1 260 0 is_stmt 0 discriminator 1
 1568 0094 7B68     		ldr	r3, [r7, #4]
 1569 0096 9B78     		ldrb	r3, [r3, #2]	@ zero_extendqisi2
 1570 0098 012B     		cmp	r3, #1
 1571 009a 03D0     		beq	.L78
 1572              		.loc 1 260 0 discriminator 4
 1573 009c 7B68     		ldr	r3, [r7, #4]
 1574 009e 9B78     		ldrb	r3, [r3, #2]	@ zero_extendqisi2
 1575 00a0 022B     		cmp	r3, #2
 1576 00a2 01D1     		bne	.L77
 1577              	.L78:
 1578              		.loc 1 260 0 discriminator 5
 1579 00a4 0123     		movs	r3, #1
 1580 00a6 00E0     		b	.L79
 1581              	.L77:
 1582              		.loc 1 260 0 discriminator 6
 1583 00a8 0023     		movs	r3, #0
 1584              	.L79:
 1585              		.loc 1 260 0 discriminator 8
 1586 00aa 3B77     		strb	r3, [r7, #28]
 261:rhea\rtc\datetime/datetime.c **** 
 262:rhea\rtc\datetime/datetime.c ****     // Setting weekday (Correction result in Sunday being 0, one is added for MCP7940N's driver con
 263:rhea\rtc\datetime/datetime.c ****     d->weekday = ((yearCode + monthCode + centuryCode + d->date - leapyearCode) % 7) + 1;
 1587              		.loc 1 263 0 is_stmt 1 discriminator 8
 1588 00ac FA7F     		ldrb	r2, [r7, #31]	@ zero_extendqisi2
 1589 00ae BB7F     		ldrb	r3, [r7, #30]	@ zero_extendqisi2
 1590 00b0 1A44     		add	r2, r2, r3
 1591 00b2 7B7F     		ldrb	r3, [r7, #29]	@ zero_extendqisi2
 1592 00b4 1344     		add	r3, r3, r2
 1593 00b6 7A68     		ldr	r2, [r7, #4]
 1594 00b8 D278     		ldrb	r2, [r2, #3]	@ zero_extendqisi2
 1595 00ba 1A44     		add	r2, r2, r3
 1596 00bc 3B7F     		ldrb	r3, [r7, #28]	@ zero_extendqisi2
 1597 00be D21A     		subs	r2, r2, r3
 1598 00c0 0C4B     		ldr	r3, .L80+8
 1599 00c2 82FB0334 		smull	r3, r4, r2, r3
 1600 00c6 1319     		adds	r3, r2, r4
 1601 00c8 9910     		asrs	r1, r3, #2
 1602 00ca D317     		asrs	r3, r2, #31
 1603 00cc C91A     		subs	r1, r1, r3
 1604 00ce 0B46     		mov	r3, r1
 1605 00d0 DB00     		lsls	r3, r3, #3
 1606 00d2 5B1A     		subs	r3, r3, r1
 1607 00d4 D11A     		subs	r1, r2, r3
 1608 00d6 CBB2     		uxtb	r3, r1
 1609 00d8 0133     		adds	r3, r3, #1
 1610 00da DAB2     		uxtb	r2, r3
 1611 00dc 7B68     		ldr	r3, [r7, #4]
 1612 00de 1A71     		strb	r2, [r3, #4]
 264:rhea\rtc\datetime/datetime.c **** }
 1613              		.loc 1 264 0 discriminator 8
 1614 00e0 00BF     		nop
 1615 00e2 2037     		adds	r7, r7, #32
 1616              		.cfi_def_cfa_offset 8
 1617 00e4 BD46     		mov	sp, r7
 1618              		.cfi_def_cfa_register 13
 1619              		@ sp needed
ARM GAS  C:\Users\GYULAI~1\AppData\Local\Temp\cc4j4Lh9.s 			page 35


 1620 00e6 90BC     		pop	{r4, r7}
 1621              		.cfi_restore 7
 1622              		.cfi_restore 4
 1623              		.cfi_def_cfa_offset 0
 1624 00e8 7047     		bx	lr
 1625              	.L81:
 1626 00ea 00BF     		.align	2
 1627              	.L80:
 1628 00ec 20020000 		.word	.LC0
 1629 00f0 1F85EB51 		.word	1374389535
 1630 00f4 93244992 		.word	-1840700269
 1631              		.cfi_endproc
 1632              	.LFE5:
 1633              		.size	rhea_rtc_setWeekday, .-rhea_rtc_setWeekday
 1634              		.section	.text.rhea_rtc_compareDatetime,"ax",%progbits
 1635              		.align	2
 1636              		.global	rhea_rtc_compareDatetime
 1637              		.thumb
 1638              		.thumb_func
 1639              		.type	rhea_rtc_compareDatetime, %function
 1640              	rhea_rtc_compareDatetime:
 1641              	.LFB6:
 265:rhea\rtc\datetime/datetime.c **** 
 266:rhea\rtc\datetime/datetime.c **** int64_t rhea_rtc_compareDatetime(const rhea_rtc_datetime lhs, const rhea_rtc_datetime rhs) {
 1642              		.loc 1 266 0
 1643              		.cfi_startproc
 1644              		@ args = 0, pretend = 0, frame = 16
 1645              		@ frame_needed = 1, uses_anonymous_args = 0
 1646 0000 F0B5     		push	{r4, r5, r6, r7, lr}
 1647              		.cfi_def_cfa_offset 20
 1648              		.cfi_offset 4, -20
 1649              		.cfi_offset 5, -16
 1650              		.cfi_offset 6, -12
 1651              		.cfi_offset 7, -8
 1652              		.cfi_offset 14, -4
 1653 0002 85B0     		sub	sp, sp, #20
 1654              		.cfi_def_cfa_offset 40
 1655 0004 00AF     		add	r7, sp, #0
 1656              		.cfi_def_cfa_register 7
 1657 0006 07F10804 		add	r4, r7, #8
 1658 000a 84E80300 		stmia	r4, {r0, r1}
 1659 000e 3946     		mov	r1, r7
 1660 0010 81E80C00 		stmia	r1, {r2, r3}
 267:rhea\rtc\datetime/datetime.c ****     return rhea_rtc_toSeconds(rhs) - rhea_rtc_toSeconds(lhs);
 1661              		.loc 1 267 0
 1662 0014 3B46     		mov	r3, r7
 1663 0016 93E80300 		ldmia	r3, {r0, r1}
 1664 001a FFF7FEFF 		bl	rhea_rtc_toSeconds
 1665 001e 0546     		mov	r5, r0
 1666 0020 0E46     		mov	r6, r1
 1667 0022 07F10803 		add	r3, r7, #8
 1668 0026 93E80300 		ldmia	r3, {r0, r1}
 1669 002a FFF7FEFF 		bl	rhea_rtc_toSeconds
 1670 002e 0346     		mov	r3, r0
 1671 0030 0C46     		mov	r4, r1
 1672 0032 EB1A     		subs	r3, r5, r3
 1673 0034 66EB0404 		sbc	r4, r6, r4
ARM GAS  C:\Users\GYULAI~1\AppData\Local\Temp\cc4j4Lh9.s 			page 36


 268:rhea\rtc\datetime/datetime.c **** }
 1674              		.loc 1 268 0
 1675 0038 1846     		mov	r0, r3
 1676 003a 2146     		mov	r1, r4
 1677 003c 1437     		adds	r7, r7, #20
 1678              		.cfi_def_cfa_offset 20
 1679 003e BD46     		mov	sp, r7
 1680              		.cfi_def_cfa_register 13
 1681              		@ sp needed
 1682 0040 F0BD     		pop	{r4, r5, r6, r7, pc}
 1683              		.cfi_endproc
 1684              	.LFE6:
 1685              		.size	rhea_rtc_compareDatetime, .-rhea_rtc_compareDatetime
 1686 0042 00BF     		.section	.text.rhea_rtc_addDatetime,"ax",%progbits
 1687              		.align	2
 1688              		.global	rhea_rtc_addDatetime
 1689              		.thumb
 1690              		.thumb_func
 1691              		.type	rhea_rtc_addDatetime, %function
 1692              	rhea_rtc_addDatetime:
 1693              	.LFB7:
 269:rhea\rtc\datetime/datetime.c **** 
 270:rhea\rtc\datetime/datetime.c **** rhea_rtc_datetime rhea_rtc_addDatetime(const rhea_rtc_datetime lhs, const rhea_rtc_datetime rhs) {
 1694              		.loc 1 270 0
 1695              		.cfi_startproc
 1696              		@ args = 12, pretend = 8, frame = 32
 1697              		@ frame_needed = 1, uses_anonymous_args = 0
 1698 0000 82B0     		sub	sp, sp, #8
 1699              		.cfi_def_cfa_offset 8
 1700 0002 90B5     		push	{r4, r7, lr}
 1701              		.cfi_def_cfa_offset 20
 1702              		.cfi_offset 4, -20
 1703              		.cfi_offset 7, -16
 1704              		.cfi_offset 14, -12
 1705 0004 89B0     		sub	sp, sp, #36
 1706              		.cfi_def_cfa_offset 56
 1707 0006 00AF     		add	r7, sp, #0
 1708              		.cfi_def_cfa_register 7
 1709 0008 F860     		str	r0, [r7, #12]
 1710 000a 381D     		adds	r0, r7, #4
 1711 000c 80E80600 		stmia	r0, {r1, r2}
 1712 0010 7B63     		str	r3, [r7, #52]
 271:rhea\rtc\datetime/datetime.c ****     uint64_t lhsSeconds = rhea_rtc_toSeconds(lhs);
 1713              		.loc 1 271 0
 1714 0012 3B1D     		adds	r3, r7, #4
 1715 0014 93E80300 		ldmia	r3, {r0, r1}
 1716 0018 FFF7FEFF 		bl	rhea_rtc_toSeconds
 1717 001c 0346     		mov	r3, r0
 1718 001e 0C46     		mov	r4, r1
 1719 0020 C7E90634 		strd	r3, [r7, #24]
 272:rhea\rtc\datetime/datetime.c ****     uint64_t rhsSeconds = rhea_rtc_toSeconds(rhs);
 1720              		.loc 1 272 0
 1721 0024 07F13403 		add	r3, r7, #52
 1722 0028 93E80300 		ldmia	r3, {r0, r1}
 1723 002c FFF7FEFF 		bl	rhea_rtc_toSeconds
 1724 0030 0346     		mov	r3, r0
 1725 0032 0C46     		mov	r4, r1
ARM GAS  C:\Users\GYULAI~1\AppData\Local\Temp\cc4j4Lh9.s 			page 37


 1726 0034 C7E90434 		strd	r3, [r7, #16]
 273:rhea\rtc\datetime/datetime.c ****     return rhea_rtc_fromSeconds(lhsSeconds + rhsSeconds);
 1727              		.loc 1 273 0
 1728 0038 D7E90612 		ldrd	r1, [r7, #24]
 1729 003c D7E90434 		ldrd	r3, [r7, #16]
 1730 0040 5B18     		adds	r3, r3, r1
 1731 0042 44EB0204 		adc	r4, r4, r2
 1732 0046 F968     		ldr	r1, [r7, #12]
 1733 0048 1A46     		mov	r2, r3
 1734 004a 2346     		mov	r3, r4
 1735 004c 0846     		mov	r0, r1
 1736 004e FFF7FEFF 		bl	rhea_rtc_fromSeconds
 274:rhea\rtc\datetime/datetime.c **** }
 1737              		.loc 1 274 0
 1738 0052 F868     		ldr	r0, [r7, #12]
 1739 0054 2437     		adds	r7, r7, #36
 1740              		.cfi_def_cfa_offset 20
 1741 0056 BD46     		mov	sp, r7
 1742              		.cfi_def_cfa_register 13
 1743              		@ sp needed
 1744 0058 BDE89040 		pop	{r4, r7, lr}
 1745              		.cfi_restore 14
 1746              		.cfi_restore 7
 1747              		.cfi_restore 4
 1748              		.cfi_def_cfa_offset 8
 1749 005c 02B0     		add	sp, sp, #8
 1750              		.cfi_def_cfa_offset 0
 1751 005e 7047     		bx	lr
 1752              		.cfi_endproc
 1753              	.LFE7:
 1754              		.size	rhea_rtc_addDatetime, .-rhea_rtc_addDatetime
 1755              		.text
 1756              	.Letext0:
 1757              		.file 2 "e:\\cypress\\psoc creator\\4.2\\psoc creator\\import\\gnu\\arm\\5.4.1\\arm-none-eabi\\inc
 1758              		.file 3 "e:\\cypress\\psoc creator\\4.2\\psoc creator\\import\\gnu\\arm\\5.4.1\\arm-none-eabi\\inc
 1759              		.file 4 "rhea\\rtc\\datetime\\datetime.h"
 1760              		.section	.debug_info,"",%progbits
 1761              	.Ldebug_info0:
 1762 0000 F9050000 		.4byte	0x5f9
 1763 0004 0400     		.2byte	0x4
 1764 0006 00000000 		.4byte	.Ldebug_abbrev0
 1765 000a 04       		.byte	0x4
 1766 000b 01       		.uleb128 0x1
 1767 000c 49000000 		.4byte	.LASF65
 1768 0010 0C       		.byte	0xc
 1769 0011 7E010000 		.4byte	.LASF66
 1770 0015 25030000 		.4byte	.LASF67
 1771 0019 00000000 		.4byte	.Ldebug_ranges0+0
 1772 001d 00000000 		.4byte	0
 1773 0021 00000000 		.4byte	.Ldebug_line0
 1774 0025 02       		.uleb128 0x2
 1775 0026 04       		.byte	0x4
 1776 0027 07       		.byte	0x7
 1777 0028 F2010000 		.4byte	.LASF0
 1778 002c 03       		.uleb128 0x3
 1779 002d 04       		.byte	0x4
 1780 002e 05       		.byte	0x5
ARM GAS  C:\Users\GYULAI~1\AppData\Local\Temp\cc4j4Lh9.s 			page 38


 1781 002f 696E7400 		.ascii	"int\000"
 1782 0033 02       		.uleb128 0x2
 1783 0034 08       		.byte	0x8
 1784 0035 05       		.byte	0x5
 1785 0036 23010000 		.4byte	.LASF1
 1786 003a 02       		.uleb128 0x2
 1787 003b 08       		.byte	0x8
 1788 003c 04       		.byte	0x4
 1789 003d 94020000 		.4byte	.LASF2
 1790 0041 04       		.uleb128 0x4
 1791 0042 1A010000 		.4byte	.LASF4
 1792 0046 02       		.byte	0x2
 1793 0047 1B       		.byte	0x1b
 1794 0048 4C000000 		.4byte	0x4c
 1795 004c 02       		.uleb128 0x2
 1796 004d 01       		.byte	0x1
 1797 004e 06       		.byte	0x6
 1798 004f 31010000 		.4byte	.LASF3
 1799 0053 04       		.uleb128 0x4
 1800 0054 3F000000 		.4byte	.LASF5
 1801 0058 02       		.byte	0x2
 1802 0059 1D       		.byte	0x1d
 1803 005a 5E000000 		.4byte	0x5e
 1804 005e 02       		.uleb128 0x2
 1805 005f 01       		.byte	0x1
 1806 0060 08       		.byte	0x8
 1807 0061 E0020000 		.4byte	.LASF6
 1808 0065 02       		.uleb128 0x2
 1809 0066 02       		.byte	0x2
 1810 0067 05       		.byte	0x5
 1811 0068 EE020000 		.4byte	.LASF7
 1812 006c 04       		.uleb128 0x4
 1813 006d 7F030000 		.4byte	.LASF8
 1814 0071 02       		.byte	0x2
 1815 0072 2B       		.byte	0x2b
 1816 0073 77000000 		.4byte	0x77
 1817 0077 02       		.uleb128 0x2
 1818 0078 02       		.byte	0x2
 1819 0079 07       		.byte	0x7
 1820 007a 45020000 		.4byte	.LASF9
 1821 007e 02       		.uleb128 0x2
 1822 007f 04       		.byte	0x4
 1823 0080 05       		.byte	0x5
 1824 0081 D7000000 		.4byte	.LASF10
 1825 0085 02       		.uleb128 0x2
 1826 0086 04       		.byte	0x4
 1827 0087 07       		.byte	0x7
 1828 0088 FF010000 		.4byte	.LASF11
 1829 008c 04       		.uleb128 0x4
 1830 008d 10010000 		.4byte	.LASF12
 1831 0091 02       		.byte	0x2
 1832 0092 59       		.byte	0x59
 1833 0093 33000000 		.4byte	0x33
 1834 0097 04       		.uleb128 0x4
 1835 0098 BC020000 		.4byte	.LASF13
 1836 009c 02       		.byte	0x2
 1837 009d 5B       		.byte	0x5b
ARM GAS  C:\Users\GYULAI~1\AppData\Local\Temp\cc4j4Lh9.s 			page 39


 1838 009e A2000000 		.4byte	0xa2
 1839 00a2 02       		.uleb128 0x2
 1840 00a3 08       		.byte	0x8
 1841 00a4 07       		.byte	0x7
 1842 00a5 E0000000 		.4byte	.LASF14
 1843 00a9 02       		.uleb128 0x2
 1844 00aa 04       		.byte	0x4
 1845 00ab 07       		.byte	0x7
 1846 00ac 8B020000 		.4byte	.LASF15
 1847 00b0 05       		.uleb128 0x5
 1848 00b1 04       		.byte	0x4
 1849 00b2 B6000000 		.4byte	0xb6
 1850 00b6 02       		.uleb128 0x2
 1851 00b7 01       		.byte	0x1
 1852 00b8 08       		.byte	0x8
 1853 00b9 7A030000 		.4byte	.LASF16
 1854 00bd 05       		.uleb128 0x5
 1855 00be 04       		.byte	0x4
 1856 00bf C3000000 		.4byte	0xc3
 1857 00c3 06       		.uleb128 0x6
 1858 00c4 B6000000 		.4byte	0xb6
 1859 00c8 04       		.uleb128 0x4
 1860 00c9 A5030000 		.4byte	.LASF17
 1861 00cd 03       		.byte	0x3
 1862 00ce 14       		.byte	0x14
 1863 00cf 41000000 		.4byte	0x41
 1864 00d3 04       		.uleb128 0x4
 1865 00d4 EA030000 		.4byte	.LASF18
 1866 00d8 03       		.byte	0x3
 1867 00d9 18       		.byte	0x18
 1868 00da 53000000 		.4byte	0x53
 1869 00de 04       		.uleb128 0x4
 1870 00df A6010000 		.4byte	.LASF19
 1871 00e3 03       		.byte	0x3
 1872 00e4 24       		.byte	0x24
 1873 00e5 6C000000 		.4byte	0x6c
 1874 00e9 04       		.uleb128 0x4
 1875 00ea 37040000 		.4byte	.LASF20
 1876 00ee 03       		.byte	0x3
 1877 00ef 38       		.byte	0x38
 1878 00f0 8C000000 		.4byte	0x8c
 1879 00f4 04       		.uleb128 0x4
 1880 00f5 29000000 		.4byte	.LASF21
 1881 00f9 03       		.byte	0x3
 1882 00fa 3C       		.byte	0x3c
 1883 00fb 97000000 		.4byte	0x97
 1884 00ff 02       		.uleb128 0x2
 1885 0100 08       		.byte	0x8
 1886 0101 04       		.byte	0x4
 1887 0102 AF010000 		.4byte	.LASF22
 1888 0106 02       		.uleb128 0x2
 1889 0107 04       		.byte	0x4
 1890 0108 04       		.byte	0x4
 1891 0109 D2020000 		.4byte	.LASF23
 1892 010d 07       		.uleb128 0x7
 1893 010e 08       		.byte	0x8
 1894 010f 04       		.byte	0x4
ARM GAS  C:\Users\GYULAI~1\AppData\Local\Temp\cc4j4Lh9.s 			page 40


 1895 0110 30       		.byte	0x30
 1896 0111 6A010000 		.4byte	0x16a
 1897 0115 08       		.uleb128 0x8
 1898 0116 65010000 		.4byte	.LASF24
 1899 011a 04       		.byte	0x4
 1900 011b 31       		.byte	0x31
 1901 011c DE000000 		.4byte	0xde
 1902 0120 00       		.byte	0
 1903 0121 08       		.uleb128 0x8
 1904 0122 EC010000 		.4byte	.LASF25
 1905 0126 04       		.byte	0x4
 1906 0127 32       		.byte	0x32
 1907 0128 D3000000 		.4byte	0xd3
 1908 012c 02       		.byte	0x2
 1909 012d 08       		.uleb128 0x8
 1910 012e 58020000 		.4byte	.LASF26
 1911 0132 04       		.byte	0x4
 1912 0133 33       		.byte	0x33
 1913 0134 D3000000 		.4byte	0xd3
 1914 0138 03       		.byte	0x3
 1915 0139 08       		.uleb128 0x8
 1916 013a 8A030000 		.4byte	.LASF27
 1917 013e 04       		.byte	0x4
 1918 013f 34       		.byte	0x34
 1919 0140 D3000000 		.4byte	0xd3
 1920 0144 04       		.byte	0x4
 1921 0145 08       		.uleb128 0x8
 1922 0146 B7020000 		.4byte	.LASF28
 1923 014a 04       		.byte	0x4
 1924 014b 35       		.byte	0x35
 1925 014c D3000000 		.4byte	0xd3
 1926 0150 05       		.byte	0x5
 1927 0151 08       		.uleb128 0x8
 1928 0152 AC030000 		.4byte	.LASF29
 1929 0156 04       		.byte	0x4
 1930 0157 36       		.byte	0x36
 1931 0158 D3000000 		.4byte	0xd3
 1932 015c 06       		.byte	0x6
 1933 015d 08       		.uleb128 0x8
 1934 015e 5E010000 		.4byte	.LASF30
 1935 0162 04       		.byte	0x4
 1936 0163 37       		.byte	0x37
 1937 0164 D3000000 		.4byte	0xd3
 1938 0168 07       		.byte	0x7
 1939 0169 00       		.byte	0
 1940 016a 04       		.uleb128 0x4
 1941 016b BD030000 		.4byte	.LASF31
 1942 016f 04       		.byte	0x4
 1943 0170 38       		.byte	0x38
 1944 0171 0D010000 		.4byte	0x10d
 1945 0175 09       		.uleb128 0x9
 1946 0176 6A010000 		.4byte	.LASF47
 1947 017a 01       		.byte	0x1
 1948 017b 41       		.byte	0x41
 1949 017c 00000000 		.4byte	.LFB1
 1950 0180 D4030000 		.4byte	.LFE1-.LFB1
 1951 0184 01       		.uleb128 0x1
ARM GAS  C:\Users\GYULAI~1\AppData\Local\Temp\cc4j4Lh9.s 			page 41


 1952 0185 9C       		.byte	0x9c
 1953 0186 73020000 		.4byte	0x273
 1954 018a 0A       		.uleb128 0xa
 1955 018b 82020000 		.4byte	.LASF32
 1956 018f 01       		.byte	0x1
 1957 0190 41       		.byte	0x41
 1958 0191 6A010000 		.4byte	0x16a
 1959 0195 02       		.uleb128 0x2
 1960 0196 91       		.byte	0x91
 1961 0197 60       		.sleb128 -32
 1962 0198 0A       		.uleb128 0xa
 1963 0199 1E030000 		.4byte	.LASF33
 1964 019d 01       		.byte	0x1
 1965 019e 41       		.byte	0x41
 1966 019f BD000000 		.4byte	0xbd
 1967 01a3 02       		.uleb128 0x2
 1968 01a4 91       		.byte	0x91
 1969 01a5 5C       		.sleb128 -36
 1970 01a6 0A       		.uleb128 0xa
 1971 01a7 92030000 		.4byte	.LASF34
 1972 01ab 01       		.byte	0x1
 1973 01ac 41       		.byte	0x41
 1974 01ad B0000000 		.4byte	0xb0
 1975 01b1 02       		.uleb128 0x2
 1976 01b2 91       		.byte	0x91
 1977 01b3 58       		.sleb128 -40
 1978 01b4 0B       		.uleb128 0xb
 1979 01b5 AB020000 		.4byte	.LASF35
 1980 01b9 01       		.byte	0x1
 1981 01ba 44       		.byte	0x44
 1982 01bb D3000000 		.4byte	0xd3
 1983 01bf 02       		.uleb128 0x2
 1984 01c0 91       		.byte	0x91
 1985 01c1 6F       		.sleb128 -17
 1986 01c2 0C       		.uleb128 0xc
 1987 01c3 6900     		.ascii	"i\000"
 1988 01c5 01       		.byte	0x1
 1989 01c6 47       		.byte	0x47
 1990 01c7 D3000000 		.4byte	0xd3
 1991 01cb 02       		.uleb128 0x2
 1992 01cc 91       		.byte	0x91
 1993 01cd 6E       		.sleb128 -18
 1994 01ce 0D       		.uleb128 0xd
 1995 01cf 50000000 		.4byte	.LBB2
 1996 01d3 8A000000 		.4byte	.LBE2-.LBB2
 1997 01d7 EA010000 		.4byte	0x1ea
 1998 01db 0B       		.uleb128 0xb
 1999 01dc DF030000 		.4byte	.LASF36
 2000 01e0 01       		.byte	0x1
 2001 01e1 54       		.byte	0x54
 2002 01e2 D3000000 		.4byte	0xd3
 2003 01e6 02       		.uleb128 0x2
 2004 01e7 91       		.byte	0x91
 2005 01e8 6D       		.sleb128 -19
 2006 01e9 00       		.byte	0
 2007 01ea 0D       		.uleb128 0xd
 2008 01eb E8000000 		.4byte	.LBB3
ARM GAS  C:\Users\GYULAI~1\AppData\Local\Temp\cc4j4Lh9.s 			page 42


 2009 01ef A0000000 		.4byte	.LBE3-.LBB3
 2010 01f3 06020000 		.4byte	0x206
 2011 01f7 0B       		.uleb128 0xb
 2012 01f8 99030000 		.4byte	.LASF37
 2013 01fc 01       		.byte	0x1
 2014 01fd 5F       		.byte	0x5f
 2015 01fe D3000000 		.4byte	0xd3
 2016 0202 02       		.uleb128 0x2
 2017 0203 91       		.byte	0x91
 2018 0204 6C       		.sleb128 -20
 2019 0205 00       		.byte	0
 2020 0206 0D       		.uleb128 0xd
 2021 0207 96010000 		.4byte	.LBB4
 2022 020b 3C000000 		.4byte	.LBE4-.LBB4
 2023 020f 22020000 		.4byte	0x222
 2024 0213 0B       		.uleb128 0xb
 2025 0214 F8020000 		.4byte	.LASF38
 2026 0218 01       		.byte	0x1
 2027 0219 71       		.byte	0x71
 2028 021a D3000000 		.4byte	0xd3
 2029 021e 02       		.uleb128 0x2
 2030 021f 91       		.byte	0x91
 2031 0220 6B       		.sleb128 -21
 2032 0221 00       		.byte	0
 2033 0222 0D       		.uleb128 0xd
 2034 0223 5C020000 		.4byte	.LBB5
 2035 0227 5A000000 		.4byte	.LBE5-.LBB5
 2036 022b 3E020000 		.4byte	0x23e
 2037 022f 0B       		.uleb128 0xb
 2038 0230 77020000 		.4byte	.LASF39
 2039 0234 01       		.byte	0x1
 2040 0235 87       		.byte	0x87
 2041 0236 D3000000 		.4byte	0xd3
 2042 023a 02       		.uleb128 0x2
 2043 023b 91       		.byte	0x91
 2044 023c 6A       		.sleb128 -22
 2045 023d 00       		.byte	0
 2046 023e 0D       		.uleb128 0xd
 2047 023f F2020000 		.4byte	.LBB6
 2048 0243 64000000 		.4byte	.LBE6-.LBB6
 2049 0247 5A020000 		.4byte	0x25a
 2050 024b 0B       		.uleb128 0xb
 2051 024c 32000000 		.4byte	.LASF40
 2052 0250 01       		.byte	0x1
 2053 0251 96       		.byte	0x96
 2054 0252 D3000000 		.4byte	0xd3
 2055 0256 02       		.uleb128 0x2
 2056 0257 91       		.byte	0x91
 2057 0258 69       		.sleb128 -23
 2058 0259 00       		.byte	0
 2059 025a 0E       		.uleb128 0xe
 2060 025b 64030000 		.4byte	.LBB7
 2061 025f 3C000000 		.4byte	.LBE7-.LBB7
 2062 0263 0B       		.uleb128 0xb
 2063 0264 F2030000 		.4byte	.LASF41
 2064 0268 01       		.byte	0x1
 2065 0269 9E       		.byte	0x9e
ARM GAS  C:\Users\GYULAI~1\AppData\Local\Temp\cc4j4Lh9.s 			page 43


 2066 026a D3000000 		.4byte	0xd3
 2067 026e 02       		.uleb128 0x2
 2068 026f 91       		.byte	0x91
 2069 0270 68       		.sleb128 -24
 2070 0271 00       		.byte	0
 2071 0272 00       		.byte	0
 2072 0273 0F       		.uleb128 0xf
 2073 0274 67030000 		.4byte	.LASF43
 2074 0278 01       		.byte	0x1
 2075 0279 AC       		.byte	0xac
 2076 027a E9000000 		.4byte	0xe9
 2077 027e 00000000 		.4byte	.LFB2
 2078 0282 BC010000 		.4byte	.LFE2-.LFB2
 2079 0286 01       		.uleb128 0x1
 2080 0287 9C       		.byte	0x9c
 2081 0288 07030000 		.4byte	0x307
 2082 028c 0A       		.uleb128 0xa
 2083 028d 82020000 		.4byte	.LASF32
 2084 0291 01       		.byte	0x1
 2085 0292 AC       		.byte	0xac
 2086 0293 07030000 		.4byte	0x307
 2087 0297 03       		.uleb128 0x3
 2088 0298 91       		.byte	0x91
 2089 0299 B07F     		.sleb128 -80
 2090 029b 0C       		.uleb128 0xc
 2091 029c 7900     		.ascii	"y\000"
 2092 029e 01       		.byte	0x1
 2093 029f AD       		.byte	0xad
 2094 02a0 E9000000 		.4byte	0xe9
 2095 02a4 02       		.uleb128 0x2
 2096 02a5 91       		.byte	0x91
 2097 02a6 58       		.sleb128 -40
 2098 02a7 0C       		.uleb128 0xc
 2099 02a8 6D00     		.ascii	"m\000"
 2100 02aa 01       		.byte	0x1
 2101 02ab AE       		.byte	0xae
 2102 02ac D3000000 		.4byte	0xd3
 2103 02b0 02       		.uleb128 0x2
 2104 02b1 91       		.byte	0x91
 2105 02b2 57       		.sleb128 -41
 2106 02b3 0C       		.uleb128 0xc
 2107 02b4 6400     		.ascii	"d\000"
 2108 02b6 01       		.byte	0x1
 2109 02b7 AF       		.byte	0xaf
 2110 02b8 D3000000 		.4byte	0xd3
 2111 02bc 02       		.uleb128 0x2
 2112 02bd 91       		.byte	0x91
 2113 02be 56       		.sleb128 -42
 2114 02bf 0C       		.uleb128 0xc
 2115 02c0 65726100 		.ascii	"era\000"
 2116 02c4 01       		.byte	0x1
 2117 02c5 B6       		.byte	0xb6
 2118 02c6 0C030000 		.4byte	0x30c
 2119 02ca 02       		.uleb128 0x2
 2120 02cb 91       		.byte	0x91
 2121 02cc 50       		.sleb128 -48
 2122 02cd 0C       		.uleb128 0xc
ARM GAS  C:\Users\GYULAI~1\AppData\Local\Temp\cc4j4Lh9.s 			page 44


 2123 02ce 796F6500 		.ascii	"yoe\000"
 2124 02d2 01       		.byte	0x1
 2125 02d3 B7       		.byte	0xb7
 2126 02d4 11030000 		.4byte	0x311
 2127 02d8 02       		.uleb128 0x2
 2128 02d9 91       		.byte	0x91
 2129 02da 4C       		.sleb128 -52
 2130 02db 0C       		.uleb128 0xc
 2131 02dc 646F7900 		.ascii	"doy\000"
 2132 02e0 01       		.byte	0x1
 2133 02e1 B8       		.byte	0xb8
 2134 02e2 11030000 		.4byte	0x311
 2135 02e6 02       		.uleb128 0x2
 2136 02e7 91       		.byte	0x91
 2137 02e8 48       		.sleb128 -56
 2138 02e9 0C       		.uleb128 0xc
 2139 02ea 646F6500 		.ascii	"doe\000"
 2140 02ee 01       		.byte	0x1
 2141 02ef B9       		.byte	0xb9
 2142 02f0 11030000 		.4byte	0x311
 2143 02f4 02       		.uleb128 0x2
 2144 02f5 91       		.byte	0x91
 2145 02f6 44       		.sleb128 -60
 2146 02f7 0B       		.uleb128 0xb
 2147 02f8 CF030000 		.4byte	.LASF42
 2148 02fc 01       		.byte	0x1
 2149 02fd BA       		.byte	0xba
 2150 02fe 16030000 		.4byte	0x316
 2151 0302 03       		.uleb128 0x3
 2152 0303 91       		.byte	0x91
 2153 0304 B87F     		.sleb128 -72
 2154 0306 00       		.byte	0
 2155 0307 06       		.uleb128 0x6
 2156 0308 6A010000 		.4byte	0x16a
 2157 030c 06       		.uleb128 0x6
 2158 030d 2C000000 		.4byte	0x2c
 2159 0311 06       		.uleb128 0x6
 2160 0312 25000000 		.4byte	0x25
 2161 0316 06       		.uleb128 0x6
 2162 0317 E9000000 		.4byte	0xe9
 2163 031b 0F       		.uleb128 0xf
 2164 031c 52030000 		.4byte	.LASF44
 2165 0320 01       		.byte	0x1
 2166 0321 C2       		.byte	0xc2
 2167 0322 6A010000 		.4byte	0x16a
 2168 0326 00000000 		.4byte	.LFB3
 2169 032a 60020000 		.4byte	.LFE3-.LFB3
 2170 032e 01       		.uleb128 0x1
 2171 032f 9C       		.byte	0x9c
 2172 0330 C7030000 		.4byte	0x3c7
 2173 0334 0A       		.uleb128 0xa
 2174 0335 D8020000 		.4byte	.LASF45
 2175 0339 01       		.byte	0x1
 2176 033a C2       		.byte	0xc2
 2177 033b E9000000 		.4byte	0xe9
 2178 033f 03       		.uleb128 0x3
 2179 0340 91       		.byte	0x91
ARM GAS  C:\Users\GYULAI~1\AppData\Local\Temp\cc4j4Lh9.s 			page 45


 2180 0341 B07F     		.sleb128 -80
 2181 0343 0B       		.uleb128 0xb
 2182 0344 82020000 		.4byte	.LASF32
 2183 0348 01       		.byte	0x1
 2184 0349 C5       		.byte	0xc5
 2185 034a 6A010000 		.4byte	0x16a
 2186 034e 02       		.uleb128 0x2
 2187 034f 91       		.byte	0x91
 2188 0350 40       		.sleb128 -64
 2189 0351 0C       		.uleb128 0xc
 2190 0352 7A00     		.ascii	"z\000"
 2191 0354 01       		.byte	0x1
 2192 0355 CB       		.byte	0xcb
 2193 0356 E9000000 		.4byte	0xe9
 2194 035a 02       		.uleb128 0x2
 2195 035b 91       		.byte	0x91
 2196 035c 68       		.sleb128 -24
 2197 035d 0C       		.uleb128 0xc
 2198 035e 65726100 		.ascii	"era\000"
 2199 0362 01       		.byte	0x1
 2200 0363 D2       		.byte	0xd2
 2201 0364 0C030000 		.4byte	0x30c
 2202 0368 02       		.uleb128 0x2
 2203 0369 91       		.byte	0x91
 2204 036a 64       		.sleb128 -28
 2205 036b 0C       		.uleb128 0xc
 2206 036c 646F6500 		.ascii	"doe\000"
 2207 0370 01       		.byte	0x1
 2208 0371 D3       		.byte	0xd3
 2209 0372 11030000 		.4byte	0x311
 2210 0376 02       		.uleb128 0x2
 2211 0377 91       		.byte	0x91
 2212 0378 60       		.sleb128 -32
 2213 0379 0C       		.uleb128 0xc
 2214 037a 796F6500 		.ascii	"yoe\000"
 2215 037e 01       		.byte	0x1
 2216 037f D4       		.byte	0xd4
 2217 0380 11030000 		.4byte	0x311
 2218 0384 02       		.uleb128 0x2
 2219 0385 91       		.byte	0x91
 2220 0386 5C       		.sleb128 -36
 2221 0387 0C       		.uleb128 0xc
 2222 0388 7900     		.ascii	"y\000"
 2223 038a 01       		.byte	0x1
 2224 038b D5       		.byte	0xd5
 2225 038c 0C030000 		.4byte	0x30c
 2226 0390 02       		.uleb128 0x2
 2227 0391 91       		.byte	0x91
 2228 0392 58       		.sleb128 -40
 2229 0393 0C       		.uleb128 0xc
 2230 0394 646F7900 		.ascii	"doy\000"
 2231 0398 01       		.byte	0x1
 2232 0399 D6       		.byte	0xd6
 2233 039a 11030000 		.4byte	0x311
 2234 039e 02       		.uleb128 0x2
 2235 039f 91       		.byte	0x91
 2236 03a0 54       		.sleb128 -44
ARM GAS  C:\Users\GYULAI~1\AppData\Local\Temp\cc4j4Lh9.s 			page 46


 2237 03a1 0C       		.uleb128 0xc
 2238 03a2 6D7000   		.ascii	"mp\000"
 2239 03a5 01       		.byte	0x1
 2240 03a6 D7       		.byte	0xd7
 2241 03a7 11030000 		.4byte	0x311
 2242 03ab 02       		.uleb128 0x2
 2243 03ac 91       		.byte	0x91
 2244 03ad 50       		.sleb128 -48
 2245 03ae 0C       		.uleb128 0xc
 2246 03af 6400     		.ascii	"d\000"
 2247 03b1 01       		.byte	0x1
 2248 03b2 D8       		.byte	0xd8
 2249 03b3 11030000 		.4byte	0x311
 2250 03b7 02       		.uleb128 0x2
 2251 03b8 91       		.byte	0x91
 2252 03b9 4C       		.sleb128 -52
 2253 03ba 0C       		.uleb128 0xc
 2254 03bb 6D00     		.ascii	"m\000"
 2255 03bd 01       		.byte	0x1
 2256 03be D9       		.byte	0xd9
 2257 03bf 11030000 		.4byte	0x311
 2258 03c3 02       		.uleb128 0x2
 2259 03c4 91       		.byte	0x91
 2260 03c5 48       		.sleb128 -56
 2261 03c6 00       		.byte	0
 2262 03c7 0F       		.uleb128 0xf
 2263 03c8 15000000 		.4byte	.LASF46
 2264 03cc 01       		.byte	0x1
 2265 03cd E5       		.byte	0xe5
 2266 03ce 6A010000 		.4byte	0x16a
 2267 03d2 00000000 		.4byte	.LFB4
 2268 03d6 A8000000 		.4byte	.LFE4-.LFB4
 2269 03da 01       		.uleb128 0x1
 2270 03db 9C       		.byte	0x9c
 2271 03dc FB030000 		.4byte	0x3fb
 2272 03e0 10       		.uleb128 0x10
 2273 03e1 73747200 		.ascii	"str\000"
 2274 03e5 01       		.byte	0x1
 2275 03e6 E5       		.byte	0xe5
 2276 03e7 BD000000 		.4byte	0xbd
 2277 03eb 02       		.uleb128 0x2
 2278 03ec 91       		.byte	0x91
 2279 03ed 68       		.sleb128 -24
 2280 03ee 0C       		.uleb128 0xc
 2281 03ef 6400     		.ascii	"d\000"
 2282 03f1 01       		.byte	0x1
 2283 03f2 E8       		.byte	0xe8
 2284 03f3 6A010000 		.4byte	0x16a
 2285 03f7 02       		.uleb128 0x2
 2286 03f8 91       		.byte	0x91
 2287 03f9 70       		.sleb128 -16
 2288 03fa 00       		.byte	0
 2289 03fb 11       		.uleb128 0x11
 2290 03fc CC010000 		.4byte	.LASF48
 2291 0400 01       		.byte	0x1
 2292 0401 F9       		.byte	0xf9
 2293 0402 00000000 		.4byte	.LFB5
ARM GAS  C:\Users\GYULAI~1\AppData\Local\Temp\cc4j4Lh9.s 			page 47


 2294 0406 F8000000 		.4byte	.LFE5-.LFB5
 2295 040a 01       		.uleb128 0x1
 2296 040b 9C       		.byte	0x9c
 2297 040c 67040000 		.4byte	0x467
 2298 0410 10       		.uleb128 0x10
 2299 0411 6400     		.ascii	"d\000"
 2300 0413 01       		.byte	0x1
 2301 0414 F9       		.byte	0xf9
 2302 0415 67040000 		.4byte	0x467
 2303 0419 02       		.uleb128 0x2
 2304 041a 91       		.byte	0x91
 2305 041b 5C       		.sleb128 -36
 2306 041c 0B       		.uleb128 0xb
 2307 041d 9B010000 		.4byte	.LASF49
 2308 0421 01       		.byte	0x1
 2309 0422 FE       		.byte	0xfe
 2310 0423 6D040000 		.4byte	0x46d
 2311 0427 02       		.uleb128 0x2
 2312 0428 91       		.byte	0x91
 2313 0429 64       		.sleb128 -28
 2314 042a 12       		.uleb128 0x12
 2315 042b C3010000 		.4byte	.LASF50
 2316 042f 01       		.byte	0x1
 2317 0430 0101     		.2byte	0x101
 2318 0432 D3000000 		.4byte	0xd3
 2319 0436 02       		.uleb128 0x2
 2320 0437 91       		.byte	0x91
 2321 0438 77       		.sleb128 -9
 2322 0439 12       		.uleb128 0x12
 2323 043a B3030000 		.4byte	.LASF51
 2324 043e 01       		.byte	0x1
 2325 043f 0201     		.2byte	0x102
 2326 0441 D3000000 		.4byte	0xd3
 2327 0445 02       		.uleb128 0x2
 2328 0446 91       		.byte	0x91
 2329 0447 76       		.sleb128 -10
 2330 0448 12       		.uleb128 0x12
 2331 0449 E0010000 		.4byte	.LASF52
 2332 044d 01       		.byte	0x1
 2333 044e 0301     		.2byte	0x103
 2334 0450 D3000000 		.4byte	0xd3
 2335 0454 02       		.uleb128 0x2
 2336 0455 91       		.byte	0x91
 2337 0456 75       		.sleb128 -11
 2338 0457 12       		.uleb128 0x12
 2339 0458 B6010000 		.4byte	.LASF53
 2340 045c 01       		.byte	0x1
 2341 045d 0401     		.2byte	0x104
 2342 045f D3000000 		.4byte	0xd3
 2343 0463 02       		.uleb128 0x2
 2344 0464 91       		.byte	0x91
 2345 0465 74       		.sleb128 -12
 2346 0466 00       		.byte	0
 2347 0467 05       		.uleb128 0x5
 2348 0468 04       		.byte	0x4
 2349 0469 6A010000 		.4byte	0x16a
 2350 046d 13       		.uleb128 0x13
ARM GAS  C:\Users\GYULAI~1\AppData\Local\Temp\cc4j4Lh9.s 			page 48


 2351 046e C8000000 		.4byte	0xc8
 2352 0472 7D040000 		.4byte	0x47d
 2353 0476 14       		.uleb128 0x14
 2354 0477 A9000000 		.4byte	0xa9
 2355 047b 0C       		.byte	0xc
 2356 047c 00       		.byte	0
 2357 047d 15       		.uleb128 0x15
 2358 047e 1E040000 		.4byte	.LASF54
 2359 0482 01       		.byte	0x1
 2360 0483 0A01     		.2byte	0x10a
 2361 0485 E9000000 		.4byte	0xe9
 2362 0489 00000000 		.4byte	.LFB6
 2363 048d 42000000 		.4byte	.LFE6-.LFB6
 2364 0491 01       		.uleb128 0x1
 2365 0492 9C       		.byte	0x9c
 2366 0493 B6040000 		.4byte	0x4b6
 2367 0497 16       		.uleb128 0x16
 2368 0498 6C687300 		.ascii	"lhs\000"
 2369 049c 01       		.byte	0x1
 2370 049d 0A01     		.2byte	0x10a
 2371 049f 07030000 		.4byte	0x307
 2372 04a3 02       		.uleb128 0x2
 2373 04a4 91       		.byte	0x91
 2374 04a5 60       		.sleb128 -32
 2375 04a6 16       		.uleb128 0x16
 2376 04a7 72687300 		.ascii	"rhs\000"
 2377 04ab 01       		.byte	0x1
 2378 04ac 0A01     		.2byte	0x10a
 2379 04ae 07030000 		.4byte	0x307
 2380 04b2 02       		.uleb128 0x2
 2381 04b3 91       		.byte	0x91
 2382 04b4 58       		.sleb128 -40
 2383 04b5 00       		.byte	0
 2384 04b6 15       		.uleb128 0x15
 2385 04b7 00000000 		.4byte	.LASF55
 2386 04bb 01       		.byte	0x1
 2387 04bc 0E01     		.2byte	0x10e
 2388 04be 6A010000 		.4byte	0x16a
 2389 04c2 00000000 		.4byte	.LFB7
 2390 04c6 60000000 		.4byte	.LFE7-.LFB7
 2391 04ca 01       		.uleb128 0x1
 2392 04cb 9C       		.byte	0x9c
 2393 04cc 0D050000 		.4byte	0x50d
 2394 04d0 16       		.uleb128 0x16
 2395 04d1 6C687300 		.ascii	"lhs\000"
 2396 04d5 01       		.byte	0x1
 2397 04d6 0E01     		.2byte	0x10e
 2398 04d8 07030000 		.4byte	0x307
 2399 04dc 02       		.uleb128 0x2
 2400 04dd 91       		.byte	0x91
 2401 04de 4C       		.sleb128 -52
 2402 04df 16       		.uleb128 0x16
 2403 04e0 72687300 		.ascii	"rhs\000"
 2404 04e4 01       		.byte	0x1
 2405 04e5 0E01     		.2byte	0x10e
 2406 04e7 07030000 		.4byte	0x307
 2407 04eb 02       		.uleb128 0x2
ARM GAS  C:\Users\GYULAI~1\AppData\Local\Temp\cc4j4Lh9.s 			page 49


 2408 04ec 91       		.byte	0x91
 2409 04ed 7C       		.sleb128 -4
 2410 04ee 12       		.uleb128 0x12
 2411 04ef A0020000 		.4byte	.LASF56
 2412 04f3 01       		.byte	0x1
 2413 04f4 0F01     		.2byte	0x10f
 2414 04f6 F4000000 		.4byte	0xf4
 2415 04fa 02       		.uleb128 0x2
 2416 04fb 91       		.byte	0x91
 2417 04fc 60       		.sleb128 -32
 2418 04fd 12       		.uleb128 0x12
 2419 04fe C7020000 		.4byte	.LASF57
 2420 0502 01       		.byte	0x1
 2421 0503 1001     		.2byte	0x110
 2422 0505 F4000000 		.4byte	0xf4
 2423 0509 02       		.uleb128 0x2
 2424 050a 91       		.byte	0x91
 2425 050b 58       		.sleb128 -40
 2426 050c 00       		.byte	0
 2427 050d 13       		.uleb128 0x13
 2428 050e C3000000 		.4byte	0xc3
 2429 0512 1D050000 		.4byte	0x51d
 2430 0516 14       		.uleb128 0x14
 2431 0517 A9000000 		.4byte	0xa9
 2432 051b 13       		.byte	0x13
 2433 051c 00       		.byte	0
 2434 051d 0B       		.uleb128 0xb
 2435 051e FF030000 		.4byte	.LASF58
 2436 0522 04       		.byte	0x4
 2437 0523 48       		.byte	0x48
 2438 0524 2E050000 		.4byte	0x52e
 2439 0528 05       		.uleb128 0x5
 2440 0529 03       		.byte	0x3
 2441 052a 00000000 		.4byte	rhea_rtc_datetimeFormatGeneral
 2442 052e 06       		.uleb128 0x6
 2443 052f 0D050000 		.4byte	0x50d
 2444 0533 13       		.uleb128 0x13
 2445 0534 C3000000 		.4byte	0xc3
 2446 0538 43050000 		.4byte	0x543
 2447 053c 14       		.uleb128 0x14
 2448 053d A9000000 		.4byte	0xa9
 2449 0541 15       		.byte	0x15
 2450 0542 00       		.byte	0
 2451 0543 0B       		.uleb128 0xb
 2452 0544 3D010000 		.4byte	.LASF59
 2453 0548 04       		.byte	0x4
 2454 0549 4A       		.byte	0x4a
 2455 054a 54050000 		.4byte	0x554
 2456 054e 05       		.uleb128 0x5
 2457 054f 03       		.byte	0x3
 2458 0550 14000000 		.4byte	rhea_rtc_datetimeFormatGeneralUS
 2459 0554 06       		.uleb128 0x6
 2460 0555 33050000 		.4byte	0x533
 2461 0559 0B       		.uleb128 0xb
 2462 055a 29020000 		.4byte	.LASF60
 2463 055e 04       		.byte	0x4
 2464 055f 4C       		.byte	0x4c
ARM GAS  C:\Users\GYULAI~1\AppData\Local\Temp\cc4j4Lh9.s 			page 50


 2465 0560 6A050000 		.4byte	0x56a
 2466 0564 05       		.uleb128 0x5
 2467 0565 03       		.byte	0x3
 2468 0566 2C000000 		.4byte	rhea_rtc_datetimeFormatFull
 2469 056a 06       		.uleb128 0x6
 2470 056b 33050000 		.4byte	0x533
 2471 056f 13       		.uleb128 0x13
 2472 0570 7F050000 		.4byte	0x57f
 2473 0574 7F050000 		.4byte	0x57f
 2474 0578 14       		.uleb128 0x14
 2475 0579 A9000000 		.4byte	0xa9
 2476 057d 07       		.byte	0x7
 2477 057e 00       		.byte	0
 2478 057f 06       		.uleb128 0x6
 2479 0580 BD000000 		.4byte	0xbd
 2480 0584 0B       		.uleb128 0xb
 2481 0585 5D020000 		.4byte	.LASF61
 2482 0589 01       		.byte	0x1
 2483 058a 2E       		.byte	0x2e
 2484 058b 95050000 		.4byte	0x595
 2485 058f 05       		.uleb128 0x5
 2486 0590 03       		.byte	0x3
 2487 0591 90000000 		.4byte	rhea_rtc_weekdayNamesLong
 2488 0595 06       		.uleb128 0x6
 2489 0596 6F050000 		.4byte	0x56f
 2490 059a 0B       		.uleb128 0xb
 2491 059b 03030000 		.4byte	.LASF62
 2492 059f 01       		.byte	0x1
 2493 05a0 33       		.byte	0x33
 2494 05a1 AB050000 		.4byte	0x5ab
 2495 05a5 05       		.uleb128 0x5
 2496 05a6 03       		.byte	0x3
 2497 05a7 CC000000 		.4byte	rhea_rtc_weekdayNamesShort
 2498 05ab 06       		.uleb128 0x6
 2499 05ac 6F050000 		.4byte	0x56f
 2500 05b0 13       		.uleb128 0x13
 2501 05b1 7F050000 		.4byte	0x57f
 2502 05b5 C0050000 		.4byte	0x5c0
 2503 05b9 14       		.uleb128 0x14
 2504 05ba A9000000 		.4byte	0xa9
 2505 05be 0C       		.byte	0xc
 2506 05bf 00       		.byte	0
 2507 05c0 0B       		.uleb128 0xb
 2508 05c1 11020000 		.4byte	.LASF63
 2509 05c5 01       		.byte	0x1
 2510 05c6 37       		.byte	0x37
 2511 05c7 D1050000 		.4byte	0x5d1
 2512 05cb 05       		.uleb128 0x5
 2513 05cc 03       		.byte	0x3
 2514 05cd 58010000 		.4byte	rhea_rtc_monthNamesLong
 2515 05d1 06       		.uleb128 0x6
 2516 05d2 B0050000 		.4byte	0x5b0
 2517 05d6 13       		.uleb128 0x13
 2518 05d7 7F050000 		.4byte	0x57f
 2519 05db E6050000 		.4byte	0x5e6
 2520 05df 14       		.uleb128 0x14
 2521 05e0 A9000000 		.4byte	0xa9
ARM GAS  C:\Users\GYULAI~1\AppData\Local\Temp\cc4j4Lh9.s 			page 51


 2522 05e4 0B       		.byte	0xb
 2523 05e5 00       		.byte	0
 2524 05e6 0B       		.uleb128 0xb
 2525 05e7 F7000000 		.4byte	.LASF64
 2526 05eb 01       		.byte	0x1
 2527 05ec 3C       		.byte	0x3c
 2528 05ed F7050000 		.4byte	0x5f7
 2529 05f1 05       		.uleb128 0x5
 2530 05f2 03       		.byte	0x3
 2531 05f3 B8010000 		.4byte	rhea_rtc_monthNamesShort
 2532 05f7 06       		.uleb128 0x6
 2533 05f8 D6050000 		.4byte	0x5d6
 2534 05fc 00       		.byte	0
 2535              		.section	.debug_abbrev,"",%progbits
 2536              	.Ldebug_abbrev0:
 2537 0000 01       		.uleb128 0x1
 2538 0001 11       		.uleb128 0x11
 2539 0002 01       		.byte	0x1
 2540 0003 25       		.uleb128 0x25
 2541 0004 0E       		.uleb128 0xe
 2542 0005 13       		.uleb128 0x13
 2543 0006 0B       		.uleb128 0xb
 2544 0007 03       		.uleb128 0x3
 2545 0008 0E       		.uleb128 0xe
 2546 0009 1B       		.uleb128 0x1b
 2547 000a 0E       		.uleb128 0xe
 2548 000b 55       		.uleb128 0x55
 2549 000c 17       		.uleb128 0x17
 2550 000d 11       		.uleb128 0x11
 2551 000e 01       		.uleb128 0x1
 2552 000f 10       		.uleb128 0x10
 2553 0010 17       		.uleb128 0x17
 2554 0011 00       		.byte	0
 2555 0012 00       		.byte	0
 2556 0013 02       		.uleb128 0x2
 2557 0014 24       		.uleb128 0x24
 2558 0015 00       		.byte	0
 2559 0016 0B       		.uleb128 0xb
 2560 0017 0B       		.uleb128 0xb
 2561 0018 3E       		.uleb128 0x3e
 2562 0019 0B       		.uleb128 0xb
 2563 001a 03       		.uleb128 0x3
 2564 001b 0E       		.uleb128 0xe
 2565 001c 00       		.byte	0
 2566 001d 00       		.byte	0
 2567 001e 03       		.uleb128 0x3
 2568 001f 24       		.uleb128 0x24
 2569 0020 00       		.byte	0
 2570 0021 0B       		.uleb128 0xb
 2571 0022 0B       		.uleb128 0xb
 2572 0023 3E       		.uleb128 0x3e
 2573 0024 0B       		.uleb128 0xb
 2574 0025 03       		.uleb128 0x3
 2575 0026 08       		.uleb128 0x8
 2576 0027 00       		.byte	0
 2577 0028 00       		.byte	0
 2578 0029 04       		.uleb128 0x4
ARM GAS  C:\Users\GYULAI~1\AppData\Local\Temp\cc4j4Lh9.s 			page 52


 2579 002a 16       		.uleb128 0x16
 2580 002b 00       		.byte	0
 2581 002c 03       		.uleb128 0x3
 2582 002d 0E       		.uleb128 0xe
 2583 002e 3A       		.uleb128 0x3a
 2584 002f 0B       		.uleb128 0xb
 2585 0030 3B       		.uleb128 0x3b
 2586 0031 0B       		.uleb128 0xb
 2587 0032 49       		.uleb128 0x49
 2588 0033 13       		.uleb128 0x13
 2589 0034 00       		.byte	0
 2590 0035 00       		.byte	0
 2591 0036 05       		.uleb128 0x5
 2592 0037 0F       		.uleb128 0xf
 2593 0038 00       		.byte	0
 2594 0039 0B       		.uleb128 0xb
 2595 003a 0B       		.uleb128 0xb
 2596 003b 49       		.uleb128 0x49
 2597 003c 13       		.uleb128 0x13
 2598 003d 00       		.byte	0
 2599 003e 00       		.byte	0
 2600 003f 06       		.uleb128 0x6
 2601 0040 26       		.uleb128 0x26
 2602 0041 00       		.byte	0
 2603 0042 49       		.uleb128 0x49
 2604 0043 13       		.uleb128 0x13
 2605 0044 00       		.byte	0
 2606 0045 00       		.byte	0
 2607 0046 07       		.uleb128 0x7
 2608 0047 13       		.uleb128 0x13
 2609 0048 01       		.byte	0x1
 2610 0049 0B       		.uleb128 0xb
 2611 004a 0B       		.uleb128 0xb
 2612 004b 3A       		.uleb128 0x3a
 2613 004c 0B       		.uleb128 0xb
 2614 004d 3B       		.uleb128 0x3b
 2615 004e 0B       		.uleb128 0xb
 2616 004f 01       		.uleb128 0x1
 2617 0050 13       		.uleb128 0x13
 2618 0051 00       		.byte	0
 2619 0052 00       		.byte	0
 2620 0053 08       		.uleb128 0x8
 2621 0054 0D       		.uleb128 0xd
 2622 0055 00       		.byte	0
 2623 0056 03       		.uleb128 0x3
 2624 0057 0E       		.uleb128 0xe
 2625 0058 3A       		.uleb128 0x3a
 2626 0059 0B       		.uleb128 0xb
 2627 005a 3B       		.uleb128 0x3b
 2628 005b 0B       		.uleb128 0xb
 2629 005c 49       		.uleb128 0x49
 2630 005d 13       		.uleb128 0x13
 2631 005e 38       		.uleb128 0x38
 2632 005f 0B       		.uleb128 0xb
 2633 0060 00       		.byte	0
 2634 0061 00       		.byte	0
 2635 0062 09       		.uleb128 0x9
ARM GAS  C:\Users\GYULAI~1\AppData\Local\Temp\cc4j4Lh9.s 			page 53


 2636 0063 2E       		.uleb128 0x2e
 2637 0064 01       		.byte	0x1
 2638 0065 3F       		.uleb128 0x3f
 2639 0066 19       		.uleb128 0x19
 2640 0067 03       		.uleb128 0x3
 2641 0068 0E       		.uleb128 0xe
 2642 0069 3A       		.uleb128 0x3a
 2643 006a 0B       		.uleb128 0xb
 2644 006b 3B       		.uleb128 0x3b
 2645 006c 0B       		.uleb128 0xb
 2646 006d 27       		.uleb128 0x27
 2647 006e 19       		.uleb128 0x19
 2648 006f 11       		.uleb128 0x11
 2649 0070 01       		.uleb128 0x1
 2650 0071 12       		.uleb128 0x12
 2651 0072 06       		.uleb128 0x6
 2652 0073 40       		.uleb128 0x40
 2653 0074 18       		.uleb128 0x18
 2654 0075 9642     		.uleb128 0x2116
 2655 0077 19       		.uleb128 0x19
 2656 0078 01       		.uleb128 0x1
 2657 0079 13       		.uleb128 0x13
 2658 007a 00       		.byte	0
 2659 007b 00       		.byte	0
 2660 007c 0A       		.uleb128 0xa
 2661 007d 05       		.uleb128 0x5
 2662 007e 00       		.byte	0
 2663 007f 03       		.uleb128 0x3
 2664 0080 0E       		.uleb128 0xe
 2665 0081 3A       		.uleb128 0x3a
 2666 0082 0B       		.uleb128 0xb
 2667 0083 3B       		.uleb128 0x3b
 2668 0084 0B       		.uleb128 0xb
 2669 0085 49       		.uleb128 0x49
 2670 0086 13       		.uleb128 0x13
 2671 0087 02       		.uleb128 0x2
 2672 0088 18       		.uleb128 0x18
 2673 0089 00       		.byte	0
 2674 008a 00       		.byte	0
 2675 008b 0B       		.uleb128 0xb
 2676 008c 34       		.uleb128 0x34
 2677 008d 00       		.byte	0
 2678 008e 03       		.uleb128 0x3
 2679 008f 0E       		.uleb128 0xe
 2680 0090 3A       		.uleb128 0x3a
 2681 0091 0B       		.uleb128 0xb
 2682 0092 3B       		.uleb128 0x3b
 2683 0093 0B       		.uleb128 0xb
 2684 0094 49       		.uleb128 0x49
 2685 0095 13       		.uleb128 0x13
 2686 0096 02       		.uleb128 0x2
 2687 0097 18       		.uleb128 0x18
 2688 0098 00       		.byte	0
 2689 0099 00       		.byte	0
 2690 009a 0C       		.uleb128 0xc
 2691 009b 34       		.uleb128 0x34
 2692 009c 00       		.byte	0
ARM GAS  C:\Users\GYULAI~1\AppData\Local\Temp\cc4j4Lh9.s 			page 54


 2693 009d 03       		.uleb128 0x3
 2694 009e 08       		.uleb128 0x8
 2695 009f 3A       		.uleb128 0x3a
 2696 00a0 0B       		.uleb128 0xb
 2697 00a1 3B       		.uleb128 0x3b
 2698 00a2 0B       		.uleb128 0xb
 2699 00a3 49       		.uleb128 0x49
 2700 00a4 13       		.uleb128 0x13
 2701 00a5 02       		.uleb128 0x2
 2702 00a6 18       		.uleb128 0x18
 2703 00a7 00       		.byte	0
 2704 00a8 00       		.byte	0
 2705 00a9 0D       		.uleb128 0xd
 2706 00aa 0B       		.uleb128 0xb
 2707 00ab 01       		.byte	0x1
 2708 00ac 11       		.uleb128 0x11
 2709 00ad 01       		.uleb128 0x1
 2710 00ae 12       		.uleb128 0x12
 2711 00af 06       		.uleb128 0x6
 2712 00b0 01       		.uleb128 0x1
 2713 00b1 13       		.uleb128 0x13
 2714 00b2 00       		.byte	0
 2715 00b3 00       		.byte	0
 2716 00b4 0E       		.uleb128 0xe
 2717 00b5 0B       		.uleb128 0xb
 2718 00b6 01       		.byte	0x1
 2719 00b7 11       		.uleb128 0x11
 2720 00b8 01       		.uleb128 0x1
 2721 00b9 12       		.uleb128 0x12
 2722 00ba 06       		.uleb128 0x6
 2723 00bb 00       		.byte	0
 2724 00bc 00       		.byte	0
 2725 00bd 0F       		.uleb128 0xf
 2726 00be 2E       		.uleb128 0x2e
 2727 00bf 01       		.byte	0x1
 2728 00c0 3F       		.uleb128 0x3f
 2729 00c1 19       		.uleb128 0x19
 2730 00c2 03       		.uleb128 0x3
 2731 00c3 0E       		.uleb128 0xe
 2732 00c4 3A       		.uleb128 0x3a
 2733 00c5 0B       		.uleb128 0xb
 2734 00c6 3B       		.uleb128 0x3b
 2735 00c7 0B       		.uleb128 0xb
 2736 00c8 27       		.uleb128 0x27
 2737 00c9 19       		.uleb128 0x19
 2738 00ca 49       		.uleb128 0x49
 2739 00cb 13       		.uleb128 0x13
 2740 00cc 11       		.uleb128 0x11
 2741 00cd 01       		.uleb128 0x1
 2742 00ce 12       		.uleb128 0x12
 2743 00cf 06       		.uleb128 0x6
 2744 00d0 40       		.uleb128 0x40
 2745 00d1 18       		.uleb128 0x18
 2746 00d2 9642     		.uleb128 0x2116
 2747 00d4 19       		.uleb128 0x19
 2748 00d5 01       		.uleb128 0x1
 2749 00d6 13       		.uleb128 0x13
ARM GAS  C:\Users\GYULAI~1\AppData\Local\Temp\cc4j4Lh9.s 			page 55


 2750 00d7 00       		.byte	0
 2751 00d8 00       		.byte	0
 2752 00d9 10       		.uleb128 0x10
 2753 00da 05       		.uleb128 0x5
 2754 00db 00       		.byte	0
 2755 00dc 03       		.uleb128 0x3
 2756 00dd 08       		.uleb128 0x8
 2757 00de 3A       		.uleb128 0x3a
 2758 00df 0B       		.uleb128 0xb
 2759 00e0 3B       		.uleb128 0x3b
 2760 00e1 0B       		.uleb128 0xb
 2761 00e2 49       		.uleb128 0x49
 2762 00e3 13       		.uleb128 0x13
 2763 00e4 02       		.uleb128 0x2
 2764 00e5 18       		.uleb128 0x18
 2765 00e6 00       		.byte	0
 2766 00e7 00       		.byte	0
 2767 00e8 11       		.uleb128 0x11
 2768 00e9 2E       		.uleb128 0x2e
 2769 00ea 01       		.byte	0x1
 2770 00eb 3F       		.uleb128 0x3f
 2771 00ec 19       		.uleb128 0x19
 2772 00ed 03       		.uleb128 0x3
 2773 00ee 0E       		.uleb128 0xe
 2774 00ef 3A       		.uleb128 0x3a
 2775 00f0 0B       		.uleb128 0xb
 2776 00f1 3B       		.uleb128 0x3b
 2777 00f2 0B       		.uleb128 0xb
 2778 00f3 27       		.uleb128 0x27
 2779 00f4 19       		.uleb128 0x19
 2780 00f5 11       		.uleb128 0x11
 2781 00f6 01       		.uleb128 0x1
 2782 00f7 12       		.uleb128 0x12
 2783 00f8 06       		.uleb128 0x6
 2784 00f9 40       		.uleb128 0x40
 2785 00fa 18       		.uleb128 0x18
 2786 00fb 9742     		.uleb128 0x2117
 2787 00fd 19       		.uleb128 0x19
 2788 00fe 01       		.uleb128 0x1
 2789 00ff 13       		.uleb128 0x13
 2790 0100 00       		.byte	0
 2791 0101 00       		.byte	0
 2792 0102 12       		.uleb128 0x12
 2793 0103 34       		.uleb128 0x34
 2794 0104 00       		.byte	0
 2795 0105 03       		.uleb128 0x3
 2796 0106 0E       		.uleb128 0xe
 2797 0107 3A       		.uleb128 0x3a
 2798 0108 0B       		.uleb128 0xb
 2799 0109 3B       		.uleb128 0x3b
 2800 010a 05       		.uleb128 0x5
 2801 010b 49       		.uleb128 0x49
 2802 010c 13       		.uleb128 0x13
 2803 010d 02       		.uleb128 0x2
 2804 010e 18       		.uleb128 0x18
 2805 010f 00       		.byte	0
 2806 0110 00       		.byte	0
ARM GAS  C:\Users\GYULAI~1\AppData\Local\Temp\cc4j4Lh9.s 			page 56


 2807 0111 13       		.uleb128 0x13
 2808 0112 01       		.uleb128 0x1
 2809 0113 01       		.byte	0x1
 2810 0114 49       		.uleb128 0x49
 2811 0115 13       		.uleb128 0x13
 2812 0116 01       		.uleb128 0x1
 2813 0117 13       		.uleb128 0x13
 2814 0118 00       		.byte	0
 2815 0119 00       		.byte	0
 2816 011a 14       		.uleb128 0x14
 2817 011b 21       		.uleb128 0x21
 2818 011c 00       		.byte	0
 2819 011d 49       		.uleb128 0x49
 2820 011e 13       		.uleb128 0x13
 2821 011f 2F       		.uleb128 0x2f
 2822 0120 0B       		.uleb128 0xb
 2823 0121 00       		.byte	0
 2824 0122 00       		.byte	0
 2825 0123 15       		.uleb128 0x15
 2826 0124 2E       		.uleb128 0x2e
 2827 0125 01       		.byte	0x1
 2828 0126 3F       		.uleb128 0x3f
 2829 0127 19       		.uleb128 0x19
 2830 0128 03       		.uleb128 0x3
 2831 0129 0E       		.uleb128 0xe
 2832 012a 3A       		.uleb128 0x3a
 2833 012b 0B       		.uleb128 0xb
 2834 012c 3B       		.uleb128 0x3b
 2835 012d 05       		.uleb128 0x5
 2836 012e 27       		.uleb128 0x27
 2837 012f 19       		.uleb128 0x19
 2838 0130 49       		.uleb128 0x49
 2839 0131 13       		.uleb128 0x13
 2840 0132 11       		.uleb128 0x11
 2841 0133 01       		.uleb128 0x1
 2842 0134 12       		.uleb128 0x12
 2843 0135 06       		.uleb128 0x6
 2844 0136 40       		.uleb128 0x40
 2845 0137 18       		.uleb128 0x18
 2846 0138 9642     		.uleb128 0x2116
 2847 013a 19       		.uleb128 0x19
 2848 013b 01       		.uleb128 0x1
 2849 013c 13       		.uleb128 0x13
 2850 013d 00       		.byte	0
 2851 013e 00       		.byte	0
 2852 013f 16       		.uleb128 0x16
 2853 0140 05       		.uleb128 0x5
 2854 0141 00       		.byte	0
 2855 0142 03       		.uleb128 0x3
 2856 0143 08       		.uleb128 0x8
 2857 0144 3A       		.uleb128 0x3a
 2858 0145 0B       		.uleb128 0xb
 2859 0146 3B       		.uleb128 0x3b
 2860 0147 05       		.uleb128 0x5
 2861 0148 49       		.uleb128 0x49
 2862 0149 13       		.uleb128 0x13
 2863 014a 02       		.uleb128 0x2
ARM GAS  C:\Users\GYULAI~1\AppData\Local\Temp\cc4j4Lh9.s 			page 57


 2864 014b 18       		.uleb128 0x18
 2865 014c 00       		.byte	0
 2866 014d 00       		.byte	0
 2867 014e 00       		.byte	0
 2868              		.section	.debug_aranges,"",%progbits
 2869 0000 4C000000 		.4byte	0x4c
 2870 0004 0200     		.2byte	0x2
 2871 0006 00000000 		.4byte	.Ldebug_info0
 2872 000a 04       		.byte	0x4
 2873 000b 00       		.byte	0
 2874 000c 0000     		.2byte	0
 2875 000e 0000     		.2byte	0
 2876 0010 00000000 		.4byte	.LFB1
 2877 0014 D4030000 		.4byte	.LFE1-.LFB1
 2878 0018 00000000 		.4byte	.LFB2
 2879 001c BC010000 		.4byte	.LFE2-.LFB2
 2880 0020 00000000 		.4byte	.LFB3
 2881 0024 60020000 		.4byte	.LFE3-.LFB3
 2882 0028 00000000 		.4byte	.LFB4
 2883 002c A8000000 		.4byte	.LFE4-.LFB4
 2884 0030 00000000 		.4byte	.LFB5
 2885 0034 F8000000 		.4byte	.LFE5-.LFB5
 2886 0038 00000000 		.4byte	.LFB6
 2887 003c 42000000 		.4byte	.LFE6-.LFB6
 2888 0040 00000000 		.4byte	.LFB7
 2889 0044 60000000 		.4byte	.LFE7-.LFB7
 2890 0048 00000000 		.4byte	0
 2891 004c 00000000 		.4byte	0
 2892              		.section	.debug_ranges,"",%progbits
 2893              	.Ldebug_ranges0:
 2894 0000 00000000 		.4byte	.LFB1
 2895 0004 D4030000 		.4byte	.LFE1
 2896 0008 00000000 		.4byte	.LFB2
 2897 000c BC010000 		.4byte	.LFE2
 2898 0010 00000000 		.4byte	.LFB3
 2899 0014 60020000 		.4byte	.LFE3
 2900 0018 00000000 		.4byte	.LFB4
 2901 001c A8000000 		.4byte	.LFE4
 2902 0020 00000000 		.4byte	.LFB5
 2903 0024 F8000000 		.4byte	.LFE5
 2904 0028 00000000 		.4byte	.LFB6
 2905 002c 42000000 		.4byte	.LFE6
 2906 0030 00000000 		.4byte	.LFB7
 2907 0034 60000000 		.4byte	.LFE7
 2908 0038 00000000 		.4byte	0
 2909 003c 00000000 		.4byte	0
 2910              		.section	.debug_line,"",%progbits
 2911              	.Ldebug_line0:
 2912 0000 00040000 		.section	.debug_str,"MS",%progbits,1
 2912      02001601 
 2912      00000201 
 2912      FB0E0D00 
 2912      01010101 
 2913              	.LASF55:
 2914 0000 72686561 		.ascii	"rhea_rtc_addDatetime\000"
 2914      5F727463 
 2914      5F616464 
ARM GAS  C:\Users\GYULAI~1\AppData\Local\Temp\cc4j4Lh9.s 			page 58


 2914      44617465 
 2914      74696D65 
 2915              	.LASF46:
 2916 0015 72686561 		.ascii	"rhea_rtc_fromString\000"
 2916      5F727463 
 2916      5F66726F 
 2916      6D537472 
 2916      696E6700 
 2917              	.LASF21:
 2918 0029 75696E74 		.ascii	"uint64_t\000"
 2918      36345F74 
 2918      00
 2919              	.LASF40:
 2920 0032 6D696E75 		.ascii	"minuteDigits\000"
 2920      74654469 
 2920      67697473 
 2920      00
 2921              	.LASF5:
 2922 003f 5F5F7569 		.ascii	"__uint8_t\000"
 2922      6E74385F 
 2922      7400
 2923              	.LASF65:
 2924 0049 474E5520 		.ascii	"GNU C11 5.4.1 20160609 (release) [ARM/embedded-5-br"
 2924      43313120 
 2924      352E342E 
 2924      31203230 
 2924      31363036 
 2925 007c 616E6368 		.ascii	"anch revision 237715] -mcpu=cortex-m3 -mthumb -g -O"
 2925      20726576 
 2925      6973696F 
 2925      6E203233 
 2925      37373135 
 2926 00af 30202D66 		.ascii	"0 -ffunction-sections -ffat-lto-objects\000"
 2926      66756E63 
 2926      74696F6E 
 2926      2D736563 
 2926      74696F6E 
 2927              	.LASF10:
 2928 00d7 6C6F6E67 		.ascii	"long int\000"
 2928      20696E74 
 2928      00
 2929              	.LASF14:
 2930 00e0 6C6F6E67 		.ascii	"long long unsigned int\000"
 2930      206C6F6E 
 2930      6720756E 
 2930      7369676E 
 2930      65642069 
 2931              	.LASF64:
 2932 00f7 72686561 		.ascii	"rhea_rtc_monthNamesShort\000"
 2932      5F727463 
 2932      5F6D6F6E 
 2932      74684E61 
 2932      6D657353 
 2933              	.LASF12:
 2934 0110 5F5F696E 		.ascii	"__int64_t\000"
 2934      7436345F 
 2934      7400
ARM GAS  C:\Users\GYULAI~1\AppData\Local\Temp\cc4j4Lh9.s 			page 59


 2935              	.LASF4:
 2936 011a 5F5F696E 		.ascii	"__int8_t\000"
 2936      74385F74 
 2936      00
 2937              	.LASF1:
 2938 0123 6C6F6E67 		.ascii	"long long int\000"
 2938      206C6F6E 
 2938      6720696E 
 2938      7400
 2939              	.LASF3:
 2940 0131 7369676E 		.ascii	"signed char\000"
 2940      65642063 
 2940      68617200 
 2941              	.LASF59:
 2942 013d 72686561 		.ascii	"rhea_rtc_datetimeFormatGeneralUS\000"
 2942      5F727463 
 2942      5F646174 
 2942      6574696D 
 2942      65466F72 
 2943              	.LASF30:
 2944 015e 7365636F 		.ascii	"second\000"
 2944      6E6400
 2945              	.LASF24:
 2946 0165 79656172 		.ascii	"year\000"
 2946      00
 2947              	.LASF47:
 2948 016a 72686561 		.ascii	"rhea_rtc_formatDate\000"
 2948      5F727463 
 2948      5F666F72 
 2948      6D617444 
 2948      61746500 
 2949              	.LASF66:
 2950 017e 72686561 		.ascii	"rhea\\rtc\\datetime\\datetime.c\000"
 2950      5C727463 
 2950      5C646174 
 2950      6574696D 
 2950      655C6461 
 2951              	.LASF49:
 2952 019b 6D6F6E74 		.ascii	"monthCodes\000"
 2952      68436F64 
 2952      657300
 2953              	.LASF19:
 2954 01a6 75696E74 		.ascii	"uint16_t\000"
 2954      31365F74 
 2954      00
 2955              	.LASF22:
 2956 01af 646F7562 		.ascii	"double\000"
 2956      6C6500
 2957              	.LASF53:
 2958 01b6 6C656170 		.ascii	"leapyearCode\000"
 2958      79656172 
 2958      436F6465 
 2958      00
 2959              	.LASF50:
 2960 01c3 79656172 		.ascii	"yearCode\000"
 2960      436F6465 
 2960      00
ARM GAS  C:\Users\GYULAI~1\AppData\Local\Temp\cc4j4Lh9.s 			page 60


 2961              	.LASF48:
 2962 01cc 72686561 		.ascii	"rhea_rtc_setWeekday\000"
 2962      5F727463 
 2962      5F736574 
 2962      5765656B 
 2962      64617900 
 2963              	.LASF52:
 2964 01e0 63656E74 		.ascii	"centuryCode\000"
 2964      75727943 
 2964      6F646500 
 2965              	.LASF25:
 2966 01ec 6D6F6E74 		.ascii	"month\000"
 2966      6800
 2967              	.LASF0:
 2968 01f2 756E7369 		.ascii	"unsigned int\000"
 2968      676E6564 
 2968      20696E74 
 2968      00
 2969              	.LASF11:
 2970 01ff 6C6F6E67 		.ascii	"long unsigned int\000"
 2970      20756E73 
 2970      69676E65 
 2970      6420696E 
 2970      7400
 2971              	.LASF63:
 2972 0211 72686561 		.ascii	"rhea_rtc_monthNamesLong\000"
 2972      5F727463 
 2972      5F6D6F6E 
 2972      74684E61 
 2972      6D65734C 
 2973              	.LASF60:
 2974 0229 72686561 		.ascii	"rhea_rtc_datetimeFormatFull\000"
 2974      5F727463 
 2974      5F646174 
 2974      6574696D 
 2974      65466F72 
 2975              	.LASF9:
 2976 0245 73686F72 		.ascii	"short unsigned int\000"
 2976      7420756E 
 2976      7369676E 
 2976      65642069 
 2976      6E7400
 2977              	.LASF26:
 2978 0258 64617465 		.ascii	"date\000"
 2978      00
 2979              	.LASF61:
 2980 025d 72686561 		.ascii	"rhea_rtc_weekdayNamesLong\000"
 2980      5F727463 
 2980      5F776565 
 2980      6B646179 
 2980      4E616D65 
 2981              	.LASF39:
 2982 0277 686F7572 		.ascii	"hourDigits\000"
 2982      44696769 
 2982      747300
 2983              	.LASF32:
 2984 0282 64617465 		.ascii	"datetime\000"
ARM GAS  C:\Users\GYULAI~1\AppData\Local\Temp\cc4j4Lh9.s 			page 61


 2984      74696D65 
 2984      00
 2985              	.LASF15:
 2986 028b 73697A65 		.ascii	"sizetype\000"
 2986      74797065 
 2986      00
 2987              	.LASF2:
 2988 0294 6C6F6E67 		.ascii	"long double\000"
 2988      20646F75 
 2988      626C6500 
 2989              	.LASF56:
 2990 02a0 6C687353 		.ascii	"lhsSeconds\000"
 2990      65636F6E 
 2990      647300
 2991              	.LASF35:
 2992 02ab 616D706D 		.ascii	"ampm_format\000"
 2992      5F666F72 
 2992      6D617400 
 2993              	.LASF28:
 2994 02b7 686F7572 		.ascii	"hour\000"
 2994      00
 2995              	.LASF13:
 2996 02bc 5F5F7569 		.ascii	"__uint64_t\000"
 2996      6E743634 
 2996      5F7400
 2997              	.LASF57:
 2998 02c7 72687353 		.ascii	"rhsSeconds\000"
 2998      65636F6E 
 2998      647300
 2999              	.LASF23:
 3000 02d2 666C6F61 		.ascii	"float\000"
 3000      7400
 3001              	.LASF45:
 3002 02d8 7365636F 		.ascii	"seconds\000"
 3002      6E647300 
 3003              	.LASF6:
 3004 02e0 756E7369 		.ascii	"unsigned char\000"
 3004      676E6564 
 3004      20636861 
 3004      7200
 3005              	.LASF7:
 3006 02ee 73686F72 		.ascii	"short int\000"
 3006      7420696E 
 3006      7400
 3007              	.LASF38:
 3008 02f8 64617465 		.ascii	"dateDigits\000"
 3008      44696769 
 3008      747300
 3009              	.LASF62:
 3010 0303 72686561 		.ascii	"rhea_rtc_weekdayNamesShort\000"
 3010      5F727463 
 3010      5F776565 
 3010      6B646179 
 3010      4E616D65 
 3011              	.LASF33:
 3012 031e 666F726D 		.ascii	"format\000"
 3012      617400
ARM GAS  C:\Users\GYULAI~1\AppData\Local\Temp\cc4j4Lh9.s 			page 62


 3013              	.LASF67:
 3014 0325 453A5C43 		.ascii	"E:\\Cypress\\Projects\\RheaWorkspace\\Rhea.cydsn\000"
 3014      79707265 
 3014      73735C50 
 3014      726F6A65 
 3014      6374735C 
 3015              	.LASF44:
 3016 0352 72686561 		.ascii	"rhea_rtc_fromSeconds\000"
 3016      5F727463 
 3016      5F66726F 
 3016      6D536563 
 3016      6F6E6473 
 3017              	.LASF43:
 3018 0367 72686561 		.ascii	"rhea_rtc_toSeconds\000"
 3018      5F727463 
 3018      5F746F53 
 3018      65636F6E 
 3018      647300
 3019              	.LASF16:
 3020 037a 63686172 		.ascii	"char\000"
 3020      00
 3021              	.LASF8:
 3022 037f 5F5F7569 		.ascii	"__uint16_t\000"
 3022      6E743136 
 3022      5F7400
 3023              	.LASF27:
 3024 038a 7765656B 		.ascii	"weekday\000"
 3024      64617900 
 3025              	.LASF34:
 3026 0392 62756666 		.ascii	"buffer\000"
 3026      657200
 3027              	.LASF37:
 3028 0399 6D6F6E74 		.ascii	"monthDigits\000"
 3028      68446967 
 3028      69747300 
 3029              	.LASF17:
 3030 03a5 696E7438 		.ascii	"int8_t\000"
 3030      5F7400
 3031              	.LASF29:
 3032 03ac 6D696E75 		.ascii	"minute\000"
 3032      746500
 3033              	.LASF51:
 3034 03b3 6D6F6E74 		.ascii	"monthCode\000"
 3034      68436F64 
 3034      6500
 3035              	.LASF31:
 3036 03bd 72686561 		.ascii	"rhea_rtc_datetime\000"
 3036      5F727463 
 3036      5F646174 
 3036      6574696D 
 3036      6500
 3037              	.LASF42:
 3038 03cf 64617973 		.ascii	"days_from_civil\000"
 3038      5F66726F 
 3038      6D5F6369 
 3038      76696C00 
 3039              	.LASF36:
ARM GAS  C:\Users\GYULAI~1\AppData\Local\Temp\cc4j4Lh9.s 			page 63


 3040 03df 79656172 		.ascii	"yearDigits\000"
 3040      44696769 
 3040      747300
 3041              	.LASF18:
 3042 03ea 75696E74 		.ascii	"uint8_t\000"
 3042      385F7400 
 3043              	.LASF41:
 3044 03f2 7365636F 		.ascii	"secondDigits\000"
 3044      6E644469 
 3044      67697473 
 3044      00
 3045              	.LASF58:
 3046 03ff 72686561 		.ascii	"rhea_rtc_datetimeFormatGeneral\000"
 3046      5F727463 
 3046      5F646174 
 3046      6574696D 
 3046      65466F72 
 3047              	.LASF54:
 3048 041e 72686561 		.ascii	"rhea_rtc_compareDatetime\000"
 3048      5F727463 
 3048      5F636F6D 
 3048      70617265 
 3048      44617465 
 3049              	.LASF20:
 3050 0437 696E7436 		.ascii	"int64_t\000"
 3050      345F7400 
 3051              		.ident	"GCC: (GNU Tools for ARM Embedded Processors) 5.4.1 20160609 (release) [ARM/embedded-5-bran
