ARM GAS  C:\Users\GYULAI~1\AppData\Local\Temp\ccol45rE.s 			page 1


   1              		.syntax unified
   2              		.cpu cortex-m3
   3              		.fpu softvfp
   4              		.eabi_attribute 20, 1
   5              		.eabi_attribute 21, 1
   6              		.eabi_attribute 23, 3
   7              		.eabi_attribute 24, 1
   8              		.eabi_attribute 25, 1
   9              		.eabi_attribute 26, 1
  10              		.eabi_attribute 30, 6
  11              		.eabi_attribute 34, 1
  12              		.eabi_attribute 18, 4
  13              		.thumb
  14              		.syntax unified
  15              		.file	"gfx.c"
  16              		.text
  17              	.Ltext0:
  18              		.cfi_sections	.debug_frame
  19              		.global	codefont_8x8_data
  20              		.data
  21              		.align	2
  22              		.type	codefont_8x8_data, %object
  23              		.size	codefont_8x8_data, 1400
  24              	codefont_8x8_data:
  25 0000 00       		.byte	0
  26 0001 00       		.byte	0
  27 0002 00       		.byte	0
  28 0003 00       		.byte	0
  29 0004 00       		.byte	0
  30 0005 00       		.byte	0
  31 0006 00       		.byte	0
  32 0007 00       		.byte	0
  33 0008 18       		.byte	24
  34 0009 3C       		.byte	60
  35 000a 3C       		.byte	60
  36 000b 3C       		.byte	60
  37 000c 18       		.byte	24
  38 000d 00       		.byte	0
  39 000e 18       		.byte	24
  40 000f 18       		.byte	24
  41 0010 6C       		.byte	108
  42 0011 48       		.byte	72
  43 0012 00       		.byte	0
  44 0013 00       		.byte	0
  45 0014 00       		.byte	0
  46 0015 00       		.byte	0
  47 0016 00       		.byte	0
  48 0017 00       		.byte	0
  49 0018 66       		.byte	102
  50 0019 66       		.byte	102
  51 001a FF       		.byte	-1
  52 001b 66       		.byte	102
  53 001c 66       		.byte	102
  54 001d FF       		.byte	-1
  55 001e 66       		.byte	102
  56 001f 66       		.byte	102
  57 0020 28       		.byte	40
ARM GAS  C:\Users\GYULAI~1\AppData\Local\Temp\ccol45rE.s 			page 2


  58 0021 7C       		.byte	124
  59 0022 AA       		.byte	-86
  60 0023 7C       		.byte	124
  61 0024 2A       		.byte	42
  62 0025 AA       		.byte	-86
  63 0026 7C       		.byte	124
  64 0027 28       		.byte	40
  65 0028 E1       		.byte	-31
  66 0029 A2       		.byte	-94
  67 002a E4       		.byte	-28
  68 002b 08       		.byte	8
  69 002c 10       		.byte	16
  70 002d 27       		.byte	39
  71 002e 45       		.byte	69
  72 002f 87       		.byte	-121
  73 0030 00       		.byte	0
  74 0031 30       		.byte	48
  75 0032 48       		.byte	72
  76 0033 30       		.byte	48
  77 0034 58       		.byte	88
  78 0035 8D       		.byte	-115
  79 0036 86       		.byte	-122
  80 0037 7B       		.byte	123
  81 0038 18       		.byte	24
  82 0039 10       		.byte	16
  83 003a 00       		.byte	0
  84 003b 00       		.byte	0
  85 003c 00       		.byte	0
  86 003d 00       		.byte	0
  87 003e 00       		.byte	0
  88 003f 00       		.byte	0
  89 0040 08       		.byte	8
  90 0041 10       		.byte	16
  91 0042 20       		.byte	32
  92 0043 20       		.byte	32
  93 0044 20       		.byte	32
  94 0045 20       		.byte	32
  95 0046 10       		.byte	16
  96 0047 08       		.byte	8
  97 0048 10       		.byte	16
  98 0049 08       		.byte	8
  99 004a 04       		.byte	4
 100 004b 04       		.byte	4
 101 004c 04       		.byte	4
 102 004d 04       		.byte	4
 103 004e 08       		.byte	8
 104 004f 10       		.byte	16
 105 0050 99       		.byte	-103
 106 0051 DB       		.byte	-37
 107 0052 3C       		.byte	60
 108 0053 FF       		.byte	-1
 109 0054 FF       		.byte	-1
 110 0055 3C       		.byte	60
 111 0056 DB       		.byte	-37
 112 0057 99       		.byte	-103
 113 0058 00       		.byte	0
 114 0059 18       		.byte	24
ARM GAS  C:\Users\GYULAI~1\AppData\Local\Temp\ccol45rE.s 			page 3


 115 005a 18       		.byte	24
 116 005b 7E       		.byte	126
 117 005c 7E       		.byte	126
 118 005d 18       		.byte	24
 119 005e 18       		.byte	24
 120 005f 00       		.byte	0
 121 0060 00       		.byte	0
 122 0061 00       		.byte	0
 123 0062 00       		.byte	0
 124 0063 00       		.byte	0
 125 0064 00       		.byte	0
 126 0065 18       		.byte	24
 127 0066 08       		.byte	8
 128 0067 10       		.byte	16
 129 0068 00       		.byte	0
 130 0069 00       		.byte	0
 131 006a 00       		.byte	0
 132 006b 7E       		.byte	126
 133 006c 7E       		.byte	126
 134 006d 00       		.byte	0
 135 006e 00       		.byte	0
 136 006f 00       		.byte	0
 137 0070 00       		.byte	0
 138 0071 00       		.byte	0
 139 0072 00       		.byte	0
 140 0073 00       		.byte	0
 141 0074 00       		.byte	0
 142 0075 00       		.byte	0
 143 0076 18       		.byte	24
 144 0077 18       		.byte	24
 145 0078 01       		.byte	1
 146 0079 02       		.byte	2
 147 007a 04       		.byte	4
 148 007b 08       		.byte	8
 149 007c 10       		.byte	16
 150 007d 20       		.byte	32
 151 007e 40       		.byte	64
 152 007f 80       		.byte	-128
 153 0080 3C       		.byte	60
 154 0081 42       		.byte	66
 155 0082 85       		.byte	-123
 156 0083 89       		.byte	-119
 157 0084 91       		.byte	-111
 158 0085 A1       		.byte	-95
 159 0086 42       		.byte	66
 160 0087 3C       		.byte	60
 161 0088 30       		.byte	48
 162 0089 50       		.byte	80
 163 008a 10       		.byte	16
 164 008b 10       		.byte	16
 165 008c 10       		.byte	16
 166 008d 10       		.byte	16
 167 008e 10       		.byte	16
 168 008f FF       		.byte	-1
 169 0090 7E       		.byte	126
 170 0091 81       		.byte	-127
 171 0092 01       		.byte	1
ARM GAS  C:\Users\GYULAI~1\AppData\Local\Temp\ccol45rE.s 			page 4


 172 0093 06       		.byte	6
 173 0094 18       		.byte	24
 174 0095 61       		.byte	97
 175 0096 81       		.byte	-127
 176 0097 FF       		.byte	-1
 177 0098 7E       		.byte	126
 178 0099 81       		.byte	-127
 179 009a 81       		.byte	-127
 180 009b 0E       		.byte	14
 181 009c 01       		.byte	1
 182 009d 81       		.byte	-127
 183 009e 81       		.byte	-127
 184 009f 7E       		.byte	126
 185 00a0 06       		.byte	6
 186 00a1 0A       		.byte	10
 187 00a2 12       		.byte	18
 188 00a3 22       		.byte	34
 189 00a4 42       		.byte	66
 190 00a5 FF       		.byte	-1
 191 00a6 02       		.byte	2
 192 00a7 07       		.byte	7
 193 00a8 FF       		.byte	-1
 194 00a9 81       		.byte	-127
 195 00aa 80       		.byte	-128
 196 00ab FE       		.byte	-2
 197 00ac 01       		.byte	1
 198 00ad 81       		.byte	-127
 199 00ae 81       		.byte	-127
 200 00af 7E       		.byte	126
 201 00b0 7E       		.byte	126
 202 00b1 81       		.byte	-127
 203 00b2 80       		.byte	-128
 204 00b3 FE       		.byte	-2
 205 00b4 81       		.byte	-127
 206 00b5 81       		.byte	-127
 207 00b6 81       		.byte	-127
 208 00b7 7E       		.byte	126
 209 00b8 FF       		.byte	-1
 210 00b9 81       		.byte	-127
 211 00ba 02       		.byte	2
 212 00bb 04       		.byte	4
 213 00bc 08       		.byte	8
 214 00bd 10       		.byte	16
 215 00be 10       		.byte	16
 216 00bf 38       		.byte	56
 217 00c0 7E       		.byte	126
 218 00c1 81       		.byte	-127
 219 00c2 81       		.byte	-127
 220 00c3 7E       		.byte	126
 221 00c4 81       		.byte	-127
 222 00c5 81       		.byte	-127
 223 00c6 81       		.byte	-127
 224 00c7 7E       		.byte	126
 225 00c8 7E       		.byte	126
 226 00c9 81       		.byte	-127
 227 00ca 81       		.byte	-127
 228 00cb 81       		.byte	-127
ARM GAS  C:\Users\GYULAI~1\AppData\Local\Temp\ccol45rE.s 			page 5


 229 00cc 7F       		.byte	127
 230 00cd 01       		.byte	1
 231 00ce 81       		.byte	-127
 232 00cf 7E       		.byte	126
 233 00d0 00       		.byte	0
 234 00d1 00       		.byte	0
 235 00d2 00       		.byte	0
 236 00d3 18       		.byte	24
 237 00d4 18       		.byte	24
 238 00d5 00       		.byte	0
 239 00d6 18       		.byte	24
 240 00d7 18       		.byte	24
 241 00d8 00       		.byte	0
 242 00d9 00       		.byte	0
 243 00da 18       		.byte	24
 244 00db 18       		.byte	24
 245 00dc 00       		.byte	0
 246 00dd 18       		.byte	24
 247 00de 08       		.byte	8
 248 00df 10       		.byte	16
 249 00e0 00       		.byte	0
 250 00e1 0C       		.byte	12
 251 00e2 18       		.byte	24
 252 00e3 30       		.byte	48
 253 00e4 60       		.byte	96
 254 00e5 30       		.byte	48
 255 00e6 18       		.byte	24
 256 00e7 0C       		.byte	12
 257 00e8 00       		.byte	0
 258 00e9 00       		.byte	0
 259 00ea 7E       		.byte	126
 260 00eb 7E       		.byte	126
 261 00ec 00       		.byte	0
 262 00ed 7E       		.byte	126
 263 00ee 7E       		.byte	126
 264 00ef 00       		.byte	0
 265 00f0 00       		.byte	0
 266 00f1 60       		.byte	96
 267 00f2 30       		.byte	48
 268 00f3 18       		.byte	24
 269 00f4 0C       		.byte	12
 270 00f5 18       		.byte	24
 271 00f6 30       		.byte	48
 272 00f7 60       		.byte	96
 273 00f8 3E       		.byte	62
 274 00f9 41       		.byte	65
 275 00fa 41       		.byte	65
 276 00fb 02       		.byte	2
 277 00fc 1C       		.byte	28
 278 00fd 00       		.byte	0
 279 00fe 18       		.byte	24
 280 00ff 18       		.byte	24
 281 0100 3C       		.byte	60
 282 0101 42       		.byte	66
 283 0102 9D       		.byte	-99
 284 0103 85       		.byte	-123
 285 0104 BD       		.byte	-67
ARM GAS  C:\Users\GYULAI~1\AppData\Local\Temp\ccol45rE.s 			page 6


 286 0105 45       		.byte	69
 287 0106 45       		.byte	69
 288 0107 3A       		.byte	58
 289 0108 18       		.byte	24
 290 0109 24       		.byte	36
 291 010a 42       		.byte	66
 292 010b 42       		.byte	66
 293 010c 7E       		.byte	126
 294 010d 42       		.byte	66
 295 010e 42       		.byte	66
 296 010f E7       		.byte	-25
 297 0110 FC       		.byte	-4
 298 0111 42       		.byte	66
 299 0112 44       		.byte	68
 300 0113 7E       		.byte	126
 301 0114 41       		.byte	65
 302 0115 41       		.byte	65
 303 0116 41       		.byte	65
 304 0117 FE       		.byte	-2
 305 0118 3D       		.byte	61
 306 0119 43       		.byte	67
 307 011a 81       		.byte	-127
 308 011b 80       		.byte	-128
 309 011c 80       		.byte	-128
 310 011d 81       		.byte	-127
 311 011e 43       		.byte	67
 312 011f 3D       		.byte	61
 313 0120 FC       		.byte	-4
 314 0121 42       		.byte	66
 315 0122 41       		.byte	65
 316 0123 41       		.byte	65
 317 0124 41       		.byte	65
 318 0125 41       		.byte	65
 319 0126 42       		.byte	66
 320 0127 FC       		.byte	-4
 321 0128 FF       		.byte	-1
 322 0129 41       		.byte	65
 323 012a 40       		.byte	64
 324 012b 78       		.byte	120
 325 012c 40       		.byte	64
 326 012d 40       		.byte	64
 327 012e 41       		.byte	65
 328 012f FF       		.byte	-1
 329 0130 FF       		.byte	-1
 330 0131 41       		.byte	65
 331 0132 41       		.byte	65
 332 0133 48       		.byte	72
 333 0134 78       		.byte	120
 334 0135 48       		.byte	72
 335 0136 40       		.byte	64
 336 0137 E0       		.byte	-32
 337 0138 3F       		.byte	63
 338 0139 41       		.byte	65
 339 013a 80       		.byte	-128
 340 013b 9F       		.byte	-97
 341 013c 91       		.byte	-111
 342 013d 81       		.byte	-127
ARM GAS  C:\Users\GYULAI~1\AppData\Local\Temp\ccol45rE.s 			page 7


 343 013e 41       		.byte	65
 344 013f 3E       		.byte	62
 345 0140 E7       		.byte	-25
 346 0141 42       		.byte	66
 347 0142 42       		.byte	66
 348 0143 7E       		.byte	126
 349 0144 42       		.byte	66
 350 0145 42       		.byte	66
 351 0146 42       		.byte	66
 352 0147 E7       		.byte	-25
 353 0148 FE       		.byte	-2
 354 0149 10       		.byte	16
 355 014a 10       		.byte	16
 356 014b 10       		.byte	16
 357 014c 10       		.byte	16
 358 014d 10       		.byte	16
 359 014e 10       		.byte	16
 360 014f FE       		.byte	-2
 361 0150 3F       		.byte	63
 362 0151 04       		.byte	4
 363 0152 04       		.byte	4
 364 0153 04       		.byte	4
 365 0154 C4       		.byte	-60
 366 0155 84       		.byte	-124
 367 0156 84       		.byte	-124
 368 0157 78       		.byte	120
 369 0158 EF       		.byte	-17
 370 0159 44       		.byte	68
 371 015a 48       		.byte	72
 372 015b 70       		.byte	112
 373 015c 48       		.byte	72
 374 015d 44       		.byte	68
 375 015e 42       		.byte	66
 376 015f E7       		.byte	-25
 377 0160 E0       		.byte	-32
 378 0161 40       		.byte	64
 379 0162 40       		.byte	64
 380 0163 40       		.byte	64
 381 0164 40       		.byte	64
 382 0165 41       		.byte	65
 383 0166 41       		.byte	65
 384 0167 FF       		.byte	-1
 385 0168 C7       		.byte	-57
 386 0169 6A       		.byte	106
 387 016a 52       		.byte	82
 388 016b 52       		.byte	82
 389 016c 42       		.byte	66
 390 016d 42       		.byte	66
 391 016e 42       		.byte	66
 392 016f E7       		.byte	-25
 393 0170 C7       		.byte	-57
 394 0171 62       		.byte	98
 395 0172 52       		.byte	82
 396 0173 4A       		.byte	74
 397 0174 46       		.byte	70
 398 0175 42       		.byte	66
 399 0176 42       		.byte	66
ARM GAS  C:\Users\GYULAI~1\AppData\Local\Temp\ccol45rE.s 			page 8


 400 0177 E7       		.byte	-25
 401 0178 3C       		.byte	60
 402 0179 42       		.byte	66
 403 017a 81       		.byte	-127
 404 017b 81       		.byte	-127
 405 017c 81       		.byte	-127
 406 017d 81       		.byte	-127
 407 017e 42       		.byte	66
 408 017f 3C       		.byte	60
 409 0180 FE       		.byte	-2
 410 0181 41       		.byte	65
 411 0182 41       		.byte	65
 412 0183 41       		.byte	65
 413 0184 7E       		.byte	126
 414 0185 40       		.byte	64
 415 0186 40       		.byte	64
 416 0187 E0       		.byte	-32
 417 0188 7E       		.byte	126
 418 0189 81       		.byte	-127
 419 018a 81       		.byte	-127
 420 018b 81       		.byte	-127
 421 018c 81       		.byte	-127
 422 018d 91       		.byte	-111
 423 018e 7E       		.byte	126
 424 018f 10       		.byte	16
 425 0190 FE       		.byte	-2
 426 0191 41       		.byte	65
 427 0192 41       		.byte	65
 428 0193 41       		.byte	65
 429 0194 7E       		.byte	126
 430 0195 44       		.byte	68
 431 0196 42       		.byte	66
 432 0197 E7       		.byte	-25
 433 0198 7D       		.byte	125
 434 0199 83       		.byte	-125
 435 019a 81       		.byte	-127
 436 019b 7C       		.byte	124
 437 019c 02       		.byte	2
 438 019d 81       		.byte	-127
 439 019e C1       		.byte	-63
 440 019f BE       		.byte	-66
 441 01a0 FF       		.byte	-1
 442 01a1 89       		.byte	-119
 443 01a2 08       		.byte	8
 444 01a3 08       		.byte	8
 445 01a4 08       		.byte	8
 446 01a5 08       		.byte	8
 447 01a6 08       		.byte	8
 448 01a7 1C       		.byte	28
 449 01a8 E7       		.byte	-25
 450 01a9 42       		.byte	66
 451 01aa 42       		.byte	66
 452 01ab 42       		.byte	66
 453 01ac 42       		.byte	66
 454 01ad 42       		.byte	66
 455 01ae 42       		.byte	66
 456 01af 3C       		.byte	60
ARM GAS  C:\Users\GYULAI~1\AppData\Local\Temp\ccol45rE.s 			page 9


 457 01b0 E7       		.byte	-25
 458 01b1 42       		.byte	66
 459 01b2 42       		.byte	66
 460 01b3 42       		.byte	66
 461 01b4 22       		.byte	34
 462 01b5 24       		.byte	36
 463 01b6 14       		.byte	20
 464 01b7 08       		.byte	8
 465 01b8 E7       		.byte	-25
 466 01b9 42       		.byte	66
 467 01ba 42       		.byte	66
 468 01bb 42       		.byte	66
 469 01bc 52       		.byte	82
 470 01bd 52       		.byte	82
 471 01be 52       		.byte	82
 472 01bf 2C       		.byte	44
 473 01c0 E7       		.byte	-25
 474 01c1 42       		.byte	66
 475 01c2 24       		.byte	36
 476 01c3 18       		.byte	24
 477 01c4 24       		.byte	36
 478 01c5 24       		.byte	36
 479 01c6 42       		.byte	66
 480 01c7 E7       		.byte	-25
 481 01c8 E7       		.byte	-25
 482 01c9 42       		.byte	66
 483 01ca 24       		.byte	36
 484 01cb 14       		.byte	20
 485 01cc 08       		.byte	8
 486 01cd 08       		.byte	8
 487 01ce 08       		.byte	8
 488 01cf 1C       		.byte	28
 489 01d0 FF       		.byte	-1
 490 01d1 82       		.byte	-126
 491 01d2 84       		.byte	-124
 492 01d3 08       		.byte	8
 493 01d4 10       		.byte	16
 494 01d5 21       		.byte	33
 495 01d6 41       		.byte	65
 496 01d7 FF       		.byte	-1
 497 01d8 1C       		.byte	28
 498 01d9 10       		.byte	16
 499 01da 10       		.byte	16
 500 01db 10       		.byte	16
 501 01dc 10       		.byte	16
 502 01dd 10       		.byte	16
 503 01de 10       		.byte	16
 504 01df 1C       		.byte	28
 505 01e0 80       		.byte	-128
 506 01e1 40       		.byte	64
 507 01e2 20       		.byte	32
 508 01e3 10       		.byte	16
 509 01e4 08       		.byte	8
 510 01e5 04       		.byte	4
 511 01e6 02       		.byte	2
 512 01e7 01       		.byte	1
 513 01e8 38       		.byte	56
ARM GAS  C:\Users\GYULAI~1\AppData\Local\Temp\ccol45rE.s 			page 10


 514 01e9 08       		.byte	8
 515 01ea 08       		.byte	8
 516 01eb 08       		.byte	8
 517 01ec 08       		.byte	8
 518 01ed 08       		.byte	8
 519 01ee 08       		.byte	8
 520 01ef 38       		.byte	56
 521 01f0 10       		.byte	16
 522 01f1 28       		.byte	40
 523 01f2 44       		.byte	68
 524 01f3 00       		.byte	0
 525 01f4 00       		.byte	0
 526 01f5 00       		.byte	0
 527 01f6 00       		.byte	0
 528 01f7 00       		.byte	0
 529 01f8 00       		.byte	0
 530 01f9 00       		.byte	0
 531 01fa 00       		.byte	0
 532 01fb 00       		.byte	0
 533 01fc 00       		.byte	0
 534 01fd 00       		.byte	0
 535 01fe 00       		.byte	0
 536 01ff FF       		.byte	-1
 537 0200 18       		.byte	24
 538 0201 0C       		.byte	12
 539 0202 00       		.byte	0
 540 0203 00       		.byte	0
 541 0204 00       		.byte	0
 542 0205 00       		.byte	0
 543 0206 00       		.byte	0
 544 0207 00       		.byte	0
 545 0208 00       		.byte	0
 546 0209 00       		.byte	0
 547 020a 7C       		.byte	124
 548 020b 02       		.byte	2
 549 020c 7E       		.byte	126
 550 020d 82       		.byte	-126
 551 020e 82       		.byte	-126
 552 020f 7F       		.byte	127
 553 0210 C0       		.byte	-64
 554 0211 40       		.byte	64
 555 0212 5E       		.byte	94
 556 0213 61       		.byte	97
 557 0214 41       		.byte	65
 558 0215 41       		.byte	65
 559 0216 41       		.byte	65
 560 0217 FE       		.byte	-2
 561 0218 00       		.byte	0
 562 0219 00       		.byte	0
 563 021a 7E       		.byte	126
 564 021b 81       		.byte	-127
 565 021c 80       		.byte	-128
 566 021d 80       		.byte	-128
 567 021e 81       		.byte	-127
 568 021f 7E       		.byte	126
 569 0220 01       		.byte	1
 570 0221 01       		.byte	1
ARM GAS  C:\Users\GYULAI~1\AppData\Local\Temp\ccol45rE.s 			page 11


 571 0222 7D       		.byte	125
 572 0223 83       		.byte	-125
 573 0224 81       		.byte	-127
 574 0225 81       		.byte	-127
 575 0226 83       		.byte	-125
 576 0227 7D       		.byte	125
 577 0228 00       		.byte	0
 578 0229 00       		.byte	0
 579 022a 7E       		.byte	126
 580 022b 81       		.byte	-127
 581 022c FF       		.byte	-1
 582 022d 80       		.byte	-128
 583 022e 81       		.byte	-127
 584 022f 7E       		.byte	126
 585 0230 1E       		.byte	30
 586 0231 21       		.byte	33
 587 0232 21       		.byte	33
 588 0233 78       		.byte	120
 589 0234 20       		.byte	32
 590 0235 20       		.byte	32
 591 0236 20       		.byte	32
 592 0237 F8       		.byte	-8
 593 0238 03       		.byte	3
 594 0239 7E       		.byte	126
 595 023a 81       		.byte	-127
 596 023b FE       		.byte	-2
 597 023c 40       		.byte	64
 598 023d 7E       		.byte	126
 599 023e 81       		.byte	-127
 600 023f 7E       		.byte	126
 601 0240 E0       		.byte	-32
 602 0241 40       		.byte	64
 603 0242 5C       		.byte	92
 604 0243 62       		.byte	98
 605 0244 42       		.byte	66
 606 0245 42       		.byte	66
 607 0246 42       		.byte	66
 608 0247 E7       		.byte	-25
 609 0248 10       		.byte	16
 610 0249 00       		.byte	0
 611 024a 30       		.byte	48
 612 024b 10       		.byte	16
 613 024c 10       		.byte	16
 614 024d 10       		.byte	16
 615 024e 10       		.byte	16
 616 024f 7C       		.byte	124
 617 0250 02       		.byte	2
 618 0251 00       		.byte	0
 619 0252 0E       		.byte	14
 620 0253 02       		.byte	2
 621 0254 02       		.byte	2
 622 0255 02       		.byte	2
 623 0256 82       		.byte	-126
 624 0257 7C       		.byte	124
 625 0258 E0       		.byte	-32
 626 0259 4E       		.byte	78
 627 025a 44       		.byte	68
ARM GAS  C:\Users\GYULAI~1\AppData\Local\Temp\ccol45rE.s 			page 12


 628 025b 78       		.byte	120
 629 025c 48       		.byte	72
 630 025d 44       		.byte	68
 631 025e 42       		.byte	66
 632 025f E7       		.byte	-25
 633 0260 18       		.byte	24
 634 0261 08       		.byte	8
 635 0262 08       		.byte	8
 636 0263 08       		.byte	8
 637 0264 08       		.byte	8
 638 0265 08       		.byte	8
 639 0266 08       		.byte	8
 640 0267 7F       		.byte	127
 641 0268 00       		.byte	0
 642 0269 00       		.byte	0
 643 026a B6       		.byte	-74
 644 026b 49       		.byte	73
 645 026c 49       		.byte	73
 646 026d 49       		.byte	73
 647 026e 49       		.byte	73
 648 026f DB       		.byte	-37
 649 0270 00       		.byte	0
 650 0271 00       		.byte	0
 651 0272 DC       		.byte	-36
 652 0273 62       		.byte	98
 653 0274 42       		.byte	66
 654 0275 42       		.byte	66
 655 0276 42       		.byte	66
 656 0277 E7       		.byte	-25
 657 0278 00       		.byte	0
 658 0279 00       		.byte	0
 659 027a 7E       		.byte	126
 660 027b 81       		.byte	-127
 661 027c 81       		.byte	-127
 662 027d 81       		.byte	-127
 663 027e 81       		.byte	-127
 664 027f 7E       		.byte	126
 665 0280 00       		.byte	0
 666 0281 FE       		.byte	-2
 667 0282 41       		.byte	65
 668 0283 41       		.byte	65
 669 0284 41       		.byte	65
 670 0285 7E       		.byte	126
 671 0286 40       		.byte	64
 672 0287 E0       		.byte	-32
 673 0288 00       		.byte	0
 674 0289 7E       		.byte	126
 675 028a 82       		.byte	-126
 676 028b 82       		.byte	-126
 677 028c 82       		.byte	-126
 678 028d 7E       		.byte	126
 679 028e 02       		.byte	2
 680 028f 07       		.byte	7
 681 0290 00       		.byte	0
 682 0291 00       		.byte	0
 683 0292 DC       		.byte	-36
 684 0293 62       		.byte	98
ARM GAS  C:\Users\GYULAI~1\AppData\Local\Temp\ccol45rE.s 			page 13


 685 0294 42       		.byte	66
 686 0295 40       		.byte	64
 687 0296 40       		.byte	64
 688 0297 E0       		.byte	-32
 689 0298 00       		.byte	0
 690 0299 00       		.byte	0
 691 029a 7E       		.byte	126
 692 029b 80       		.byte	-128
 693 029c 7E       		.byte	126
 694 029d 01       		.byte	1
 695 029e 81       		.byte	-127
 696 029f FE       		.byte	-2
 697 02a0 10       		.byte	16
 698 02a1 10       		.byte	16
 699 02a2 7C       		.byte	124
 700 02a3 10       		.byte	16
 701 02a4 10       		.byte	16
 702 02a5 10       		.byte	16
 703 02a6 11       		.byte	17
 704 02a7 0E       		.byte	14
 705 02a8 00       		.byte	0
 706 02a9 00       		.byte	0
 707 02aa E7       		.byte	-25
 708 02ab 42       		.byte	66
 709 02ac 42       		.byte	66
 710 02ad 42       		.byte	66
 711 02ae 42       		.byte	66
 712 02af 3C       		.byte	60
 713 02b0 00       		.byte	0
 714 02b1 00       		.byte	0
 715 02b2 E7       		.byte	-25
 716 02b3 42       		.byte	66
 717 02b4 24       		.byte	36
 718 02b5 24       		.byte	36
 719 02b6 14       		.byte	20
 720 02b7 08       		.byte	8
 721 02b8 00       		.byte	0
 722 02b9 00       		.byte	0
 723 02ba E7       		.byte	-25
 724 02bb 42       		.byte	66
 725 02bc 52       		.byte	82
 726 02bd 52       		.byte	82
 727 02be 52       		.byte	82
 728 02bf 2C       		.byte	44
 729 02c0 00       		.byte	0
 730 02c1 00       		.byte	0
 731 02c2 E7       		.byte	-25
 732 02c3 24       		.byte	36
 733 02c4 18       		.byte	24
 734 02c5 24       		.byte	36
 735 02c6 42       		.byte	66
 736 02c7 E7       		.byte	-25
 737 02c8 00       		.byte	0
 738 02c9 00       		.byte	0
 739 02ca E7       		.byte	-25
 740 02cb 42       		.byte	66
 741 02cc 42       		.byte	66
ARM GAS  C:\Users\GYULAI~1\AppData\Local\Temp\ccol45rE.s 			page 14


 742 02cd 3E       		.byte	62
 743 02ce 82       		.byte	-126
 744 02cf 7C       		.byte	124
 745 02d0 00       		.byte	0
 746 02d1 00       		.byte	0
 747 02d2 FF       		.byte	-1
 748 02d3 81       		.byte	-127
 749 02d4 0E       		.byte	14
 750 02d5 70       		.byte	112
 751 02d6 81       		.byte	-127
 752 02d7 FF       		.byte	-1
 753 02d8 18       		.byte	24
 754 02d9 30       		.byte	48
 755 02da 20       		.byte	32
 756 02db 60       		.byte	96
 757 02dc 60       		.byte	96
 758 02dd 20       		.byte	32
 759 02de 30       		.byte	48
 760 02df 18       		.byte	24
 761 02e0 18       		.byte	24
 762 02e1 18       		.byte	24
 763 02e2 18       		.byte	24
 764 02e3 18       		.byte	24
 765 02e4 18       		.byte	24
 766 02e5 18       		.byte	24
 767 02e6 18       		.byte	24
 768 02e7 18       		.byte	24
 769 02e8 18       		.byte	24
 770 02e9 0C       		.byte	12
 771 02ea 04       		.byte	4
 772 02eb 06       		.byte	6
 773 02ec 06       		.byte	6
 774 02ed 04       		.byte	4
 775 02ee 0C       		.byte	12
 776 02ef 18       		.byte	24
 777 02f0 00       		.byte	0
 778 02f1 00       		.byte	0
 779 02f2 00       		.byte	0
 780 02f3 30       		.byte	48
 781 02f4 49       		.byte	73
 782 02f5 06       		.byte	6
 783 02f6 00       		.byte	0
 784 02f7 00       		.byte	0
 785 02f8 00       		.byte	0
 786 02f9 FF       		.byte	-1
 787 02fa 81       		.byte	-127
 788 02fb C3       		.byte	-61
 789 02fc BD       		.byte	-67
 790 02fd 81       		.byte	-127
 791 02fe 81       		.byte	-127
 792 02ff FF       		.byte	-1
 793 0300 3B       		.byte	59
 794 0301 43       		.byte	67
 795 0302 80       		.byte	-128
 796 0303 80       		.byte	-128
 797 0304 80       		.byte	-128
 798 0305 80       		.byte	-128
ARM GAS  C:\Users\GYULAI~1\AppData\Local\Temp\ccol45rE.s 			page 15


 799 0306 40       		.byte	64
 800 0307 38       		.byte	56
 801 0308 7B       		.byte	123
 802 0309 43       		.byte	67
 803 030a 40       		.byte	64
 804 030b 78       		.byte	120
 805 030c 40       		.byte	64
 806 030d 40       		.byte	64
 807 030e 40       		.byte	64
 808 030f 40       		.byte	64
 809 0310 F8       		.byte	-8
 810 0311 88       		.byte	-120
 811 0312 F8       		.byte	-8
 812 0313 87       		.byte	-121
 813 0314 81       		.byte	-127
 814 0315 8F       		.byte	-113
 815 0316 89       		.byte	-119
 816 0317 8F       		.byte	-113
 817 0318 FF       		.byte	-1
 818 0319 C3       		.byte	-61
 819 031a A5       		.byte	-91
 820 031b 99       		.byte	-103
 821 031c 99       		.byte	-103
 822 031d A5       		.byte	-91
 823 031e C3       		.byte	-61
 824 031f FF       		.byte	-1
 825 0320 00       		.byte	0
 826 0321 00       		.byte	0
 827 0322 00       		.byte	0
 828 0323 07       		.byte	7
 829 0324 80       		.byte	-128
 830 0325 00       		.byte	0
 831 0326 CC       		.byte	-52
 832 0327 00       		.byte	0
 833 0328 18       		.byte	24
 834 0329 60       		.byte	96
 835 032a 01       		.byte	1
 836 032b 86       		.byte	-122
 837 032c 07       		.byte	7
 838 032d 9B       		.byte	-101
 839 032e 60       		.byte	96
 840 032f 01       		.byte	1
 841 0330 B6       		.byte	-74
 842 0331 03       		.byte	3
 843 0332 9B       		.byte	-101
 844 0333 60       		.byte	96
 845 0334 01       		.byte	1
 846 0335 B6       		.byte	-74
 847 0336 07       		.byte	7
 848 0337 9B       		.byte	-101
 849 0338 60       		.byte	96
 850 0339 01       		.byte	1
 851 033a B6       		.byte	-74
 852 033b 00       		.byte	0
 853 033c 73       		.byte	115
 854 033d 38       		.byte	56
 855 033e 0C       		.byte	12
ARM GAS  C:\Users\GYULAI~1\AppData\Local\Temp\ccol45rE.s 			page 16


 856 033f 78       		.byte	120
 857 0340 C1       		.byte	-63
 858 0341 8F       		.byte	-113
 859 0342 C6       		.byte	-58
 860 0343 18       		.byte	24
 861 0344 FC       		.byte	-4
 862 0345 61       		.byte	97
 863 0346 8F       		.byte	-113
 864 0347 C6       		.byte	-58
 865 0348 0C       		.byte	12
 866 0349 78       		.byte	120
 867 034a C0       		.byte	-64
 868 034b 30       		.byte	48
 869 034c 30       		.byte	48
 870 034d 00       		.byte	0
 871 034e FC       		.byte	-4
 872 034f 00       		.byte	0
 873 0350 00       		.byte	0
 874 0351 00       		.byte	0
 875 0352 00       		.byte	0
 876 0353 00       		.byte	0
 877 0354 00       		.byte	0
 878 0355 3F       		.byte	63
 879 0356 C0       		.byte	-64
 880 0357 0C       		.byte	12
 881 0358 03       		.byte	3
 882 0359 01       		.byte	1
 883 035a 80       		.byte	-128
 884 035b 18       		.byte	24
 885 035c 30       		.byte	48
 886 035d 04       		.byte	4
 887 035e C6       		.byte	-58
 888 035f 00       		.byte	0
 889 0360 86       		.byte	-122
 890 0361 60       		.byte	96
 891 0362 10       		.byte	16
 892 0363 66       		.byte	102
 893 0364 06       		.byte	6
 894 0365 06       		.byte	6
 895 0366 60       		.byte	96
 896 0367 F0       		.byte	-16
 897 0368 66       		.byte	102
 898 0369 06       		.byte	6
 899 036a 06       		.byte	6
 900 036b 30       		.byte	48
 901 036c 00       		.byte	0
 902 036d C1       		.byte	-63
 903 036e 80       		.byte	-128
 904 036f 18       		.byte	24
 905 0370 0C       		.byte	12
 906 0371 03       		.byte	3
 907 0372 00       		.byte	0
 908 0373 39       		.byte	57
 909 0374 C0       		.byte	-64
 910 0375 00       		.byte	0
 911 0376 F0       		.byte	-16
 912 0377 00       		.byte	0
ARM GAS  C:\Users\GYULAI~1\AppData\Local\Temp\ccol45rE.s 			page 17


 913 0378 0F       		.byte	15
 914 0379 00       		.byte	0
 915 037a 00       		.byte	0
 916 037b F0       		.byte	-16
 917 037c 03       		.byte	3
 918 037d FF       		.byte	-1
 919 037e FC       		.byte	-4
 920 037f 3F       		.byte	63
 921 0380 FF       		.byte	-1
 922 0381 C0       		.byte	-64
 923 0382 00       		.byte	0
 924 0383 00       		.byte	0
 925 0384 00       		.byte	0
 926 0385 60       		.byte	96
 927 0386 00       		.byte	0
 928 0387 06       		.byte	6
 929 0388 00       		.byte	0
 930 0389 01       		.byte	1
 931 038a 98       		.byte	-104
 932 038b 00       		.byte	0
 933 038c 19       		.byte	25
 934 038d 80       		.byte	-128
 935 038e 01       		.byte	1
 936 038f 98       		.byte	-104
 937 0390 00       		.byte	0
 938 0391 30       		.byte	48
 939 0392 C0       		.byte	-64
 940 0393 06       		.byte	6
 941 0394 06       		.byte	6
 942 0395 01       		.byte	1
 943 0396 80       		.byte	-128
 944 0397 18       		.byte	24
 945 0398 18       		.byte	24
 946 0399 01       		.byte	1
 947 039a 81       		.byte	-127
 948 039b 80       		.byte	-128
 949 039c 18       		.byte	24
 950 039d 18       		.byte	24
 951 039e 01       		.byte	1
 952 039f 81       		.byte	-127
 953 03a0 80       		.byte	-128
 954 03a1 58       		.byte	88
 955 03a2 18       		.byte	24
 956 03a3 05       		.byte	5
 957 03a4 81       		.byte	-127
 958 03a5 80       		.byte	-128
 959 03a6 58       		.byte	88
 960 03a7 18       		.byte	24
 961 03a8 05       		.byte	5
 962 03a9 81       		.byte	-127
 963 03aa 80       		.byte	-128
 964 03ab 98       		.byte	-104
 965 03ac 0C       		.byte	12
 966 03ad 13       		.byte	19
 967 03ae 00       		.byte	0
 968 03af 60       		.byte	96
 969 03b0 60       		.byte	96
ARM GAS  C:\Users\GYULAI~1\AppData\Local\Temp\ccol45rE.s 			page 18


 970 03b1 03       		.byte	3
 971 03b2 FC       		.byte	-4
 972 03b3 00       		.byte	0
 973 03b4 00       		.byte	0
 974 03b5 00       		.byte	0
 975 03b6 00       		.byte	0
 976 03b7 00       		.byte	0
 977 03b8 00       		.byte	0
 978 03b9 00       		.byte	0
 979 03ba 00       		.byte	0
 980 03bb 00       		.byte	0
 981 03bc 00       		.byte	0
 982 03bd 00       		.byte	0
 983 03be 00       		.byte	0
 984 03bf 00       		.byte	0
 985 03c0 00       		.byte	0
 986 03c1 00       		.byte	0
 987 03c2 00       		.byte	0
 988 03c3 00       		.byte	0
 989 03c4 00       		.byte	0
 990 03c5 07       		.byte	7
 991 03c6 FC       		.byte	-4
 992 03c7 07       		.byte	7
 993 03c8 87       		.byte	-121
 994 03c9 8F       		.byte	-113
 995 03ca FF       		.byte	-1
 996 03cb 03       		.byte	3
 997 03cc FC       		.byte	-4
 998 03cd 02       		.byte	2
 999 03ce 00       		.byte	0
 1000 03cf 00       		.byte	0
 1001 03d0 F8       		.byte	-8
 1002 03d1 00       		.byte	0
 1003 03d2 00       		.byte	0
 1004 03d3 00       		.byte	0
 1005 03d4 07       		.byte	7
 1006 03d5 87       		.byte	-121
 1007 03d6 07       		.byte	7
 1008 03d7 87       		.byte	-121
 1009 03d8 8F       		.byte	-113
 1010 03d9 FF       		.byte	-1
 1011 03da 0F       		.byte	15
 1012 03db FF       		.byte	-1
 1013 03dc 07       		.byte	7
 1014 03dd 00       		.byte	0
 1015 03de 81       		.byte	-127
 1016 03df CF       		.byte	-49
 1017 03e0 00       		.byte	0
 1018 03e1 00       		.byte	0
 1019 03e2 00       		.byte	0
 1020 03e3 07       		.byte	7
 1021 03e4 87       		.byte	-121
 1022 03e5 07       		.byte	7
 1023 03e6 87       		.byte	-121
 1024 03e7 8F       		.byte	-113
 1025 03e8 00       		.byte	0
 1026 03e9 0F       		.byte	15
ARM GAS  C:\Users\GYULAI~1\AppData\Local\Temp\ccol45rE.s 			page 19


 1027 03ea 0F       		.byte	15
 1028 03eb 02       		.byte	2
 1029 03ec 00       		.byte	0
 1030 03ed 41       		.byte	65
 1031 03ee F8       		.byte	-8
 1032 03ef 00       		.byte	0
 1033 03f0 00       		.byte	0
 1034 03f1 00       		.byte	0
 1035 03f2 07       		.byte	7
 1036 03f3 87       		.byte	-121
 1037 03f4 07       		.byte	7
 1038 03f5 FF       		.byte	-1
 1039 03f6 8F       		.byte	-113
 1040 03f7 FF       		.byte	-1
 1041 03f8 0F       		.byte	15
 1042 03f9 FF       		.byte	-1
 1043 03fa 00       		.byte	0
 1044 03fb 00       		.byte	0
 1045 03fc 3F       		.byte	63
 1046 03fd FC       		.byte	-4
 1047 03fe 00       		.byte	0
 1048 03ff 10       		.byte	16
 1049 0400 00       		.byte	0
 1050 0401 07       		.byte	7
 1051 0402 9C       		.byte	-100
 1052 0403 07       		.byte	7
 1053 0404 FF       		.byte	-1
 1054 0405 8F       		.byte	-113
 1055 0406 FF       		.byte	-1
 1056 0407 0F       		.byte	15
 1057 0408 FF       		.byte	-1
 1058 0409 00       		.byte	0
 1059 040a 00       		.byte	0
 1060 040b 7F       		.byte	127
 1061 040c FC       		.byte	-4
 1062 040d 00       		.byte	0
 1063 040e 38       		.byte	56
 1064 040f 00       		.byte	0
 1065 0410 07       		.byte	7
 1066 0411 8E       		.byte	-114
 1067 0412 07       		.byte	7
 1068 0413 87       		.byte	-121
 1069 0414 8F       		.byte	-113
 1070 0415 00       		.byte	0
 1071 0416 0F       		.byte	15
 1072 0417 0F       		.byte	15
 1073 0418 00       		.byte	0
 1074 0419 00       		.byte	0
 1075 041a 1E       		.byte	30
 1076 041b F0       		.byte	-16
 1077 041c 00       		.byte	0
 1078 041d 10       		.byte	16
 1079 041e 00       		.byte	0
 1080 041f 07       		.byte	7
 1081 0420 87       		.byte	-121
 1082 0421 07       		.byte	7
 1083 0422 87       		.byte	-121
ARM GAS  C:\Users\GYULAI~1\AppData\Local\Temp\ccol45rE.s 			page 20


 1084 0423 8F       		.byte	-113
 1085 0424 FF       		.byte	-1
 1086 0425 0F       		.byte	15
 1087 0426 0F       		.byte	15
 1088 0427 00       		.byte	0
 1089 0428 00       		.byte	0
 1090 0429 08       		.byte	8
 1091 042a 40       		.byte	64
 1092 042b 00       		.byte	0
 1093 042c 00       		.byte	0
 1094 042d 00       		.byte	0
 1095 042e 07       		.byte	7
 1096 042f 83       		.byte	-125
 1097 0430 C7       		.byte	-57
 1098 0431 87       		.byte	-121
 1099 0432 8F       		.byte	-113
 1100 0433 FF       		.byte	-1
 1101 0434 0F       		.byte	15
 1102 0435 0F       		.byte	15
 1103 0436 00       		.byte	0
 1104 0437 00       		.byte	0
 1105 0438 0C       		.byte	12
 1106 0439 60       		.byte	96
 1107 043a 00       		.byte	0
 1108 043b 00       		.byte	0
 1109 043c 00       		.byte	0
 1110 043d 00       		.byte	0
 1111 043e 00       		.byte	0
 1112 043f 00       		.byte	0
 1113 0440 00       		.byte	0
 1114 0441 00       		.byte	0
 1115 0442 00       		.byte	0
 1116 0443 00       		.byte	0
 1117 0444 00       		.byte	0
 1118 0445 00       		.byte	0
 1119 0446 00       		.byte	0
 1120 0447 00       		.byte	0
 1121 0448 00       		.byte	0
 1122 0449 00       		.byte	0
 1123 044a 00       		.byte	0
 1124 044b 00       		.byte	0
 1125 044c 00       		.byte	0
 1126 044d 00       		.byte	0
 1127 044e 07       		.byte	7
 1128 044f FE       		.byte	-2
 1129 0450 0F       		.byte	15
 1130 0451 F8       		.byte	-8
 1131 0452 0F       		.byte	15
 1132 0453 FF       		.byte	-1
 1133 0454 1F       		.byte	31
 1134 0455 FE       		.byte	-2
 1135 0456 3F       		.byte	63
 1136 0457 FC       		.byte	-4
 1137 0458 7F       		.byte	127
 1138 0459 F8       		.byte	-8
 1139 045a 00       		.byte	0
 1140 045b 00       		.byte	0
ARM GAS  C:\Users\GYULAI~1\AppData\Local\Temp\ccol45rE.s 			page 21


 1141 045c 00       		.byte	0
 1142 045d 07       		.byte	7
 1143 045e 8F       		.byte	-113
 1144 045f 0F       		.byte	15
 1145 0460 0E       		.byte	14
 1146 0461 0F       		.byte	15
 1147 0462 FF       		.byte	-1
 1148 0463 1F       		.byte	31
 1149 0464 FE       		.byte	-2
 1150 0465 3F       		.byte	63
 1151 0466 FC       		.byte	-4
 1152 0467 7F       		.byte	127
 1153 0468 F8       		.byte	-8
 1154 0469 00       		.byte	0
 1155 046a 02       		.byte	2
 1156 046b 00       		.byte	0
 1157 046c 07       		.byte	7
 1158 046d 87       		.byte	-121
 1159 046e 8F       		.byte	-113
 1160 046f 0E       		.byte	14
 1161 0470 0F       		.byte	15
 1162 0471 00       		.byte	0
 1163 0472 1E       		.byte	30
 1164 0473 00       		.byte	0
 1165 0474 00       		.byte	0
 1166 0475 F0       		.byte	-16
 1167 0476 78       		.byte	120
 1168 0477 00       		.byte	0
 1169 0478 00       		.byte	0
 1170 0479 07       		.byte	7
 1171 047a 00       		.byte	0
 1172 047b 07       		.byte	7
 1173 047c FE       		.byte	-2
 1174 047d 0F       		.byte	15
 1175 047e 0E       		.byte	14
 1176 047f 0F       		.byte	15
 1177 0480 FF       		.byte	-1
 1178 0481 1F       		.byte	31
 1179 0482 FE       		.byte	-2
 1180 0483 01       		.byte	1
 1181 0484 E0       		.byte	-32
 1182 0485 7F       		.byte	127
 1183 0486 F8       		.byte	-8
 1184 0487 00       		.byte	0
 1185 0488 02       		.byte	2
 1186 0489 00       		.byte	0
 1187 048a 07       		.byte	7
 1188 048b FF       		.byte	-1
 1189 048c 0F       		.byte	15
 1190 048d 38       		.byte	56
 1191 048e 0F       		.byte	15
 1192 048f FF       		.byte	-1
 1193 0490 1F       		.byte	31
 1194 0491 FE       		.byte	-2
 1195 0492 07       		.byte	7
 1196 0493 80       		.byte	-128
 1197 0494 7F       		.byte	127
ARM GAS  C:\Users\GYULAI~1\AppData\Local\Temp\ccol45rE.s 			page 22


 1198 0495 F8       		.byte	-8
 1199 0496 00       		.byte	0
 1200 0497 00       		.byte	0
 1201 0498 00       		.byte	0
 1202 0499 07       		.byte	7
 1203 049a 87       		.byte	-121
 1204 049b 8F       		.byte	-113
 1205 049c 1C       		.byte	28
 1206 049d 0F       		.byte	15
 1207 049e 00       		.byte	0
 1208 049f 1E       		.byte	30
 1209 04a0 00       		.byte	0
 1210 04a1 1E       		.byte	30
 1211 04a2 00       		.byte	0
 1212 04a3 78       		.byte	120
 1213 04a4 00       		.byte	0
 1214 04a5 00       		.byte	0
 1215 04a6 00       		.byte	0
 1216 04a7 00       		.byte	0
 1217 04a8 07       		.byte	7
 1218 04a9 87       		.byte	-121
 1219 04aa 0F       		.byte	15
 1220 04ab 0E       		.byte	14
 1221 04ac 0F       		.byte	15
 1222 04ad FF       		.byte	-1
 1223 04ae 1F       		.byte	31
 1224 04af FE       		.byte	-2
 1225 04b0 3F       		.byte	63
 1226 04b1 FC       		.byte	-4
 1227 04b2 7F       		.byte	127
 1228 04b3 F8       		.byte	-8
 1229 04b4 00       		.byte	0
 1230 04b5 00       		.byte	0
 1231 04b6 10       		.byte	16
 1232 04b7 07       		.byte	7
 1233 04b8 FE       		.byte	-2
 1234 04b9 0F       		.byte	15
 1235 04ba 07       		.byte	7
 1236 04bb 8F       		.byte	-113
 1237 04bc FF       		.byte	-1
 1238 04bd 1F       		.byte	31
 1239 04be FE       		.byte	-2
 1240 04bf 3F       		.byte	63
 1241 04c0 FC       		.byte	-4
 1242 04c1 7F       		.byte	127
 1243 04c2 F8       		.byte	-8
 1244 04c3 00       		.byte	0
 1245 04c4 00       		.byte	0
 1246 04c5 38       		.byte	56
 1247 04c6 00       		.byte	0
 1248 04c7 00       		.byte	0
 1249 04c8 00       		.byte	0
 1250 04c9 00       		.byte	0
 1251 04ca 00       		.byte	0
 1252 04cb 00       		.byte	0
 1253 04cc 00       		.byte	0
 1254 04cd 00       		.byte	0
ARM GAS  C:\Users\GYULAI~1\AppData\Local\Temp\ccol45rE.s 			page 23


 1255 04ce 00       		.byte	0
 1256 04cf 00       		.byte	0
 1257 04d0 00       		.byte	0
 1258 04d1 00       		.byte	0
 1259 04d2 20       		.byte	32
 1260 04d3 00       		.byte	0
 1261 04d4 10       		.byte	16
 1262 04d5 07       		.byte	7
 1263 04d6 F0       		.byte	-16
 1264 04d7 C0       		.byte	-64
 1265 04d8 00       		.byte	0
 1266 04d9 00       		.byte	0
 1267 04da 00       		.byte	0
 1268 04db 00       		.byte	0
 1269 04dc 00       		.byte	0
 1270 04dd 00       		.byte	0
 1271 04de 00       		.byte	0
 1272 04df 00       		.byte	0
 1273 04e0 00       		.byte	0
 1274 04e1 70       		.byte	112
 1275 04e2 20       		.byte	32
 1276 04e3 00       		.byte	0
 1277 04e4 18       		.byte	24
 1278 04e5 06       		.byte	6
 1279 04e6 10       		.byte	16
 1280 04e7 01       		.byte	1
 1281 04e8 00       		.byte	0
 1282 04e9 00       		.byte	0
 1283 04ea 00       		.byte	0
 1284 04eb 00       		.byte	0
 1285 04ec 40       		.byte	64
 1286 04ed 00       		.byte	0
 1287 04ee 00       		.byte	0
 1288 04ef 00       		.byte	0
 1289 04f0 20       		.byte	32
 1290 04f1 70       		.byte	112
 1291 04f2 00       		.byte	0
 1292 04f3 30       		.byte	48
 1293 04f4 61       		.byte	97
 1294 04f5 20       		.byte	32
 1295 04f6 03       		.byte	3
 1296 04f7 80       		.byte	-128
 1297 04f8 00       		.byte	0
 1298 04f9 0F       		.byte	15
 1299 04fa 80       		.byte	-128
 1300 04fb E0       		.byte	-32
 1301 04fc 00       		.byte	0
 1302 04fd 01       		.byte	1
 1303 04fe 00       		.byte	0
 1304 04ff 00       		.byte	0
 1305 0500 20       		.byte	32
 1306 0501 00       		.byte	0
 1307 0502 63       		.byte	99
 1308 0503 01       		.byte	1
 1309 0504 80       		.byte	-128
 1310 0505 01       		.byte	1
 1311 0506 00       		.byte	0
ARM GAS  C:\Users\GYULAI~1\AppData\Local\Temp\ccol45rE.s 			page 24


 1312 0507 00       		.byte	0
 1313 0508 30       		.byte	48
 1314 0509 60       		.byte	96
 1315 050a 40       		.byte	64
 1316 050b 00       		.byte	0
 1317 050c 03       		.byte	3
 1318 050d 80       		.byte	-128
 1319 050e 00       		.byte	0
 1320 050f 00       		.byte	0
 1321 0510 00       		.byte	0
 1322 0511 58       		.byte	88
 1323 0512 0C       		.byte	12
 1324 0513 40       		.byte	64
 1325 0514 00       		.byte	0
 1326 0515 00       		.byte	0
 1327 0516 00       		.byte	0
 1328 0517 E0       		.byte	-32
 1329 0518 38       		.byte	56
 1330 0519 00       		.byte	0
 1331 051a 00       		.byte	0
 1332 051b 01       		.byte	1
 1333 051c 00       		.byte	0
 1334 051d 00       		.byte	0
 1335 051e 00       		.byte	0
 1336 051f 00       		.byte	0
 1337 0520 60       		.byte	96
 1338 0521 30       		.byte	48
 1339 0522 C0       		.byte	-64
 1340 0523 00       		.byte	0
 1341 0524 00       		.byte	0
 1342 0525 07       		.byte	7
 1343 0526 FF       		.byte	-1
 1344 0527 FF       		.byte	-1
 1345 0528 00       		.byte	0
 1346 0529 00       		.byte	0
 1347 052a 00       		.byte	0
 1348 052b 00       		.byte	0
 1349 052c 00       		.byte	0
 1350 052d 00       		.byte	0
 1351 052e 00       		.byte	0
 1352 052f A0       		.byte	-96
 1353 0530 C3       		.byte	-61
 1354 0531 C0       		.byte	-64
 1355 0532 00       		.byte	0
 1356 0533 00       		.byte	0
 1357 0534 07       		.byte	7
 1358 0535 FF       		.byte	-1
 1359 0536 FF       		.byte	-1
 1360 0537 00       		.byte	0
 1361 0538 08       		.byte	8
 1362 0539 00       		.byte	0
 1363 053a 00       		.byte	0
 1364 053b 00       		.byte	0
 1365 053c 00       		.byte	0
 1366 053d 02       		.byte	2
 1367 053e 22       		.byte	34
 1368 053f 0F       		.byte	15
ARM GAS  C:\Users\GYULAI~1\AppData\Local\Temp\ccol45rE.s 			page 25


 1369 0540 80       		.byte	-128
 1370 0541 00       		.byte	0
 1371 0542 00       		.byte	0
 1372 0543 00       		.byte	0
 1373 0544 88       		.byte	-120
 1374 0545 88       		.byte	-120
 1375 0546 00       		.byte	0
 1376 0547 1C       		.byte	28
 1377 0548 00       		.byte	0
 1378 0549 00       		.byte	0
 1379 054a 40       		.byte	64
 1380 054b 00       		.byte	0
 1381 054c 04       		.byte	4
 1382 054d 98       		.byte	-104
 1383 054e 7E       		.byte	126
 1384 054f 01       		.byte	1
 1385 0550 00       		.byte	0
 1386 0551 00       		.byte	0
 1387 0552 01       		.byte	1
 1388 0553 08       		.byte	8
 1389 0554 84       		.byte	-124
 1390 0555 00       		.byte	0
 1391 0556 08       		.byte	8
 1392 0557 00       		.byte	0
 1393 0558 00       		.byte	0
 1394 0559 E0       		.byte	-32
 1395 055a 00       		.byte	0
 1396 055b 06       		.byte	6
 1397 055c 07       		.byte	7
 1398 055d F0       		.byte	-16
 1399 055e 03       		.byte	3
 1400 055f 80       		.byte	-128
 1401 0560 00       		.byte	0
 1402 0561 02       		.byte	2
 1403 0562 08       		.byte	8
 1404 0563 82       		.byte	-126
 1405 0564 00       		.byte	0
 1406 0565 00       		.byte	0
 1407 0566 00       		.byte	0
 1408 0567 00       		.byte	0
 1409 0568 40       		.byte	64
 1410 0569 00       		.byte	0
 1411 056a 00       		.byte	0
 1412 056b 00       		.byte	0
 1413 056c 00       		.byte	0
 1414 056d 01       		.byte	1
 1415 056e 00       		.byte	0
 1416 056f 00       		.byte	0
 1417 0570 00       		.byte	0
 1418 0571 00       		.byte	0
 1419 0572 00       		.byte	0
 1420 0573 00       		.byte	0
 1421 0574 00       		.byte	0
 1422 0575 00       		.byte	0
 1423 0576 00       		.byte	0
 1424 0577 00       		.byte	0
 1425              		.global	codefont_8x8_descriptors
ARM GAS  C:\Users\GYULAI~1\AppData\Local\Temp\ccol45rE.s 			page 26


 1426              		.align	2
 1427              		.type	codefont_8x8_descriptors, %object
 1428              		.size	codefont_8x8_descriptors, 832
 1429              	codefont_8x8_descriptors:
 1430 0578 00000000 		.word	0
 1431 057c 08       		.byte	8
 1432 057d 08       		.byte	8
 1433 057e 01       		.byte	1
 1434 057f 01       		.byte	1
 1435 0580 40000000 		.word	64
 1436 0584 08       		.byte	8
 1437 0585 08       		.byte	8
 1438 0586 01       		.byte	1
 1439 0587 01       		.byte	1
 1440 0588 80000000 		.word	128
 1441 058c 08       		.byte	8
 1442 058d 08       		.byte	8
 1443 058e 01       		.byte	1
 1444 058f 01       		.byte	1
 1445 0590 C0000000 		.word	192
 1446 0594 08       		.byte	8
 1447 0595 08       		.byte	8
 1448 0596 01       		.byte	1
 1449 0597 01       		.byte	1
 1450 0598 00010000 		.word	256
 1451 059c 08       		.byte	8
 1452 059d 08       		.byte	8
 1453 059e 01       		.byte	1
 1454 059f 01       		.byte	1
 1455 05a0 40010000 		.word	320
 1456 05a4 08       		.byte	8
 1457 05a5 08       		.byte	8
 1458 05a6 01       		.byte	1
 1459 05a7 01       		.byte	1
 1460 05a8 80010000 		.word	384
 1461 05ac 08       		.byte	8
 1462 05ad 08       		.byte	8
 1463 05ae 01       		.byte	1
 1464 05af 01       		.byte	1
 1465 05b0 C0010000 		.word	448
 1466 05b4 08       		.byte	8
 1467 05b5 08       		.byte	8
 1468 05b6 01       		.byte	1
 1469 05b7 01       		.byte	1
 1470 05b8 00020000 		.word	512
 1471 05bc 08       		.byte	8
 1472 05bd 08       		.byte	8
 1473 05be 01       		.byte	1
 1474 05bf 01       		.byte	1
 1475 05c0 40020000 		.word	576
 1476 05c4 08       		.byte	8
 1477 05c5 08       		.byte	8
 1478 05c6 01       		.byte	1
 1479 05c7 01       		.byte	1
 1480 05c8 80020000 		.word	640
 1481 05cc 08       		.byte	8
 1482 05cd 08       		.byte	8
ARM GAS  C:\Users\GYULAI~1\AppData\Local\Temp\ccol45rE.s 			page 27


 1483 05ce 01       		.byte	1
 1484 05cf 01       		.byte	1
 1485 05d0 C0020000 		.word	704
 1486 05d4 08       		.byte	8
 1487 05d5 08       		.byte	8
 1488 05d6 01       		.byte	1
 1489 05d7 01       		.byte	1
 1490 05d8 00030000 		.word	768
 1491 05dc 08       		.byte	8
 1492 05dd 08       		.byte	8
 1493 05de 01       		.byte	1
 1494 05df 01       		.byte	1
 1495 05e0 40030000 		.word	832
 1496 05e4 08       		.byte	8
 1497 05e5 08       		.byte	8
 1498 05e6 01       		.byte	1
 1499 05e7 01       		.byte	1
 1500 05e8 80030000 		.word	896
 1501 05ec 08       		.byte	8
 1502 05ed 08       		.byte	8
 1503 05ee 01       		.byte	1
 1504 05ef 01       		.byte	1
 1505 05f0 C0030000 		.word	960
 1506 05f4 08       		.byte	8
 1507 05f5 08       		.byte	8
 1508 05f6 01       		.byte	1
 1509 05f7 01       		.byte	1
 1510 05f8 00040000 		.word	1024
 1511 05fc 08       		.byte	8
 1512 05fd 08       		.byte	8
 1513 05fe 01       		.byte	1
 1514 05ff 01       		.byte	1
 1515 0600 40040000 		.word	1088
 1516 0604 08       		.byte	8
 1517 0605 08       		.byte	8
 1518 0606 01       		.byte	1
 1519 0607 01       		.byte	1
 1520 0608 80040000 		.word	1152
 1521 060c 08       		.byte	8
 1522 060d 08       		.byte	8
 1523 060e 01       		.byte	1
 1524 060f 01       		.byte	1
 1525 0610 C0040000 		.word	1216
 1526 0614 08       		.byte	8
 1527 0615 08       		.byte	8
 1528 0616 01       		.byte	1
 1529 0617 01       		.byte	1
 1530 0618 00050000 		.word	1280
 1531 061c 08       		.byte	8
 1532 061d 08       		.byte	8
 1533 061e 01       		.byte	1
 1534 061f 01       		.byte	1
 1535 0620 40050000 		.word	1344
 1536 0624 08       		.byte	8
 1537 0625 08       		.byte	8
 1538 0626 01       		.byte	1
 1539 0627 01       		.byte	1
ARM GAS  C:\Users\GYULAI~1\AppData\Local\Temp\ccol45rE.s 			page 28


 1540 0628 80050000 		.word	1408
 1541 062c 08       		.byte	8
 1542 062d 08       		.byte	8
 1543 062e 01       		.byte	1
 1544 062f 01       		.byte	1
 1545 0630 C0050000 		.word	1472
 1546 0634 08       		.byte	8
 1547 0635 08       		.byte	8
 1548 0636 01       		.byte	1
 1549 0637 01       		.byte	1
 1550 0638 00060000 		.word	1536
 1551 063c 08       		.byte	8
 1552 063d 08       		.byte	8
 1553 063e 01       		.byte	1
 1554 063f 01       		.byte	1
 1555 0640 40060000 		.word	1600
 1556 0644 08       		.byte	8
 1557 0645 08       		.byte	8
 1558 0646 01       		.byte	1
 1559 0647 01       		.byte	1
 1560 0648 80060000 		.word	1664
 1561 064c 08       		.byte	8
 1562 064d 08       		.byte	8
 1563 064e 01       		.byte	1
 1564 064f 01       		.byte	1
 1565 0650 C0060000 		.word	1728
 1566 0654 08       		.byte	8
 1567 0655 08       		.byte	8
 1568 0656 01       		.byte	1
 1569 0657 01       		.byte	1
 1570 0658 00070000 		.word	1792
 1571 065c 08       		.byte	8
 1572 065d 08       		.byte	8
 1573 065e 01       		.byte	1
 1574 065f 01       		.byte	1
 1575 0660 40070000 		.word	1856
 1576 0664 08       		.byte	8
 1577 0665 08       		.byte	8
 1578 0666 01       		.byte	1
 1579 0667 01       		.byte	1
 1580 0668 80070000 		.word	1920
 1581 066c 08       		.byte	8
 1582 066d 08       		.byte	8
 1583 066e 01       		.byte	1
 1584 066f 01       		.byte	1
 1585 0670 C0070000 		.word	1984
 1586 0674 08       		.byte	8
 1587 0675 08       		.byte	8
 1588 0676 01       		.byte	1
 1589 0677 01       		.byte	1
 1590 0678 00080000 		.word	2048
 1591 067c 08       		.byte	8
 1592 067d 08       		.byte	8
 1593 067e 01       		.byte	1
 1594 067f 01       		.byte	1
 1595 0680 40080000 		.word	2112
 1596 0684 08       		.byte	8
ARM GAS  C:\Users\GYULAI~1\AppData\Local\Temp\ccol45rE.s 			page 29


 1597 0685 08       		.byte	8
 1598 0686 01       		.byte	1
 1599 0687 01       		.byte	1
 1600 0688 80080000 		.word	2176
 1601 068c 08       		.byte	8
 1602 068d 08       		.byte	8
 1603 068e 01       		.byte	1
 1604 068f 01       		.byte	1
 1605 0690 C0080000 		.word	2240
 1606 0694 08       		.byte	8
 1607 0695 08       		.byte	8
 1608 0696 01       		.byte	1
 1609 0697 01       		.byte	1
 1610 0698 00090000 		.word	2304
 1611 069c 08       		.byte	8
 1612 069d 08       		.byte	8
 1613 069e 01       		.byte	1
 1614 069f 01       		.byte	1
 1615 06a0 40090000 		.word	2368
 1616 06a4 08       		.byte	8
 1617 06a5 08       		.byte	8
 1618 06a6 01       		.byte	1
 1619 06a7 01       		.byte	1
 1620 06a8 80090000 		.word	2432
 1621 06ac 08       		.byte	8
 1622 06ad 08       		.byte	8
 1623 06ae 01       		.byte	1
 1624 06af 01       		.byte	1
 1625 06b0 C0090000 		.word	2496
 1626 06b4 08       		.byte	8
 1627 06b5 08       		.byte	8
 1628 06b6 01       		.byte	1
 1629 06b7 01       		.byte	1
 1630 06b8 000A0000 		.word	2560
 1631 06bc 08       		.byte	8
 1632 06bd 08       		.byte	8
 1633 06be 01       		.byte	1
 1634 06bf 01       		.byte	1
 1635 06c0 400A0000 		.word	2624
 1636 06c4 08       		.byte	8
 1637 06c5 08       		.byte	8
 1638 06c6 01       		.byte	1
 1639 06c7 01       		.byte	1
 1640 06c8 800A0000 		.word	2688
 1641 06cc 08       		.byte	8
 1642 06cd 08       		.byte	8
 1643 06ce 01       		.byte	1
 1644 06cf 01       		.byte	1
 1645 06d0 C00A0000 		.word	2752
 1646 06d4 08       		.byte	8
 1647 06d5 08       		.byte	8
 1648 06d6 01       		.byte	1
 1649 06d7 01       		.byte	1
 1650 06d8 000B0000 		.word	2816
 1651 06dc 08       		.byte	8
 1652 06dd 08       		.byte	8
 1653 06de 01       		.byte	1
ARM GAS  C:\Users\GYULAI~1\AppData\Local\Temp\ccol45rE.s 			page 30


 1654 06df 01       		.byte	1
 1655 06e0 400B0000 		.word	2880
 1656 06e4 08       		.byte	8
 1657 06e5 08       		.byte	8
 1658 06e6 01       		.byte	1
 1659 06e7 01       		.byte	1
 1660 06e8 800B0000 		.word	2944
 1661 06ec 08       		.byte	8
 1662 06ed 08       		.byte	8
 1663 06ee 01       		.byte	1
 1664 06ef 01       		.byte	1
 1665 06f0 C00B0000 		.word	3008
 1666 06f4 08       		.byte	8
 1667 06f5 08       		.byte	8
 1668 06f6 01       		.byte	1
 1669 06f7 01       		.byte	1
 1670 06f8 000C0000 		.word	3072
 1671 06fc 08       		.byte	8
 1672 06fd 08       		.byte	8
 1673 06fe 01       		.byte	1
 1674 06ff 01       		.byte	1
 1675 0700 400C0000 		.word	3136
 1676 0704 08       		.byte	8
 1677 0705 08       		.byte	8
 1678 0706 01       		.byte	1
 1679 0707 01       		.byte	1
 1680 0708 800C0000 		.word	3200
 1681 070c 08       		.byte	8
 1682 070d 08       		.byte	8
 1683 070e 01       		.byte	1
 1684 070f 01       		.byte	1
 1685 0710 C00C0000 		.word	3264
 1686 0714 08       		.byte	8
 1687 0715 08       		.byte	8
 1688 0716 01       		.byte	1
 1689 0717 01       		.byte	1
 1690 0718 000D0000 		.word	3328
 1691 071c 08       		.byte	8
 1692 071d 08       		.byte	8
 1693 071e 01       		.byte	1
 1694 071f 01       		.byte	1
 1695 0720 400D0000 		.word	3392
 1696 0724 08       		.byte	8
 1697 0725 08       		.byte	8
 1698 0726 01       		.byte	1
 1699 0727 01       		.byte	1
 1700 0728 800D0000 		.word	3456
 1701 072c 08       		.byte	8
 1702 072d 08       		.byte	8
 1703 072e 01       		.byte	1
 1704 072f 01       		.byte	1
 1705 0730 C00D0000 		.word	3520
 1706 0734 08       		.byte	8
 1707 0735 08       		.byte	8
 1708 0736 01       		.byte	1
 1709 0737 01       		.byte	1
 1710 0738 000E0000 		.word	3584
ARM GAS  C:\Users\GYULAI~1\AppData\Local\Temp\ccol45rE.s 			page 31


 1711 073c 08       		.byte	8
 1712 073d 08       		.byte	8
 1713 073e 01       		.byte	1
 1714 073f 01       		.byte	1
 1715 0740 400E0000 		.word	3648
 1716 0744 08       		.byte	8
 1717 0745 08       		.byte	8
 1718 0746 01       		.byte	1
 1719 0747 01       		.byte	1
 1720 0748 800E0000 		.word	3712
 1721 074c 08       		.byte	8
 1722 074d 08       		.byte	8
 1723 074e 01       		.byte	1
 1724 074f 01       		.byte	1
 1725 0750 C00E0000 		.word	3776
 1726 0754 08       		.byte	8
 1727 0755 08       		.byte	8
 1728 0756 01       		.byte	1
 1729 0757 01       		.byte	1
 1730 0758 000F0000 		.word	3840
 1731 075c 08       		.byte	8
 1732 075d 08       		.byte	8
 1733 075e 01       		.byte	1
 1734 075f 01       		.byte	1
 1735 0760 400F0000 		.word	3904
 1736 0764 08       		.byte	8
 1737 0765 08       		.byte	8
 1738 0766 01       		.byte	1
 1739 0767 01       		.byte	1
 1740 0768 800F0000 		.word	3968
 1741 076c 08       		.byte	8
 1742 076d 08       		.byte	8
 1743 076e 01       		.byte	1
 1744 076f 01       		.byte	1
 1745 0770 C00F0000 		.word	4032
 1746 0774 08       		.byte	8
 1747 0775 08       		.byte	8
 1748 0776 01       		.byte	1
 1749 0777 01       		.byte	1
 1750 0778 00100000 		.word	4096
 1751 077c 08       		.byte	8
 1752 077d 08       		.byte	8
 1753 077e 01       		.byte	1
 1754 077f 01       		.byte	1
 1755 0780 40100000 		.word	4160
 1756 0784 08       		.byte	8
 1757 0785 08       		.byte	8
 1758 0786 01       		.byte	1
 1759 0787 01       		.byte	1
 1760 0788 80100000 		.word	4224
 1761 078c 08       		.byte	8
 1762 078d 08       		.byte	8
 1763 078e 01       		.byte	1
 1764 078f 01       		.byte	1
 1765 0790 C0100000 		.word	4288
 1766 0794 08       		.byte	8
 1767 0795 08       		.byte	8
ARM GAS  C:\Users\GYULAI~1\AppData\Local\Temp\ccol45rE.s 			page 32


 1768 0796 01       		.byte	1
 1769 0797 01       		.byte	1
 1770 0798 00110000 		.word	4352
 1771 079c 08       		.byte	8
 1772 079d 08       		.byte	8
 1773 079e 01       		.byte	1
 1774 079f 01       		.byte	1
 1775 07a0 40110000 		.word	4416
 1776 07a4 08       		.byte	8
 1777 07a5 08       		.byte	8
 1778 07a6 01       		.byte	1
 1779 07a7 01       		.byte	1
 1780 07a8 80110000 		.word	4480
 1781 07ac 08       		.byte	8
 1782 07ad 08       		.byte	8
 1783 07ae 01       		.byte	1
 1784 07af 01       		.byte	1
 1785 07b0 C0110000 		.word	4544
 1786 07b4 08       		.byte	8
 1787 07b5 08       		.byte	8
 1788 07b6 01       		.byte	1
 1789 07b7 01       		.byte	1
 1790 07b8 00120000 		.word	4608
 1791 07bc 08       		.byte	8
 1792 07bd 08       		.byte	8
 1793 07be 01       		.byte	1
 1794 07bf 01       		.byte	1
 1795 07c0 40120000 		.word	4672
 1796 07c4 08       		.byte	8
 1797 07c5 08       		.byte	8
 1798 07c6 01       		.byte	1
 1799 07c7 01       		.byte	1
 1800 07c8 80120000 		.word	4736
 1801 07cc 08       		.byte	8
 1802 07cd 08       		.byte	8
 1803 07ce 01       		.byte	1
 1804 07cf 01       		.byte	1
 1805 07d0 C0120000 		.word	4800
 1806 07d4 08       		.byte	8
 1807 07d5 08       		.byte	8
 1808 07d6 01       		.byte	1
 1809 07d7 01       		.byte	1
 1810 07d8 00130000 		.word	4864
 1811 07dc 08       		.byte	8
 1812 07dd 08       		.byte	8
 1813 07de 01       		.byte	1
 1814 07df 01       		.byte	1
 1815 07e0 40130000 		.word	4928
 1816 07e4 08       		.byte	8
 1817 07e5 08       		.byte	8
 1818 07e6 01       		.byte	1
 1819 07e7 01       		.byte	1
 1820 07e8 80130000 		.word	4992
 1821 07ec 08       		.byte	8
 1822 07ed 08       		.byte	8
 1823 07ee 01       		.byte	1
 1824 07ef 01       		.byte	1
ARM GAS  C:\Users\GYULAI~1\AppData\Local\Temp\ccol45rE.s 			page 33


 1825 07f0 C0130000 		.word	5056
 1826 07f4 08       		.byte	8
 1827 07f5 08       		.byte	8
 1828 07f6 01       		.byte	1
 1829 07f7 01       		.byte	1
 1830 07f8 00140000 		.word	5120
 1831 07fc 08       		.byte	8
 1832 07fd 08       		.byte	8
 1833 07fe 01       		.byte	1
 1834 07ff 01       		.byte	1
 1835 0800 40140000 		.word	5184
 1836 0804 08       		.byte	8
 1837 0805 08       		.byte	8
 1838 0806 01       		.byte	1
 1839 0807 01       		.byte	1
 1840 0808 80140000 		.word	5248
 1841 080c 08       		.byte	8
 1842 080d 08       		.byte	8
 1843 080e 01       		.byte	1
 1844 080f 01       		.byte	1
 1845 0810 C0140000 		.word	5312
 1846 0814 08       		.byte	8
 1847 0815 08       		.byte	8
 1848 0816 01       		.byte	1
 1849 0817 01       		.byte	1
 1850 0818 00150000 		.word	5376
 1851 081c 08       		.byte	8
 1852 081d 08       		.byte	8
 1853 081e 01       		.byte	1
 1854 081f 01       		.byte	1
 1855 0820 40150000 		.word	5440
 1856 0824 08       		.byte	8
 1857 0825 08       		.byte	8
 1858 0826 01       		.byte	1
 1859 0827 01       		.byte	1
 1860 0828 80150000 		.word	5504
 1861 082c 08       		.byte	8
 1862 082d 08       		.byte	8
 1863 082e 01       		.byte	1
 1864 082f 01       		.byte	1
 1865 0830 C0150000 		.word	5568
 1866 0834 08       		.byte	8
 1867 0835 08       		.byte	8
 1868 0836 01       		.byte	1
 1869 0837 01       		.byte	1
 1870 0838 00160000 		.word	5632
 1871 083c 08       		.byte	8
 1872 083d 08       		.byte	8
 1873 083e 01       		.byte	1
 1874 083f 01       		.byte	1
 1875 0840 40160000 		.word	5696
 1876 0844 08       		.byte	8
 1877 0845 08       		.byte	8
 1878 0846 01       		.byte	1
 1879 0847 01       		.byte	1
 1880 0848 80160000 		.word	5760
 1881 084c 08       		.byte	8
ARM GAS  C:\Users\GYULAI~1\AppData\Local\Temp\ccol45rE.s 			page 34


 1882 084d 08       		.byte	8
 1883 084e 01       		.byte	1
 1884 084f 01       		.byte	1
 1885 0850 C0160000 		.word	5824
 1886 0854 08       		.byte	8
 1887 0855 08       		.byte	8
 1888 0856 01       		.byte	1
 1889 0857 01       		.byte	1
 1890 0858 00170000 		.word	5888
 1891 085c 08       		.byte	8
 1892 085d 08       		.byte	8
 1893 085e 01       		.byte	1
 1894 085f 01       		.byte	1
 1895 0860 40170000 		.word	5952
 1896 0864 08       		.byte	8
 1897 0865 08       		.byte	8
 1898 0866 01       		.byte	1
 1899 0867 01       		.byte	1
 1900 0868 80170000 		.word	6016
 1901 086c 08       		.byte	8
 1902 086d 08       		.byte	8
 1903 086e 01       		.byte	1
 1904 086f 01       		.byte	1
 1905 0870 00180000 		.word	6144
 1906 0874 08       		.byte	8
 1907 0875 08       		.byte	8
 1908 0876 01       		.byte	1
 1909 0877 01       		.byte	1
 1910 0878 40180000 		.word	6208
 1911 087c 08       		.byte	8
 1912 087d 08       		.byte	8
 1913 087e 01       		.byte	1
 1914 087f 01       		.byte	1
 1915 0880 201C0000 		.word	7200
 1916 0884 14       		.byte	20
 1917 0885 14       		.byte	20
 1918 0886 01       		.byte	1
 1919 0887 01       		.byte	1
 1920 0888 C0170000 		.word	6080
 1921 088c 08       		.byte	8
 1922 088d 08       		.byte	8
 1923 088e 01       		.byte	1
 1924 088f 01       		.byte	1
 1925 0890 80180000 		.word	6272
 1926 0894 08       		.byte	8
 1927 0895 08       		.byte	8
 1928 0896 01       		.byte	1
 1929 0897 01       		.byte	1
 1930 0898 901A0000 		.word	6800
 1931 089c 14       		.byte	20
 1932 089d 14       		.byte	20
 1933 089e 01       		.byte	1
 1934 089f 01       		.byte	1
 1935 08a0 00190000 		.word	6400
 1936 08a4 14       		.byte	20
 1937 08a5 14       		.byte	20
 1938 08a6 01       		.byte	1
ARM GAS  C:\Users\GYULAI~1\AppData\Local\Temp\ccol45rE.s 			page 35


 1939 08a7 01       		.byte	1
 1940 08a8 C0180000 		.word	6336
 1941 08ac 08       		.byte	8
 1942 08ad 08       		.byte	8
 1943 08ae 01       		.byte	1
 1944 08af 01       		.byte	1
 1945 08b0 B01D0000 		.word	7600
 1946 08b4 78       		.byte	120
 1947 08b5 1E       		.byte	30
 1948 08b6 01       		.byte	1
 1949 08b7 01       		.byte	1
 1950              		.bss
 1951              		.align	2
 1952              	rhea_gfx_localFont:
 1953 0000 00000000 		.space	12
 1953      00000000 
 1953      00000000 
 1954              		.align	1
 1955              	rhea_gfx_cursorX:
 1956 000c 0000     		.space	2
 1957              		.align	1
 1958              	rhea_gfx_cursorY:
 1959 000e 0000     		.space	2
 1960              		.section	.rodata
 1961              		.align	2
 1962              	.LC1:
 1963 0000 00000000 		.word	codefont_8x8_descriptors
 1964 0004 00000000 		.word	codefont_8x8_data
 1965 0008 08       		.byte	8
 1966 0009 000000   		.space	3
 1967              		.section	.text.rhea_gfx_Initialize,"ax",%progbits
 1968              		.align	2
 1969              		.global	rhea_gfx_Initialize
 1970              		.thumb
 1971              		.thumb_func
 1972              		.type	rhea_gfx_Initialize, %function
 1973              	rhea_gfx_Initialize:
 1974              	.LFB0:
 1975              		.file 1 "rhea\\gfx\\gfx.c"
   1:rhea\gfx/gfx.c **** /*********************************************************************************
   2:rhea\gfx/gfx.c ****  * Copyright (c) 2020 Peter Gyulai
   3:rhea\gfx/gfx.c ****  *
   4:rhea\gfx/gfx.c ****  * Permission is hereby granted, free of charge, to any person obtaining a copy
   5:rhea\gfx/gfx.c ****  * of this software and associated documentation files (the "Software"), to deal
   6:rhea\gfx/gfx.c ****  * in the Software without restriction, including without limitation the rights
   7:rhea\gfx/gfx.c ****  * to use, copy, modify, merge, publish, distribute, sublicense, and/or sell
   8:rhea\gfx/gfx.c ****  * copies of the Software, and to permit persons to whom the Software is
   9:rhea\gfx/gfx.c ****  * furnished to do so, subject to the following conditions:
  10:rhea\gfx/gfx.c ****  *
  11:rhea\gfx/gfx.c ****  * The above copyright notice and this permission notice shall be included in all
  12:rhea\gfx/gfx.c ****  * copies or substantial portions of the Software.
  13:rhea\gfx/gfx.c ****  *
  14:rhea\gfx/gfx.c ****  * THE SOFTWARE IS PROVIDED "AS IS", WITHOUT WARRANTY OF ANY KIND,
  15:rhea\gfx/gfx.c ****  * EXPRESS OR IMPLIED, INCLUDING BUT NOT LIMITED TO THE WARRANTIES OF
  16:rhea\gfx/gfx.c ****  * MERCHANTABILITY, FITNESS FOR A PARTICULAR PURPOSE AND NONINFRINGEMENT.
  17:rhea\gfx/gfx.c ****  * IN NO EVENT SHALL THE AUTHORS OR COPYRIGHT HOLDERS BE LIABLE FOR ANY CLAIM,
  18:rhea\gfx/gfx.c ****  * DAMAGES OR OTHER LIABILITY, WHETHER IN AN ACTION OF CONTRACT, TORT OR
ARM GAS  C:\Users\GYULAI~1\AppData\Local\Temp\ccol45rE.s 			page 36


  19:rhea\gfx/gfx.c ****  * OTHERWISE, ARISING FROM, OUT OF OR IN CONNECTION WITH THE SOFTWARE OR THE USE
  20:rhea\gfx/gfx.c ****  * OR OTHER DEALINGS IN THE SOFTWARE.
  21:rhea\gfx/gfx.c **** **********************************************************************************/
  22:rhea\gfx/gfx.c **** 
  23:rhea\gfx/gfx.c **** /**
  24:rhea\gfx/gfx.c ****  * @file    gfx.c
  25:rhea\gfx/gfx.c ****  * @author  Peter Gyulai
  26:rhea\gfx/gfx.c ****  * @version 1.0.0
  27:rhea\gfx/gfx.c ****  * @date    2020.04.26
  28:rhea\gfx/gfx.c ****  * @brief   Library implementation.
  29:rhea\gfx/gfx.c ****  * @details
  30:rhea\gfx/gfx.c ****  * This file contains the function definitions used by the Rhea graphics library.
  31:rhea\gfx/gfx.c ****  */
  32:rhea\gfx/gfx.c **** 
  33:rhea\gfx/gfx.c **** // Doxygen documentation duplication suppression
  34:rhea\gfx/gfx.c **** #ifndef DOXYGEN_SHOULD_SKIP_THIS
  35:rhea\gfx/gfx.c **** 
  36:rhea\gfx/gfx.c **** // Standard includes
  37:rhea\gfx/gfx.c **** #include <math.h>
  38:rhea\gfx/gfx.c **** #include <stdlib.h>
  39:rhea\gfx/gfx.c **** 
  40:rhea\gfx/gfx.c **** // Project includes
  41:rhea\gfx/gfx.c **** #include "gfx.h"
  42:rhea\gfx/gfx.c **** #include "gfx_impl.h"
  43:rhea\gfx/gfx.c **** #include "fonts/codefont_8x8.h"
  44:rhea\gfx/gfx.c ****     
  45:rhea\gfx/gfx.c ****     
  46:rhea\gfx/gfx.c **** // Local font settings & data
  47:rhea\gfx/gfx.c **** static rhea_gfx_font rhea_gfx_localFont;
  48:rhea\gfx/gfx.c **** 
  49:rhea\gfx/gfx.c **** // Local cursor position
  50:rhea\gfx/gfx.c **** static rhea_gfx_coordinate rhea_gfx_cursorX = 0;
  51:rhea\gfx/gfx.c **** static rhea_gfx_coordinate rhea_gfx_cursorY = 0;
  52:rhea\gfx/gfx.c **** 
  53:rhea\gfx/gfx.c **** void rhea_gfx_Initialize(void) {
 1976              		.loc 1 53 0
 1977              		.cfi_startproc
 1978              		@ args = 0, pretend = 0, frame = 0
 1979              		@ frame_needed = 1, uses_anonymous_args = 0
 1980 0000 80B5     		push	{r7, lr}
 1981              		.cfi_def_cfa_offset 8
 1982              		.cfi_offset 7, -8
 1983              		.cfi_offset 14, -4
 1984 0002 00AF     		add	r7, sp, #0
 1985              		.cfi_def_cfa_register 7
  54:rhea\gfx/gfx.c **** 
  55:rhea\gfx/gfx.c **** 	// Invoking driver implementation
  56:rhea\gfx/gfx.c **** 	rhea_gfx_initialize_impl();
 1986              		.loc 1 56 0
 1987 0004 FFF7FEFF 		bl	rhea_gfx_initialize_impl
  57:rhea\gfx/gfx.c **** 
  58:rhea\gfx/gfx.c **** 	// Initializing default fonts
  59:rhea\gfx/gfx.c **** 	rhea_gfx_localFont = (rhea_gfx_font) {
 1988              		.loc 1 59 0
 1989 0008 064B     		ldr	r3, .L2
 1990 000a 074A     		ldr	r2, .L2+4
 1991 000c 07CA     		ldmia	r2, {r0, r1, r2}
ARM GAS  C:\Users\GYULAI~1\AppData\Local\Temp\ccol45rE.s 			page 37


 1992 000e 83E80700 		stmia	r3, {r0, r1, r2}
  60:rhea\gfx/gfx.c **** 		.fontDescriptors = codefont_8x8_descriptors,
  61:rhea\gfx/gfx.c **** 		.fontData        = codefont_8x8_data,
  62:rhea\gfx/gfx.c **** 		.fontHeight      = 8
  63:rhea\gfx/gfx.c **** 	};
  64:rhea\gfx/gfx.c **** 
  65:rhea\gfx/gfx.c **** 	// Initializing text cursor
  66:rhea\gfx/gfx.c **** 	rhea_gfx_cursorX = 0;
 1993              		.loc 1 66 0
 1994 0012 064B     		ldr	r3, .L2+8
 1995 0014 0022     		movs	r2, #0
 1996 0016 1A80     		strh	r2, [r3]	@ movhi
  67:rhea\gfx/gfx.c **** 	rhea_gfx_cursorY = 0;
 1997              		.loc 1 67 0
 1998 0018 054B     		ldr	r3, .L2+12
 1999 001a 0022     		movs	r2, #0
 2000 001c 1A80     		strh	r2, [r3]	@ movhi
  68:rhea\gfx/gfx.c **** }
 2001              		.loc 1 68 0
 2002 001e 00BF     		nop
 2003 0020 80BD     		pop	{r7, pc}
 2004              	.L3:
 2005 0022 00BF     		.align	2
 2006              	.L2:
 2007 0024 00000000 		.word	rhea_gfx_localFont
 2008 0028 00000000 		.word	.LC1
 2009 002c 0C000000 		.word	rhea_gfx_cursorX
 2010 0030 0E000000 		.word	rhea_gfx_cursorY
 2011              		.cfi_endproc
 2012              	.LFE0:
 2013              		.size	rhea_gfx_Initialize, .-rhea_gfx_Initialize
 2014              		.section	.text.rhea_gfx_Reset,"ax",%progbits
 2015              		.align	2
 2016              		.global	rhea_gfx_Reset
 2017              		.thumb
 2018              		.thumb_func
 2019              		.type	rhea_gfx_Reset, %function
 2020              	rhea_gfx_Reset:
 2021              	.LFB1:
  69:rhea\gfx/gfx.c **** 
  70:rhea\gfx/gfx.c **** void rhea_gfx_Reset(void) {
 2022              		.loc 1 70 0
 2023              		.cfi_startproc
 2024              		@ args = 0, pretend = 0, frame = 0
 2025              		@ frame_needed = 1, uses_anonymous_args = 0
 2026 0000 80B5     		push	{r7, lr}
 2027              		.cfi_def_cfa_offset 8
 2028              		.cfi_offset 7, -8
 2029              		.cfi_offset 14, -4
 2030 0002 00AF     		add	r7, sp, #0
 2031              		.cfi_def_cfa_register 7
  71:rhea\gfx/gfx.c **** 
  72:rhea\gfx/gfx.c **** 	// Invoking driver implementation
  73:rhea\gfx/gfx.c **** 	rhea_gfx_reset_impl();
 2032              		.loc 1 73 0
 2033 0004 FFF7FEFF 		bl	rhea_gfx_reset_impl
  74:rhea\gfx/gfx.c **** }
ARM GAS  C:\Users\GYULAI~1\AppData\Local\Temp\ccol45rE.s 			page 38


 2034              		.loc 1 74 0
 2035 0008 00BF     		nop
 2036 000a 80BD     		pop	{r7, pc}
 2037              		.cfi_endproc
 2038              	.LFE1:
 2039              		.size	rhea_gfx_Reset, .-rhea_gfx_Reset
 2040              		.section	.text.rhea_gfx_Clear,"ax",%progbits
 2041              		.align	2
 2042              		.global	rhea_gfx_Clear
 2043              		.thumb
 2044              		.thumb_func
 2045              		.type	rhea_gfx_Clear, %function
 2046              	rhea_gfx_Clear:
 2047              	.LFB2:
  75:rhea\gfx/gfx.c **** 
  76:rhea\gfx/gfx.c **** void rhea_gfx_Clear(void) {
 2048              		.loc 1 76 0
 2049              		.cfi_startproc
 2050              		@ args = 0, pretend = 0, frame = 0
 2051              		@ frame_needed = 1, uses_anonymous_args = 0
 2052 0000 80B5     		push	{r7, lr}
 2053              		.cfi_def_cfa_offset 8
 2054              		.cfi_offset 7, -8
 2055              		.cfi_offset 14, -4
 2056 0002 00AF     		add	r7, sp, #0
 2057              		.cfi_def_cfa_register 7
  77:rhea\gfx/gfx.c **** 
  78:rhea\gfx/gfx.c **** 	// Invoking driver implementation
  79:rhea\gfx/gfx.c **** 	rhea_gfx_clear_impl();
 2058              		.loc 1 79 0
 2059 0004 FFF7FEFF 		bl	rhea_gfx_clear_impl
  80:rhea\gfx/gfx.c **** }
 2060              		.loc 1 80 0
 2061 0008 00BF     		nop
 2062 000a 80BD     		pop	{r7, pc}
 2063              		.cfi_endproc
 2064              	.LFE2:
 2065              		.size	rhea_gfx_Clear, .-rhea_gfx_Clear
 2066              		.section	.text.rhea_gfx_Refresh,"ax",%progbits
 2067              		.align	2
 2068              		.global	rhea_gfx_Refresh
 2069              		.thumb
 2070              		.thumb_func
 2071              		.type	rhea_gfx_Refresh, %function
 2072              	rhea_gfx_Refresh:
 2073              	.LFB3:
  81:rhea\gfx/gfx.c **** 
  82:rhea\gfx/gfx.c **** void rhea_gfx_Refresh(void) {
 2074              		.loc 1 82 0
 2075              		.cfi_startproc
 2076              		@ args = 0, pretend = 0, frame = 0
 2077              		@ frame_needed = 1, uses_anonymous_args = 0
 2078 0000 80B5     		push	{r7, lr}
 2079              		.cfi_def_cfa_offset 8
 2080              		.cfi_offset 7, -8
 2081              		.cfi_offset 14, -4
 2082 0002 00AF     		add	r7, sp, #0
ARM GAS  C:\Users\GYULAI~1\AppData\Local\Temp\ccol45rE.s 			page 39


 2083              		.cfi_def_cfa_register 7
  83:rhea\gfx/gfx.c **** 
  84:rhea\gfx/gfx.c **** 	// Invoking driver implementation
  85:rhea\gfx/gfx.c **** 	rhea_gfx_refresh_impl();
 2084              		.loc 1 85 0
 2085 0004 FFF7FEFF 		bl	rhea_gfx_refresh_impl
  86:rhea\gfx/gfx.c **** }
 2086              		.loc 1 86 0
 2087 0008 00BF     		nop
 2088 000a 80BD     		pop	{r7, pc}
 2089              		.cfi_endproc
 2090              	.LFE3:
 2091              		.size	rhea_gfx_Refresh, .-rhea_gfx_Refresh
 2092              		.section	.text.rhea_gfx_SetFont,"ax",%progbits
 2093              		.align	2
 2094              		.global	rhea_gfx_SetFont
 2095              		.thumb
 2096              		.thumb_func
 2097              		.type	rhea_gfx_SetFont, %function
 2098              	rhea_gfx_SetFont:
 2099              	.LFB4:
  87:rhea\gfx/gfx.c **** 
  88:rhea\gfx/gfx.c **** void rhea_gfx_SetFont(rhea_gfx_font font) {
 2100              		.loc 1 88 0
 2101              		.cfi_startproc
 2102              		@ args = 0, pretend = 0, frame = 16
 2103              		@ frame_needed = 1, uses_anonymous_args = 0
 2104              		@ link register save eliminated.
 2105 0000 90B4     		push	{r4, r7}
 2106              		.cfi_def_cfa_offset 8
 2107              		.cfi_offset 4, -8
 2108              		.cfi_offset 7, -4
 2109 0002 84B0     		sub	sp, sp, #16
 2110              		.cfi_def_cfa_offset 24
 2111 0004 00AF     		add	r7, sp, #0
 2112              		.cfi_def_cfa_register 7
 2113 0006 3B1D     		adds	r3, r7, #4
 2114 0008 83E80700 		stmia	r3, {r0, r1, r2}
  89:rhea\gfx/gfx.c **** 
  90:rhea\gfx/gfx.c **** 	// Setting local font instance
  91:rhea\gfx/gfx.c **** 	rhea_gfx_localFont = font;
 2115              		.loc 1 91 0
 2116 000c 054B     		ldr	r3, .L8
 2117 000e 1C46     		mov	r4, r3
 2118 0010 3B1D     		adds	r3, r7, #4
 2119 0012 93E80700 		ldmia	r3, {r0, r1, r2}
 2120 0016 84E80700 		stmia	r4, {r0, r1, r2}
  92:rhea\gfx/gfx.c **** }
 2121              		.loc 1 92 0
 2122 001a 00BF     		nop
 2123 001c 1037     		adds	r7, r7, #16
 2124              		.cfi_def_cfa_offset 8
 2125 001e BD46     		mov	sp, r7
 2126              		.cfi_def_cfa_register 13
 2127              		@ sp needed
 2128 0020 90BC     		pop	{r4, r7}
 2129              		.cfi_restore 7
ARM GAS  C:\Users\GYULAI~1\AppData\Local\Temp\ccol45rE.s 			page 40


 2130              		.cfi_restore 4
 2131              		.cfi_def_cfa_offset 0
 2132 0022 7047     		bx	lr
 2133              	.L9:
 2134              		.align	2
 2135              	.L8:
 2136 0024 00000000 		.word	rhea_gfx_localFont
 2137              		.cfi_endproc
 2138              	.LFE4:
 2139              		.size	rhea_gfx_SetFont, .-rhea_gfx_SetFont
 2140              		.section	.text.rhea_gfx_DrawPixel,"ax",%progbits
 2141              		.align	2
 2142              		.global	rhea_gfx_DrawPixel
 2143              		.thumb
 2144              		.thumb_func
 2145              		.type	rhea_gfx_DrawPixel, %function
 2146              	rhea_gfx_DrawPixel:
 2147              	.LFB5:
  93:rhea\gfx/gfx.c **** 
  94:rhea\gfx/gfx.c **** void rhea_gfx_DrawPixel(rhea_gfx_coordinate x, rhea_gfx_coordinate y, rhea_gfx_color color) {
 2148              		.loc 1 94 0
 2149              		.cfi_startproc
 2150              		@ args = 0, pretend = 0, frame = 8
 2151              		@ frame_needed = 1, uses_anonymous_args = 0
 2152 0000 80B5     		push	{r7, lr}
 2153              		.cfi_def_cfa_offset 8
 2154              		.cfi_offset 7, -8
 2155              		.cfi_offset 14, -4
 2156 0002 82B0     		sub	sp, sp, #8
 2157              		.cfi_def_cfa_offset 16
 2158 0004 00AF     		add	r7, sp, #0
 2159              		.cfi_def_cfa_register 7
 2160 0006 0346     		mov	r3, r0
 2161 0008 FB80     		strh	r3, [r7, #6]	@ movhi
 2162 000a 0B46     		mov	r3, r1	@ movhi
 2163 000c BB80     		strh	r3, [r7, #4]	@ movhi
 2164 000e 1346     		mov	r3, r2
 2165 0010 FB70     		strb	r3, [r7, #3]
  95:rhea\gfx/gfx.c **** 
  96:rhea\gfx/gfx.c **** 	// Drawing pixel
  97:rhea\gfx/gfx.c **** 	rhea_gfx_writePixel_impl(x, y, color);
 2166              		.loc 1 97 0
 2167 0012 FA78     		ldrb	r2, [r7, #3]	@ zero_extendqisi2
 2168 0014 B988     		ldrh	r1, [r7, #4]
 2169 0016 FB88     		ldrh	r3, [r7, #6]
 2170 0018 1846     		mov	r0, r3
 2171 001a FFF7FEFF 		bl	rhea_gfx_writePixel_impl
  98:rhea\gfx/gfx.c **** 
  99:rhea\gfx/gfx.c **** 	// Refreshing display
 100:rhea\gfx/gfx.c **** 	rhea_gfx_Refresh();
 2172              		.loc 1 100 0
 2173 001e FFF7FEFF 		bl	rhea_gfx_Refresh
 101:rhea\gfx/gfx.c **** }
 2174              		.loc 1 101 0
 2175 0022 00BF     		nop
 2176 0024 0837     		adds	r7, r7, #8
 2177              		.cfi_def_cfa_offset 8
ARM GAS  C:\Users\GYULAI~1\AppData\Local\Temp\ccol45rE.s 			page 41


 2178 0026 BD46     		mov	sp, r7
 2179              		.cfi_def_cfa_register 13
 2180              		@ sp needed
 2181 0028 80BD     		pop	{r7, pc}
 2182              		.cfi_endproc
 2183              	.LFE5:
 2184              		.size	rhea_gfx_DrawPixel, .-rhea_gfx_DrawPixel
 2185 002a 00BF     		.section	.text.rhea_gfx_DrawLineLow,"ax",%progbits
 2186              		.align	2
 2187              		.global	rhea_gfx_DrawLineLow
 2188              		.thumb
 2189              		.thumb_func
 2190              		.type	rhea_gfx_DrawLineLow, %function
 2191              	rhea_gfx_DrawLineLow:
 2192              	.LFB6:
 102:rhea\gfx/gfx.c **** 
 103:rhea\gfx/gfx.c **** void rhea_gfx_DrawLineLow(rhea_gfx_coordinate x0, rhea_gfx_coordinate y0, rhea_gfx_coordinate x1, r
 2193              		.loc 1 103 0
 2194              		.cfi_startproc
 2195              		@ args = 4, pretend = 0, frame = 24
 2196              		@ frame_needed = 1, uses_anonymous_args = 0
 2197 0000 90B5     		push	{r4, r7, lr}
 2198              		.cfi_def_cfa_offset 12
 2199              		.cfi_offset 4, -12
 2200              		.cfi_offset 7, -8
 2201              		.cfi_offset 14, -4
 2202 0002 87B0     		sub	sp, sp, #28
 2203              		.cfi_def_cfa_offset 40
 2204 0004 00AF     		add	r7, sp, #0
 2205              		.cfi_def_cfa_register 7
 2206 0006 0446     		mov	r4, r0
 2207 0008 0846     		mov	r0, r1
 2208 000a 1146     		mov	r1, r2
 2209 000c 1A46     		mov	r2, r3
 2210 000e 2346     		mov	r3, r4	@ movhi
 2211 0010 FB80     		strh	r3, [r7, #6]	@ movhi
 2212 0012 0346     		mov	r3, r0	@ movhi
 2213 0014 BB80     		strh	r3, [r7, #4]	@ movhi
 2214 0016 0B46     		mov	r3, r1	@ movhi
 2215 0018 7B80     		strh	r3, [r7, #2]	@ movhi
 2216 001a 1346     		mov	r3, r2	@ movhi
 2217 001c 3B80     		strh	r3, [r7]	@ movhi
 104:rhea\gfx/gfx.c **** 
 105:rhea\gfx/gfx.c **** 	// Bresenham's Line Drawing Algorithm for negative slopes
 106:rhea\gfx/gfx.c **** 	int16_t dx = x1 - x0;
 2218              		.loc 1 106 0
 2219 001e 7A88     		ldrh	r2, [r7, #2]	@ movhi
 2220 0020 FB88     		ldrh	r3, [r7, #6]	@ movhi
 2221 0022 D31A     		subs	r3, r2, r3
 2222 0024 9BB2     		uxth	r3, r3
 2223 0026 BB81     		strh	r3, [r7, #12]	@ movhi
 107:rhea\gfx/gfx.c **** 	int16_t dy = y1 - y0;
 2224              		.loc 1 107 0
 2225 0028 3A88     		ldrh	r2, [r7]	@ movhi
 2226 002a BB88     		ldrh	r3, [r7, #4]	@ movhi
 2227 002c D31A     		subs	r3, r2, r3
 2228 002e 9BB2     		uxth	r3, r3
ARM GAS  C:\Users\GYULAI~1\AppData\Local\Temp\ccol45rE.s 			page 42


 2229 0030 FB82     		strh	r3, [r7, #22]	@ movhi
 108:rhea\gfx/gfx.c **** 	int16_t yi = 1;
 2230              		.loc 1 108 0
 2231 0032 0123     		movs	r3, #1
 2232 0034 BB82     		strh	r3, [r7, #20]	@ movhi
 109:rhea\gfx/gfx.c **** 
 110:rhea\gfx/gfx.c **** 	if (dy < 0) {
 2233              		.loc 1 110 0
 2234 0036 B7F91630 		ldrsh	r3, [r7, #22]
 2235 003a 002B     		cmp	r3, #0
 2236 003c 06DA     		bge	.L12
 111:rhea\gfx/gfx.c **** 		yi = -1;
 2237              		.loc 1 111 0
 2238 003e 4FF6FF73 		movw	r3, #65535
 2239 0042 BB82     		strh	r3, [r7, #20]	@ movhi
 112:rhea\gfx/gfx.c **** 		dy = -dy;
 2240              		.loc 1 112 0
 2241 0044 FB8A     		ldrh	r3, [r7, #22]
 2242 0046 5B42     		negs	r3, r3
 2243 0048 9BB2     		uxth	r3, r3
 2244 004a FB82     		strh	r3, [r7, #22]	@ movhi
 2245              	.L12:
 113:rhea\gfx/gfx.c **** 	}
 114:rhea\gfx/gfx.c **** 
 115:rhea\gfx/gfx.c **** 	int16_t D = 2 * dy - dx;
 2246              		.loc 1 115 0
 2247 004c FB8A     		ldrh	r3, [r7, #22]
 2248 004e 5B00     		lsls	r3, r3, #1
 2249 0050 9AB2     		uxth	r2, r3
 2250 0052 BB89     		ldrh	r3, [r7, #12]
 2251 0054 D31A     		subs	r3, r2, r3
 2252 0056 9BB2     		uxth	r3, r3
 2253 0058 7B82     		strh	r3, [r7, #18]	@ movhi
 116:rhea\gfx/gfx.c **** 	int16_t y = y0;
 2254              		.loc 1 116 0
 2255 005a BB88     		ldrh	r3, [r7, #4]	@ movhi
 2256 005c 3B82     		strh	r3, [r7, #16]	@ movhi
 2257              	.LBB2:
 117:rhea\gfx/gfx.c **** 
 118:rhea\gfx/gfx.c **** 	for (int16_t x = x0; x < x1; x++) {
 2258              		.loc 1 118 0
 2259 005e FB88     		ldrh	r3, [r7, #6]	@ movhi
 2260 0060 FB81     		strh	r3, [r7, #14]	@ movhi
 2261 0062 23E0     		b	.L13
 2262              	.L15:
 119:rhea\gfx/gfx.c **** 		rhea_gfx_writePixel_impl(x, y, color);
 2263              		.loc 1 119 0
 2264 0064 FB89     		ldrh	r3, [r7, #14]
 2265 0066 398A     		ldrh	r1, [r7, #16]
 2266 0068 97F82820 		ldrb	r2, [r7, #40]	@ zero_extendqisi2
 2267 006c 1846     		mov	r0, r3
 2268 006e FFF7FEFF 		bl	rhea_gfx_writePixel_impl
 120:rhea\gfx/gfx.c **** 		if (D > 0) {
 2269              		.loc 1 120 0
 2270 0072 B7F91230 		ldrsh	r3, [r7, #18]
 2271 0076 002B     		cmp	r3, #0
 2272 0078 0BDD     		ble	.L14
ARM GAS  C:\Users\GYULAI~1\AppData\Local\Temp\ccol45rE.s 			page 43


 121:rhea\gfx/gfx.c **** 			y = y + yi;
 2273              		.loc 1 121 0
 2274 007a 3A8A     		ldrh	r2, [r7, #16]
 2275 007c BB8A     		ldrh	r3, [r7, #20]
 2276 007e 1344     		add	r3, r3, r2
 2277 0080 9BB2     		uxth	r3, r3
 2278 0082 3B82     		strh	r3, [r7, #16]	@ movhi
 122:rhea\gfx/gfx.c **** 			D = D - 2 * dx;
 2279              		.loc 1 122 0
 2280 0084 7A8A     		ldrh	r2, [r7, #18]
 2281 0086 BB89     		ldrh	r3, [r7, #12]
 2282 0088 5B00     		lsls	r3, r3, #1
 2283 008a 9BB2     		uxth	r3, r3
 2284 008c D31A     		subs	r3, r2, r3
 2285 008e 9BB2     		uxth	r3, r3
 2286 0090 7B82     		strh	r3, [r7, #18]	@ movhi
 2287              	.L14:
 123:rhea\gfx/gfx.c **** 		}
 124:rhea\gfx/gfx.c **** 
 125:rhea\gfx/gfx.c **** 		D = D + 2 * dy;
 2288              		.loc 1 125 0 discriminator 2
 2289 0092 FB8A     		ldrh	r3, [r7, #22]
 2290 0094 5B00     		lsls	r3, r3, #1
 2291 0096 9AB2     		uxth	r2, r3
 2292 0098 7B8A     		ldrh	r3, [r7, #18]
 2293 009a 1344     		add	r3, r3, r2
 2294 009c 9BB2     		uxth	r3, r3
 2295 009e 7B82     		strh	r3, [r7, #18]	@ movhi
 118:rhea\gfx/gfx.c **** 		rhea_gfx_writePixel_impl(x, y, color);
 2296              		.loc 1 118 0 discriminator 2
 2297 00a0 B7F90E30 		ldrsh	r3, [r7, #14]
 2298 00a4 9BB2     		uxth	r3, r3
 2299 00a6 0133     		adds	r3, r3, #1
 2300 00a8 9BB2     		uxth	r3, r3
 2301 00aa FB81     		strh	r3, [r7, #14]	@ movhi
 2302              	.L13:
 118:rhea\gfx/gfx.c **** 		rhea_gfx_writePixel_impl(x, y, color);
 2303              		.loc 1 118 0 is_stmt 0 discriminator 1
 2304 00ac B7F90E20 		ldrsh	r2, [r7, #14]
 2305 00b0 7B88     		ldrh	r3, [r7, #2]
 2306 00b2 9A42     		cmp	r2, r3
 2307 00b4 D6DB     		blt	.L15
 2308              	.LBE2:
 126:rhea\gfx/gfx.c **** 	}
 127:rhea\gfx/gfx.c **** }
 2309              		.loc 1 127 0 is_stmt 1
 2310 00b6 00BF     		nop
 2311 00b8 1C37     		adds	r7, r7, #28
 2312              		.cfi_def_cfa_offset 12
 2313 00ba BD46     		mov	sp, r7
 2314              		.cfi_def_cfa_register 13
 2315              		@ sp needed
 2316 00bc 90BD     		pop	{r4, r7, pc}
 2317              		.cfi_endproc
 2318              	.LFE6:
 2319              		.size	rhea_gfx_DrawLineLow, .-rhea_gfx_DrawLineLow
 2320 00be 00BF     		.section	.text.rhea_gfx_DrawLineHigh,"ax",%progbits
ARM GAS  C:\Users\GYULAI~1\AppData\Local\Temp\ccol45rE.s 			page 44


 2321              		.align	2
 2322              		.global	rhea_gfx_DrawLineHigh
 2323              		.thumb
 2324              		.thumb_func
 2325              		.type	rhea_gfx_DrawLineHigh, %function
 2326              	rhea_gfx_DrawLineHigh:
 2327              	.LFB7:
 128:rhea\gfx/gfx.c **** 
 129:rhea\gfx/gfx.c **** void rhea_gfx_DrawLineHigh(rhea_gfx_coordinate x0, rhea_gfx_coordinate y0, rhea_gfx_coordinate x1, 
 2328              		.loc 1 129 0
 2329              		.cfi_startproc
 2330              		@ args = 4, pretend = 0, frame = 24
 2331              		@ frame_needed = 1, uses_anonymous_args = 0
 2332 0000 90B5     		push	{r4, r7, lr}
 2333              		.cfi_def_cfa_offset 12
 2334              		.cfi_offset 4, -12
 2335              		.cfi_offset 7, -8
 2336              		.cfi_offset 14, -4
 2337 0002 87B0     		sub	sp, sp, #28
 2338              		.cfi_def_cfa_offset 40
 2339 0004 00AF     		add	r7, sp, #0
 2340              		.cfi_def_cfa_register 7
 2341 0006 0446     		mov	r4, r0
 2342 0008 0846     		mov	r0, r1
 2343 000a 1146     		mov	r1, r2
 2344 000c 1A46     		mov	r2, r3
 2345 000e 2346     		mov	r3, r4	@ movhi
 2346 0010 FB80     		strh	r3, [r7, #6]	@ movhi
 2347 0012 0346     		mov	r3, r0	@ movhi
 2348 0014 BB80     		strh	r3, [r7, #4]	@ movhi
 2349 0016 0B46     		mov	r3, r1	@ movhi
 2350 0018 7B80     		strh	r3, [r7, #2]	@ movhi
 2351 001a 1346     		mov	r3, r2	@ movhi
 2352 001c 3B80     		strh	r3, [r7]	@ movhi
 130:rhea\gfx/gfx.c **** 
 131:rhea\gfx/gfx.c **** 	// Bresenham's Line Drawing Algorithm for positive slopes
 132:rhea\gfx/gfx.c **** 	int16_t dx = x1 - x0;
 2353              		.loc 1 132 0
 2354 001e 7A88     		ldrh	r2, [r7, #2]	@ movhi
 2355 0020 FB88     		ldrh	r3, [r7, #6]	@ movhi
 2356 0022 D31A     		subs	r3, r2, r3
 2357 0024 9BB2     		uxth	r3, r3
 2358 0026 FB82     		strh	r3, [r7, #22]	@ movhi
 133:rhea\gfx/gfx.c **** 	int16_t dy = y1 - y0;
 2359              		.loc 1 133 0
 2360 0028 3A88     		ldrh	r2, [r7]	@ movhi
 2361 002a BB88     		ldrh	r3, [r7, #4]	@ movhi
 2362 002c D31A     		subs	r3, r2, r3
 2363 002e 9BB2     		uxth	r3, r3
 2364 0030 BB81     		strh	r3, [r7, #12]	@ movhi
 134:rhea\gfx/gfx.c **** 	int16_t xi = 1;
 2365              		.loc 1 134 0
 2366 0032 0123     		movs	r3, #1
 2367 0034 BB82     		strh	r3, [r7, #20]	@ movhi
 135:rhea\gfx/gfx.c **** 
 136:rhea\gfx/gfx.c **** 	if (dx < 0) {
 2368              		.loc 1 136 0
ARM GAS  C:\Users\GYULAI~1\AppData\Local\Temp\ccol45rE.s 			page 45


 2369 0036 B7F91630 		ldrsh	r3, [r7, #22]
 2370 003a 002B     		cmp	r3, #0
 2371 003c 06DA     		bge	.L17
 137:rhea\gfx/gfx.c **** 		xi = -1;
 2372              		.loc 1 137 0
 2373 003e 4FF6FF73 		movw	r3, #65535
 2374 0042 BB82     		strh	r3, [r7, #20]	@ movhi
 138:rhea\gfx/gfx.c **** 		dx = -dx;
 2375              		.loc 1 138 0
 2376 0044 FB8A     		ldrh	r3, [r7, #22]
 2377 0046 5B42     		negs	r3, r3
 2378 0048 9BB2     		uxth	r3, r3
 2379 004a FB82     		strh	r3, [r7, #22]	@ movhi
 2380              	.L17:
 139:rhea\gfx/gfx.c **** 	}
 140:rhea\gfx/gfx.c **** 
 141:rhea\gfx/gfx.c **** 	int16_t D = 2 * dx - dy;
 2381              		.loc 1 141 0
 2382 004c FB8A     		ldrh	r3, [r7, #22]
 2383 004e 5B00     		lsls	r3, r3, #1
 2384 0050 9AB2     		uxth	r2, r3
 2385 0052 BB89     		ldrh	r3, [r7, #12]
 2386 0054 D31A     		subs	r3, r2, r3
 2387 0056 9BB2     		uxth	r3, r3
 2388 0058 7B82     		strh	r3, [r7, #18]	@ movhi
 142:rhea\gfx/gfx.c **** 	int16_t x = x0;
 2389              		.loc 1 142 0
 2390 005a FB88     		ldrh	r3, [r7, #6]	@ movhi
 2391 005c 3B82     		strh	r3, [r7, #16]	@ movhi
 2392              	.LBB3:
 143:rhea\gfx/gfx.c **** 
 144:rhea\gfx/gfx.c **** 	for (int16_t y = y0; y < y1; y++) {
 2393              		.loc 1 144 0
 2394 005e BB88     		ldrh	r3, [r7, #4]	@ movhi
 2395 0060 FB81     		strh	r3, [r7, #14]	@ movhi
 2396 0062 23E0     		b	.L18
 2397              	.L20:
 145:rhea\gfx/gfx.c **** 		rhea_gfx_writePixel_impl(x, y, color);
 2398              		.loc 1 145 0
 2399 0064 3B8A     		ldrh	r3, [r7, #16]
 2400 0066 F989     		ldrh	r1, [r7, #14]
 2401 0068 97F82820 		ldrb	r2, [r7, #40]	@ zero_extendqisi2
 2402 006c 1846     		mov	r0, r3
 2403 006e FFF7FEFF 		bl	rhea_gfx_writePixel_impl
 146:rhea\gfx/gfx.c **** 		if (D > 0) {
 2404              		.loc 1 146 0
 2405 0072 B7F91230 		ldrsh	r3, [r7, #18]
 2406 0076 002B     		cmp	r3, #0
 2407 0078 0BDD     		ble	.L19
 147:rhea\gfx/gfx.c **** 			x = x + xi;
 2408              		.loc 1 147 0
 2409 007a 3A8A     		ldrh	r2, [r7, #16]
 2410 007c BB8A     		ldrh	r3, [r7, #20]
 2411 007e 1344     		add	r3, r3, r2
 2412 0080 9BB2     		uxth	r3, r3
 2413 0082 3B82     		strh	r3, [r7, #16]	@ movhi
 148:rhea\gfx/gfx.c **** 			D = D - 2 * dy;
ARM GAS  C:\Users\GYULAI~1\AppData\Local\Temp\ccol45rE.s 			page 46


 2414              		.loc 1 148 0
 2415 0084 7A8A     		ldrh	r2, [r7, #18]
 2416 0086 BB89     		ldrh	r3, [r7, #12]
 2417 0088 5B00     		lsls	r3, r3, #1
 2418 008a 9BB2     		uxth	r3, r3
 2419 008c D31A     		subs	r3, r2, r3
 2420 008e 9BB2     		uxth	r3, r3
 2421 0090 7B82     		strh	r3, [r7, #18]	@ movhi
 2422              	.L19:
 149:rhea\gfx/gfx.c **** 		}
 150:rhea\gfx/gfx.c **** 
 151:rhea\gfx/gfx.c **** 		D = D + 2 * dx;
 2423              		.loc 1 151 0 discriminator 2
 2424 0092 FB8A     		ldrh	r3, [r7, #22]
 2425 0094 5B00     		lsls	r3, r3, #1
 2426 0096 9AB2     		uxth	r2, r3
 2427 0098 7B8A     		ldrh	r3, [r7, #18]
 2428 009a 1344     		add	r3, r3, r2
 2429 009c 9BB2     		uxth	r3, r3
 2430 009e 7B82     		strh	r3, [r7, #18]	@ movhi
 144:rhea\gfx/gfx.c **** 		rhea_gfx_writePixel_impl(x, y, color);
 2431              		.loc 1 144 0 discriminator 2
 2432 00a0 B7F90E30 		ldrsh	r3, [r7, #14]
 2433 00a4 9BB2     		uxth	r3, r3
 2434 00a6 0133     		adds	r3, r3, #1
 2435 00a8 9BB2     		uxth	r3, r3
 2436 00aa FB81     		strh	r3, [r7, #14]	@ movhi
 2437              	.L18:
 144:rhea\gfx/gfx.c **** 		rhea_gfx_writePixel_impl(x, y, color);
 2438              		.loc 1 144 0 is_stmt 0 discriminator 1
 2439 00ac B7F90E20 		ldrsh	r2, [r7, #14]
 2440 00b0 3B88     		ldrh	r3, [r7]
 2441 00b2 9A42     		cmp	r2, r3
 2442 00b4 D6DB     		blt	.L20
 2443              	.LBE3:
 152:rhea\gfx/gfx.c **** 	}
 153:rhea\gfx/gfx.c **** }
 2444              		.loc 1 153 0 is_stmt 1
 2445 00b6 00BF     		nop
 2446 00b8 1C37     		adds	r7, r7, #28
 2447              		.cfi_def_cfa_offset 12
 2448 00ba BD46     		mov	sp, r7
 2449              		.cfi_def_cfa_register 13
 2450              		@ sp needed
 2451 00bc 90BD     		pop	{r4, r7, pc}
 2452              		.cfi_endproc
 2453              	.LFE7:
 2454              		.size	rhea_gfx_DrawLineHigh, .-rhea_gfx_DrawLineHigh
 2455 00be 00BF     		.section	.text.rhea_gfx_DrawLine,"ax",%progbits
 2456              		.align	2
 2457              		.global	rhea_gfx_DrawLine
 2458              		.thumb
 2459              		.thumb_func
 2460              		.type	rhea_gfx_DrawLine, %function
 2461              	rhea_gfx_DrawLine:
 2462              	.LFB8:
 154:rhea\gfx/gfx.c **** 
ARM GAS  C:\Users\GYULAI~1\AppData\Local\Temp\ccol45rE.s 			page 47


 155:rhea\gfx/gfx.c **** void rhea_gfx_DrawLine(rhea_gfx_coordinate x0, rhea_gfx_coordinate y0, rhea_gfx_coordinate x1, rhea
 2463              		.loc 1 155 0
 2464              		.cfi_startproc
 2465              		@ args = 4, pretend = 0, frame = 8
 2466              		@ frame_needed = 1, uses_anonymous_args = 0
 2467 0000 90B5     		push	{r4, r7, lr}
 2468              		.cfi_def_cfa_offset 12
 2469              		.cfi_offset 4, -12
 2470              		.cfi_offset 7, -8
 2471              		.cfi_offset 14, -4
 2472 0002 85B0     		sub	sp, sp, #20
 2473              		.cfi_def_cfa_offset 32
 2474 0004 02AF     		add	r7, sp, #8
 2475              		.cfi_def_cfa 7, 24
 2476 0006 0446     		mov	r4, r0
 2477 0008 0846     		mov	r0, r1
 2478 000a 1146     		mov	r1, r2
 2479 000c 1A46     		mov	r2, r3
 2480 000e 2346     		mov	r3, r4	@ movhi
 2481 0010 FB80     		strh	r3, [r7, #6]	@ movhi
 2482 0012 0346     		mov	r3, r0	@ movhi
 2483 0014 BB80     		strh	r3, [r7, #4]	@ movhi
 2484 0016 0B46     		mov	r3, r1	@ movhi
 2485 0018 7B80     		strh	r3, [r7, #2]	@ movhi
 2486 001a 1346     		mov	r3, r2	@ movhi
 2487 001c 3B80     		strh	r3, [r7]	@ movhi
 156:rhea\gfx/gfx.c **** 
 157:rhea\gfx/gfx.c **** 	// Checking if can be implemented efficiently
 158:rhea\gfx/gfx.c **** 	if (x0 == x1) {
 2488              		.loc 1 158 0
 2489 001e FA88     		ldrh	r2, [r7, #6]
 2490 0020 7B88     		ldrh	r3, [r7, #2]
 2491 0022 9A42     		cmp	r2, r3
 2492 0024 11D1     		bne	.L22
 159:rhea\gfx/gfx.c **** 		rhea_gfx_DrawVerticalLine(x0, y0 < y1 ? y0 : y1, abs(y1 - y0), color); return;
 2493              		.loc 1 159 0
 2494 0026 3A88     		ldrh	r2, [r7]
 2495 0028 BB88     		ldrh	r3, [r7, #4]
 2496 002a 9342     		cmp	r3, r2
 2497 002c 28BF     		it	cs
 2498 002e 1346     		movcs	r3, r2
 2499 0030 99B2     		uxth	r1, r3
 2500 0032 3A88     		ldrh	r2, [r7]
 2501 0034 BB88     		ldrh	r3, [r7, #4]
 2502 0036 D31A     		subs	r3, r2, r3
 2503 0038 002B     		cmp	r3, #0
 2504 003a B8BF     		it	lt
 2505 003c 5B42     		rsblt	r3, r3, #0
 2506 003e DAB2     		uxtb	r2, r3
 2507 0040 3B7E     		ldrb	r3, [r7, #24]	@ zero_extendqisi2
 2508 0042 F888     		ldrh	r0, [r7, #6]
 2509 0044 FFF7FEFF 		bl	rhea_gfx_DrawVerticalLine
 2510 0048 53E0     		b	.L21
 2511              	.L22:
 160:rhea\gfx/gfx.c **** 	}
 161:rhea\gfx/gfx.c **** 	if (y0 == y1) {
 2512              		.loc 1 161 0
ARM GAS  C:\Users\GYULAI~1\AppData\Local\Temp\ccol45rE.s 			page 48


 2513 004a BA88     		ldrh	r2, [r7, #4]
 2514 004c 3B88     		ldrh	r3, [r7]
 2515 004e 9A42     		cmp	r2, r3
 2516 0050 11D1     		bne	.L24
 162:rhea\gfx/gfx.c **** 		rhea_gfx_DrawHorizontalLine(x0 < x1 ? x0 : x1, y0, abs(x1 - x0), color); return;
 2517              		.loc 1 162 0
 2518 0052 7A88     		ldrh	r2, [r7, #2]
 2519 0054 FB88     		ldrh	r3, [r7, #6]
 2520 0056 9342     		cmp	r3, r2
 2521 0058 28BF     		it	cs
 2522 005a 1346     		movcs	r3, r2
 2523 005c 98B2     		uxth	r0, r3
 2524 005e 7A88     		ldrh	r2, [r7, #2]
 2525 0060 FB88     		ldrh	r3, [r7, #6]
 2526 0062 D31A     		subs	r3, r2, r3
 2527 0064 002B     		cmp	r3, #0
 2528 0066 B8BF     		it	lt
 2529 0068 5B42     		rsblt	r3, r3, #0
 2530 006a DAB2     		uxtb	r2, r3
 2531 006c 3B7E     		ldrb	r3, [r7, #24]	@ zero_extendqisi2
 2532 006e B988     		ldrh	r1, [r7, #4]
 2533 0070 FFF7FEFF 		bl	rhea_gfx_DrawHorizontalLine
 2534 0074 3DE0     		b	.L21
 2535              	.L24:
 163:rhea\gfx/gfx.c **** 	}
 164:rhea\gfx/gfx.c **** 
 165:rhea\gfx/gfx.c **** 	// Bresenham's Line Drawing Algorithm
 166:rhea\gfx/gfx.c **** 	if (abs(y1 - y0) < abs(x1 - x0)) {
 2536              		.loc 1 166 0
 2537 0076 3A88     		ldrh	r2, [r7]
 2538 0078 BB88     		ldrh	r3, [r7, #4]
 2539 007a D31A     		subs	r3, r2, r3
 2540 007c 83EAE372 		eor	r2, r3, r3, asr #31
 2541 0080 A2EBE372 		sub	r2, r2, r3, asr #31
 2542 0084 7988     		ldrh	r1, [r7, #2]
 2543 0086 FB88     		ldrh	r3, [r7, #6]
 2544 0088 CB1A     		subs	r3, r1, r3
 2545 008a 002B     		cmp	r3, #0
 2546 008c B8BF     		it	lt
 2547 008e 5B42     		rsblt	r3, r3, #0
 2548 0090 9A42     		cmp	r2, r3
 2549 0092 17DA     		bge	.L25
 167:rhea\gfx/gfx.c **** 		if (x0 > x1) rhea_gfx_DrawLineLow(x1, y1, x0, y0, color);
 2550              		.loc 1 167 0
 2551 0094 FA88     		ldrh	r2, [r7, #6]
 2552 0096 7B88     		ldrh	r3, [r7, #2]
 2553 0098 9A42     		cmp	r2, r3
 2554 009a 09D9     		bls	.L26
 2555              		.loc 1 167 0 is_stmt 0 discriminator 1
 2556 009c BC88     		ldrh	r4, [r7, #4]
 2557 009e FA88     		ldrh	r2, [r7, #6]
 2558 00a0 3988     		ldrh	r1, [r7]
 2559 00a2 7888     		ldrh	r0, [r7, #2]
 2560 00a4 3B7E     		ldrb	r3, [r7, #24]	@ zero_extendqisi2
 2561 00a6 0093     		str	r3, [sp]
 2562 00a8 2346     		mov	r3, r4
 2563 00aa FFF7FEFF 		bl	rhea_gfx_DrawLineLow
ARM GAS  C:\Users\GYULAI~1\AppData\Local\Temp\ccol45rE.s 			page 49


 2564 00ae 20E0     		b	.L21
 2565              	.L26:
 168:rhea\gfx/gfx.c **** 		else         rhea_gfx_DrawLineLow(x0, y0, x1, y1, color);
 2566              		.loc 1 168 0 is_stmt 1
 2567 00b0 3C88     		ldrh	r4, [r7]
 2568 00b2 7A88     		ldrh	r2, [r7, #2]
 2569 00b4 B988     		ldrh	r1, [r7, #4]
 2570 00b6 F888     		ldrh	r0, [r7, #6]
 2571 00b8 3B7E     		ldrb	r3, [r7, #24]	@ zero_extendqisi2
 2572 00ba 0093     		str	r3, [sp]
 2573 00bc 2346     		mov	r3, r4
 2574 00be FFF7FEFF 		bl	rhea_gfx_DrawLineLow
 2575 00c2 16E0     		b	.L21
 2576              	.L25:
 169:rhea\gfx/gfx.c **** 	}
 170:rhea\gfx/gfx.c **** 	else {
 171:rhea\gfx/gfx.c **** 		if (y0 > y1) rhea_gfx_DrawLineHigh(x1, y1, x0, y0, color);
 2577              		.loc 1 171 0
 2578 00c4 BA88     		ldrh	r2, [r7, #4]
 2579 00c6 3B88     		ldrh	r3, [r7]
 2580 00c8 9A42     		cmp	r2, r3
 2581 00ca 09D9     		bls	.L28
 2582              		.loc 1 171 0 is_stmt 0 discriminator 1
 2583 00cc BC88     		ldrh	r4, [r7, #4]
 2584 00ce FA88     		ldrh	r2, [r7, #6]
 2585 00d0 3988     		ldrh	r1, [r7]
 2586 00d2 7888     		ldrh	r0, [r7, #2]
 2587 00d4 3B7E     		ldrb	r3, [r7, #24]	@ zero_extendqisi2
 2588 00d6 0093     		str	r3, [sp]
 2589 00d8 2346     		mov	r3, r4
 2590 00da FFF7FEFF 		bl	rhea_gfx_DrawLineHigh
 2591 00de 08E0     		b	.L21
 2592              	.L28:
 172:rhea\gfx/gfx.c **** 		else         rhea_gfx_DrawLineHigh(x0, y0, x1, y1, color);
 2593              		.loc 1 172 0 is_stmt 1
 2594 00e0 3C88     		ldrh	r4, [r7]
 2595 00e2 7A88     		ldrh	r2, [r7, #2]
 2596 00e4 B988     		ldrh	r1, [r7, #4]
 2597 00e6 F888     		ldrh	r0, [r7, #6]
 2598 00e8 3B7E     		ldrb	r3, [r7, #24]	@ zero_extendqisi2
 2599 00ea 0093     		str	r3, [sp]
 2600 00ec 2346     		mov	r3, r4
 2601 00ee FFF7FEFF 		bl	rhea_gfx_DrawLineHigh
 2602              	.L21:
 173:rhea\gfx/gfx.c **** 	}
 174:rhea\gfx/gfx.c **** 
 175:rhea\gfx/gfx.c **** 	// Refreshing display
 176:rhea\gfx/gfx.c **** 	// rhea_gfx_Refresh();
 177:rhea\gfx/gfx.c **** }
 2603              		.loc 1 177 0
 2604 00f2 0C37     		adds	r7, r7, #12
 2605              		.cfi_def_cfa_offset 12
 2606 00f4 BD46     		mov	sp, r7
 2607              		.cfi_def_cfa_register 13
 2608              		@ sp needed
 2609 00f6 90BD     		pop	{r4, r7, pc}
 2610              		.cfi_endproc
ARM GAS  C:\Users\GYULAI~1\AppData\Local\Temp\ccol45rE.s 			page 50


 2611              	.LFE8:
 2612              		.size	rhea_gfx_DrawLine, .-rhea_gfx_DrawLine
 2613              		.section	.text.rhea_gfx_DrawVerticalLine,"ax",%progbits
 2614              		.align	2
 2615              		.global	rhea_gfx_DrawVerticalLine
 2616              		.thumb
 2617              		.thumb_func
 2618              		.type	rhea_gfx_DrawVerticalLine, %function
 2619              	rhea_gfx_DrawVerticalLine:
 2620              	.LFB9:
 178:rhea\gfx/gfx.c **** 
 179:rhea\gfx/gfx.c **** void rhea_gfx_DrawVerticalLine(rhea_gfx_coordinate x, rhea_gfx_coordinate y, rhea_gfx_size_t height
 2621              		.loc 1 179 0
 2622              		.cfi_startproc
 2623              		@ args = 0, pretend = 0, frame = 16
 2624              		@ frame_needed = 1, uses_anonymous_args = 0
 2625 0000 90B5     		push	{r4, r7, lr}
 2626              		.cfi_def_cfa_offset 12
 2627              		.cfi_offset 4, -12
 2628              		.cfi_offset 7, -8
 2629              		.cfi_offset 14, -4
 2630 0002 85B0     		sub	sp, sp, #20
 2631              		.cfi_def_cfa_offset 32
 2632 0004 00AF     		add	r7, sp, #0
 2633              		.cfi_def_cfa_register 7
 2634 0006 0446     		mov	r4, r0
 2635 0008 0846     		mov	r0, r1
 2636 000a 1146     		mov	r1, r2
 2637 000c 1A46     		mov	r2, r3
 2638 000e 2346     		mov	r3, r4	@ movhi
 2639 0010 FB80     		strh	r3, [r7, #6]	@ movhi
 2640 0012 0346     		mov	r3, r0	@ movhi
 2641 0014 BB80     		strh	r3, [r7, #4]	@ movhi
 2642 0016 0B46     		mov	r3, r1
 2643 0018 FB70     		strb	r3, [r7, #3]
 2644 001a 1346     		mov	r3, r2
 2645 001c BB70     		strb	r3, [r7, #2]
 2646              	.LBB4:
 180:rhea\gfx/gfx.c **** 
 181:rhea\gfx/gfx.c **** 	// Drawing vertical line
 182:rhea\gfx/gfx.c **** 	for (rhea_gfx_size_t i = 0; i < height; i++) rhea_gfx_writePixel_impl(x, y + i, color);
 2647              		.loc 1 182 0
 2648 001e 0023     		movs	r3, #0
 2649 0020 FB73     		strb	r3, [r7, #15]
 2650 0022 0CE0     		b	.L30
 2651              	.L31:
 2652              		.loc 1 182 0 is_stmt 0 discriminator 3
 2653 0024 FB7B     		ldrb	r3, [r7, #15]	@ zero_extendqisi2
 2654 0026 9AB2     		uxth	r2, r3
 2655 0028 BB88     		ldrh	r3, [r7, #4]	@ movhi
 2656 002a 1344     		add	r3, r3, r2
 2657 002c 99B2     		uxth	r1, r3
 2658 002e BA78     		ldrb	r2, [r7, #2]	@ zero_extendqisi2
 2659 0030 FB88     		ldrh	r3, [r7, #6]
 2660 0032 1846     		mov	r0, r3
 2661 0034 FFF7FEFF 		bl	rhea_gfx_writePixel_impl
 2662 0038 FB7B     		ldrb	r3, [r7, #15]	@ zero_extendqisi2
ARM GAS  C:\Users\GYULAI~1\AppData\Local\Temp\ccol45rE.s 			page 51


 2663 003a 0133     		adds	r3, r3, #1
 2664 003c FB73     		strb	r3, [r7, #15]
 2665              	.L30:
 2666              		.loc 1 182 0 discriminator 1
 2667 003e FA7B     		ldrb	r2, [r7, #15]	@ zero_extendqisi2
 2668 0040 FB78     		ldrb	r3, [r7, #3]	@ zero_extendqisi2
 2669 0042 9A42     		cmp	r2, r3
 2670 0044 EED3     		bcc	.L31
 2671              	.LBE4:
 183:rhea\gfx/gfx.c **** 
 184:rhea\gfx/gfx.c **** 	// Refreshing display
 185:rhea\gfx/gfx.c **** 	// rhea_gfx_Refresh();
 186:rhea\gfx/gfx.c **** }
 2672              		.loc 1 186 0 is_stmt 1
 2673 0046 00BF     		nop
 2674 0048 1437     		adds	r7, r7, #20
 2675              		.cfi_def_cfa_offset 12
 2676 004a BD46     		mov	sp, r7
 2677              		.cfi_def_cfa_register 13
 2678              		@ sp needed
 2679 004c 90BD     		pop	{r4, r7, pc}
 2680              		.cfi_endproc
 2681              	.LFE9:
 2682              		.size	rhea_gfx_DrawVerticalLine, .-rhea_gfx_DrawVerticalLine
 2683 004e 00BF     		.section	.text.rhea_gfx_DrawHorizontalLine,"ax",%progbits
 2684              		.align	2
 2685              		.global	rhea_gfx_DrawHorizontalLine
 2686              		.thumb
 2687              		.thumb_func
 2688              		.type	rhea_gfx_DrawHorizontalLine, %function
 2689              	rhea_gfx_DrawHorizontalLine:
 2690              	.LFB10:
 187:rhea\gfx/gfx.c **** 
 188:rhea\gfx/gfx.c **** void rhea_gfx_DrawHorizontalLine(rhea_gfx_coordinate x, rhea_gfx_coordinate y, rhea_gfx_size_t leng
 2691              		.loc 1 188 0
 2692              		.cfi_startproc
 2693              		@ args = 0, pretend = 0, frame = 16
 2694              		@ frame_needed = 1, uses_anonymous_args = 0
 2695 0000 90B5     		push	{r4, r7, lr}
 2696              		.cfi_def_cfa_offset 12
 2697              		.cfi_offset 4, -12
 2698              		.cfi_offset 7, -8
 2699              		.cfi_offset 14, -4
 2700 0002 85B0     		sub	sp, sp, #20
 2701              		.cfi_def_cfa_offset 32
 2702 0004 00AF     		add	r7, sp, #0
 2703              		.cfi_def_cfa_register 7
 2704 0006 0446     		mov	r4, r0
 2705 0008 0846     		mov	r0, r1
 2706 000a 1146     		mov	r1, r2
 2707 000c 1A46     		mov	r2, r3
 2708 000e 2346     		mov	r3, r4	@ movhi
 2709 0010 FB80     		strh	r3, [r7, #6]	@ movhi
 2710 0012 0346     		mov	r3, r0	@ movhi
 2711 0014 BB80     		strh	r3, [r7, #4]	@ movhi
 2712 0016 0B46     		mov	r3, r1
 2713 0018 FB70     		strb	r3, [r7, #3]
ARM GAS  C:\Users\GYULAI~1\AppData\Local\Temp\ccol45rE.s 			page 52


 2714 001a 1346     		mov	r3, r2
 2715 001c BB70     		strb	r3, [r7, #2]
 2716              	.LBB5:
 189:rhea\gfx/gfx.c **** 
 190:rhea\gfx/gfx.c **** 	// Drawing horizontal line
 191:rhea\gfx/gfx.c **** 	for (rhea_gfx_size_t i = 0; i < length; i++) rhea_gfx_writePixel_impl(x + i, y, color);
 2717              		.loc 1 191 0
 2718 001e 0023     		movs	r3, #0
 2719 0020 FB73     		strb	r3, [r7, #15]
 2720 0022 0CE0     		b	.L33
 2721              	.L34:
 2722              		.loc 1 191 0 is_stmt 0 discriminator 3
 2723 0024 FB7B     		ldrb	r3, [r7, #15]	@ zero_extendqisi2
 2724 0026 9AB2     		uxth	r2, r3
 2725 0028 FB88     		ldrh	r3, [r7, #6]	@ movhi
 2726 002a 1344     		add	r3, r3, r2
 2727 002c 9BB2     		uxth	r3, r3
 2728 002e BA78     		ldrb	r2, [r7, #2]	@ zero_extendqisi2
 2729 0030 B988     		ldrh	r1, [r7, #4]
 2730 0032 1846     		mov	r0, r3
 2731 0034 FFF7FEFF 		bl	rhea_gfx_writePixel_impl
 2732 0038 FB7B     		ldrb	r3, [r7, #15]	@ zero_extendqisi2
 2733 003a 0133     		adds	r3, r3, #1
 2734 003c FB73     		strb	r3, [r7, #15]
 2735              	.L33:
 2736              		.loc 1 191 0 discriminator 1
 2737 003e FA7B     		ldrb	r2, [r7, #15]	@ zero_extendqisi2
 2738 0040 FB78     		ldrb	r3, [r7, #3]	@ zero_extendqisi2
 2739 0042 9A42     		cmp	r2, r3
 2740 0044 EED3     		bcc	.L34
 2741              	.LBE5:
 192:rhea\gfx/gfx.c **** 
 193:rhea\gfx/gfx.c **** 	// Refreshing display
 194:rhea\gfx/gfx.c **** 	// rhea_gfx_Refresh();
 195:rhea\gfx/gfx.c **** }
 2742              		.loc 1 195 0 is_stmt 1
 2743 0046 00BF     		nop
 2744 0048 1437     		adds	r7, r7, #20
 2745              		.cfi_def_cfa_offset 12
 2746 004a BD46     		mov	sp, r7
 2747              		.cfi_def_cfa_register 13
 2748              		@ sp needed
 2749 004c 90BD     		pop	{r4, r7, pc}
 2750              		.cfi_endproc
 2751              	.LFE10:
 2752              		.size	rhea_gfx_DrawHorizontalLine, .-rhea_gfx_DrawHorizontalLine
 2753              		.global	__aeabi_i2d
 2754              		.global	__aeabi_d2uiz
 2755 004e 00BF     		.section	.text.rhea_gfx_DrawCircle,"ax",%progbits
 2756              		.align	2
 2757              		.global	rhea_gfx_DrawCircle
 2758              		.thumb
 2759              		.thumb_func
 2760              		.type	rhea_gfx_DrawCircle, %function
 2761              	rhea_gfx_DrawCircle:
 2762              	.LFB11:
 196:rhea\gfx/gfx.c **** 
ARM GAS  C:\Users\GYULAI~1\AppData\Local\Temp\ccol45rE.s 			page 53


 197:rhea\gfx/gfx.c **** void rhea_gfx_DrawCircle(rhea_gfx_coordinate x, rhea_gfx_coordinate y, rhea_gfx_size_t radius, rhea
 2763              		.loc 1 197 0
 2764              		.cfi_startproc
 2765              		@ args = 0, pretend = 0, frame = 16
 2766              		@ frame_needed = 1, uses_anonymous_args = 0
 2767 0000 90B5     		push	{r4, r7, lr}
 2768              		.cfi_def_cfa_offset 12
 2769              		.cfi_offset 4, -12
 2770              		.cfi_offset 7, -8
 2771              		.cfi_offset 14, -4
 2772 0002 85B0     		sub	sp, sp, #20
 2773              		.cfi_def_cfa_offset 32
 2774 0004 00AF     		add	r7, sp, #0
 2775              		.cfi_def_cfa_register 7
 2776 0006 0446     		mov	r4, r0
 2777 0008 0846     		mov	r0, r1
 2778 000a 1146     		mov	r1, r2
 2779 000c 1A46     		mov	r2, r3
 2780 000e 2346     		mov	r3, r4	@ movhi
 2781 0010 FB80     		strh	r3, [r7, #6]	@ movhi
 2782 0012 0346     		mov	r3, r0	@ movhi
 2783 0014 BB80     		strh	r3, [r7, #4]	@ movhi
 2784 0016 0B46     		mov	r3, r1
 2785 0018 FB70     		strb	r3, [r7, #3]
 2786 001a 1346     		mov	r3, r2
 2787 001c BB70     		strb	r3, [r7, #2]
 2788              	.LBB6:
 198:rhea\gfx/gfx.c **** 
 199:rhea\gfx/gfx.c **** 	// Drawing circle
 200:rhea\gfx/gfx.c **** 	for (rhea_gfx_coordinate i = 0; i < RHEA_GFX_WIDTH; i++) {
 2789              		.loc 1 200 0
 2790 001e 0023     		movs	r3, #0
 2791 0020 FB81     		strh	r3, [r7, #14]	@ movhi
 2792 0022 37E0     		b	.L36
 2793              	.L40:
 2794              	.LBB7:
 201:rhea\gfx/gfx.c **** 		for (rhea_gfx_coordinate j = 0; j < RHEA_GFX_HEIGHT; j++) {
 2795              		.loc 1 201 0
 2796 0024 0023     		movs	r3, #0
 2797 0026 BB81     		strh	r3, [r7, #12]	@ movhi
 2798 0028 2EE0     		b	.L37
 2799              	.L39:
 2800              	.LBB8:
 202:rhea\gfx/gfx.c **** 			rhea_gfx_size_t distance = (rhea_gfx_size_t) sqrt((x - i) * (x - i) + (y - j) * (y - j));
 2801              		.loc 1 202 0
 2802 002a FA88     		ldrh	r2, [r7, #6]
 2803 002c FB89     		ldrh	r3, [r7, #14]
 2804 002e D31A     		subs	r3, r2, r3
 2805 0030 F988     		ldrh	r1, [r7, #6]
 2806 0032 FA89     		ldrh	r2, [r7, #14]
 2807 0034 8A1A     		subs	r2, r1, r2
 2808 0036 02FB03F2 		mul	r2, r2, r3
 2809 003a B988     		ldrh	r1, [r7, #4]
 2810 003c BB89     		ldrh	r3, [r7, #12]
 2811 003e CB1A     		subs	r3, r1, r3
 2812 0040 B888     		ldrh	r0, [r7, #4]
 2813 0042 B989     		ldrh	r1, [r7, #12]
ARM GAS  C:\Users\GYULAI~1\AppData\Local\Temp\ccol45rE.s 			page 54


 2814 0044 411A     		subs	r1, r0, r1
 2815 0046 01FB03F3 		mul	r3, r1, r3
 2816 004a 1344     		add	r3, r3, r2
 2817 004c 1846     		mov	r0, r3
 2818 004e FFF7FEFF 		bl	__aeabi_i2d
 2819 0052 0346     		mov	r3, r0
 2820 0054 0C46     		mov	r4, r1
 2821 0056 1846     		mov	r0, r3
 2822 0058 2146     		mov	r1, r4
 2823 005a FFF7FEFF 		bl	sqrt
 2824 005e 0346     		mov	r3, r0
 2825 0060 0C46     		mov	r4, r1
 2826 0062 1846     		mov	r0, r3
 2827 0064 2146     		mov	r1, r4
 2828 0066 FFF7FEFF 		bl	__aeabi_d2uiz
 2829 006a 0346     		mov	r3, r0
 2830 006c FB72     		strb	r3, [r7, #11]
 203:rhea\gfx/gfx.c **** 			if (distance == radius) rhea_gfx_writePixel_impl(i, j, color);
 2831              		.loc 1 203 0
 2832 006e FA7A     		ldrb	r2, [r7, #11]	@ zero_extendqisi2
 2833 0070 FB78     		ldrb	r3, [r7, #3]	@ zero_extendqisi2
 2834 0072 9A42     		cmp	r2, r3
 2835 0074 05D1     		bne	.L38
 2836              		.loc 1 203 0 is_stmt 0 discriminator 1
 2837 0076 BA78     		ldrb	r2, [r7, #2]	@ zero_extendqisi2
 2838 0078 B989     		ldrh	r1, [r7, #12]
 2839 007a FB89     		ldrh	r3, [r7, #14]
 2840 007c 1846     		mov	r0, r3
 2841 007e FFF7FEFF 		bl	rhea_gfx_writePixel_impl
 2842              	.L38:
 2843              	.LBE8:
 201:rhea\gfx/gfx.c **** 		for (rhea_gfx_coordinate j = 0; j < RHEA_GFX_HEIGHT; j++) {
 2844              		.loc 1 201 0 is_stmt 1 discriminator 2
 2845 0082 BB89     		ldrh	r3, [r7, #12]
 2846 0084 0133     		adds	r3, r3, #1
 2847 0086 BB81     		strh	r3, [r7, #12]	@ movhi
 2848              	.L37:
 201:rhea\gfx/gfx.c **** 		for (rhea_gfx_coordinate j = 0; j < RHEA_GFX_HEIGHT; j++) {
 2849              		.loc 1 201 0 is_stmt 0 discriminator 1
 2850 0088 BB89     		ldrh	r3, [r7, #12]
 2851 008a 1F2B     		cmp	r3, #31
 2852 008c CDD9     		bls	.L39
 2853              	.LBE7:
 200:rhea\gfx/gfx.c **** 		for (rhea_gfx_coordinate j = 0; j < RHEA_GFX_HEIGHT; j++) {
 2854              		.loc 1 200 0 is_stmt 1 discriminator 2
 2855 008e FB89     		ldrh	r3, [r7, #14]
 2856 0090 0133     		adds	r3, r3, #1
 2857 0092 FB81     		strh	r3, [r7, #14]	@ movhi
 2858              	.L36:
 200:rhea\gfx/gfx.c **** 		for (rhea_gfx_coordinate j = 0; j < RHEA_GFX_HEIGHT; j++) {
 2859              		.loc 1 200 0 is_stmt 0 discriminator 1
 2860 0094 FB89     		ldrh	r3, [r7, #14]
 2861 0096 7F2B     		cmp	r3, #127
 2862 0098 C4D9     		bls	.L40
 2863              	.LBE6:
 204:rhea\gfx/gfx.c **** 		}
 205:rhea\gfx/gfx.c **** 	}
ARM GAS  C:\Users\GYULAI~1\AppData\Local\Temp\ccol45rE.s 			page 55


 206:rhea\gfx/gfx.c **** 
 207:rhea\gfx/gfx.c **** 	// Refreshing display
 208:rhea\gfx/gfx.c **** 	// rhea_gfx_Refresh();
 209:rhea\gfx/gfx.c **** }
 2864              		.loc 1 209 0 is_stmt 1
 2865 009a 00BF     		nop
 2866 009c 1437     		adds	r7, r7, #20
 2867              		.cfi_def_cfa_offset 12
 2868 009e BD46     		mov	sp, r7
 2869              		.cfi_def_cfa_register 13
 2870              		@ sp needed
 2871 00a0 90BD     		pop	{r4, r7, pc}
 2872              		.cfi_endproc
 2873              	.LFE11:
 2874              		.size	rhea_gfx_DrawCircle, .-rhea_gfx_DrawCircle
 2875 00a2 00BF     		.section	.text.rhea_gfx_DrawFilledCircle,"ax",%progbits
 2876              		.align	2
 2877              		.global	rhea_gfx_DrawFilledCircle
 2878              		.thumb
 2879              		.thumb_func
 2880              		.type	rhea_gfx_DrawFilledCircle, %function
 2881              	rhea_gfx_DrawFilledCircle:
 2882              	.LFB12:
 210:rhea\gfx/gfx.c **** 
 211:rhea\gfx/gfx.c **** void rhea_gfx_DrawFilledCircle(rhea_gfx_coordinate x, rhea_gfx_coordinate y, rhea_gfx_size_t radius
 2883              		.loc 1 211 0
 2884              		.cfi_startproc
 2885              		@ args = 0, pretend = 0, frame = 16
 2886              		@ frame_needed = 1, uses_anonymous_args = 0
 2887 0000 90B5     		push	{r4, r7, lr}
 2888              		.cfi_def_cfa_offset 12
 2889              		.cfi_offset 4, -12
 2890              		.cfi_offset 7, -8
 2891              		.cfi_offset 14, -4
 2892 0002 85B0     		sub	sp, sp, #20
 2893              		.cfi_def_cfa_offset 32
 2894 0004 00AF     		add	r7, sp, #0
 2895              		.cfi_def_cfa_register 7
 2896 0006 0446     		mov	r4, r0
 2897 0008 0846     		mov	r0, r1
 2898 000a 1146     		mov	r1, r2
 2899 000c 1A46     		mov	r2, r3
 2900 000e 2346     		mov	r3, r4	@ movhi
 2901 0010 FB80     		strh	r3, [r7, #6]	@ movhi
 2902 0012 0346     		mov	r3, r0	@ movhi
 2903 0014 BB80     		strh	r3, [r7, #4]	@ movhi
 2904 0016 0B46     		mov	r3, r1
 2905 0018 FB70     		strb	r3, [r7, #3]
 2906 001a 1346     		mov	r3, r2
 2907 001c BB70     		strb	r3, [r7, #2]
 2908              	.LBB9:
 212:rhea\gfx/gfx.c **** 
 213:rhea\gfx/gfx.c **** 	// Drawing filled circle
 214:rhea\gfx/gfx.c **** 	for (rhea_gfx_coordinate i = 0; i < RHEA_GFX_WIDTH; i++) {
 2909              		.loc 1 214 0
 2910 001e 0023     		movs	r3, #0
 2911 0020 FB81     		strh	r3, [r7, #14]	@ movhi
ARM GAS  C:\Users\GYULAI~1\AppData\Local\Temp\ccol45rE.s 			page 56


 2912 0022 37E0     		b	.L42
 2913              	.L46:
 2914              	.LBB10:
 215:rhea\gfx/gfx.c **** 		for (rhea_gfx_coordinate j = 0; j < RHEA_GFX_HEIGHT; j++) {
 2915              		.loc 1 215 0
 2916 0024 0023     		movs	r3, #0
 2917 0026 BB81     		strh	r3, [r7, #12]	@ movhi
 2918 0028 2EE0     		b	.L43
 2919              	.L45:
 2920              	.LBB11:
 216:rhea\gfx/gfx.c **** 			rhea_gfx_size_t distance = (rhea_gfx_size_t) sqrt((x - i) * (x - i) + (y - j) * (y - j));
 2921              		.loc 1 216 0
 2922 002a FA88     		ldrh	r2, [r7, #6]
 2923 002c FB89     		ldrh	r3, [r7, #14]
 2924 002e D31A     		subs	r3, r2, r3
 2925 0030 F988     		ldrh	r1, [r7, #6]
 2926 0032 FA89     		ldrh	r2, [r7, #14]
 2927 0034 8A1A     		subs	r2, r1, r2
 2928 0036 02FB03F2 		mul	r2, r2, r3
 2929 003a B988     		ldrh	r1, [r7, #4]
 2930 003c BB89     		ldrh	r3, [r7, #12]
 2931 003e CB1A     		subs	r3, r1, r3
 2932 0040 B888     		ldrh	r0, [r7, #4]
 2933 0042 B989     		ldrh	r1, [r7, #12]
 2934 0044 411A     		subs	r1, r0, r1
 2935 0046 01FB03F3 		mul	r3, r1, r3
 2936 004a 1344     		add	r3, r3, r2
 2937 004c 1846     		mov	r0, r3
 2938 004e FFF7FEFF 		bl	__aeabi_i2d
 2939 0052 0346     		mov	r3, r0
 2940 0054 0C46     		mov	r4, r1
 2941 0056 1846     		mov	r0, r3
 2942 0058 2146     		mov	r1, r4
 2943 005a FFF7FEFF 		bl	sqrt
 2944 005e 0346     		mov	r3, r0
 2945 0060 0C46     		mov	r4, r1
 2946 0062 1846     		mov	r0, r3
 2947 0064 2146     		mov	r1, r4
 2948 0066 FFF7FEFF 		bl	__aeabi_d2uiz
 2949 006a 0346     		mov	r3, r0
 2950 006c FB72     		strb	r3, [r7, #11]
 217:rhea\gfx/gfx.c **** 			if (distance <= radius) rhea_gfx_writePixel_impl(i, j, color);
 2951              		.loc 1 217 0
 2952 006e FA7A     		ldrb	r2, [r7, #11]	@ zero_extendqisi2
 2953 0070 FB78     		ldrb	r3, [r7, #3]	@ zero_extendqisi2
 2954 0072 9A42     		cmp	r2, r3
 2955 0074 05D8     		bhi	.L44
 2956              		.loc 1 217 0 is_stmt 0 discriminator 1
 2957 0076 BA78     		ldrb	r2, [r7, #2]	@ zero_extendqisi2
 2958 0078 B989     		ldrh	r1, [r7, #12]
 2959 007a FB89     		ldrh	r3, [r7, #14]
 2960 007c 1846     		mov	r0, r3
 2961 007e FFF7FEFF 		bl	rhea_gfx_writePixel_impl
 2962              	.L44:
 2963              	.LBE11:
 215:rhea\gfx/gfx.c **** 		for (rhea_gfx_coordinate j = 0; j < RHEA_GFX_HEIGHT; j++) {
 2964              		.loc 1 215 0 is_stmt 1 discriminator 2
ARM GAS  C:\Users\GYULAI~1\AppData\Local\Temp\ccol45rE.s 			page 57


 2965 0082 BB89     		ldrh	r3, [r7, #12]
 2966 0084 0133     		adds	r3, r3, #1
 2967 0086 BB81     		strh	r3, [r7, #12]	@ movhi
 2968              	.L43:
 215:rhea\gfx/gfx.c **** 		for (rhea_gfx_coordinate j = 0; j < RHEA_GFX_HEIGHT; j++) {
 2969              		.loc 1 215 0 is_stmt 0 discriminator 1
 2970 0088 BB89     		ldrh	r3, [r7, #12]
 2971 008a 1F2B     		cmp	r3, #31
 2972 008c CDD9     		bls	.L45
 2973              	.LBE10:
 214:rhea\gfx/gfx.c **** 		for (rhea_gfx_coordinate j = 0; j < RHEA_GFX_HEIGHT; j++) {
 2974              		.loc 1 214 0 is_stmt 1 discriminator 2
 2975 008e FB89     		ldrh	r3, [r7, #14]
 2976 0090 0133     		adds	r3, r3, #1
 2977 0092 FB81     		strh	r3, [r7, #14]	@ movhi
 2978              	.L42:
 214:rhea\gfx/gfx.c **** 		for (rhea_gfx_coordinate j = 0; j < RHEA_GFX_HEIGHT; j++) {
 2979              		.loc 1 214 0 is_stmt 0 discriminator 1
 2980 0094 FB89     		ldrh	r3, [r7, #14]
 2981 0096 7F2B     		cmp	r3, #127
 2982 0098 C4D9     		bls	.L46
 2983              	.LBE9:
 218:rhea\gfx/gfx.c **** 		}
 219:rhea\gfx/gfx.c **** 	}
 220:rhea\gfx/gfx.c **** 
 221:rhea\gfx/gfx.c **** 	// Refreshing display
 222:rhea\gfx/gfx.c **** 	// rhea_gfx_Refresh();
 223:rhea\gfx/gfx.c **** }
 2984              		.loc 1 223 0 is_stmt 1
 2985 009a 00BF     		nop
 2986 009c 1437     		adds	r7, r7, #20
 2987              		.cfi_def_cfa_offset 12
 2988 009e BD46     		mov	sp, r7
 2989              		.cfi_def_cfa_register 13
 2990              		@ sp needed
 2991 00a0 90BD     		pop	{r4, r7, pc}
 2992              		.cfi_endproc
 2993              	.LFE12:
 2994              		.size	rhea_gfx_DrawFilledCircle, .-rhea_gfx_DrawFilledCircle
 2995 00a2 00BF     		.section	.text.rhea_gfx_DrawRectangle,"ax",%progbits
 2996              		.align	2
 2997              		.global	rhea_gfx_DrawRectangle
 2998              		.thumb
 2999              		.thumb_func
 3000              		.type	rhea_gfx_DrawRectangle, %function
 3001              	rhea_gfx_DrawRectangle:
 3002              	.LFB13:
 224:rhea\gfx/gfx.c **** 
 225:rhea\gfx/gfx.c **** void rhea_gfx_DrawRectangle(rhea_gfx_coordinate x, rhea_gfx_coordinate y, rhea_gfx_size_t width, rh
 3003              		.loc 1 225 0
 3004              		.cfi_startproc
 3005              		@ args = 4, pretend = 0, frame = 16
 3006              		@ frame_needed = 1, uses_anonymous_args = 0
 3007 0000 90B5     		push	{r4, r7, lr}
 3008              		.cfi_def_cfa_offset 12
 3009              		.cfi_offset 4, -12
 3010              		.cfi_offset 7, -8
ARM GAS  C:\Users\GYULAI~1\AppData\Local\Temp\ccol45rE.s 			page 58


 3011              		.cfi_offset 14, -4
 3012 0002 85B0     		sub	sp, sp, #20
 3013              		.cfi_def_cfa_offset 32
 3014 0004 00AF     		add	r7, sp, #0
 3015              		.cfi_def_cfa_register 7
 3016 0006 0446     		mov	r4, r0
 3017 0008 0846     		mov	r0, r1
 3018 000a 1146     		mov	r1, r2
 3019 000c 1A46     		mov	r2, r3
 3020 000e 2346     		mov	r3, r4	@ movhi
 3021 0010 FB80     		strh	r3, [r7, #6]	@ movhi
 3022 0012 0346     		mov	r3, r0	@ movhi
 3023 0014 BB80     		strh	r3, [r7, #4]	@ movhi
 3024 0016 0B46     		mov	r3, r1
 3025 0018 FB70     		strb	r3, [r7, #3]
 3026 001a 1346     		mov	r3, r2
 3027 001c BB70     		strb	r3, [r7, #2]
 3028              	.LBB12:
 226:rhea\gfx/gfx.c **** 
 227:rhea\gfx/gfx.c **** 	// Drawing rectangle
 228:rhea\gfx/gfx.c **** 	for (rhea_gfx_size_t i = 0; i < width; i++) {
 3029              		.loc 1 228 0
 3030 001e 0023     		movs	r3, #0
 3031 0020 FB73     		strb	r3, [r7, #15]
 3032 0022 2BE0     		b	.L48
 3033              	.L53:
 3034              	.LBB13:
 229:rhea\gfx/gfx.c **** 		for (rhea_gfx_size_t j = 0; j < height; j++) {
 3035              		.loc 1 229 0
 3036 0024 0023     		movs	r3, #0
 3037 0026 BB73     		strb	r3, [r7, #14]
 3038 0028 21E0     		b	.L49
 3039              	.L52:
 230:rhea\gfx/gfx.c **** 			if (i == 0 || i == width - 1 || j == 0 || j == height - 1) {
 3040              		.loc 1 230 0
 3041 002a FB7B     		ldrb	r3, [r7, #15]	@ zero_extendqisi2
 3042 002c 002B     		cmp	r3, #0
 3043 002e 0CD0     		beq	.L50
 3044              		.loc 1 230 0 is_stmt 0 discriminator 1
 3045 0030 FA7B     		ldrb	r2, [r7, #15]	@ zero_extendqisi2
 3046 0032 FB78     		ldrb	r3, [r7, #3]	@ zero_extendqisi2
 3047 0034 013B     		subs	r3, r3, #1
 3048 0036 9A42     		cmp	r2, r3
 3049 0038 07D0     		beq	.L50
 3050              		.loc 1 230 0 discriminator 2
 3051 003a BB7B     		ldrb	r3, [r7, #14]	@ zero_extendqisi2
 3052 003c 002B     		cmp	r3, #0
 3053 003e 04D0     		beq	.L50
 3054              		.loc 1 230 0 discriminator 3
 3055 0040 BA7B     		ldrb	r2, [r7, #14]	@ zero_extendqisi2
 3056 0042 BB78     		ldrb	r3, [r7, #2]	@ zero_extendqisi2
 3057 0044 013B     		subs	r3, r3, #1
 3058 0046 9A42     		cmp	r2, r3
 3059 0048 0ED1     		bne	.L51
 3060              	.L50:
 231:rhea\gfx/gfx.c **** 				rhea_gfx_writePixel_impl(x + i, y + j, color);
 3061              		.loc 1 231 0 is_stmt 1
ARM GAS  C:\Users\GYULAI~1\AppData\Local\Temp\ccol45rE.s 			page 59


 3062 004a FB7B     		ldrb	r3, [r7, #15]	@ zero_extendqisi2
 3063 004c 9AB2     		uxth	r2, r3
 3064 004e FB88     		ldrh	r3, [r7, #6]	@ movhi
 3065 0050 1344     		add	r3, r3, r2
 3066 0052 98B2     		uxth	r0, r3
 3067 0054 BB7B     		ldrb	r3, [r7, #14]	@ zero_extendqisi2
 3068 0056 9AB2     		uxth	r2, r3
 3069 0058 BB88     		ldrh	r3, [r7, #4]	@ movhi
 3070 005a 1344     		add	r3, r3, r2
 3071 005c 9BB2     		uxth	r3, r3
 3072 005e 97F82020 		ldrb	r2, [r7, #32]	@ zero_extendqisi2
 3073 0062 1946     		mov	r1, r3
 3074 0064 FFF7FEFF 		bl	rhea_gfx_writePixel_impl
 3075              	.L51:
 229:rhea\gfx/gfx.c **** 		for (rhea_gfx_size_t j = 0; j < height; j++) {
 3076              		.loc 1 229 0 discriminator 2
 3077 0068 BB7B     		ldrb	r3, [r7, #14]	@ zero_extendqisi2
 3078 006a 0133     		adds	r3, r3, #1
 3079 006c BB73     		strb	r3, [r7, #14]
 3080              	.L49:
 229:rhea\gfx/gfx.c **** 		for (rhea_gfx_size_t j = 0; j < height; j++) {
 3081              		.loc 1 229 0 is_stmt 0 discriminator 1
 3082 006e BA7B     		ldrb	r2, [r7, #14]	@ zero_extendqisi2
 3083 0070 BB78     		ldrb	r3, [r7, #2]	@ zero_extendqisi2
 3084 0072 9A42     		cmp	r2, r3
 3085 0074 D9D3     		bcc	.L52
 3086              	.LBE13:
 228:rhea\gfx/gfx.c **** 		for (rhea_gfx_size_t j = 0; j < height; j++) {
 3087              		.loc 1 228 0 is_stmt 1 discriminator 2
 3088 0076 FB7B     		ldrb	r3, [r7, #15]	@ zero_extendqisi2
 3089 0078 0133     		adds	r3, r3, #1
 3090 007a FB73     		strb	r3, [r7, #15]
 3091              	.L48:
 228:rhea\gfx/gfx.c **** 		for (rhea_gfx_size_t j = 0; j < height; j++) {
 3092              		.loc 1 228 0 is_stmt 0 discriminator 1
 3093 007c FA7B     		ldrb	r2, [r7, #15]	@ zero_extendqisi2
 3094 007e FB78     		ldrb	r3, [r7, #3]	@ zero_extendqisi2
 3095 0080 9A42     		cmp	r2, r3
 3096 0082 CFD3     		bcc	.L53
 3097              	.LBE12:
 232:rhea\gfx/gfx.c **** 			}
 233:rhea\gfx/gfx.c **** 		}
 234:rhea\gfx/gfx.c **** 	}
 235:rhea\gfx/gfx.c **** 
 236:rhea\gfx/gfx.c **** 	// Refreshing display
 237:rhea\gfx/gfx.c **** 	// rhea_gfx_Refresh();
 238:rhea\gfx/gfx.c **** }
 3098              		.loc 1 238 0 is_stmt 1
 3099 0084 00BF     		nop
 3100 0086 1437     		adds	r7, r7, #20
 3101              		.cfi_def_cfa_offset 12
 3102 0088 BD46     		mov	sp, r7
 3103              		.cfi_def_cfa_register 13
 3104              		@ sp needed
 3105 008a 90BD     		pop	{r4, r7, pc}
 3106              		.cfi_endproc
 3107              	.LFE13:
ARM GAS  C:\Users\GYULAI~1\AppData\Local\Temp\ccol45rE.s 			page 60


 3108              		.size	rhea_gfx_DrawRectangle, .-rhea_gfx_DrawRectangle
 3109              		.section	.text.rhea_gfx_DrawFilledRectangle,"ax",%progbits
 3110              		.align	2
 3111              		.global	rhea_gfx_DrawFilledRectangle
 3112              		.thumb
 3113              		.thumb_func
 3114              		.type	rhea_gfx_DrawFilledRectangle, %function
 3115              	rhea_gfx_DrawFilledRectangle:
 3116              	.LFB14:
 239:rhea\gfx/gfx.c **** 
 240:rhea\gfx/gfx.c **** void rhea_gfx_DrawFilledRectangle(rhea_gfx_coordinate x, rhea_gfx_coordinate y, rhea_gfx_size_t wid
 3117              		.loc 1 240 0
 3118              		.cfi_startproc
 3119              		@ args = 4, pretend = 0, frame = 16
 3120              		@ frame_needed = 1, uses_anonymous_args = 0
 3121 0000 90B5     		push	{r4, r7, lr}
 3122              		.cfi_def_cfa_offset 12
 3123              		.cfi_offset 4, -12
 3124              		.cfi_offset 7, -8
 3125              		.cfi_offset 14, -4
 3126 0002 85B0     		sub	sp, sp, #20
 3127              		.cfi_def_cfa_offset 32
 3128 0004 00AF     		add	r7, sp, #0
 3129              		.cfi_def_cfa_register 7
 3130 0006 0446     		mov	r4, r0
 3131 0008 0846     		mov	r0, r1
 3132 000a 1146     		mov	r1, r2
 3133 000c 1A46     		mov	r2, r3
 3134 000e 2346     		mov	r3, r4	@ movhi
 3135 0010 FB80     		strh	r3, [r7, #6]	@ movhi
 3136 0012 0346     		mov	r3, r0	@ movhi
 3137 0014 BB80     		strh	r3, [r7, #4]	@ movhi
 3138 0016 0B46     		mov	r3, r1
 3139 0018 FB70     		strb	r3, [r7, #3]
 3140 001a 1346     		mov	r3, r2
 3141 001c BB70     		strb	r3, [r7, #2]
 3142              	.LBB14:
 241:rhea\gfx/gfx.c **** 
 242:rhea\gfx/gfx.c **** 	// Drawing filled rectangle
 243:rhea\gfx/gfx.c **** 	for (rhea_gfx_size_t i = 0; i < width; i++) {
 3143              		.loc 1 243 0
 3144 001e 0023     		movs	r3, #0
 3145 0020 FB73     		strb	r3, [r7, #15]
 3146 0022 1BE0     		b	.L55
 3147              	.L58:
 3148              	.LBB15:
 244:rhea\gfx/gfx.c **** 		for (rhea_gfx_size_t j = 0; j < height; j++) {
 3149              		.loc 1 244 0
 3150 0024 0023     		movs	r3, #0
 3151 0026 BB73     		strb	r3, [r7, #14]
 3152 0028 11E0     		b	.L56
 3153              	.L57:
 245:rhea\gfx/gfx.c **** 			rhea_gfx_writePixel_impl(x + i, y + j, color);
 3154              		.loc 1 245 0 discriminator 3
 3155 002a FB7B     		ldrb	r3, [r7, #15]	@ zero_extendqisi2
 3156 002c 9AB2     		uxth	r2, r3
 3157 002e FB88     		ldrh	r3, [r7, #6]	@ movhi
ARM GAS  C:\Users\GYULAI~1\AppData\Local\Temp\ccol45rE.s 			page 61


 3158 0030 1344     		add	r3, r3, r2
 3159 0032 98B2     		uxth	r0, r3
 3160 0034 BB7B     		ldrb	r3, [r7, #14]	@ zero_extendqisi2
 3161 0036 9AB2     		uxth	r2, r3
 3162 0038 BB88     		ldrh	r3, [r7, #4]	@ movhi
 3163 003a 1344     		add	r3, r3, r2
 3164 003c 9BB2     		uxth	r3, r3
 3165 003e 97F82020 		ldrb	r2, [r7, #32]	@ zero_extendqisi2
 3166 0042 1946     		mov	r1, r3
 3167 0044 FFF7FEFF 		bl	rhea_gfx_writePixel_impl
 244:rhea\gfx/gfx.c **** 		for (rhea_gfx_size_t j = 0; j < height; j++) {
 3168              		.loc 1 244 0 discriminator 3
 3169 0048 BB7B     		ldrb	r3, [r7, #14]	@ zero_extendqisi2
 3170 004a 0133     		adds	r3, r3, #1
 3171 004c BB73     		strb	r3, [r7, #14]
 3172              	.L56:
 244:rhea\gfx/gfx.c **** 		for (rhea_gfx_size_t j = 0; j < height; j++) {
 3173              		.loc 1 244 0 is_stmt 0 discriminator 1
 3174 004e BA7B     		ldrb	r2, [r7, #14]	@ zero_extendqisi2
 3175 0050 BB78     		ldrb	r3, [r7, #2]	@ zero_extendqisi2
 3176 0052 9A42     		cmp	r2, r3
 3177 0054 E9D3     		bcc	.L57
 3178              	.LBE15:
 243:rhea\gfx/gfx.c **** 		for (rhea_gfx_size_t j = 0; j < height; j++) {
 3179              		.loc 1 243 0 is_stmt 1 discriminator 2
 3180 0056 FB7B     		ldrb	r3, [r7, #15]	@ zero_extendqisi2
 3181 0058 0133     		adds	r3, r3, #1
 3182 005a FB73     		strb	r3, [r7, #15]
 3183              	.L55:
 243:rhea\gfx/gfx.c **** 		for (rhea_gfx_size_t j = 0; j < height; j++) {
 3184              		.loc 1 243 0 is_stmt 0 discriminator 1
 3185 005c FA7B     		ldrb	r2, [r7, #15]	@ zero_extendqisi2
 3186 005e FB78     		ldrb	r3, [r7, #3]	@ zero_extendqisi2
 3187 0060 9A42     		cmp	r2, r3
 3188 0062 DFD3     		bcc	.L58
 3189              	.LBE14:
 246:rhea\gfx/gfx.c **** 		}
 247:rhea\gfx/gfx.c **** 	}
 248:rhea\gfx/gfx.c **** 
 249:rhea\gfx/gfx.c **** 	// Refreshing display
 250:rhea\gfx/gfx.c **** 	// rhea_gfx_Refresh();
 251:rhea\gfx/gfx.c **** }
 3190              		.loc 1 251 0 is_stmt 1
 3191 0064 00BF     		nop
 3192 0066 1437     		adds	r7, r7, #20
 3193              		.cfi_def_cfa_offset 12
 3194 0068 BD46     		mov	sp, r7
 3195              		.cfi_def_cfa_register 13
 3196              		@ sp needed
 3197 006a 90BD     		pop	{r4, r7, pc}
 3198              		.cfi_endproc
 3199              	.LFE14:
 3200              		.size	rhea_gfx_DrawFilledRectangle, .-rhea_gfx_DrawFilledRectangle
 3201              		.section	.text.rhea_gfx_DrawSymbolHelper,"ax",%progbits
 3202              		.align	2
 3203              		.global	rhea_gfx_DrawSymbolHelper
 3204              		.thumb
ARM GAS  C:\Users\GYULAI~1\AppData\Local\Temp\ccol45rE.s 			page 62


 3205              		.thumb_func
 3206              		.type	rhea_gfx_DrawSymbolHelper, %function
 3207              	rhea_gfx_DrawSymbolHelper:
 3208              	.LFB15:
 252:rhea\gfx/gfx.c **** 
 253:rhea\gfx/gfx.c **** void rhea_gfx_DrawSymbolHelper(rhea_gfx_coordinate x, rhea_gfx_coordinate y, rhea_gfx_symbol_id sym
 3209              		.loc 1 253 0
 3210              		.cfi_startproc
 3211              		@ args = 0, pretend = 0, frame = 32
 3212              		@ frame_needed = 1, uses_anonymous_args = 0
 3213 0000 80B5     		push	{r7, lr}
 3214              		.cfi_def_cfa_offset 8
 3215              		.cfi_offset 7, -8
 3216              		.cfi_offset 14, -4
 3217 0002 88B0     		sub	sp, sp, #32
 3218              		.cfi_def_cfa_offset 40
 3219 0004 00AF     		add	r7, sp, #0
 3220              		.cfi_def_cfa_register 7
 3221 0006 0346     		mov	r3, r0
 3222 0008 FB80     		strh	r3, [r7, #6]	@ movhi
 3223 000a 0B46     		mov	r3, r1	@ movhi
 3224 000c BB80     		strh	r3, [r7, #4]	@ movhi
 3225 000e 1346     		mov	r3, r2	@ movhi
 3226 0010 7B80     		strh	r3, [r7, #2]	@ movhi
 254:rhea\gfx/gfx.c **** 
 255:rhea\gfx/gfx.c **** 	// Extracting symbol descriptor
 256:rhea\gfx/gfx.c **** 	rhea_gfx_symbol symbol = rhea_gfx_localFont.fontDescriptors[symbolID];
 3227              		.loc 1 256 0
 3228 0012 314B     		ldr	r3, .L66
 3229 0014 1A68     		ldr	r2, [r3]
 3230 0016 7B88     		ldrh	r3, [r7, #2]
 3231 0018 DB00     		lsls	r3, r3, #3
 3232 001a 1A44     		add	r2, r2, r3
 3233 001c 07F10803 		add	r3, r7, #8
 3234 0020 92E80300 		ldmia	r2, {r0, r1}
 3235 0024 83E80300 		stmia	r3, {r0, r1}
 257:rhea\gfx/gfx.c **** 
 258:rhea\gfx/gfx.c **** 	// Calculating coordinate limits
 259:rhea\gfx/gfx.c **** 	rhea_gfx_coordinate limitHorizontal = x + symbol.width + symbol.paddingHorizontal;
 3236              		.loc 1 259 0
 3237 0028 3B7B     		ldrb	r3, [r7, #12]	@ zero_extendqisi2
 3238 002a 9AB2     		uxth	r2, r3
 3239 002c FB88     		ldrh	r3, [r7, #6]	@ movhi
 3240 002e 1344     		add	r3, r3, r2
 3241 0030 9AB2     		uxth	r2, r3
 3242 0032 BB7B     		ldrb	r3, [r7, #14]	@ zero_extendqisi2
 3243 0034 9BB2     		uxth	r3, r3
 3244 0036 1344     		add	r3, r3, r2
 3245 0038 7B83     		strh	r3, [r7, #26]	@ movhi
 260:rhea\gfx/gfx.c **** 	rhea_gfx_coordinate limitVertical = y + symbol.height + symbol.paddingVertical;
 3246              		.loc 1 260 0
 3247 003a 7B7B     		ldrb	r3, [r7, #13]	@ zero_extendqisi2
 3248 003c 9AB2     		uxth	r2, r3
 3249 003e BB88     		ldrh	r3, [r7, #4]	@ movhi
 3250 0040 1344     		add	r3, r3, r2
 3251 0042 9AB2     		uxth	r2, r3
 3252 0044 FB7B     		ldrb	r3, [r7, #15]	@ zero_extendqisi2
ARM GAS  C:\Users\GYULAI~1\AppData\Local\Temp\ccol45rE.s 			page 63


 3253 0046 9BB2     		uxth	r3, r3
 3254 0048 1344     		add	r3, r3, r2
 3255 004a 3B83     		strh	r3, [r7, #24]	@ movhi
 3256              	.LBB16:
 261:rhea\gfx/gfx.c **** 
 262:rhea\gfx/gfx.c **** 	for (rhea_gfx_coordinate j = y + symbol.paddingVertical; j < limitVertical; j++) {
 3257              		.loc 1 262 0
 3258 004c FB7B     		ldrb	r3, [r7, #15]	@ zero_extendqisi2
 3259 004e 9AB2     		uxth	r2, r3
 3260 0050 BB88     		ldrh	r3, [r7, #4]	@ movhi
 3261 0052 1344     		add	r3, r3, r2
 3262 0054 FB83     		strh	r3, [r7, #30]	@ movhi
 3263 0056 36E0     		b	.L60
 3264              	.L65:
 3265              	.LBB17:
 263:rhea\gfx/gfx.c **** 		for (rhea_gfx_coordinate i = x + symbol.paddingHorizontal; i < limitHorizontal; i++) {
 3266              		.loc 1 263 0
 3267 0058 BB7B     		ldrb	r3, [r7, #14]	@ zero_extendqisi2
 3268 005a 9AB2     		uxth	r2, r3
 3269 005c FB88     		ldrh	r3, [r7, #6]	@ movhi
 3270 005e 1344     		add	r3, r3, r2
 3271 0060 BB83     		strh	r3, [r7, #28]	@ movhi
 3272 0062 29E0     		b	.L61
 3273              	.L64:
 3274              	.LBB18:
 264:rhea\gfx/gfx.c **** 
 265:rhea\gfx/gfx.c **** 			// Calculating pixel databit position
 266:rhea\gfx/gfx.c **** 			uint32_t byteIndex = symbol.offset / 8;
 3275              		.loc 1 266 0
 3276 0064 BB68     		ldr	r3, [r7, #8]
 3277 0066 DB08     		lsrs	r3, r3, #3
 3278 0068 7B61     		str	r3, [r7, #20]
 267:rhea\gfx/gfx.c **** 			uint8_t  bitIndex  = symbol.offset % 8;
 3279              		.loc 1 267 0
 3280 006a BB68     		ldr	r3, [r7, #8]
 3281 006c DBB2     		uxtb	r3, r3
 3282 006e 03F00703 		and	r3, r3, #7
 3283 0072 FB74     		strb	r3, [r7, #19]
 268:rhea\gfx/gfx.c **** 
 269:rhea\gfx/gfx.c **** 			// Printing next pixel
 270:rhea\gfx/gfx.c **** 			if (rhea_gfx_localFont.fontData[byteIndex] & (1 << (7 - bitIndex))) {
 3284              		.loc 1 270 0
 3285 0074 184B     		ldr	r3, .L66
 3286 0076 5A68     		ldr	r2, [r3, #4]
 3287 0078 7B69     		ldr	r3, [r7, #20]
 3288 007a 1344     		add	r3, r3, r2
 3289 007c 1B78     		ldrb	r3, [r3]	@ zero_extendqisi2
 3290 007e 1A46     		mov	r2, r3
 3291 0080 FB7C     		ldrb	r3, [r7, #19]	@ zero_extendqisi2
 3292 0082 C3F10703 		rsb	r3, r3, #7
 3293 0086 42FA03F3 		asr	r3, r2, r3
 3294 008a 03F00103 		and	r3, r3, #1
 3295 008e 002B     		cmp	r3, #0
 3296 0090 06D0     		beq	.L62
 271:rhea\gfx/gfx.c **** 				rhea_gfx_writePixel_impl(i, j, 1);
 3297              		.loc 1 271 0
 3298 0092 F98B     		ldrh	r1, [r7, #30]
ARM GAS  C:\Users\GYULAI~1\AppData\Local\Temp\ccol45rE.s 			page 64


 3299 0094 BB8B     		ldrh	r3, [r7, #28]
 3300 0096 0122     		movs	r2, #1
 3301 0098 1846     		mov	r0, r3
 3302 009a FFF7FEFF 		bl	rhea_gfx_writePixel_impl
 3303 009e 05E0     		b	.L63
 3304              	.L62:
 272:rhea\gfx/gfx.c **** 			}
 273:rhea\gfx/gfx.c **** 			else {
 274:rhea\gfx/gfx.c **** 				rhea_gfx_writePixel_impl(i, j, 0);
 3305              		.loc 1 274 0
 3306 00a0 F98B     		ldrh	r1, [r7, #30]
 3307 00a2 BB8B     		ldrh	r3, [r7, #28]
 3308 00a4 0022     		movs	r2, #0
 3309 00a6 1846     		mov	r0, r3
 3310 00a8 FFF7FEFF 		bl	rhea_gfx_writePixel_impl
 3311              	.L63:
 275:rhea\gfx/gfx.c **** 			}
 276:rhea\gfx/gfx.c **** 
 277:rhea\gfx/gfx.c **** 			// Increasing offset
 278:rhea\gfx/gfx.c **** 			symbol.offset++;
 3312              		.loc 1 278 0 discriminator 2
 3313 00ac BB68     		ldr	r3, [r7, #8]
 3314 00ae 0133     		adds	r3, r3, #1
 3315 00b0 BB60     		str	r3, [r7, #8]
 3316              	.LBE18:
 263:rhea\gfx/gfx.c **** 
 3317              		.loc 1 263 0 discriminator 2
 3318 00b2 BB8B     		ldrh	r3, [r7, #28]
 3319 00b4 0133     		adds	r3, r3, #1
 3320 00b6 BB83     		strh	r3, [r7, #28]	@ movhi
 3321              	.L61:
 263:rhea\gfx/gfx.c **** 
 3322              		.loc 1 263 0 is_stmt 0 discriminator 1
 3323 00b8 BA8B     		ldrh	r2, [r7, #28]
 3324 00ba 7B8B     		ldrh	r3, [r7, #26]
 3325 00bc 9A42     		cmp	r2, r3
 3326 00be D1D3     		bcc	.L64
 3327              	.LBE17:
 262:rhea\gfx/gfx.c **** 		for (rhea_gfx_coordinate i = x + symbol.paddingHorizontal; i < limitHorizontal; i++) {
 3328              		.loc 1 262 0 is_stmt 1 discriminator 2
 3329 00c0 FB8B     		ldrh	r3, [r7, #30]
 3330 00c2 0133     		adds	r3, r3, #1
 3331 00c4 FB83     		strh	r3, [r7, #30]	@ movhi
 3332              	.L60:
 262:rhea\gfx/gfx.c **** 		for (rhea_gfx_coordinate i = x + symbol.paddingHorizontal; i < limitHorizontal; i++) {
 3333              		.loc 1 262 0 is_stmt 0 discriminator 1
 3334 00c6 FA8B     		ldrh	r2, [r7, #30]
 3335 00c8 3B8B     		ldrh	r3, [r7, #24]
 3336 00ca 9A42     		cmp	r2, r3
 3337 00cc C4D3     		bcc	.L65
 3338              	.LBE16:
 279:rhea\gfx/gfx.c **** 		}
 280:rhea\gfx/gfx.c **** 	}
 281:rhea\gfx/gfx.c **** }
 3339              		.loc 1 281 0 is_stmt 1
 3340 00ce 00BF     		nop
 3341 00d0 2037     		adds	r7, r7, #32
ARM GAS  C:\Users\GYULAI~1\AppData\Local\Temp\ccol45rE.s 			page 65


 3342              		.cfi_def_cfa_offset 8
 3343 00d2 BD46     		mov	sp, r7
 3344              		.cfi_def_cfa_register 13
 3345              		@ sp needed
 3346 00d4 80BD     		pop	{r7, pc}
 3347              	.L67:
 3348 00d6 00BF     		.align	2
 3349              	.L66:
 3350 00d8 00000000 		.word	rhea_gfx_localFont
 3351              		.cfi_endproc
 3352              	.LFE15:
 3353              		.size	rhea_gfx_DrawSymbolHelper, .-rhea_gfx_DrawSymbolHelper
 3354              		.section	.text.rhea_gfx_DrawSymbol,"ax",%progbits
 3355              		.align	2
 3356              		.global	rhea_gfx_DrawSymbol
 3357              		.thumb
 3358              		.thumb_func
 3359              		.type	rhea_gfx_DrawSymbol, %function
 3360              	rhea_gfx_DrawSymbol:
 3361              	.LFB16:
 282:rhea\gfx/gfx.c **** 
 283:rhea\gfx/gfx.c **** void rhea_gfx_DrawSymbol(rhea_gfx_coordinate x, rhea_gfx_coordinate y, rhea_gfx_symbol_id symbolID)
 3362              		.loc 1 283 0
 3363              		.cfi_startproc
 3364              		@ args = 0, pretend = 0, frame = 8
 3365              		@ frame_needed = 1, uses_anonymous_args = 0
 3366 0000 80B5     		push	{r7, lr}
 3367              		.cfi_def_cfa_offset 8
 3368              		.cfi_offset 7, -8
 3369              		.cfi_offset 14, -4
 3370 0002 82B0     		sub	sp, sp, #8
 3371              		.cfi_def_cfa_offset 16
 3372 0004 00AF     		add	r7, sp, #0
 3373              		.cfi_def_cfa_register 7
 3374 0006 0346     		mov	r3, r0
 3375 0008 FB80     		strh	r3, [r7, #6]	@ movhi
 3376 000a 0B46     		mov	r3, r1	@ movhi
 3377 000c BB80     		strh	r3, [r7, #4]	@ movhi
 3378 000e 1346     		mov	r3, r2	@ movhi
 3379 0010 7B80     		strh	r3, [r7, #2]	@ movhi
 284:rhea\gfx/gfx.c ****     
 285:rhea\gfx/gfx.c ****     // Drawing symbol to display buffer
 286:rhea\gfx/gfx.c ****     rhea_gfx_DrawSymbolHelper(x,y,symbolID);
 3380              		.loc 1 286 0
 3381 0012 7A88     		ldrh	r2, [r7, #2]
 3382 0014 B988     		ldrh	r1, [r7, #4]
 3383 0016 FB88     		ldrh	r3, [r7, #6]
 3384 0018 1846     		mov	r0, r3
 3385 001a FFF7FEFF 		bl	rhea_gfx_DrawSymbolHelper
 287:rhea\gfx/gfx.c ****     
 288:rhea\gfx/gfx.c ****     // Refreshing display
 289:rhea\gfx/gfx.c **** 	// rhea_gfx_Refresh();
 290:rhea\gfx/gfx.c **** }
 3386              		.loc 1 290 0
 3387 001e 00BF     		nop
 3388 0020 0837     		adds	r7, r7, #8
 3389              		.cfi_def_cfa_offset 8
ARM GAS  C:\Users\GYULAI~1\AppData\Local\Temp\ccol45rE.s 			page 66


 3390 0022 BD46     		mov	sp, r7
 3391              		.cfi_def_cfa_register 13
 3392              		@ sp needed
 3393 0024 80BD     		pop	{r7, pc}
 3394              		.cfi_endproc
 3395              	.LFE16:
 3396              		.size	rhea_gfx_DrawSymbol, .-rhea_gfx_DrawSymbol
 3397 0026 00BF     		.section	.text.rhea_gfx_SetCursor,"ax",%progbits
 3398              		.align	2
 3399              		.global	rhea_gfx_SetCursor
 3400              		.thumb
 3401              		.thumb_func
 3402              		.type	rhea_gfx_SetCursor, %function
 3403              	rhea_gfx_SetCursor:
 3404              	.LFB17:
 291:rhea\gfx/gfx.c **** 
 292:rhea\gfx/gfx.c **** void rhea_gfx_SetCursor(rhea_gfx_coordinate x, rhea_gfx_coordinate y) {
 3405              		.loc 1 292 0
 3406              		.cfi_startproc
 3407              		@ args = 0, pretend = 0, frame = 8
 3408              		@ frame_needed = 1, uses_anonymous_args = 0
 3409              		@ link register save eliminated.
 3410 0000 80B4     		push	{r7}
 3411              		.cfi_def_cfa_offset 4
 3412              		.cfi_offset 7, -4
 3413 0002 83B0     		sub	sp, sp, #12
 3414              		.cfi_def_cfa_offset 16
 3415 0004 00AF     		add	r7, sp, #0
 3416              		.cfi_def_cfa_register 7
 3417 0006 0346     		mov	r3, r0
 3418 0008 0A46     		mov	r2, r1
 3419 000a FB80     		strh	r3, [r7, #6]	@ movhi
 3420 000c 1346     		mov	r3, r2	@ movhi
 3421 000e BB80     		strh	r3, [r7, #4]	@ movhi
 293:rhea\gfx/gfx.c **** 	rhea_gfx_cursorX = x;
 3422              		.loc 1 293 0
 3423 0010 054A     		ldr	r2, .L70
 3424 0012 FB88     		ldrh	r3, [r7, #6]	@ movhi
 3425 0014 1380     		strh	r3, [r2]	@ movhi
 294:rhea\gfx/gfx.c **** 	rhea_gfx_cursorY = y;
 3426              		.loc 1 294 0
 3427 0016 054A     		ldr	r2, .L70+4
 3428 0018 BB88     		ldrh	r3, [r7, #4]	@ movhi
 3429 001a 1380     		strh	r3, [r2]	@ movhi
 295:rhea\gfx/gfx.c **** }
 3430              		.loc 1 295 0
 3431 001c 00BF     		nop
 3432 001e 0C37     		adds	r7, r7, #12
 3433              		.cfi_def_cfa_offset 4
 3434 0020 BD46     		mov	sp, r7
 3435              		.cfi_def_cfa_register 13
 3436              		@ sp needed
 3437 0022 80BC     		pop	{r7}
 3438              		.cfi_restore 7
 3439              		.cfi_def_cfa_offset 0
 3440 0024 7047     		bx	lr
 3441              	.L71:
ARM GAS  C:\Users\GYULAI~1\AppData\Local\Temp\ccol45rE.s 			page 67


 3442 0026 00BF     		.align	2
 3443              	.L70:
 3444 0028 0C000000 		.word	rhea_gfx_cursorX
 3445 002c 0E000000 		.word	rhea_gfx_cursorY
 3446              		.cfi_endproc
 3447              	.LFE17:
 3448              		.size	rhea_gfx_SetCursor, .-rhea_gfx_SetCursor
 3449              		.section	.text.rhea_gfx_PrintSymbolHelper,"ax",%progbits
 3450              		.align	2
 3451              		.global	rhea_gfx_PrintSymbolHelper
 3452              		.thumb
 3453              		.thumb_func
 3454              		.type	rhea_gfx_PrintSymbolHelper, %function
 3455              	rhea_gfx_PrintSymbolHelper:
 3456              	.LFB18:
 296:rhea\gfx/gfx.c **** 
 297:rhea\gfx/gfx.c **** void rhea_gfx_PrintSymbolHelper(rhea_gfx_symbol_id id) {
 3457              		.loc 1 297 0
 3458              		.cfi_startproc
 3459              		@ args = 0, pretend = 0, frame = 16
 3460              		@ frame_needed = 1, uses_anonymous_args = 0
 3461 0000 80B5     		push	{r7, lr}
 3462              		.cfi_def_cfa_offset 8
 3463              		.cfi_offset 7, -8
 3464              		.cfi_offset 14, -4
 3465 0002 84B0     		sub	sp, sp, #16
 3466              		.cfi_def_cfa_offset 24
 3467 0004 00AF     		add	r7, sp, #0
 3468              		.cfi_def_cfa_register 7
 3469 0006 0346     		mov	r3, r0
 3470 0008 FB80     		strh	r3, [r7, #6]	@ movhi
 298:rhea\gfx/gfx.c **** 
 299:rhea\gfx/gfx.c **** 	// Getting symbol to print
 300:rhea\gfx/gfx.c **** 	rhea_gfx_symbol symbol = rhea_gfx_localFont.fontDescriptors[id];
 3471              		.loc 1 300 0
 3472 000a 1C4B     		ldr	r3, .L74
 3473 000c 1A68     		ldr	r2, [r3]
 3474 000e FB88     		ldrh	r3, [r7, #6]
 3475 0010 DB00     		lsls	r3, r3, #3
 3476 0012 1A44     		add	r2, r2, r3
 3477 0014 07F10803 		add	r3, r7, #8
 3478 0018 92E80300 		ldmia	r2, {r0, r1}
 3479 001c 83E80300 		stmia	r3, {r0, r1}
 301:rhea\gfx/gfx.c **** 
 302:rhea\gfx/gfx.c **** 	// Checking display bounds
 303:rhea\gfx/gfx.c **** 	if (rhea_gfx_cursorX + symbol.width > RHEA_GFX_WIDTH) {
 3480              		.loc 1 303 0
 3481 0020 174B     		ldr	r3, .L74+4
 3482 0022 1B88     		ldrh	r3, [r3]
 3483 0024 1A46     		mov	r2, r3
 3484 0026 3B7B     		ldrb	r3, [r7, #12]	@ zero_extendqisi2
 3485 0028 1344     		add	r3, r3, r2
 3486 002a 802B     		cmp	r3, #128
 3487 002c 0EDD     		ble	.L73
 304:rhea\gfx/gfx.c **** 		rhea_gfx_cursorX = 0;
 3488              		.loc 1 304 0
 3489 002e 144B     		ldr	r3, .L74+4
ARM GAS  C:\Users\GYULAI~1\AppData\Local\Temp\ccol45rE.s 			page 68


 3490 0030 0022     		movs	r2, #0
 3491 0032 1A80     		strh	r2, [r3]	@ movhi
 305:rhea\gfx/gfx.c **** 		rhea_gfx_cursorY += symbol.height + symbol.paddingVertical;
 3492              		.loc 1 305 0
 3493 0034 7B7B     		ldrb	r3, [r7, #13]	@ zero_extendqisi2
 3494 0036 9AB2     		uxth	r2, r3
 3495 0038 FB7B     		ldrb	r3, [r7, #15]	@ zero_extendqisi2
 3496 003a 9BB2     		uxth	r3, r3
 3497 003c 1344     		add	r3, r3, r2
 3498 003e 9AB2     		uxth	r2, r3
 3499 0040 104B     		ldr	r3, .L74+8
 3500 0042 1B88     		ldrh	r3, [r3]
 3501 0044 1344     		add	r3, r3, r2
 3502 0046 9AB2     		uxth	r2, r3
 3503 0048 0E4B     		ldr	r3, .L74+8
 3504 004a 1A80     		strh	r2, [r3]	@ movhi
 3505              	.L73:
 306:rhea\gfx/gfx.c **** 	}
 307:rhea\gfx/gfx.c **** 
 308:rhea\gfx/gfx.c **** 	// Printing symbol
 309:rhea\gfx/gfx.c **** 	rhea_gfx_DrawSymbolHelper(rhea_gfx_cursorX, rhea_gfx_cursorY, id);
 3506              		.loc 1 309 0
 3507 004c 0C4B     		ldr	r3, .L74+4
 3508 004e 1888     		ldrh	r0, [r3]
 3509 0050 0C4B     		ldr	r3, .L74+8
 3510 0052 1B88     		ldrh	r3, [r3]
 3511 0054 FA88     		ldrh	r2, [r7, #6]
 3512 0056 1946     		mov	r1, r3
 3513 0058 FFF7FEFF 		bl	rhea_gfx_DrawSymbolHelper
 310:rhea\gfx/gfx.c **** 
 311:rhea\gfx/gfx.c **** 	// Moving cursor
 312:rhea\gfx/gfx.c **** 	rhea_gfx_cursorX += symbol.width + symbol.paddingHorizontal;
 3514              		.loc 1 312 0
 3515 005c 3B7B     		ldrb	r3, [r7, #12]	@ zero_extendqisi2
 3516 005e 9AB2     		uxth	r2, r3
 3517 0060 BB7B     		ldrb	r3, [r7, #14]	@ zero_extendqisi2
 3518 0062 9BB2     		uxth	r3, r3
 3519 0064 1344     		add	r3, r3, r2
 3520 0066 9AB2     		uxth	r2, r3
 3521 0068 054B     		ldr	r3, .L74+4
 3522 006a 1B88     		ldrh	r3, [r3]
 3523 006c 1344     		add	r3, r3, r2
 3524 006e 9AB2     		uxth	r2, r3
 3525 0070 034B     		ldr	r3, .L74+4
 3526 0072 1A80     		strh	r2, [r3]	@ movhi
 313:rhea\gfx/gfx.c **** }
 3527              		.loc 1 313 0
 3528 0074 00BF     		nop
 3529 0076 1037     		adds	r7, r7, #16
 3530              		.cfi_def_cfa_offset 8
 3531 0078 BD46     		mov	sp, r7
 3532              		.cfi_def_cfa_register 13
 3533              		@ sp needed
 3534 007a 80BD     		pop	{r7, pc}
 3535              	.L75:
 3536              		.align	2
 3537              	.L74:
ARM GAS  C:\Users\GYULAI~1\AppData\Local\Temp\ccol45rE.s 			page 69


 3538 007c 00000000 		.word	rhea_gfx_localFont
 3539 0080 0C000000 		.word	rhea_gfx_cursorX
 3540 0084 0E000000 		.word	rhea_gfx_cursorY
 3541              		.cfi_endproc
 3542              	.LFE18:
 3543              		.size	rhea_gfx_PrintSymbolHelper, .-rhea_gfx_PrintSymbolHelper
 3544              		.section	.text.rhea_gfx_PrintSymbol,"ax",%progbits
 3545              		.align	2
 3546              		.global	rhea_gfx_PrintSymbol
 3547              		.thumb
 3548              		.thumb_func
 3549              		.type	rhea_gfx_PrintSymbol, %function
 3550              	rhea_gfx_PrintSymbol:
 3551              	.LFB19:
 314:rhea\gfx/gfx.c **** 
 315:rhea\gfx/gfx.c **** void rhea_gfx_PrintSymbol(rhea_gfx_symbol_id id) {
 3552              		.loc 1 315 0
 3553              		.cfi_startproc
 3554              		@ args = 0, pretend = 0, frame = 8
 3555              		@ frame_needed = 1, uses_anonymous_args = 0
 3556 0000 80B5     		push	{r7, lr}
 3557              		.cfi_def_cfa_offset 8
 3558              		.cfi_offset 7, -8
 3559              		.cfi_offset 14, -4
 3560 0002 82B0     		sub	sp, sp, #8
 3561              		.cfi_def_cfa_offset 16
 3562 0004 00AF     		add	r7, sp, #0
 3563              		.cfi_def_cfa_register 7
 3564 0006 0346     		mov	r3, r0
 3565 0008 FB80     		strh	r3, [r7, #6]	@ movhi
 316:rhea\gfx/gfx.c ****  
 317:rhea\gfx/gfx.c ****     // Printing symbol to display buffer
 318:rhea\gfx/gfx.c ****     rhea_gfx_PrintSymbolHelper(id);
 3566              		.loc 1 318 0
 3567 000a FB88     		ldrh	r3, [r7, #6]
 3568 000c 1846     		mov	r0, r3
 3569 000e FFF7FEFF 		bl	rhea_gfx_PrintSymbolHelper
 319:rhea\gfx/gfx.c ****     
 320:rhea\gfx/gfx.c ****     // Refreshing display
 321:rhea\gfx/gfx.c ****     // rhea_gfx_Refresh();
 322:rhea\gfx/gfx.c **** }
 3570              		.loc 1 322 0
 3571 0012 00BF     		nop
 3572 0014 0837     		adds	r7, r7, #8
 3573              		.cfi_def_cfa_offset 8
 3574 0016 BD46     		mov	sp, r7
 3575              		.cfi_def_cfa_register 13
 3576              		@ sp needed
 3577 0018 80BD     		pop	{r7, pc}
 3578              		.cfi_endproc
 3579              	.LFE19:
 3580              		.size	rhea_gfx_PrintSymbol, .-rhea_gfx_PrintSymbol
 3581 001a 00BF     		.section	.text.rhea_gfx_Print,"ax",%progbits
 3582              		.align	2
 3583              		.global	rhea_gfx_Print
 3584              		.thumb
 3585              		.thumb_func
ARM GAS  C:\Users\GYULAI~1\AppData\Local\Temp\ccol45rE.s 			page 70


 3586              		.type	rhea_gfx_Print, %function
 3587              	rhea_gfx_Print:
 3588              	.LFB20:
 323:rhea\gfx/gfx.c **** 
 324:rhea\gfx/gfx.c **** void rhea_gfx_Print(const char* str) {
 3589              		.loc 1 324 0
 3590              		.cfi_startproc
 3591              		@ args = 0, pretend = 0, frame = 8
 3592              		@ frame_needed = 1, uses_anonymous_args = 0
 3593 0000 80B5     		push	{r7, lr}
 3594              		.cfi_def_cfa_offset 8
 3595              		.cfi_offset 7, -8
 3596              		.cfi_offset 14, -4
 3597 0002 82B0     		sub	sp, sp, #8
 3598              		.cfi_def_cfa_offset 16
 3599 0004 00AF     		add	r7, sp, #0
 3600              		.cfi_def_cfa_register 7
 3601 0006 7860     		str	r0, [r7, #4]
 325:rhea\gfx/gfx.c **** 
 326:rhea\gfx/gfx.c **** 	while (*str != '\0') {
 3602              		.loc 1 326 0
 3603 0008 25E0     		b	.L78
 3604              	.L81:
 327:rhea\gfx/gfx.c **** 
 328:rhea\gfx/gfx.c **** 		// Handling newline character
 329:rhea\gfx/gfx.c **** 		if (*str == '\n') {
 3605              		.loc 1 329 0
 3606 000a 7B68     		ldr	r3, [r7, #4]
 3607 000c 1B78     		ldrb	r3, [r3]	@ zero_extendqisi2
 3608 000e 0A2B     		cmp	r3, #10
 3609 0010 0FD1     		bne	.L79
 330:rhea\gfx/gfx.c **** 			rhea_gfx_cursorX = 0;
 3610              		.loc 1 330 0
 3611 0012 154B     		ldr	r3, .L82
 3612 0014 0022     		movs	r2, #0
 3613 0016 1A80     		strh	r2, [r3]	@ movhi
 331:rhea\gfx/gfx.c **** 			rhea_gfx_cursorY += rhea_gfx_localFont.fontHeight;
 3614              		.loc 1 331 0
 3615 0018 144B     		ldr	r3, .L82+4
 3616 001a 1B7A     		ldrb	r3, [r3, #8]	@ zero_extendqisi2
 3617 001c 9AB2     		uxth	r2, r3
 3618 001e 144B     		ldr	r3, .L82+8
 3619 0020 1B88     		ldrh	r3, [r3]
 3620 0022 1344     		add	r3, r3, r2
 3621 0024 9AB2     		uxth	r2, r3
 3622 0026 124B     		ldr	r3, .L82+8
 3623 0028 1A80     		strh	r2, [r3]	@ movhi
 332:rhea\gfx/gfx.c **** 			str++;
 3624              		.loc 1 332 0
 3625 002a 7B68     		ldr	r3, [r7, #4]
 3626 002c 0133     		adds	r3, r3, #1
 3627 002e 7B60     		str	r3, [r7, #4]
 333:rhea\gfx/gfx.c **** 			continue;
 3628              		.loc 1 333 0
 3629 0030 11E0     		b	.L78
 3630              	.L79:
 334:rhea\gfx/gfx.c **** 		}
ARM GAS  C:\Users\GYULAI~1\AppData\Local\Temp\ccol45rE.s 			page 71


 335:rhea\gfx/gfx.c **** 		// Handling unprintable characters
 336:rhea\gfx/gfx.c **** 		else if(*str < 32) {
 3631              		.loc 1 336 0
 3632 0032 7B68     		ldr	r3, [r7, #4]
 3633 0034 1B78     		ldrb	r3, [r3]	@ zero_extendqisi2
 3634 0036 1F2B     		cmp	r3, #31
 3635 0038 03D8     		bhi	.L80
 337:rhea\gfx/gfx.c **** 			str++;
 3636              		.loc 1 337 0
 3637 003a 7B68     		ldr	r3, [r7, #4]
 3638 003c 0133     		adds	r3, r3, #1
 3639 003e 7B60     		str	r3, [r7, #4]
 338:rhea\gfx/gfx.c **** 			continue;
 3640              		.loc 1 338 0
 3641 0040 09E0     		b	.L78
 3642              	.L80:
 339:rhea\gfx/gfx.c **** 		}
 340:rhea\gfx/gfx.c **** 
 341:rhea\gfx/gfx.c **** 		// Printing next character
 342:rhea\gfx/gfx.c **** 		rhea_gfx_PrintSymbolHelper(*str++ - 32);
 3643              		.loc 1 342 0
 3644 0042 7B68     		ldr	r3, [r7, #4]
 3645 0044 5A1C     		adds	r2, r3, #1
 3646 0046 7A60     		str	r2, [r7, #4]
 3647 0048 1B78     		ldrb	r3, [r3]	@ zero_extendqisi2
 3648 004a 9BB2     		uxth	r3, r3
 3649 004c 203B     		subs	r3, r3, #32
 3650 004e 9BB2     		uxth	r3, r3
 3651 0050 1846     		mov	r0, r3
 3652 0052 FFF7FEFF 		bl	rhea_gfx_PrintSymbolHelper
 3653              	.L78:
 326:rhea\gfx/gfx.c **** 
 3654              		.loc 1 326 0
 3655 0056 7B68     		ldr	r3, [r7, #4]
 3656 0058 1B78     		ldrb	r3, [r3]	@ zero_extendqisi2
 3657 005a 002B     		cmp	r3, #0
 3658 005c D5D1     		bne	.L81
 343:rhea\gfx/gfx.c **** 	}
 344:rhea\gfx/gfx.c ****     
 345:rhea\gfx/gfx.c ****     // Refreshing display
 346:rhea\gfx/gfx.c ****     // rhea_gfx_Refresh();
 347:rhea\gfx/gfx.c **** }
 3659              		.loc 1 347 0
 3660 005e 00BF     		nop
 3661 0060 0837     		adds	r7, r7, #8
 3662              		.cfi_def_cfa_offset 8
 3663 0062 BD46     		mov	sp, r7
 3664              		.cfi_def_cfa_register 13
 3665              		@ sp needed
 3666 0064 80BD     		pop	{r7, pc}
 3667              	.L83:
 3668 0066 00BF     		.align	2
 3669              	.L82:
 3670 0068 0C000000 		.word	rhea_gfx_cursorX
 3671 006c 00000000 		.word	rhea_gfx_localFont
 3672 0070 0E000000 		.word	rhea_gfx_cursorY
 3673              		.cfi_endproc
ARM GAS  C:\Users\GYULAI~1\AppData\Local\Temp\ccol45rE.s 			page 72


 3674              	.LFE20:
 3675              		.size	rhea_gfx_Print, .-rhea_gfx_Print
 3676              		.text
 3677              	.Letext0:
 3678              		.file 2 "e:\\cypress\\psoc creator\\4.2\\psoc creator\\import\\gnu\\arm\\5.4.1\\arm-none-eabi\\inc
 3679              		.file 3 "e:\\cypress\\psoc creator\\4.2\\psoc creator\\import\\gnu\\arm\\5.4.1\\arm-none-eabi\\inc
 3680              		.file 4 "rhea\\gfx\\gfx.h"
 3681              		.file 5 "rhea\\gfx\\fonts/codefont_8x8.h"