ARM GAS  C:\Users\GYULAI~1\AppData\Local\Temp\ccjFV3Tn.s 			page 1


   1              		.syntax unified
   2              		.cpu cortex-m3
   3              		.fpu softvfp
   4              		.eabi_attribute 20, 1
   5              		.eabi_attribute 21, 1
   6              		.eabi_attribute 23, 3
   7              		.eabi_attribute 24, 1
   8              		.eabi_attribute 25, 1
   9              		.eabi_attribute 26, 1
  10              		.eabi_attribute 30, 1
  11              		.eabi_attribute 34, 1
  12              		.eabi_attribute 18, 4
  13              		.thumb
  14              		.syntax unified
  15              		.file	"gfx.c"
  16              		.text
  17              	.Ltext0:
  18              		.cfi_sections	.debug_frame
  19              		.section	.text.rhea_gfx_Initialize,"ax",%progbits
  20              		.align	2
  21              		.global	rhea_gfx_Initialize
  22              		.thumb
  23              		.thumb_func
  24              		.type	rhea_gfx_Initialize, %function
  25              	rhea_gfx_Initialize:
  26              	.LFB0:
  27              		.file 1 "rhea\\gfx\\gfx.c"
   1:rhea\gfx/gfx.c **** /*********************************************************************************
   2:rhea\gfx/gfx.c ****  * Copyright (c) 2020 Peter Gyulai
   3:rhea\gfx/gfx.c ****  *
   4:rhea\gfx/gfx.c ****  * Permission is hereby granted, free of charge, to any person obtaining a copy
   5:rhea\gfx/gfx.c ****  * of this software and associated documentation files (the "Software"), to deal
   6:rhea\gfx/gfx.c ****  * in the Software without restriction, including without limitation the rights
   7:rhea\gfx/gfx.c ****  * to use, copy, modify, merge, publish, distribute, sublicense, and/or sell
   8:rhea\gfx/gfx.c ****  * copies of the Software, and to permit persons to whom the Software is
   9:rhea\gfx/gfx.c ****  * furnished to do so, subject to the following conditions:
  10:rhea\gfx/gfx.c ****  *
  11:rhea\gfx/gfx.c ****  * The above copyright notice and this permission notice shall be included in all
  12:rhea\gfx/gfx.c ****  * copies or substantial portions of the Software.
  13:rhea\gfx/gfx.c ****  *
  14:rhea\gfx/gfx.c ****  * THE SOFTWARE IS PROVIDED "AS IS", WITHOUT WARRANTY OF ANY KIND,
  15:rhea\gfx/gfx.c ****  * EXPRESS OR IMPLIED, INCLUDING BUT NOT LIMITED TO THE WARRANTIES OF
  16:rhea\gfx/gfx.c ****  * MERCHANTABILITY, FITNESS FOR A PARTICULAR PURPOSE AND NONINFRINGEMENT.
  17:rhea\gfx/gfx.c ****  * IN NO EVENT SHALL THE AUTHORS OR COPYRIGHT HOLDERS BE LIABLE FOR ANY CLAIM,
  18:rhea\gfx/gfx.c ****  * DAMAGES OR OTHER LIABILITY, WHETHER IN AN ACTION OF CONTRACT, TORT OR
  19:rhea\gfx/gfx.c ****  * OTHERWISE, ARISING FROM, OUT OF OR IN CONNECTION WITH THE SOFTWARE OR THE USE
  20:rhea\gfx/gfx.c ****  * OR OTHER DEALINGS IN THE SOFTWARE.
  21:rhea\gfx/gfx.c **** **********************************************************************************/
  22:rhea\gfx/gfx.c **** 
  23:rhea\gfx/gfx.c **** /**
  24:rhea\gfx/gfx.c ****  * @file    gfx.c
  25:rhea\gfx/gfx.c ****  * @author  Peter Gyulai
  26:rhea\gfx/gfx.c ****  * @version 1.0.0
  27:rhea\gfx/gfx.c ****  * @date    2020.04.19
  28:rhea\gfx/gfx.c ****  * @brief   Library implementation.
  29:rhea\gfx/gfx.c ****  * @details
  30:rhea\gfx/gfx.c ****  * This file contains the function definitions used by the Rhea graphics library.
ARM GAS  C:\Users\GYULAI~1\AppData\Local\Temp\ccjFV3Tn.s 			page 2


  31:rhea\gfx/gfx.c ****  */
  32:rhea\gfx/gfx.c **** 
  33:rhea\gfx/gfx.c **** // Doxygen documentation duplication suppression
  34:rhea\gfx/gfx.c **** #ifndef DOXYGEN_SHOULD_SKIP_THIS
  35:rhea\gfx/gfx.c **** 
  36:rhea\gfx/gfx.c **** // Standard includes
  37:rhea\gfx/gfx.c **** #include <math.h>
  38:rhea\gfx/gfx.c **** #include <stdlib.h>
  39:rhea\gfx/gfx.c **** 
  40:rhea\gfx/gfx.c **** // Project includes
  41:rhea\gfx/gfx.c **** #include "gfx.h"
  42:rhea\gfx/gfx.c **** #include "gfx_impl.h"
  43:rhea\gfx/gfx.c **** #include "fonts/codefont_8x8.h"
  44:rhea\gfx/gfx.c ****     
  45:rhea\gfx/gfx.c ****     
  46:rhea\gfx/gfx.c **** // Local font settings & data
  47:rhea\gfx/gfx.c **** static rhea_gfx_font rhea_gfx_localFont;
  48:rhea\gfx/gfx.c **** 
  49:rhea\gfx/gfx.c **** // Local cursor position
  50:rhea\gfx/gfx.c **** static rhea_gfx_coordinate rhea_gfx_cursorX = 0;
  51:rhea\gfx/gfx.c **** static rhea_gfx_coordinate rhea_gfx_cursorY = 0;
  52:rhea\gfx/gfx.c **** 
  53:rhea\gfx/gfx.c **** void rhea_gfx_Initialize(void) {
  28              		.loc 1 53 0
  29              		.cfi_startproc
  30              		@ args = 0, pretend = 0, frame = 0
  31              		@ frame_needed = 0, uses_anonymous_args = 0
  32 0000 08B5     		push	{r3, lr}
  33              		.cfi_def_cfa_offset 8
  34              		.cfi_offset 3, -8
  35              		.cfi_offset 14, -4
  54:rhea\gfx/gfx.c **** 
  55:rhea\gfx/gfx.c **** 	// Invoking driver implementation
  56:rhea\gfx/gfx.c **** 	rhea_gfx_initialize_impl();
  36              		.loc 1 56 0
  37 0002 FFF7FEFF 		bl	rhea_gfx_initialize_impl
  38              	.LVL0:
  57:rhea\gfx/gfx.c **** 
  58:rhea\gfx/gfx.c **** 	// Initializing default fonts
  59:rhea\gfx/gfx.c **** 	rhea_gfx_localFont = (rhea_gfx_font) {
  39              		.loc 1 59 0
  40 0006 044B     		ldr	r3, .L3
  41 0008 044A     		ldr	r2, .L3+4
  42 000a 07CA     		ldmia	r2, {r0, r1, r2}
  43 000c 83E80700 		stmia	r3, {r0, r1, r2}
  60:rhea\gfx/gfx.c **** 		.fontDescriptors = codefont_8x8_descriptors,
  61:rhea\gfx/gfx.c **** 		.fontData        = codefont_8x8_data,
  62:rhea\gfx/gfx.c **** 		.fontHeight      = 8
  63:rhea\gfx/gfx.c **** 	};
  64:rhea\gfx/gfx.c **** 
  65:rhea\gfx/gfx.c **** 	// Initializing text cursor
  66:rhea\gfx/gfx.c **** 	rhea_gfx_cursorX = 0;
  44              		.loc 1 66 0
  45 0010 0022     		movs	r2, #0
  46 0012 9A81     		strh	r2, [r3, #12]	@ movhi
  67:rhea\gfx/gfx.c **** 	rhea_gfx_cursorY = 0;
  47              		.loc 1 67 0
ARM GAS  C:\Users\GYULAI~1\AppData\Local\Temp\ccjFV3Tn.s 			page 3


  48 0014 DA81     		strh	r2, [r3, #14]	@ movhi
  49 0016 08BD     		pop	{r3, pc}
  50              	.L4:
  51              		.align	2
  52              	.L3:
  53 0018 00000000 		.word	.LANCHOR0
  54 001c 00000000 		.word	.LANCHOR1
  55              		.cfi_endproc
  56              	.LFE0:
  57              		.size	rhea_gfx_Initialize, .-rhea_gfx_Initialize
  58              		.section	.text.rhea_gfx_Reset,"ax",%progbits
  59              		.align	2
  60              		.global	rhea_gfx_Reset
  61              		.thumb
  62              		.thumb_func
  63              		.type	rhea_gfx_Reset, %function
  64              	rhea_gfx_Reset:
  65              	.LFB1:
  68:rhea\gfx/gfx.c **** }
  69:rhea\gfx/gfx.c **** 
  70:rhea\gfx/gfx.c **** void rhea_gfx_Reset(void) {
  66              		.loc 1 70 0
  67              		.cfi_startproc
  68              		@ args = 0, pretend = 0, frame = 0
  69              		@ frame_needed = 0, uses_anonymous_args = 0
  70 0000 08B5     		push	{r3, lr}
  71              		.cfi_def_cfa_offset 8
  72              		.cfi_offset 3, -8
  73              		.cfi_offset 14, -4
  71:rhea\gfx/gfx.c **** 
  72:rhea\gfx/gfx.c **** 	// Invoking driver implementation
  73:rhea\gfx/gfx.c **** 	rhea_gfx_reset_impl();
  74              		.loc 1 73 0
  75 0002 FFF7FEFF 		bl	rhea_gfx_reset_impl
  76              	.LVL1:
  77 0006 08BD     		pop	{r3, pc}
  78              		.cfi_endproc
  79              	.LFE1:
  80              		.size	rhea_gfx_Reset, .-rhea_gfx_Reset
  81              		.section	.text.rhea_gfx_Clear,"ax",%progbits
  82              		.align	2
  83              		.global	rhea_gfx_Clear
  84              		.thumb
  85              		.thumb_func
  86              		.type	rhea_gfx_Clear, %function
  87              	rhea_gfx_Clear:
  88              	.LFB2:
  74:rhea\gfx/gfx.c **** }
  75:rhea\gfx/gfx.c **** 
  76:rhea\gfx/gfx.c **** void rhea_gfx_Clear(void) {
  89              		.loc 1 76 0
  90              		.cfi_startproc
  91              		@ args = 0, pretend = 0, frame = 0
  92              		@ frame_needed = 0, uses_anonymous_args = 0
  93 0000 08B5     		push	{r3, lr}
  94              		.cfi_def_cfa_offset 8
  95              		.cfi_offset 3, -8
ARM GAS  C:\Users\GYULAI~1\AppData\Local\Temp\ccjFV3Tn.s 			page 4


  96              		.cfi_offset 14, -4
  77:rhea\gfx/gfx.c **** 
  78:rhea\gfx/gfx.c **** 	// Invoking driver implementation
  79:rhea\gfx/gfx.c **** 	rhea_gfx_clear_impl();
  97              		.loc 1 79 0
  98 0002 FFF7FEFF 		bl	rhea_gfx_clear_impl
  99              	.LVL2:
 100 0006 08BD     		pop	{r3, pc}
 101              		.cfi_endproc
 102              	.LFE2:
 103              		.size	rhea_gfx_Clear, .-rhea_gfx_Clear
 104              		.section	.text.rhea_gfx_Refresh,"ax",%progbits
 105              		.align	2
 106              		.global	rhea_gfx_Refresh
 107              		.thumb
 108              		.thumb_func
 109              		.type	rhea_gfx_Refresh, %function
 110              	rhea_gfx_Refresh:
 111              	.LFB3:
  80:rhea\gfx/gfx.c **** }
  81:rhea\gfx/gfx.c **** 
  82:rhea\gfx/gfx.c **** void rhea_gfx_Refresh(void) {
 112              		.loc 1 82 0
 113              		.cfi_startproc
 114              		@ args = 0, pretend = 0, frame = 0
 115              		@ frame_needed = 0, uses_anonymous_args = 0
 116 0000 08B5     		push	{r3, lr}
 117              		.cfi_def_cfa_offset 8
 118              		.cfi_offset 3, -8
 119              		.cfi_offset 14, -4
  83:rhea\gfx/gfx.c **** 
  84:rhea\gfx/gfx.c **** 	// Invoking driver implementation
  85:rhea\gfx/gfx.c **** 	rhea_gfx_refresh_impl();
 120              		.loc 1 85 0
 121 0002 FFF7FEFF 		bl	rhea_gfx_refresh_impl
 122              	.LVL3:
 123 0006 08BD     		pop	{r3, pc}
 124              		.cfi_endproc
 125              	.LFE3:
 126              		.size	rhea_gfx_Refresh, .-rhea_gfx_Refresh
 127              		.section	.text.rhea_gfx_SetFont,"ax",%progbits
 128              		.align	2
 129              		.global	rhea_gfx_SetFont
 130              		.thumb
 131              		.thumb_func
 132              		.type	rhea_gfx_SetFont, %function
 133              	rhea_gfx_SetFont:
 134              	.LFB4:
  86:rhea\gfx/gfx.c **** }
  87:rhea\gfx/gfx.c **** 
  88:rhea\gfx/gfx.c **** void rhea_gfx_SetFont(rhea_gfx_font font) {
 135              		.loc 1 88 0
 136              		.cfi_startproc
 137              		@ args = 0, pretend = 0, frame = 16
 138              		@ frame_needed = 0, uses_anonymous_args = 0
 139              		@ link register save eliminated.
 140 0000 10B4     		push	{r4}
ARM GAS  C:\Users\GYULAI~1\AppData\Local\Temp\ccjFV3Tn.s 			page 5


 141              		.cfi_def_cfa_offset 4
 142              		.cfi_offset 4, -4
 143 0002 85B0     		sub	sp, sp, #20
 144              		.cfi_def_cfa_offset 24
 145 0004 01AB     		add	r3, sp, #4
 146 0006 83E80700 		stmia	r3, {r0, r1, r2}
  89:rhea\gfx/gfx.c **** 
  90:rhea\gfx/gfx.c **** 	// Setting local font instance
  91:rhea\gfx/gfx.c **** 	rhea_gfx_localFont = font;
 147              		.loc 1 91 0
 148 000a 044C     		ldr	r4, .L13
 149 000c 93E80700 		ldmia	r3, {r0, r1, r2}
 150 0010 84E80700 		stmia	r4, {r0, r1, r2}
  92:rhea\gfx/gfx.c **** }
 151              		.loc 1 92 0
 152 0014 05B0     		add	sp, sp, #20
 153              		.cfi_def_cfa_offset 4
 154              		@ sp needed
 155 0016 10BC     		pop	{r4}
 156              		.cfi_restore 4
 157              		.cfi_def_cfa_offset 0
 158 0018 7047     		bx	lr
 159              	.L14:
 160 001a 00BF     		.align	2
 161              	.L13:
 162 001c 00000000 		.word	.LANCHOR0
 163              		.cfi_endproc
 164              	.LFE4:
 165              		.size	rhea_gfx_SetFont, .-rhea_gfx_SetFont
 166              		.section	.text.rhea_gfx_DrawPixel,"ax",%progbits
 167              		.align	2
 168              		.global	rhea_gfx_DrawPixel
 169              		.thumb
 170              		.thumb_func
 171              		.type	rhea_gfx_DrawPixel, %function
 172              	rhea_gfx_DrawPixel:
 173              	.LFB5:
  93:rhea\gfx/gfx.c **** 
  94:rhea\gfx/gfx.c **** void rhea_gfx_DrawPixel(rhea_gfx_coordinate x, rhea_gfx_coordinate y, rhea_gfx_color color) {
 174              		.loc 1 94 0
 175              		.cfi_startproc
 176              		@ args = 0, pretend = 0, frame = 0
 177              		@ frame_needed = 0, uses_anonymous_args = 0
 178              	.LVL4:
 179 0000 08B5     		push	{r3, lr}
 180              		.cfi_def_cfa_offset 8
 181              		.cfi_offset 3, -8
 182              		.cfi_offset 14, -4
  95:rhea\gfx/gfx.c **** 
  96:rhea\gfx/gfx.c **** 	// Drawing pixel
  97:rhea\gfx/gfx.c **** 	rhea_gfx_writePixel_impl(x, y, color);
 183              		.loc 1 97 0
 184 0002 FFF7FEFF 		bl	rhea_gfx_writePixel_impl
 185              	.LVL5:
  98:rhea\gfx/gfx.c **** 
  99:rhea\gfx/gfx.c **** 	// Refreshing display
 100:rhea\gfx/gfx.c **** 	rhea_gfx_Refresh();
ARM GAS  C:\Users\GYULAI~1\AppData\Local\Temp\ccjFV3Tn.s 			page 6


 186              		.loc 1 100 0
 187 0006 FFF7FEFF 		bl	rhea_gfx_Refresh
 188              	.LVL6:
 189 000a 08BD     		pop	{r3, pc}
 190              		.cfi_endproc
 191              	.LFE5:
 192              		.size	rhea_gfx_DrawPixel, .-rhea_gfx_DrawPixel
 193              		.section	.text.rhea_gfx_DrawLineLow,"ax",%progbits
 194              		.align	2
 195              		.global	rhea_gfx_DrawLineLow
 196              		.thumb
 197              		.thumb_func
 198              		.type	rhea_gfx_DrawLineLow, %function
 199              	rhea_gfx_DrawLineLow:
 200              	.LFB6:
 101:rhea\gfx/gfx.c **** }
 102:rhea\gfx/gfx.c **** 
 103:rhea\gfx/gfx.c **** void rhea_gfx_DrawLineLow(rhea_gfx_coordinate x0, rhea_gfx_coordinate y0, rhea_gfx_coordinate x1, r
 201              		.loc 1 103 0
 202              		.cfi_startproc
 203              		@ args = 4, pretend = 0, frame = 8
 204              		@ frame_needed = 0, uses_anonymous_args = 0
 205              	.LVL7:
 206 0000 2DE9F04F 		push	{r4, r5, r6, r7, r8, r9, r10, fp, lr}
 207              		.cfi_def_cfa_offset 36
 208              		.cfi_offset 4, -36
 209              		.cfi_offset 5, -32
 210              		.cfi_offset 6, -28
 211              		.cfi_offset 7, -24
 212              		.cfi_offset 8, -20
 213              		.cfi_offset 9, -16
 214              		.cfi_offset 10, -12
 215              		.cfi_offset 11, -8
 216              		.cfi_offset 14, -4
 217 0004 83B0     		sub	sp, sp, #12
 218              		.cfi_def_cfa_offset 48
 219 0006 9146     		mov	r9, r2
 220 0008 9DF83020 		ldrb	r2, [sp, #48]	@ zero_extendqisi2
 221              	.LVL8:
 222 000c 0192     		str	r2, [sp, #4]
 104:rhea\gfx/gfx.c **** 
 105:rhea\gfx/gfx.c **** 	// Bresenham's Line Drawing Algorithm for negative slopes
 106:rhea\gfx/gfx.c **** 	int16_t dx = x1 - x0;
 223              		.loc 1 106 0
 224 000e C0EB090A 		rsb	r10, r0, r9
 225 0012 1FFA8AFA 		uxth	r10, r10
 226              	.LVL9:
 107:rhea\gfx/gfx.c **** 	int16_t dy = y1 - y0;
 227              		.loc 1 107 0
 228 0016 5B1A     		subs	r3, r3, r1
 229              	.LVL10:
 230 0018 9BB2     		uxth	r3, r3
 231 001a 0FFA83F8 		sxth	r8, r3
 232              	.LVL11:
 108:rhea\gfx/gfx.c **** 	int16_t yi = 1;
 109:rhea\gfx/gfx.c **** 
 110:rhea\gfx/gfx.c **** 	if (dy < 0) {
ARM GAS  C:\Users\GYULAI~1\AppData\Local\Temp\ccjFV3Tn.s 			page 7


 233              		.loc 1 110 0
 234 001e B8F1000F 		cmp	r8, #0
 235 0022 06DA     		bge	.L22
 236              	.LVL12:
 111:rhea\gfx/gfx.c **** 		yi = -1;
 112:rhea\gfx/gfx.c **** 		dy = -dy;
 237              		.loc 1 112 0
 238 0024 C3F10008 		rsb	r8, r3, #0
 239              	.LVL13:
 240 0028 0FFA88F8 		sxth	r8, r8
 241              	.LVL14:
 111:rhea\gfx/gfx.c **** 		yi = -1;
 242              		.loc 1 111 0
 243 002c 4FF0FF3B 		mov	fp, #-1
 244 0030 01E0     		b	.L18
 245              	.LVL15:
 246              	.L22:
 108:rhea\gfx/gfx.c **** 	int16_t yi = 1;
 247              		.loc 1 108 0
 248 0032 4FF0010B 		mov	fp, #1
 249              	.LVL16:
 250              	.L18:
 113:rhea\gfx/gfx.c **** 	}
 114:rhea\gfx/gfx.c **** 
 115:rhea\gfx/gfx.c **** 	int16_t D = 2 * dy - dx;
 251              		.loc 1 115 0
 252 0036 4FEA4808 		lsl	r8, r8, #1
 253              	.LVL17:
 254 003a 1FFA88F8 		uxth	r8, r8
 255 003e CAEB0805 		rsb	r5, r10, r8
 256 0042 2DB2     		sxth	r5, r5
 257              	.LVL18:
 116:rhea\gfx/gfx.c **** 	int16_t y = y0;
 258              		.loc 1 116 0
 259 0044 0FB2     		sxth	r7, r1
 260              	.LVL19:
 261              	.LBB2:
 117:rhea\gfx/gfx.c **** 
 118:rhea\gfx/gfx.c **** 	for (int16_t x = x0; x < x1; x++) {
 262              		.loc 1 118 0
 263 0046 04B2     		sxth	r4, r0
 264              	.LVL20:
 265 0048 11E0     		b	.L19
 266              	.LVL21:
 267              	.L21:
 119:rhea\gfx/gfx.c **** 		rhea_gfx_writePixel_impl(x, y, color);
 268              		.loc 1 119 0
 269 004a A4B2     		uxth	r4, r4
 270 004c BEB2     		uxth	r6, r7
 271 004e 019A     		ldr	r2, [sp, #4]
 272 0050 3146     		mov	r1, r6
 273 0052 2046     		mov	r0, r4
 274 0054 FFF7FEFF 		bl	rhea_gfx_writePixel_impl
 275              	.LVL22:
 120:rhea\gfx/gfx.c **** 		if (D > 0) {
 276              		.loc 1 120 0
 277 0058 002D     		cmp	r5, #0
ARM GAS  C:\Users\GYULAI~1\AppData\Local\Temp\ccjFV3Tn.s 			page 8


 278 005a 04DD     		ble	.L20
 121:rhea\gfx/gfx.c **** 			y = y + yi;
 279              		.loc 1 121 0
 280 005c 5E44     		add	r6, r6, fp
 281 005e 37B2     		sxth	r7, r6
 282              	.LVL23:
 122:rhea\gfx/gfx.c **** 			D = D - 2 * dx;
 283              		.loc 1 122 0
 284 0060 A5EB4A05 		sub	r5, r5, r10, lsl #1
 285              	.LVL24:
 286 0064 2DB2     		sxth	r5, r5
 287              	.LVL25:
 288              	.L20:
 123:rhea\gfx/gfx.c **** 		}
 124:rhea\gfx/gfx.c **** 
 125:rhea\gfx/gfx.c **** 		D = D + 2 * dy;
 289              		.loc 1 125 0 discriminator 2
 290 0066 4544     		add	r5, r5, r8
 291              	.LVL26:
 292 0068 2DB2     		sxth	r5, r5
 293              	.LVL27:
 118:rhea\gfx/gfx.c **** 		rhea_gfx_writePixel_impl(x, y, color);
 294              		.loc 1 118 0 discriminator 2
 295 006a 0134     		adds	r4, r4, #1
 296              	.LVL28:
 297 006c 24B2     		sxth	r4, r4
 298              	.LVL29:
 299              	.L19:
 118:rhea\gfx/gfx.c **** 		rhea_gfx_writePixel_impl(x, y, color);
 300              		.loc 1 118 0 is_stmt 0 discriminator 1
 301 006e 4C45     		cmp	r4, r9
 302 0070 EBDB     		blt	.L21
 303              	.LBE2:
 126:rhea\gfx/gfx.c **** 	}
 127:rhea\gfx/gfx.c **** }
 304              		.loc 1 127 0 is_stmt 1
 305 0072 03B0     		add	sp, sp, #12
 306              		.cfi_def_cfa_offset 36
 307              		@ sp needed
 308 0074 BDE8F08F 		pop	{r4, r5, r6, r7, r8, r9, r10, fp, pc}
 309              		.cfi_endproc
 310              	.LFE6:
 311              		.size	rhea_gfx_DrawLineLow, .-rhea_gfx_DrawLineLow
 312              		.section	.text.rhea_gfx_DrawLineHigh,"ax",%progbits
 313              		.align	2
 314              		.global	rhea_gfx_DrawLineHigh
 315              		.thumb
 316              		.thumb_func
 317              		.type	rhea_gfx_DrawLineHigh, %function
 318              	rhea_gfx_DrawLineHigh:
 319              	.LFB7:
 128:rhea\gfx/gfx.c **** 
 129:rhea\gfx/gfx.c **** void rhea_gfx_DrawLineHigh(rhea_gfx_coordinate x0, rhea_gfx_coordinate y0, rhea_gfx_coordinate x1, 
 320              		.loc 1 129 0
 321              		.cfi_startproc
 322              		@ args = 4, pretend = 0, frame = 8
 323              		@ frame_needed = 0, uses_anonymous_args = 0
ARM GAS  C:\Users\GYULAI~1\AppData\Local\Temp\ccjFV3Tn.s 			page 9


 324              	.LVL30:
 325 0000 2DE9F04F 		push	{r4, r5, r6, r7, r8, r9, r10, fp, lr}
 326              		.cfi_def_cfa_offset 36
 327              		.cfi_offset 4, -36
 328              		.cfi_offset 5, -32
 329              		.cfi_offset 6, -28
 330              		.cfi_offset 7, -24
 331              		.cfi_offset 8, -20
 332              		.cfi_offset 9, -16
 333              		.cfi_offset 10, -12
 334              		.cfi_offset 11, -8
 335              		.cfi_offset 14, -4
 336 0004 83B0     		sub	sp, sp, #12
 337              		.cfi_def_cfa_offset 48
 338 0006 9946     		mov	r9, r3
 339 0008 9DF83030 		ldrb	r3, [sp, #48]	@ zero_extendqisi2
 340              	.LVL31:
 341 000c 0193     		str	r3, [sp, #4]
 130:rhea\gfx/gfx.c **** 
 131:rhea\gfx/gfx.c **** 	// Bresenham's Line Drawing Algorithm for positive slopes
 132:rhea\gfx/gfx.c **** 	int16_t dx = x1 - x0;
 342              		.loc 1 132 0
 343 000e 121A     		subs	r2, r2, r0
 344              	.LVL32:
 345 0010 92B2     		uxth	r2, r2
 346 0012 0FFA82F8 		sxth	r8, r2
 347              	.LVL33:
 133:rhea\gfx/gfx.c **** 	int16_t dy = y1 - y0;
 348              		.loc 1 133 0
 349 0016 C1EB090A 		rsb	r10, r1, r9
 350 001a 1FFA8AFA 		uxth	r10, r10
 351              	.LVL34:
 134:rhea\gfx/gfx.c **** 	int16_t xi = 1;
 135:rhea\gfx/gfx.c **** 
 136:rhea\gfx/gfx.c **** 	if (dx < 0) {
 352              		.loc 1 136 0
 353 001e B8F1000F 		cmp	r8, #0
 354 0022 06DA     		bge	.L29
 355              	.LVL35:
 137:rhea\gfx/gfx.c **** 		xi = -1;
 138:rhea\gfx/gfx.c **** 		dx = -dx;
 356              		.loc 1 138 0
 357 0024 C2F10008 		rsb	r8, r2, #0
 358              	.LVL36:
 359 0028 0FFA88F8 		sxth	r8, r8
 360              	.LVL37:
 137:rhea\gfx/gfx.c **** 		xi = -1;
 361              		.loc 1 137 0
 362 002c 4FF0FF3B 		mov	fp, #-1
 363 0030 01E0     		b	.L25
 364              	.LVL38:
 365              	.L29:
 134:rhea\gfx/gfx.c **** 	int16_t xi = 1;
 366              		.loc 1 134 0
 367 0032 4FF0010B 		mov	fp, #1
 368              	.LVL39:
 369              	.L25:
ARM GAS  C:\Users\GYULAI~1\AppData\Local\Temp\ccjFV3Tn.s 			page 10


 139:rhea\gfx/gfx.c **** 	}
 140:rhea\gfx/gfx.c **** 
 141:rhea\gfx/gfx.c **** 	int16_t D = 2 * dx - dy;
 370              		.loc 1 141 0
 371 0036 4FEA4808 		lsl	r8, r8, #1
 372              	.LVL40:
 373 003a 1FFA88F8 		uxth	r8, r8
 374 003e CAEB0805 		rsb	r5, r10, r8
 375 0042 2DB2     		sxth	r5, r5
 376              	.LVL41:
 142:rhea\gfx/gfx.c **** 	int16_t x = x0;
 377              		.loc 1 142 0
 378 0044 07B2     		sxth	r7, r0
 379              	.LVL42:
 380              	.LBB3:
 143:rhea\gfx/gfx.c **** 
 144:rhea\gfx/gfx.c **** 	for (int16_t y = y0; y < y1; y++) {
 381              		.loc 1 144 0
 382 0046 0CB2     		sxth	r4, r1
 383              	.LVL43:
 384 0048 11E0     		b	.L26
 385              	.LVL44:
 386              	.L28:
 145:rhea\gfx/gfx.c **** 		rhea_gfx_writePixel_impl(x, y, color);
 387              		.loc 1 145 0
 388 004a BEB2     		uxth	r6, r7
 389 004c A4B2     		uxth	r4, r4
 390 004e 019A     		ldr	r2, [sp, #4]
 391 0050 2146     		mov	r1, r4
 392 0052 3046     		mov	r0, r6
 393 0054 FFF7FEFF 		bl	rhea_gfx_writePixel_impl
 394              	.LVL45:
 146:rhea\gfx/gfx.c **** 		if (D > 0) {
 395              		.loc 1 146 0
 396 0058 002D     		cmp	r5, #0
 397 005a 04DD     		ble	.L27
 147:rhea\gfx/gfx.c **** 			x = x + xi;
 398              		.loc 1 147 0
 399 005c 5E44     		add	r6, r6, fp
 400 005e 37B2     		sxth	r7, r6
 401              	.LVL46:
 148:rhea\gfx/gfx.c **** 			D = D - 2 * dy;
 402              		.loc 1 148 0
 403 0060 A5EB4A05 		sub	r5, r5, r10, lsl #1
 404              	.LVL47:
 405 0064 2DB2     		sxth	r5, r5
 406              	.LVL48:
 407              	.L27:
 149:rhea\gfx/gfx.c **** 		}
 150:rhea\gfx/gfx.c **** 
 151:rhea\gfx/gfx.c **** 		D = D + 2 * dx;
 408              		.loc 1 151 0 discriminator 2
 409 0066 4544     		add	r5, r5, r8
 410              	.LVL49:
 411 0068 2DB2     		sxth	r5, r5
 412              	.LVL50:
 144:rhea\gfx/gfx.c **** 		rhea_gfx_writePixel_impl(x, y, color);
ARM GAS  C:\Users\GYULAI~1\AppData\Local\Temp\ccjFV3Tn.s 			page 11


 413              		.loc 1 144 0 discriminator 2
 414 006a 0134     		adds	r4, r4, #1
 415              	.LVL51:
 416 006c 24B2     		sxth	r4, r4
 417              	.LVL52:
 418              	.L26:
 144:rhea\gfx/gfx.c **** 		rhea_gfx_writePixel_impl(x, y, color);
 419              		.loc 1 144 0 is_stmt 0 discriminator 1
 420 006e 4C45     		cmp	r4, r9
 421 0070 EBDB     		blt	.L28
 422              	.LBE3:
 152:rhea\gfx/gfx.c **** 	}
 153:rhea\gfx/gfx.c **** }
 423              		.loc 1 153 0 is_stmt 1
 424 0072 03B0     		add	sp, sp, #12
 425              		.cfi_def_cfa_offset 36
 426              		@ sp needed
 427 0074 BDE8F08F 		pop	{r4, r5, r6, r7, r8, r9, r10, fp, pc}
 428              		.cfi_endproc
 429              	.LFE7:
 430              		.size	rhea_gfx_DrawLineHigh, .-rhea_gfx_DrawLineHigh
 431              		.section	.text.rhea_gfx_DrawVerticalLine,"ax",%progbits
 432              		.align	2
 433              		.global	rhea_gfx_DrawVerticalLine
 434              		.thumb
 435              		.thumb_func
 436              		.type	rhea_gfx_DrawVerticalLine, %function
 437              	rhea_gfx_DrawVerticalLine:
 438              	.LFB9:
 154:rhea\gfx/gfx.c **** 
 155:rhea\gfx/gfx.c **** void rhea_gfx_DrawLine(rhea_gfx_coordinate x0, rhea_gfx_coordinate y0, rhea_gfx_coordinate x1, rhea
 156:rhea\gfx/gfx.c **** 
 157:rhea\gfx/gfx.c **** 	// Checking if can be implemented efficiently
 158:rhea\gfx/gfx.c **** 	if (x0 == x1) {
 159:rhea\gfx/gfx.c **** 		rhea_gfx_DrawVerticalLine(x0, y0 < y1 ? y0 : y1, abs(y1 - y0), color); return;
 160:rhea\gfx/gfx.c **** 	}
 161:rhea\gfx/gfx.c **** 	if (y0 == y1) {
 162:rhea\gfx/gfx.c **** 		rhea_gfx_DrawHorizontalLine(x0 < x1 ? x0 : x1, y0, abs(x1 - x0), color); return;
 163:rhea\gfx/gfx.c **** 	}
 164:rhea\gfx/gfx.c **** 
 165:rhea\gfx/gfx.c **** 	// Bresenham's Line Drawing Algorithm
 166:rhea\gfx/gfx.c **** 	if (abs(y1 - y0) < abs(x1 - x0)) {
 167:rhea\gfx/gfx.c **** 		if (x0 > x1) rhea_gfx_DrawLineLow(x1, y1, x0, y0, color);
 168:rhea\gfx/gfx.c **** 		else         rhea_gfx_DrawLineLow(x0, y0, x1, y1, color);
 169:rhea\gfx/gfx.c **** 	}
 170:rhea\gfx/gfx.c **** 	else {
 171:rhea\gfx/gfx.c **** 		if (y0 > y1) rhea_gfx_DrawLineHigh(x1, y1, x0, y0, color);
 172:rhea\gfx/gfx.c **** 		else         rhea_gfx_DrawLineHigh(x0, y0, x1, y1, color);
 173:rhea\gfx/gfx.c **** 	}
 174:rhea\gfx/gfx.c **** 
 175:rhea\gfx/gfx.c **** 	// Refreshing display
 176:rhea\gfx/gfx.c **** 	rhea_gfx_Refresh();
 177:rhea\gfx/gfx.c **** }
 178:rhea\gfx/gfx.c **** 
 179:rhea\gfx/gfx.c **** void rhea_gfx_DrawVerticalLine(rhea_gfx_coordinate x, rhea_gfx_coordinate y, rhea_gfx_size_t height
 439              		.loc 1 179 0
 440              		.cfi_startproc
ARM GAS  C:\Users\GYULAI~1\AppData\Local\Temp\ccjFV3Tn.s 			page 12


 441              		@ args = 0, pretend = 0, frame = 0
 442              		@ frame_needed = 0, uses_anonymous_args = 0
 443              	.LVL53:
 444 0000 2DE9F041 		push	{r4, r5, r6, r7, r8, lr}
 445              		.cfi_def_cfa_offset 24
 446              		.cfi_offset 4, -24
 447              		.cfi_offset 5, -20
 448              		.cfi_offset 6, -16
 449              		.cfi_offset 7, -12
 450              		.cfi_offset 8, -8
 451              		.cfi_offset 14, -4
 452 0004 8046     		mov	r8, r0
 453 0006 0F46     		mov	r7, r1
 454 0008 1546     		mov	r5, r2
 455 000a 1E46     		mov	r6, r3
 456              	.LVL54:
 457              	.LBB4:
 180:rhea\gfx/gfx.c **** 
 181:rhea\gfx/gfx.c **** 	// Drawing vertical line
 182:rhea\gfx/gfx.c **** 	for (rhea_gfx_size_t i = 0; i < height; i++) rhea_gfx_writePixel_impl(x, y + i, color);
 458              		.loc 1 182 0
 459 000c 0024     		movs	r4, #0
 460 000e 07E0     		b	.L32
 461              	.LVL55:
 462              	.L33:
 463              		.loc 1 182 0 is_stmt 0 discriminator 3
 464 0010 3919     		adds	r1, r7, r4
 465 0012 3246     		mov	r2, r6
 466 0014 89B2     		uxth	r1, r1
 467 0016 4046     		mov	r0, r8
 468 0018 FFF7FEFF 		bl	rhea_gfx_writePixel_impl
 469              	.LVL56:
 470 001c 0134     		adds	r4, r4, #1
 471              	.LVL57:
 472 001e E4B2     		uxtb	r4, r4
 473              	.LVL58:
 474              	.L32:
 475              		.loc 1 182 0 discriminator 1
 476 0020 AC42     		cmp	r4, r5
 477 0022 F5D3     		bcc	.L33
 478              	.LBE4:
 183:rhea\gfx/gfx.c **** 
 184:rhea\gfx/gfx.c **** 	// Refreshing display
 185:rhea\gfx/gfx.c **** 	rhea_gfx_Refresh();
 479              		.loc 1 185 0 is_stmt 1
 480 0024 FFF7FEFF 		bl	rhea_gfx_Refresh
 481              	.LVL59:
 482 0028 BDE8F081 		pop	{r4, r5, r6, r7, r8, pc}
 483              		.cfi_endproc
 484              	.LFE9:
 485              		.size	rhea_gfx_DrawVerticalLine, .-rhea_gfx_DrawVerticalLine
 486              		.section	.text.rhea_gfx_DrawLine,"ax",%progbits
 487              		.align	2
 488              		.global	rhea_gfx_DrawLine
 489              		.thumb
 490              		.thumb_func
 491              		.type	rhea_gfx_DrawLine, %function
ARM GAS  C:\Users\GYULAI~1\AppData\Local\Temp\ccjFV3Tn.s 			page 13


 492              	rhea_gfx_DrawLine:
 493              	.LFB8:
 155:rhea\gfx/gfx.c **** 
 494              		.loc 1 155 0
 495              		.cfi_startproc
 496              		@ args = 4, pretend = 0, frame = 0
 497              		@ frame_needed = 0, uses_anonymous_args = 0
 498              	.LVL60:
 499 0000 70B5     		push	{r4, r5, r6, lr}
 500              		.cfi_def_cfa_offset 16
 501              		.cfi_offset 4, -16
 502              		.cfi_offset 5, -12
 503              		.cfi_offset 6, -8
 504              		.cfi_offset 14, -4
 505 0002 82B0     		sub	sp, sp, #8
 506              		.cfi_def_cfa_offset 24
 507 0004 1D46     		mov	r5, r3
 508 0006 9DF81830 		ldrb	r3, [sp, #24]	@ zero_extendqisi2
 509              	.LVL61:
 158:rhea\gfx/gfx.c **** 		rhea_gfx_DrawVerticalLine(x0, y0 < y1 ? y0 : y1, abs(y1 - y0), color); return;
 510              		.loc 1 158 0
 511 000a 9042     		cmp	r0, r2
 512 000c 0AD1     		bne	.L36
 159:rhea\gfx/gfx.c **** 	}
 513              		.loc 1 159 0
 514 000e 6A1A     		subs	r2, r5, r1
 515              	.LVL62:
 516 0010 002A     		cmp	r2, #0
 517 0012 B8BF     		it	lt
 518 0014 5242     		rsblt	r2, r2, #0
 519 0016 D2B2     		uxtb	r2, r2
 520 0018 A942     		cmp	r1, r5
 521 001a 28BF     		it	cs
 522 001c 2946     		movcs	r1, r5
 523              	.LVL63:
 524 001e FFF7FEFF 		bl	rhea_gfx_DrawVerticalLine
 525              	.LVL64:
 526 0022 38E0     		b	.L35
 527              	.LVL65:
 528              	.L36:
 529 0024 1446     		mov	r4, r2
 161:rhea\gfx/gfx.c **** 		rhea_gfx_DrawHorizontalLine(x0 < x1 ? x0 : x1, y0, abs(x1 - x0), color); return;
 530              		.loc 1 161 0
 531 0026 8D42     		cmp	r5, r1
 532 0028 0AD1     		bne	.L38
 162:rhea\gfx/gfx.c **** 	}
 533              		.loc 1 162 0
 534 002a 121A     		subs	r2, r2, r0
 535              	.LVL66:
 536 002c 002A     		cmp	r2, #0
 537 002e B8BF     		it	lt
 538 0030 5242     		rsblt	r2, r2, #0
 539 0032 D2B2     		uxtb	r2, r2
 540 0034 A042     		cmp	r0, r4
 541 0036 28BF     		it	cs
 542 0038 2046     		movcs	r0, r4
 543              	.LVL67:
ARM GAS  C:\Users\GYULAI~1\AppData\Local\Temp\ccjFV3Tn.s 			page 14


 544 003a FFF7FEFF 		bl	rhea_gfx_DrawHorizontalLine
 545              	.LVL68:
 546 003e 2AE0     		b	.L35
 547              	.LVL69:
 548              	.L38:
 166:rhea\gfx/gfx.c **** 		if (x0 > x1) rhea_gfx_DrawLineLow(x1, y1, x0, y0, color);
 549              		.loc 1 166 0
 550 0040 6E1A     		subs	r6, r5, r1
 551 0042 002E     		cmp	r6, #0
 552 0044 B8BF     		it	lt
 553 0046 7642     		rsblt	r6, r6, #0
 554 0048 121A     		subs	r2, r2, r0
 555              	.LVL70:
 556 004a 002A     		cmp	r2, #0
 557 004c B8BF     		it	lt
 558 004e 5242     		rsblt	r2, r2, #0
 559 0050 9642     		cmp	r6, r2
 560 0052 0FDA     		bge	.L39
 167:rhea\gfx/gfx.c **** 		else         rhea_gfx_DrawLineLow(x0, y0, x1, y1, color);
 561              		.loc 1 167 0
 562 0054 A042     		cmp	r0, r4
 563 0056 07D9     		bls	.L40
 167:rhea\gfx/gfx.c **** 		else         rhea_gfx_DrawLineLow(x0, y0, x1, y1, color);
 564              		.loc 1 167 0 is_stmt 0 discriminator 1
 565 0058 0093     		str	r3, [sp]
 566 005a 0B46     		mov	r3, r1
 567 005c 0246     		mov	r2, r0
 568 005e 2946     		mov	r1, r5
 569              	.LVL71:
 570 0060 2046     		mov	r0, r4
 571              	.LVL72:
 572 0062 FFF7FEFF 		bl	rhea_gfx_DrawLineLow
 573              	.LVL73:
 574 0066 14E0     		b	.L41
 575              	.LVL74:
 576              	.L40:
 168:rhea\gfx/gfx.c **** 	}
 577              		.loc 1 168 0 is_stmt 1
 578 0068 0093     		str	r3, [sp]
 579 006a 2B46     		mov	r3, r5
 580 006c 2246     		mov	r2, r4
 581 006e FFF7FEFF 		bl	rhea_gfx_DrawLineLow
 582              	.LVL75:
 583 0072 0EE0     		b	.L41
 584              	.LVL76:
 585              	.L39:
 171:rhea\gfx/gfx.c **** 		else         rhea_gfx_DrawLineHigh(x0, y0, x1, y1, color);
 586              		.loc 1 171 0
 587 0074 8D42     		cmp	r5, r1
 588 0076 07D2     		bcs	.L42
 171:rhea\gfx/gfx.c **** 		else         rhea_gfx_DrawLineHigh(x0, y0, x1, y1, color);
 589              		.loc 1 171 0 is_stmt 0 discriminator 1
 590 0078 0093     		str	r3, [sp]
 591 007a 0B46     		mov	r3, r1
 592 007c 0246     		mov	r2, r0
 593 007e 2946     		mov	r1, r5
 594              	.LVL77:
ARM GAS  C:\Users\GYULAI~1\AppData\Local\Temp\ccjFV3Tn.s 			page 15


 595 0080 2046     		mov	r0, r4
 596              	.LVL78:
 597 0082 FFF7FEFF 		bl	rhea_gfx_DrawLineHigh
 598              	.LVL79:
 599 0086 04E0     		b	.L41
 600              	.LVL80:
 601              	.L42:
 172:rhea\gfx/gfx.c **** 	}
 602              		.loc 1 172 0 is_stmt 1
 603 0088 0093     		str	r3, [sp]
 604 008a 2B46     		mov	r3, r5
 605 008c 2246     		mov	r2, r4
 606 008e FFF7FEFF 		bl	rhea_gfx_DrawLineHigh
 607              	.LVL81:
 608              	.L41:
 176:rhea\gfx/gfx.c **** }
 609              		.loc 1 176 0
 610 0092 FFF7FEFF 		bl	rhea_gfx_Refresh
 611              	.LVL82:
 612              	.L35:
 177:rhea\gfx/gfx.c **** 
 613              		.loc 1 177 0
 614 0096 02B0     		add	sp, sp, #8
 615              		.cfi_def_cfa_offset 16
 616              		@ sp needed
 617 0098 70BD     		pop	{r4, r5, r6, pc}
 618              		.cfi_endproc
 619              	.LFE8:
 620              		.size	rhea_gfx_DrawLine, .-rhea_gfx_DrawLine
 621 009a 00BF     		.section	.text.rhea_gfx_drawHorizontalLine,"ax",%progbits
 622              		.align	2
 623              		.global	rhea_gfx_drawHorizontalLine
 624              		.thumb
 625              		.thumb_func
 626              		.type	rhea_gfx_drawHorizontalLine, %function
 627              	rhea_gfx_drawHorizontalLine:
 628              	.LFB10:
 186:rhea\gfx/gfx.c **** }
 187:rhea\gfx/gfx.c **** 
 188:rhea\gfx/gfx.c **** void rhea_gfx_drawHorizontalLine(rhea_gfx_coordinate x, rhea_gfx_coordinate y, rhea_gfx_size_t leng
 629              		.loc 1 188 0
 630              		.cfi_startproc
 631              		@ args = 0, pretend = 0, frame = 0
 632              		@ frame_needed = 0, uses_anonymous_args = 0
 633              	.LVL83:
 634 0000 2DE9F041 		push	{r4, r5, r6, r7, r8, lr}
 635              		.cfi_def_cfa_offset 24
 636              		.cfi_offset 4, -24
 637              		.cfi_offset 5, -20
 638              		.cfi_offset 6, -16
 639              		.cfi_offset 7, -12
 640              		.cfi_offset 8, -8
 641              		.cfi_offset 14, -4
 642 0004 8046     		mov	r8, r0
 643 0006 0F46     		mov	r7, r1
 644 0008 1546     		mov	r5, r2
 645 000a 1E46     		mov	r6, r3
ARM GAS  C:\Users\GYULAI~1\AppData\Local\Temp\ccjFV3Tn.s 			page 16


 646              	.LVL84:
 647              	.LBB5:
 189:rhea\gfx/gfx.c **** 
 190:rhea\gfx/gfx.c **** 	// Drawing horizontal line
 191:rhea\gfx/gfx.c **** 	for (rhea_gfx_size_t i = 0; i < length; i++) rhea_gfx_writePixel_impl(x + i, y, color);
 648              		.loc 1 191 0
 649 000c 0024     		movs	r4, #0
 650 000e 08E0     		b	.L45
 651              	.LVL85:
 652              	.L46:
 653              		.loc 1 191 0 is_stmt 0 discriminator 3
 654 0010 08EB0400 		add	r0, r8, r4
 655 0014 3246     		mov	r2, r6
 656 0016 3946     		mov	r1, r7
 657 0018 80B2     		uxth	r0, r0
 658 001a FFF7FEFF 		bl	rhea_gfx_writePixel_impl
 659              	.LVL86:
 660 001e 0134     		adds	r4, r4, #1
 661              	.LVL87:
 662 0020 E4B2     		uxtb	r4, r4
 663              	.LVL88:
 664              	.L45:
 665              		.loc 1 191 0 discriminator 1
 666 0022 AC42     		cmp	r4, r5
 667 0024 F4D3     		bcc	.L46
 668              	.LBE5:
 192:rhea\gfx/gfx.c **** 
 193:rhea\gfx/gfx.c **** 	// Refreshing display
 194:rhea\gfx/gfx.c **** 	rhea_gfx_Refresh();
 669              		.loc 1 194 0 is_stmt 1
 670 0026 FFF7FEFF 		bl	rhea_gfx_Refresh
 671              	.LVL89:
 672 002a BDE8F081 		pop	{r4, r5, r6, r7, r8, pc}
 673              		.cfi_endproc
 674              	.LFE10:
 675              		.size	rhea_gfx_drawHorizontalLine, .-rhea_gfx_drawHorizontalLine
 676              		.global	__aeabi_i2d
 677              		.global	__aeabi_d2uiz
 678 002e 00BF     		.section	.text.rhea_gfx_drawCircle,"ax",%progbits
 679              		.align	2
 680              		.global	rhea_gfx_drawCircle
 681              		.thumb
 682              		.thumb_func
 683              		.type	rhea_gfx_drawCircle, %function
 684              	rhea_gfx_drawCircle:
 685              	.LFB11:
 195:rhea\gfx/gfx.c **** }
 196:rhea\gfx/gfx.c **** 
 197:rhea\gfx/gfx.c **** void rhea_gfx_drawCircle(rhea_gfx_coordinate x, rhea_gfx_coordinate y, rhea_gfx_size_t radius, rhea
 686              		.loc 1 197 0
 687              		.cfi_startproc
 688              		@ args = 0, pretend = 0, frame = 0
 689              		@ frame_needed = 0, uses_anonymous_args = 0
 690              	.LVL90:
 691 0000 2DE9F047 		push	{r4, r5, r6, r7, r8, r9, r10, lr}
 692              		.cfi_def_cfa_offset 32
 693              		.cfi_offset 4, -32
ARM GAS  C:\Users\GYULAI~1\AppData\Local\Temp\ccjFV3Tn.s 			page 17


 694              		.cfi_offset 5, -28
 695              		.cfi_offset 6, -24
 696              		.cfi_offset 7, -20
 697              		.cfi_offset 8, -16
 698              		.cfi_offset 9, -12
 699              		.cfi_offset 10, -8
 700              		.cfi_offset 14, -4
 701 0004 8146     		mov	r9, r0
 702 0006 8846     		mov	r8, r1
 703 0008 1746     		mov	r7, r2
 704 000a 9A46     		mov	r10, r3
 705              	.LVL91:
 706              	.LBB6:
 198:rhea\gfx/gfx.c **** 
 199:rhea\gfx/gfx.c **** 	// Drawing circle
 200:rhea\gfx/gfx.c **** 	for (rhea_gfx_coordinate i = 0; i < RHEA_GFX_WIDTH; i++) {
 707              		.loc 1 200 0
 708 000c 0026     		movs	r6, #0
 709 000e 1EE0     		b	.L49
 710              	.LVL92:
 711              	.L51:
 712              	.LBB7:
 713              	.LBB8:
 201:rhea\gfx/gfx.c **** 		for (rhea_gfx_coordinate j = 0; j < RHEA_GFX_HEIGHT; j++) {
 202:rhea\gfx/gfx.c **** 			rhea_gfx_size_t distance = (rhea_gfx_size_t) sqrt((x - i) * (x - i) + (y - j) * (y - j));
 714              		.loc 1 202 0
 715 0010 C6EB0904 		rsb	r4, r6, r9
 716 0014 C5EB0803 		rsb	r3, r5, r8
 717 0018 03FB03F3 		mul	r3, r3, r3
 718 001c 04FB0434 		mla	r4, r4, r4, r3
 719 0020 2046     		mov	r0, r4
 720 0022 FFF7FEFF 		bl	__aeabi_i2d
 721              	.LVL93:
 722 0026 FFF7FEFF 		bl	sqrt
 723              	.LVL94:
 724 002a FFF7FEFF 		bl	__aeabi_d2uiz
 725              	.LVL95:
 726 002e C0B2     		uxtb	r0, r0
 727              	.LVL96:
 203:rhea\gfx/gfx.c **** 			if (distance == radius) rhea_gfx_writePixel_impl(i, j, color);
 728              		.loc 1 203 0
 729 0030 B842     		cmp	r0, r7
 730 0032 04D1     		bne	.L50
 731              		.loc 1 203 0 is_stmt 0 discriminator 1
 732 0034 5246     		mov	r2, r10
 733 0036 2946     		mov	r1, r5
 734 0038 3046     		mov	r0, r6
 735              	.LVL97:
 736 003a FFF7FEFF 		bl	rhea_gfx_writePixel_impl
 737              	.LVL98:
 738              	.L50:
 739              	.LBE8:
 201:rhea\gfx/gfx.c **** 		for (rhea_gfx_coordinate j = 0; j < RHEA_GFX_HEIGHT; j++) {
 740              		.loc 1 201 0 is_stmt 1 discriminator 2
 741 003e 0135     		adds	r5, r5, #1
 742              	.LVL99:
 743 0040 ADB2     		uxth	r5, r5
ARM GAS  C:\Users\GYULAI~1\AppData\Local\Temp\ccjFV3Tn.s 			page 18


 744              	.LVL100:
 745 0042 00E0     		b	.L52
 746              	.LVL101:
 747              	.L53:
 748              	.LBE7:
 749 0044 0025     		movs	r5, #0
 750              	.L52:
 751              	.LVL102:
 752              	.LBB9:
 201:rhea\gfx/gfx.c **** 		for (rhea_gfx_coordinate j = 0; j < RHEA_GFX_HEIGHT; j++) {
 753              		.loc 1 201 0 is_stmt 0 discriminator 1
 754 0046 1F2D     		cmp	r5, #31
 755 0048 E2D9     		bls	.L51
 756              	.LBE9:
 200:rhea\gfx/gfx.c **** 		for (rhea_gfx_coordinate j = 0; j < RHEA_GFX_HEIGHT; j++) {
 757              		.loc 1 200 0 is_stmt 1 discriminator 2
 758 004a 0136     		adds	r6, r6, #1
 759              	.LVL103:
 760 004c B6B2     		uxth	r6, r6
 761              	.LVL104:
 762              	.L49:
 200:rhea\gfx/gfx.c **** 		for (rhea_gfx_coordinate j = 0; j < RHEA_GFX_HEIGHT; j++) {
 763              		.loc 1 200 0 is_stmt 0 discriminator 1
 764 004e 7F2E     		cmp	r6, #127
 765 0050 F8D9     		bls	.L53
 766              	.LBE6:
 204:rhea\gfx/gfx.c **** 		}
 205:rhea\gfx/gfx.c **** 	}
 206:rhea\gfx/gfx.c **** 
 207:rhea\gfx/gfx.c **** 	// Refreshing display
 208:rhea\gfx/gfx.c **** 	rhea_gfx_Refresh();
 767              		.loc 1 208 0 is_stmt 1
 768 0052 FFF7FEFF 		bl	rhea_gfx_Refresh
 769              	.LVL105:
 770 0056 BDE8F087 		pop	{r4, r5, r6, r7, r8, r9, r10, pc}
 771              		.cfi_endproc
 772              	.LFE11:
 773              		.size	rhea_gfx_drawCircle, .-rhea_gfx_drawCircle
 774 005a 00BF     		.section	.text.rhea_gfx_drawFilledCircle,"ax",%progbits
 775              		.align	2
 776              		.global	rhea_gfx_drawFilledCircle
 777              		.thumb
 778              		.thumb_func
 779              		.type	rhea_gfx_drawFilledCircle, %function
 780              	rhea_gfx_drawFilledCircle:
 781              	.LFB12:
 209:rhea\gfx/gfx.c **** }
 210:rhea\gfx/gfx.c **** 
 211:rhea\gfx/gfx.c **** void rhea_gfx_drawFilledCircle(rhea_gfx_coordinate x, rhea_gfx_coordinate y, rhea_gfx_size_t radius
 782              		.loc 1 211 0
 783              		.cfi_startproc
 784              		@ args = 0, pretend = 0, frame = 0
 785              		@ frame_needed = 0, uses_anonymous_args = 0
 786              	.LVL106:
 787 0000 2DE9F047 		push	{r4, r5, r6, r7, r8, r9, r10, lr}
 788              		.cfi_def_cfa_offset 32
 789              		.cfi_offset 4, -32
ARM GAS  C:\Users\GYULAI~1\AppData\Local\Temp\ccjFV3Tn.s 			page 19


 790              		.cfi_offset 5, -28
 791              		.cfi_offset 6, -24
 792              		.cfi_offset 7, -20
 793              		.cfi_offset 8, -16
 794              		.cfi_offset 9, -12
 795              		.cfi_offset 10, -8
 796              		.cfi_offset 14, -4
 797 0004 8146     		mov	r9, r0
 798 0006 8846     		mov	r8, r1
 799 0008 1746     		mov	r7, r2
 800 000a 9A46     		mov	r10, r3
 801              	.LVL107:
 802              	.LBB10:
 212:rhea\gfx/gfx.c **** 
 213:rhea\gfx/gfx.c **** 	// Drawing filled circle
 214:rhea\gfx/gfx.c **** 	for (rhea_gfx_coordinate i = 0; i < RHEA_GFX_WIDTH; i++) {
 803              		.loc 1 214 0
 804 000c 0026     		movs	r6, #0
 805 000e 1EE0     		b	.L56
 806              	.LVL108:
 807              	.L58:
 808              	.LBB11:
 809              	.LBB12:
 215:rhea\gfx/gfx.c **** 		for (rhea_gfx_coordinate j = 0; j < RHEA_GFX_HEIGHT; j++) {
 216:rhea\gfx/gfx.c **** 			rhea_gfx_size_t distance = (rhea_gfx_size_t) sqrt((x - i) * (x - i) + (y - j) * (y - j));
 810              		.loc 1 216 0
 811 0010 C6EB0904 		rsb	r4, r6, r9
 812 0014 C5EB0803 		rsb	r3, r5, r8
 813 0018 03FB03F3 		mul	r3, r3, r3
 814 001c 04FB0434 		mla	r4, r4, r4, r3
 815 0020 2046     		mov	r0, r4
 816 0022 FFF7FEFF 		bl	__aeabi_i2d
 817              	.LVL109:
 818 0026 FFF7FEFF 		bl	sqrt
 819              	.LVL110:
 820 002a FFF7FEFF 		bl	__aeabi_d2uiz
 821              	.LVL111:
 822 002e C0B2     		uxtb	r0, r0
 823              	.LVL112:
 217:rhea\gfx/gfx.c **** 			if (distance <= radius) rhea_gfx_writePixel_impl(i, j, color);
 824              		.loc 1 217 0
 825 0030 B842     		cmp	r0, r7
 826 0032 04D8     		bhi	.L57
 827              		.loc 1 217 0 is_stmt 0 discriminator 1
 828 0034 5246     		mov	r2, r10
 829 0036 2946     		mov	r1, r5
 830 0038 3046     		mov	r0, r6
 831              	.LVL113:
 832 003a FFF7FEFF 		bl	rhea_gfx_writePixel_impl
 833              	.LVL114:
 834              	.L57:
 835              	.LBE12:
 215:rhea\gfx/gfx.c **** 		for (rhea_gfx_coordinate j = 0; j < RHEA_GFX_HEIGHT; j++) {
 836              		.loc 1 215 0 is_stmt 1 discriminator 2
 837 003e 0135     		adds	r5, r5, #1
 838              	.LVL115:
 839 0040 ADB2     		uxth	r5, r5
ARM GAS  C:\Users\GYULAI~1\AppData\Local\Temp\ccjFV3Tn.s 			page 20


 840              	.LVL116:
 841 0042 00E0     		b	.L59
 842              	.LVL117:
 843              	.L60:
 844              	.LBE11:
 845 0044 0025     		movs	r5, #0
 846              	.L59:
 847              	.LVL118:
 848              	.LBB13:
 215:rhea\gfx/gfx.c **** 		for (rhea_gfx_coordinate j = 0; j < RHEA_GFX_HEIGHT; j++) {
 849              		.loc 1 215 0 is_stmt 0 discriminator 1
 850 0046 1F2D     		cmp	r5, #31
 851 0048 E2D9     		bls	.L58
 852              	.LBE13:
 214:rhea\gfx/gfx.c **** 		for (rhea_gfx_coordinate j = 0; j < RHEA_GFX_HEIGHT; j++) {
 853              		.loc 1 214 0 is_stmt 1 discriminator 2
 854 004a 0136     		adds	r6, r6, #1
 855              	.LVL119:
 856 004c B6B2     		uxth	r6, r6
 857              	.LVL120:
 858              	.L56:
 214:rhea\gfx/gfx.c **** 		for (rhea_gfx_coordinate j = 0; j < RHEA_GFX_HEIGHT; j++) {
 859              		.loc 1 214 0 is_stmt 0 discriminator 1
 860 004e 7F2E     		cmp	r6, #127
 861 0050 F8D9     		bls	.L60
 862              	.LBE10:
 218:rhea\gfx/gfx.c **** 		}
 219:rhea\gfx/gfx.c **** 	}
 220:rhea\gfx/gfx.c **** 
 221:rhea\gfx/gfx.c **** 	// Refreshing display
 222:rhea\gfx/gfx.c **** 	rhea_gfx_Refresh();
 863              		.loc 1 222 0 is_stmt 1
 864 0052 FFF7FEFF 		bl	rhea_gfx_Refresh
 865              	.LVL121:
 866 0056 BDE8F087 		pop	{r4, r5, r6, r7, r8, r9, r10, pc}
 867              		.cfi_endproc
 868              	.LFE12:
 869              		.size	rhea_gfx_drawFilledCircle, .-rhea_gfx_drawFilledCircle
 870 005a 00BF     		.section	.text.rhea_gfx_drawRectangle,"ax",%progbits
 871              		.align	2
 872              		.global	rhea_gfx_drawRectangle
 873              		.thumb
 874              		.thumb_func
 875              		.type	rhea_gfx_drawRectangle, %function
 876              	rhea_gfx_drawRectangle:
 877              	.LFB13:
 223:rhea\gfx/gfx.c **** }
 224:rhea\gfx/gfx.c **** 
 225:rhea\gfx/gfx.c **** void rhea_gfx_drawRectangle(rhea_gfx_coordinate x, rhea_gfx_coordinate y, rhea_gfx_size_t width, rh
 878              		.loc 1 225 0
 879              		.cfi_startproc
 880              		@ args = 4, pretend = 0, frame = 0
 881              		@ frame_needed = 0, uses_anonymous_args = 0
 882              	.LVL122:
 883 0000 2DE9F047 		push	{r4, r5, r6, r7, r8, r9, r10, lr}
 884              		.cfi_def_cfa_offset 32
 885              		.cfi_offset 4, -32
ARM GAS  C:\Users\GYULAI~1\AppData\Local\Temp\ccjFV3Tn.s 			page 21


 886              		.cfi_offset 5, -28
 887              		.cfi_offset 6, -24
 888              		.cfi_offset 7, -20
 889              		.cfi_offset 8, -16
 890              		.cfi_offset 9, -12
 891              		.cfi_offset 10, -8
 892              		.cfi_offset 14, -4
 893 0004 8246     		mov	r10, r0
 894 0006 8946     		mov	r9, r1
 895 0008 1746     		mov	r7, r2
 896 000a 1E46     		mov	r6, r3
 897 000c 9DF82080 		ldrb	r8, [sp, #32]	@ zero_extendqisi2
 898              	.LVL123:
 899              	.LBB14:
 226:rhea\gfx/gfx.c **** 
 227:rhea\gfx/gfx.c **** 	// Drawing rectangle
 228:rhea\gfx/gfx.c **** 	for (rhea_gfx_size_t i = 0; i < width; i++) {
 900              		.loc 1 228 0
 901 0010 0025     		movs	r5, #0
 902 0012 18E0     		b	.L63
 903              	.LVL124:
 904              	.L66:
 905              	.LBB15:
 229:rhea\gfx/gfx.c **** 		for (rhea_gfx_size_t j = 0; j < height; j++) {
 230:rhea\gfx/gfx.c **** 			if (i == 0 || i == width - 1 || j == 0 || j == height - 1) {
 906              		.loc 1 230 0
 907 0014 35B1     		cbz	r5, .L64
 908              		.loc 1 230 0 is_stmt 0 discriminator 1
 909 0016 7B1E     		subs	r3, r7, #1
 910 0018 9D42     		cmp	r5, r3
 911 001a 03D0     		beq	.L64
 912              		.loc 1 230 0 discriminator 2
 913 001c 14B1     		cbz	r4, .L64
 914              		.loc 1 230 0 discriminator 3
 915 001e 731E     		subs	r3, r6, #1
 916 0020 9C42     		cmp	r4, r3
 917 0022 08D1     		bne	.L65
 918              	.L64:
 231:rhea\gfx/gfx.c **** 				rhea_gfx_writePixel_impl(x + i, y + j, color);
 919              		.loc 1 231 0 is_stmt 1
 920 0024 09EB0401 		add	r1, r9, r4
 921 0028 0AEB0500 		add	r0, r10, r5
 922 002c 4246     		mov	r2, r8
 923 002e 89B2     		uxth	r1, r1
 924 0030 80B2     		uxth	r0, r0
 925 0032 FFF7FEFF 		bl	rhea_gfx_writePixel_impl
 926              	.LVL125:
 927              	.L65:
 229:rhea\gfx/gfx.c **** 		for (rhea_gfx_size_t j = 0; j < height; j++) {
 928              		.loc 1 229 0 discriminator 2
 929 0036 0134     		adds	r4, r4, #1
 930              	.LVL126:
 931 0038 E4B2     		uxtb	r4, r4
 932              	.LVL127:
 933 003a 00E0     		b	.L67
 934              	.LVL128:
 935              	.L68:
ARM GAS  C:\Users\GYULAI~1\AppData\Local\Temp\ccjFV3Tn.s 			page 22


 936              	.LBE15:
 937 003c 0024     		movs	r4, #0
 938              	.L67:
 939              	.LVL129:
 940              	.LBB16:
 229:rhea\gfx/gfx.c **** 		for (rhea_gfx_size_t j = 0; j < height; j++) {
 941              		.loc 1 229 0 is_stmt 0 discriminator 1
 942 003e B442     		cmp	r4, r6
 943 0040 E8D3     		bcc	.L66
 944              	.LBE16:
 228:rhea\gfx/gfx.c **** 		for (rhea_gfx_size_t j = 0; j < height; j++) {
 945              		.loc 1 228 0 is_stmt 1 discriminator 2
 946 0042 0135     		adds	r5, r5, #1
 947              	.LVL130:
 948 0044 EDB2     		uxtb	r5, r5
 949              	.LVL131:
 950              	.L63:
 228:rhea\gfx/gfx.c **** 		for (rhea_gfx_size_t j = 0; j < height; j++) {
 951              		.loc 1 228 0 is_stmt 0 discriminator 1
 952 0046 BD42     		cmp	r5, r7
 953 0048 F8D3     		bcc	.L68
 954              	.LBE14:
 232:rhea\gfx/gfx.c **** 			}
 233:rhea\gfx/gfx.c **** 		}
 234:rhea\gfx/gfx.c **** 	}
 235:rhea\gfx/gfx.c **** 
 236:rhea\gfx/gfx.c **** 	// Refreshing display
 237:rhea\gfx/gfx.c **** 	rhea_gfx_Refresh();
 955              		.loc 1 237 0 is_stmt 1
 956 004a FFF7FEFF 		bl	rhea_gfx_Refresh
 957              	.LVL132:
 958 004e BDE8F087 		pop	{r4, r5, r6, r7, r8, r9, r10, pc}
 959              		.cfi_endproc
 960              	.LFE13:
 961              		.size	rhea_gfx_drawRectangle, .-rhea_gfx_drawRectangle
 962 0052 00BF     		.section	.text.rhea_gfx_drawFilledRectangle,"ax",%progbits
 963              		.align	2
 964              		.global	rhea_gfx_drawFilledRectangle
 965              		.thumb
 966              		.thumb_func
 967              		.type	rhea_gfx_drawFilledRectangle, %function
 968              	rhea_gfx_drawFilledRectangle:
 969              	.LFB14:
 238:rhea\gfx/gfx.c **** }
 239:rhea\gfx/gfx.c **** 
 240:rhea\gfx/gfx.c **** void rhea_gfx_drawFilledRectangle(rhea_gfx_coordinate x, rhea_gfx_coordinate y, rhea_gfx_size_t wid
 970              		.loc 1 240 0
 971              		.cfi_startproc
 972              		@ args = 4, pretend = 0, frame = 0
 973              		@ frame_needed = 0, uses_anonymous_args = 0
 974              	.LVL133:
 975 0000 2DE9F047 		push	{r4, r5, r6, r7, r8, r9, r10, lr}
 976              		.cfi_def_cfa_offset 32
 977              		.cfi_offset 4, -32
 978              		.cfi_offset 5, -28
 979              		.cfi_offset 6, -24
 980              		.cfi_offset 7, -20
ARM GAS  C:\Users\GYULAI~1\AppData\Local\Temp\ccjFV3Tn.s 			page 23


 981              		.cfi_offset 8, -16
 982              		.cfi_offset 9, -12
 983              		.cfi_offset 10, -8
 984              		.cfi_offset 14, -4
 985 0004 8146     		mov	r9, r0
 986 0006 8846     		mov	r8, r1
 987 0008 9246     		mov	r10, r2
 988 000a 1E46     		mov	r6, r3
 989 000c 9DF82070 		ldrb	r7, [sp, #32]	@ zero_extendqisi2
 990              	.LVL134:
 991              	.LBB17:
 241:rhea\gfx/gfx.c **** 
 242:rhea\gfx/gfx.c **** 	// Drawing filled rectangle
 243:rhea\gfx/gfx.c **** 	for (rhea_gfx_size_t i = 0; i < width; i++) {
 992              		.loc 1 243 0
 993 0010 0025     		movs	r5, #0
 994 0012 10E0     		b	.L71
 995              	.LVL135:
 996              	.L72:
 997              	.LBB18:
 244:rhea\gfx/gfx.c **** 		for (rhea_gfx_size_t j = 0; j < height; j++) {
 245:rhea\gfx/gfx.c **** 			rhea_gfx_writePixel_impl(x + i, y + j, color);
 998              		.loc 1 245 0 discriminator 3
 999 0014 08EB0401 		add	r1, r8, r4
 1000 0018 09EB0500 		add	r0, r9, r5
 1001 001c 3A46     		mov	r2, r7
 1002 001e 89B2     		uxth	r1, r1
 1003 0020 80B2     		uxth	r0, r0
 1004 0022 FFF7FEFF 		bl	rhea_gfx_writePixel_impl
 1005              	.LVL136:
 244:rhea\gfx/gfx.c **** 		for (rhea_gfx_size_t j = 0; j < height; j++) {
 1006              		.loc 1 244 0 discriminator 3
 1007 0026 0134     		adds	r4, r4, #1
 1008              	.LVL137:
 1009 0028 E4B2     		uxtb	r4, r4
 1010              	.LVL138:
 1011 002a 00E0     		b	.L73
 1012              	.LVL139:
 1013              	.L74:
 1014              	.LBE18:
 1015 002c 0024     		movs	r4, #0
 1016              	.L73:
 1017              	.LVL140:
 1018              	.LBB19:
 244:rhea\gfx/gfx.c **** 		for (rhea_gfx_size_t j = 0; j < height; j++) {
 1019              		.loc 1 244 0 is_stmt 0 discriminator 1
 1020 002e B442     		cmp	r4, r6
 1021 0030 F0D3     		bcc	.L72
 1022              	.LBE19:
 243:rhea\gfx/gfx.c **** 		for (rhea_gfx_size_t j = 0; j < height; j++) {
 1023              		.loc 1 243 0 is_stmt 1 discriminator 2
 1024 0032 0135     		adds	r5, r5, #1
 1025              	.LVL141:
 1026 0034 EDB2     		uxtb	r5, r5
 1027              	.LVL142:
 1028              	.L71:
 243:rhea\gfx/gfx.c **** 		for (rhea_gfx_size_t j = 0; j < height; j++) {
ARM GAS  C:\Users\GYULAI~1\AppData\Local\Temp\ccjFV3Tn.s 			page 24


 1029              		.loc 1 243 0 is_stmt 0 discriminator 1
 1030 0036 5545     		cmp	r5, r10
 1031 0038 F8D3     		bcc	.L74
 1032              	.LBE17:
 246:rhea\gfx/gfx.c **** 		}
 247:rhea\gfx/gfx.c **** 	}
 248:rhea\gfx/gfx.c **** 
 249:rhea\gfx/gfx.c **** 	// Refreshing display
 250:rhea\gfx/gfx.c **** 	rhea_gfx_Refresh();
 1033              		.loc 1 250 0 is_stmt 1
 1034 003a FFF7FEFF 		bl	rhea_gfx_Refresh
 1035              	.LVL143:
 1036 003e BDE8F087 		pop	{r4, r5, r6, r7, r8, r9, r10, pc}
 1037              		.cfi_endproc
 1038              	.LFE14:
 1039              		.size	rhea_gfx_drawFilledRectangle, .-rhea_gfx_drawFilledRectangle
 1040 0042 00BF     		.section	.text.rhea_gfx_drawSymbol,"ax",%progbits
 1041              		.align	2
 1042              		.global	rhea_gfx_drawSymbol
 1043              		.thumb
 1044              		.thumb_func
 1045              		.type	rhea_gfx_drawSymbol, %function
 1046              	rhea_gfx_drawSymbol:
 1047              	.LFB15:
 251:rhea\gfx/gfx.c **** }
 252:rhea\gfx/gfx.c **** 
 253:rhea\gfx/gfx.c **** void rhea_gfx_drawSymbol(rhea_gfx_coordinate x, rhea_gfx_coordinate y, rhea_gfx_symbol_id symbolID)
 1048              		.loc 1 253 0
 1049              		.cfi_startproc
 1050              		@ args = 0, pretend = 0, frame = 8
 1051              		@ frame_needed = 0, uses_anonymous_args = 0
 1052              	.LVL144:
 1053 0000 2DE9F047 		push	{r4, r5, r6, r7, r8, r9, r10, lr}
 1054              		.cfi_def_cfa_offset 32
 1055              		.cfi_offset 4, -32
 1056              		.cfi_offset 5, -28
 1057              		.cfi_offset 6, -24
 1058              		.cfi_offset 7, -20
 1059              		.cfi_offset 8, -16
 1060              		.cfi_offset 9, -12
 1061              		.cfi_offset 10, -8
 1062              		.cfi_offset 14, -4
 1063 0004 82B0     		sub	sp, sp, #8
 1064              		.cfi_def_cfa_offset 40
 1065 0006 8246     		mov	r10, r0
 1066 0008 0B46     		mov	r3, r1
 254:rhea\gfx/gfx.c **** 
 255:rhea\gfx/gfx.c **** 	// Extracting symbol descriptor
 256:rhea\gfx/gfx.c **** 	rhea_gfx_symbol symbol = rhea_gfx_localFont.fontDescriptors[symbolID];
 1067              		.loc 1 256 0
 1068 000a 2349     		ldr	r1, .L84
 1069              	.LVL145:
 1070 000c 0968     		ldr	r1, [r1]
 1071 000e 01EBC202 		add	r2, r1, r2, lsl #3
 1072              	.LVL146:
 1073 0012 92E80300 		ldmia	r2, {r0, r1}
 1074              	.LVL147:
ARM GAS  C:\Users\GYULAI~1\AppData\Local\Temp\ccjFV3Tn.s 			page 25


 1075 0016 02AA     		add	r2, sp, #8
 1076 0018 02E90300 		stmdb	r2, {r0, r1}
 257:rhea\gfx/gfx.c **** 
 258:rhea\gfx/gfx.c **** 	// Calculating coordinate limits
 259:rhea\gfx/gfx.c **** 	rhea_gfx_coordinate limitHorizontal = x + symbol.width + symbol.paddingHorizontal;
 1077              		.loc 1 259 0
 1078 001c 9DF80470 		ldrb	r7, [sp, #4]	@ zero_extendqisi2
 1079 0020 9DF80690 		ldrb	r9, [sp, #6]	@ zero_extendqisi2
 1080 0024 5744     		add	r7, r7, r10
 1081 0026 4F44     		add	r7, r7, r9
 1082 0028 BFB2     		uxth	r7, r7
 1083              	.LVL148:
 260:rhea\gfx/gfx.c **** 	rhea_gfx_coordinate limitVertical = y + symbol.height + symbol.paddingVertical;
 1084              		.loc 1 260 0
 1085 002a 9DF80580 		ldrb	r8, [sp, #5]	@ zero_extendqisi2
 1086 002e 9DF80720 		ldrb	r2, [sp, #7]	@ zero_extendqisi2
 1087 0032 9844     		add	r8, r8, r3
 1088 0034 9044     		add	r8, r8, r2
 1089 0036 1FFA88F8 		uxth	r8, r8
 1090              	.LVL149:
 1091              	.LBB20:
 261:rhea\gfx/gfx.c **** 
 262:rhea\gfx/gfx.c **** 	for (rhea_gfx_coordinate j = y + symbol.paddingVertical; j < limitVertical; j++) {
 1092              		.loc 1 262 0
 1093 003a 1344     		add	r3, r3, r2
 1094 003c 9EB2     		uxth	r6, r3
 1095              	.LVL150:
 1096 003e 24E0     		b	.L77
 1097              	.L82:
 1098              	.LBB21:
 263:rhea\gfx/gfx.c **** 		for (rhea_gfx_coordinate i = x + symbol.paddingHorizontal; i < limitHorizontal; i++) {
 1099              		.loc 1 263 0
 1100 0040 0AEB0904 		add	r4, r10, r9
 1101 0044 A4B2     		uxth	r4, r4
 1102              	.LVL151:
 1103 0046 1CE0     		b	.L78
 1104              	.L81:
 1105              	.LBB22:
 264:rhea\gfx/gfx.c **** 
 265:rhea\gfx/gfx.c **** 			// Calculating pixel databit position
 266:rhea\gfx/gfx.c **** 			uint32_t byteIndex = symbol.offset / 8;
 1106              		.loc 1 266 0
 1107 0048 009D     		ldr	r5, [sp]
 1108 004a EA08     		lsrs	r2, r5, #3
 1109              	.LVL152:
 267:rhea\gfx/gfx.c **** 			uint8_t  bitIndex  = symbol.offset % 8;
 1110              		.loc 1 267 0
 1111 004c 05F00703 		and	r3, r5, #7
 1112              	.LVL153:
 268:rhea\gfx/gfx.c **** 
 269:rhea\gfx/gfx.c **** 			// Printing next pixel
 270:rhea\gfx/gfx.c **** 			if (rhea_gfx_localFont.fontData[byteIndex] & (1 << (7 - bitIndex))) {
 1113              		.loc 1 270 0
 1114 0050 1149     		ldr	r1, .L84
 1115 0052 4968     		ldr	r1, [r1, #4]
 1116 0054 8A5C     		ldrb	r2, [r1, r2]	@ zero_extendqisi2
 1117              	.LVL154:
ARM GAS  C:\Users\GYULAI~1\AppData\Local\Temp\ccjFV3Tn.s 			page 26


 1118 0056 C3F10703 		rsb	r3, r3, #7
 1119              	.LVL155:
 1120 005a 42FA03F3 		asr	r3, r2, r3
 1121 005e 13F0010F 		tst	r3, #1
 1122 0062 05D0     		beq	.L79
 271:rhea\gfx/gfx.c **** 				rhea_gfx_writePixel_impl(i, j, 1);
 1123              		.loc 1 271 0
 1124 0064 0122     		movs	r2, #1
 1125 0066 3146     		mov	r1, r6
 1126 0068 2046     		mov	r0, r4
 1127 006a FFF7FEFF 		bl	rhea_gfx_writePixel_impl
 1128              	.LVL156:
 1129 006e 04E0     		b	.L80
 1130              	.L79:
 272:rhea\gfx/gfx.c **** 			}
 273:rhea\gfx/gfx.c **** 			else {
 274:rhea\gfx/gfx.c **** 				rhea_gfx_writePixel_impl(i, j, 0);
 1131              		.loc 1 274 0
 1132 0070 0022     		movs	r2, #0
 1133 0072 3146     		mov	r1, r6
 1134 0074 2046     		mov	r0, r4
 1135 0076 FFF7FEFF 		bl	rhea_gfx_writePixel_impl
 1136              	.LVL157:
 1137              	.L80:
 275:rhea\gfx/gfx.c **** 			}
 276:rhea\gfx/gfx.c **** 
 277:rhea\gfx/gfx.c **** 			// Increasing offset
 278:rhea\gfx/gfx.c **** 			symbol.offset++;
 1138              		.loc 1 278 0 discriminator 2
 1139 007a 0135     		adds	r5, r5, #1
 1140              	.LVL158:
 1141 007c 0095     		str	r5, [sp]
 1142              	.LVL159:
 1143              	.LBE22:
 263:rhea\gfx/gfx.c **** 
 1144              		.loc 1 263 0 discriminator 2
 1145 007e 0134     		adds	r4, r4, #1
 1146              	.LVL160:
 1147 0080 A4B2     		uxth	r4, r4
 1148              	.LVL161:
 1149              	.L78:
 263:rhea\gfx/gfx.c **** 
 1150              		.loc 1 263 0 is_stmt 0 discriminator 1
 1151 0082 BC42     		cmp	r4, r7
 1152 0084 E0D3     		bcc	.L81
 1153              	.LBE21:
 262:rhea\gfx/gfx.c **** 		for (rhea_gfx_coordinate i = x + symbol.paddingHorizontal; i < limitHorizontal; i++) {
 1154              		.loc 1 262 0 is_stmt 1 discriminator 2
 1155 0086 0136     		adds	r6, r6, #1
 1156              	.LVL162:
 1157 0088 B6B2     		uxth	r6, r6
 1158              	.LVL163:
 1159              	.L77:
 262:rhea\gfx/gfx.c **** 		for (rhea_gfx_coordinate i = x + symbol.paddingHorizontal; i < limitHorizontal; i++) {
 1160              		.loc 1 262 0 is_stmt 0 discriminator 1
 1161 008a 4645     		cmp	r6, r8
 1162 008c D8D3     		bcc	.L82
ARM GAS  C:\Users\GYULAI~1\AppData\Local\Temp\ccjFV3Tn.s 			page 27


 1163              	.LBE20:
 279:rhea\gfx/gfx.c **** 		}
 280:rhea\gfx/gfx.c **** 	}
 281:rhea\gfx/gfx.c **** 
 282:rhea\gfx/gfx.c **** 	// Refreshing display
 283:rhea\gfx/gfx.c **** 	rhea_gfx_Refresh();
 1164              		.loc 1 283 0 is_stmt 1
 1165 008e FFF7FEFF 		bl	rhea_gfx_Refresh
 1166              	.LVL164:
 284:rhea\gfx/gfx.c **** }
 1167              		.loc 1 284 0
 1168 0092 02B0     		add	sp, sp, #8
 1169              		.cfi_def_cfa_offset 32
 1170              		@ sp needed
 1171 0094 BDE8F087 		pop	{r4, r5, r6, r7, r8, r9, r10, pc}
 1172              	.LVL165:
 1173              	.L85:
 1174              		.align	2
 1175              	.L84:
 1176 0098 00000000 		.word	.LANCHOR0
 1177              		.cfi_endproc
 1178              	.LFE15:
 1179              		.size	rhea_gfx_drawSymbol, .-rhea_gfx_drawSymbol
 1180              		.section	.text.rhea_gfx_setCursor,"ax",%progbits
 1181              		.align	2
 1182              		.global	rhea_gfx_setCursor
 1183              		.thumb
 1184              		.thumb_func
 1185              		.type	rhea_gfx_setCursor, %function
 1186              	rhea_gfx_setCursor:
 1187              	.LFB16:
 285:rhea\gfx/gfx.c **** 
 286:rhea\gfx/gfx.c **** void rhea_gfx_setCursor(rhea_gfx_coordinate x, rhea_gfx_coordinate y) {
 1188              		.loc 1 286 0
 1189              		.cfi_startproc
 1190              		@ args = 0, pretend = 0, frame = 0
 1191              		@ frame_needed = 0, uses_anonymous_args = 0
 1192              		@ link register save eliminated.
 1193              	.LVL166:
 287:rhea\gfx/gfx.c **** 	rhea_gfx_cursorX = x;
 1194              		.loc 1 287 0
 1195 0000 014B     		ldr	r3, .L87
 1196 0002 9881     		strh	r0, [r3, #12]	@ movhi
 288:rhea\gfx/gfx.c **** 	rhea_gfx_cursorY = y;
 1197              		.loc 1 288 0
 1198 0004 D981     		strh	r1, [r3, #14]	@ movhi
 1199 0006 7047     		bx	lr
 1200              	.L88:
 1201              		.align	2
 1202              	.L87:
 1203 0008 00000000 		.word	.LANCHOR0
 1204              		.cfi_endproc
 1205              	.LFE16:
 1206              		.size	rhea_gfx_setCursor, .-rhea_gfx_setCursor
 1207              		.section	.text.rhea_gfx_printSymbol,"ax",%progbits
 1208              		.align	2
 1209              		.global	rhea_gfx_printSymbol
ARM GAS  C:\Users\GYULAI~1\AppData\Local\Temp\ccjFV3Tn.s 			page 28


 1210              		.thumb
 1211              		.thumb_func
 1212              		.type	rhea_gfx_printSymbol, %function
 1213              	rhea_gfx_printSymbol:
 1214              	.LFB17:
 289:rhea\gfx/gfx.c **** }
 290:rhea\gfx/gfx.c **** 
 291:rhea\gfx/gfx.c **** void rhea_gfx_printSymbol(rhea_gfx_symbol_id id) {
 1215              		.loc 1 291 0
 1216              		.cfi_startproc
 1217              		@ args = 0, pretend = 0, frame = 8
 1218              		@ frame_needed = 0, uses_anonymous_args = 0
 1219              	.LVL167:
 1220 0000 30B5     		push	{r4, r5, lr}
 1221              		.cfi_def_cfa_offset 12
 1222              		.cfi_offset 4, -12
 1223              		.cfi_offset 5, -8
 1224              		.cfi_offset 14, -4
 1225 0002 83B0     		sub	sp, sp, #12
 1226              		.cfi_def_cfa_offset 24
 1227 0004 0246     		mov	r2, r0
 292:rhea\gfx/gfx.c **** 
 293:rhea\gfx/gfx.c **** 	// Getting symbol to print
 294:rhea\gfx/gfx.c **** 	rhea_gfx_symbol symbol = rhea_gfx_localFont.fontDescriptors[id];
 1228              		.loc 1 294 0
 1229 0006 134C     		ldr	r4, .L92
 1230 0008 2368     		ldr	r3, [r4]
 1231 000a 03EBC003 		add	r3, r3, r0, lsl #3
 1232 000e 93E80300 		ldmia	r3, {r0, r1}
 1233              	.LVL168:
 1234 0012 02AB     		add	r3, sp, #8
 1235 0014 03E90300 		stmdb	r3, {r0, r1}
 295:rhea\gfx/gfx.c **** 
 296:rhea\gfx/gfx.c **** 	// Checking display bounds
 297:rhea\gfx/gfx.c **** 	if (rhea_gfx_cursorX + symbol.width > RHEA_GFX_WIDTH) {
 1236              		.loc 1 297 0
 1237 0018 9DF80450 		ldrb	r5, [sp, #4]	@ zero_extendqisi2
 1238 001c A389     		ldrh	r3, [r4, #12]
 1239 001e 2B44     		add	r3, r3, r5
 1240 0020 802B     		cmp	r3, #128
 1241 0022 09DD     		ble	.L90
 298:rhea\gfx/gfx.c **** 		rhea_gfx_cursorX = 0;
 1242              		.loc 1 298 0
 1243 0024 0021     		movs	r1, #0
 1244 0026 A181     		strh	r1, [r4, #12]	@ movhi
 299:rhea\gfx/gfx.c **** 		rhea_gfx_cursorY += symbol.height + symbol.paddingVertical;
 1245              		.loc 1 299 0
 1246 0028 9DF80500 		ldrb	r0, [sp, #5]	@ zero_extendqisi2
 1247 002c 9DF80710 		ldrb	r1, [sp, #7]	@ zero_extendqisi2
 1248 0030 0844     		add	r0, r0, r1
 1249 0032 E189     		ldrh	r1, [r4, #14]
 1250 0034 0144     		add	r1, r1, r0
 1251 0036 E181     		strh	r1, [r4, #14]	@ movhi
 1252              	.L90:
 300:rhea\gfx/gfx.c **** 	}
 301:rhea\gfx/gfx.c **** 
 302:rhea\gfx/gfx.c **** 	// Printing symbol
ARM GAS  C:\Users\GYULAI~1\AppData\Local\Temp\ccjFV3Tn.s 			page 29


 303:rhea\gfx/gfx.c **** 	rhea_gfx_DrawSymbol(rhea_gfx_cursorX, rhea_gfx_cursorY, id);
 1253              		.loc 1 303 0
 1254 0038 064C     		ldr	r4, .L92
 1255 003a E189     		ldrh	r1, [r4, #14]
 1256 003c A089     		ldrh	r0, [r4, #12]
 1257 003e FFF7FEFF 		bl	rhea_gfx_DrawSymbol
 1258              	.LVL169:
 304:rhea\gfx/gfx.c **** 
 305:rhea\gfx/gfx.c **** 	// Moving cursor
 306:rhea\gfx/gfx.c **** 	rhea_gfx_cursorX += symbol.width + symbol.paddingHorizontal;
 1259              		.loc 1 306 0
 1260 0042 9DF80630 		ldrb	r3, [sp, #6]	@ zero_extendqisi2
 1261 0046 EA18     		adds	r2, r5, r3
 1262 0048 A389     		ldrh	r3, [r4, #12]
 1263 004a 1344     		add	r3, r3, r2
 1264 004c A381     		strh	r3, [r4, #12]	@ movhi
 307:rhea\gfx/gfx.c **** }
 1265              		.loc 1 307 0
 1266 004e 03B0     		add	sp, sp, #12
 1267              		.cfi_def_cfa_offset 12
 1268              		@ sp needed
 1269 0050 30BD     		pop	{r4, r5, pc}
 1270              	.L93:
 1271 0052 00BF     		.align	2
 1272              	.L92:
 1273 0054 00000000 		.word	.LANCHOR0
 1274              		.cfi_endproc
 1275              	.LFE17:
 1276              		.size	rhea_gfx_printSymbol, .-rhea_gfx_printSymbol
 1277              		.section	.text.rhea_gfx_print,"ax",%progbits
 1278              		.align	2
 1279              		.global	rhea_gfx_print
 1280              		.thumb
 1281              		.thumb_func
 1282              		.type	rhea_gfx_print, %function
 1283              	rhea_gfx_print:
 1284              	.LFB18:
 308:rhea\gfx/gfx.c **** 
 309:rhea\gfx/gfx.c **** void rhea_gfx_print(const char* str) {
 1285              		.loc 1 309 0
 1286              		.cfi_startproc
 1287              		@ args = 0, pretend = 0, frame = 0
 1288              		@ frame_needed = 0, uses_anonymous_args = 0
 1289              	.LVL170:
 1290 0000 10B5     		push	{r4, lr}
 1291              		.cfi_def_cfa_offset 8
 1292              		.cfi_offset 4, -8
 1293              		.cfi_offset 14, -4
 1294 0002 0446     		mov	r4, r0
 310:rhea\gfx/gfx.c **** 
 311:rhea\gfx/gfx.c **** 	while (*str != '\0') {
 1295              		.loc 1 311 0
 1296 0004 13E0     		b	.L95
 1297              	.LVL171:
 1298              	.L99:
 312:rhea\gfx/gfx.c **** 
 313:rhea\gfx/gfx.c **** 		// Handling newline character
ARM GAS  C:\Users\GYULAI~1\AppData\Local\Temp\ccjFV3Tn.s 			page 30


 314:rhea\gfx/gfx.c **** 		if (*str == '\n') {
 1299              		.loc 1 314 0
 1300 0006 0A28     		cmp	r0, #10
 1301 0008 08D1     		bne	.L96
 315:rhea\gfx/gfx.c **** 			rhea_gfx_cursorX = 0;
 1302              		.loc 1 315 0
 1303 000a 0B4B     		ldr	r3, .L101
 1304 000c 0022     		movs	r2, #0
 1305 000e 9A81     		strh	r2, [r3, #12]	@ movhi
 316:rhea\gfx/gfx.c **** 			rhea_gfx_cursorY += rhea_gfx_localFont.fontHeight;
 1306              		.loc 1 316 0
 1307 0010 197A     		ldrb	r1, [r3, #8]	@ zero_extendqisi2
 1308 0012 DA89     		ldrh	r2, [r3, #14]
 1309 0014 0A44     		add	r2, r2, r1
 1310 0016 DA81     		strh	r2, [r3, #14]	@ movhi
 317:rhea\gfx/gfx.c **** 			str++;
 1311              		.loc 1 317 0
 1312 0018 0134     		adds	r4, r4, #1
 1313              	.LVL172:
 318:rhea\gfx/gfx.c **** 			continue;
 1314              		.loc 1 318 0
 1315 001a 08E0     		b	.L95
 1316              	.L96:
 319:rhea\gfx/gfx.c **** 		}
 320:rhea\gfx/gfx.c **** 		// Handling unprintable characters
 321:rhea\gfx/gfx.c **** 		else if(*str < 32) {
 1317              		.loc 1 321 0
 1318 001c 1F28     		cmp	r0, #31
 1319 001e 01D8     		bhi	.L98
 322:rhea\gfx/gfx.c **** 			str++;
 1320              		.loc 1 322 0
 1321 0020 0134     		adds	r4, r4, #1
 1322              	.LVL173:
 323:rhea\gfx/gfx.c **** 			continue;
 1323              		.loc 1 323 0
 1324 0022 04E0     		b	.L95
 1325              	.L98:
 324:rhea\gfx/gfx.c **** 		}
 325:rhea\gfx/gfx.c **** 
 326:rhea\gfx/gfx.c **** 		// Printing next character
 327:rhea\gfx/gfx.c **** 		rhea_gfx_PrintSymbol(*str++ - 32);
 1326              		.loc 1 327 0
 1327 0024 0134     		adds	r4, r4, #1
 1328              	.LVL174:
 1329 0026 2038     		subs	r0, r0, #32
 1330 0028 80B2     		uxth	r0, r0
 1331 002a FFF7FEFF 		bl	rhea_gfx_PrintSymbol
 1332              	.LVL175:
 1333              	.L95:
 311:rhea\gfx/gfx.c **** 
 1334              		.loc 1 311 0
 1335 002e 2078     		ldrb	r0, [r4]	@ zero_extendqisi2
 1336 0030 0028     		cmp	r0, #0
 1337 0032 E8D1     		bne	.L99
 328:rhea\gfx/gfx.c **** 	}
 329:rhea\gfx/gfx.c **** }
 1338              		.loc 1 329 0
ARM GAS  C:\Users\GYULAI~1\AppData\Local\Temp\ccjFV3Tn.s 			page 31


 1339 0034 10BD     		pop	{r4, pc}
 1340              	.LVL176:
 1341              	.L102:
 1342 0036 00BF     		.align	2
 1343              	.L101:
 1344 0038 00000000 		.word	.LANCHOR0
 1345              		.cfi_endproc
 1346              	.LFE18:
 1347              		.size	rhea_gfx_print, .-rhea_gfx_print
 1348              		.global	codefont_8x8_descriptors
 1349              		.global	codefont_8x8_data
 1350              		.section	.rodata
 1351              		.align	2
 1352              		.set	.LANCHOR1,. + 0
 1353              	.LC1:
 1354 0000 00000000 		.word	codefont_8x8_descriptors
 1355 0004 00000000 		.word	codefont_8x8_data
 1356 0008 08       		.byte	8
 1357 0009 000000   		.space	3
 1358              		.data
 1359              		.align	2
 1360              		.type	codefont_8x8_descriptors, %object
 1361              		.size	codefont_8x8_descriptors, 800
 1362              	codefont_8x8_descriptors:
 1363 0000 00000000 		.word	0
 1364 0004 08       		.byte	8
 1365 0005 08       		.byte	8
 1366 0006 01       		.byte	1
 1367 0007 01       		.byte	1
 1368 0008 40000000 		.word	64
 1369 000c 08       		.byte	8
 1370 000d 08       		.byte	8
 1371 000e 01       		.byte	1
 1372 000f 01       		.byte	1
 1373 0010 80000000 		.word	128
 1374 0014 08       		.byte	8
 1375 0015 08       		.byte	8
 1376 0016 01       		.byte	1
 1377 0017 01       		.byte	1
 1378 0018 C0000000 		.word	192
 1379 001c 08       		.byte	8
 1380 001d 08       		.byte	8
 1381 001e 01       		.byte	1
 1382 001f 01       		.byte	1
 1383 0020 00010000 		.word	256
 1384 0024 08       		.byte	8
 1385 0025 08       		.byte	8
 1386 0026 01       		.byte	1
 1387 0027 01       		.byte	1
 1388 0028 40010000 		.word	320
 1389 002c 08       		.byte	8
 1390 002d 08       		.byte	8
 1391 002e 01       		.byte	1
 1392 002f 01       		.byte	1
 1393 0030 80010000 		.word	384
 1394 0034 08       		.byte	8
 1395 0035 08       		.byte	8
ARM GAS  C:\Users\GYULAI~1\AppData\Local\Temp\ccjFV3Tn.s 			page 32


 1396 0036 01       		.byte	1
 1397 0037 01       		.byte	1
 1398 0038 C0010000 		.word	448
 1399 003c 08       		.byte	8
 1400 003d 08       		.byte	8
 1401 003e 01       		.byte	1
 1402 003f 01       		.byte	1
 1403 0040 00020000 		.word	512
 1404 0044 08       		.byte	8
 1405 0045 08       		.byte	8
 1406 0046 01       		.byte	1
 1407 0047 01       		.byte	1
 1408 0048 40020000 		.word	576
 1409 004c 08       		.byte	8
 1410 004d 08       		.byte	8
 1411 004e 01       		.byte	1
 1412 004f 01       		.byte	1
 1413 0050 80020000 		.word	640
 1414 0054 08       		.byte	8
 1415 0055 08       		.byte	8
 1416 0056 01       		.byte	1
 1417 0057 01       		.byte	1
 1418 0058 C0020000 		.word	704
 1419 005c 08       		.byte	8
 1420 005d 08       		.byte	8
 1421 005e 01       		.byte	1
 1422 005f 01       		.byte	1
 1423 0060 00030000 		.word	768
 1424 0064 08       		.byte	8
 1425 0065 08       		.byte	8
 1426 0066 01       		.byte	1
 1427 0067 01       		.byte	1
 1428 0068 40030000 		.word	832
 1429 006c 08       		.byte	8
 1430 006d 08       		.byte	8
 1431 006e 01       		.byte	1
 1432 006f 01       		.byte	1
 1433 0070 80030000 		.word	896
 1434 0074 08       		.byte	8
 1435 0075 08       		.byte	8
 1436 0076 01       		.byte	1
 1437 0077 01       		.byte	1
 1438 0078 C0030000 		.word	960
 1439 007c 08       		.byte	8
 1440 007d 08       		.byte	8
 1441 007e 01       		.byte	1
 1442 007f 01       		.byte	1
 1443 0080 00040000 		.word	1024
 1444 0084 08       		.byte	8
 1445 0085 08       		.byte	8
 1446 0086 01       		.byte	1
 1447 0087 01       		.byte	1
 1448 0088 40040000 		.word	1088
 1449 008c 08       		.byte	8
 1450 008d 08       		.byte	8
 1451 008e 01       		.byte	1
 1452 008f 01       		.byte	1
ARM GAS  C:\Users\GYULAI~1\AppData\Local\Temp\ccjFV3Tn.s 			page 33


 1453 0090 80040000 		.word	1152
 1454 0094 08       		.byte	8
 1455 0095 08       		.byte	8
 1456 0096 01       		.byte	1
 1457 0097 01       		.byte	1
 1458 0098 C0040000 		.word	1216
 1459 009c 08       		.byte	8
 1460 009d 08       		.byte	8
 1461 009e 01       		.byte	1
 1462 009f 01       		.byte	1
 1463 00a0 00050000 		.word	1280
 1464 00a4 08       		.byte	8
 1465 00a5 08       		.byte	8
 1466 00a6 01       		.byte	1
 1467 00a7 01       		.byte	1
 1468 00a8 40050000 		.word	1344
 1469 00ac 08       		.byte	8
 1470 00ad 08       		.byte	8
 1471 00ae 01       		.byte	1
 1472 00af 01       		.byte	1
 1473 00b0 80050000 		.word	1408
 1474 00b4 08       		.byte	8
 1475 00b5 08       		.byte	8
 1476 00b6 01       		.byte	1
 1477 00b7 01       		.byte	1
 1478 00b8 C0050000 		.word	1472
 1479 00bc 08       		.byte	8
 1480 00bd 08       		.byte	8
 1481 00be 01       		.byte	1
 1482 00bf 01       		.byte	1
 1483 00c0 00060000 		.word	1536
 1484 00c4 08       		.byte	8
 1485 00c5 08       		.byte	8
 1486 00c6 01       		.byte	1
 1487 00c7 01       		.byte	1
 1488 00c8 40060000 		.word	1600
 1489 00cc 08       		.byte	8
 1490 00cd 08       		.byte	8
 1491 00ce 01       		.byte	1
 1492 00cf 01       		.byte	1
 1493 00d0 80060000 		.word	1664
 1494 00d4 08       		.byte	8
 1495 00d5 08       		.byte	8
 1496 00d6 01       		.byte	1
 1497 00d7 01       		.byte	1
 1498 00d8 C0060000 		.word	1728
 1499 00dc 08       		.byte	8
 1500 00dd 08       		.byte	8
 1501 00de 01       		.byte	1
 1502 00df 01       		.byte	1
 1503 00e0 00070000 		.word	1792
 1504 00e4 08       		.byte	8
 1505 00e5 08       		.byte	8
 1506 00e6 01       		.byte	1
 1507 00e7 01       		.byte	1
 1508 00e8 40070000 		.word	1856
 1509 00ec 08       		.byte	8
ARM GAS  C:\Users\GYULAI~1\AppData\Local\Temp\ccjFV3Tn.s 			page 34


 1510 00ed 08       		.byte	8
 1511 00ee 01       		.byte	1
 1512 00ef 01       		.byte	1
 1513 00f0 80070000 		.word	1920
 1514 00f4 08       		.byte	8
 1515 00f5 08       		.byte	8
 1516 00f6 01       		.byte	1
 1517 00f7 01       		.byte	1
 1518 00f8 C0070000 		.word	1984
 1519 00fc 08       		.byte	8
 1520 00fd 08       		.byte	8
 1521 00fe 01       		.byte	1
 1522 00ff 01       		.byte	1
 1523 0100 00080000 		.word	2048
 1524 0104 08       		.byte	8
 1525 0105 08       		.byte	8
 1526 0106 01       		.byte	1
 1527 0107 01       		.byte	1
 1528 0108 40080000 		.word	2112
 1529 010c 08       		.byte	8
 1530 010d 08       		.byte	8
 1531 010e 01       		.byte	1
 1532 010f 01       		.byte	1
 1533 0110 80080000 		.word	2176
 1534 0114 08       		.byte	8
 1535 0115 08       		.byte	8
 1536 0116 01       		.byte	1
 1537 0117 01       		.byte	1
 1538 0118 C0080000 		.word	2240
 1539 011c 08       		.byte	8
 1540 011d 08       		.byte	8
 1541 011e 01       		.byte	1
 1542 011f 01       		.byte	1
 1543 0120 00090000 		.word	2304
 1544 0124 08       		.byte	8
 1545 0125 08       		.byte	8
 1546 0126 01       		.byte	1
 1547 0127 01       		.byte	1
 1548 0128 40090000 		.word	2368
 1549 012c 08       		.byte	8
 1550 012d 08       		.byte	8
 1551 012e 01       		.byte	1
 1552 012f 01       		.byte	1
 1553 0130 80090000 		.word	2432
 1554 0134 08       		.byte	8
 1555 0135 08       		.byte	8
 1556 0136 01       		.byte	1
 1557 0137 01       		.byte	1
 1558 0138 C0090000 		.word	2496
 1559 013c 08       		.byte	8
 1560 013d 08       		.byte	8
 1561 013e 01       		.byte	1
 1562 013f 01       		.byte	1
 1563 0140 000A0000 		.word	2560
 1564 0144 08       		.byte	8
 1565 0145 08       		.byte	8
 1566 0146 01       		.byte	1
ARM GAS  C:\Users\GYULAI~1\AppData\Local\Temp\ccjFV3Tn.s 			page 35


 1567 0147 01       		.byte	1
 1568 0148 400A0000 		.word	2624
 1569 014c 08       		.byte	8
 1570 014d 08       		.byte	8
 1571 014e 01       		.byte	1
 1572 014f 01       		.byte	1
 1573 0150 800A0000 		.word	2688
 1574 0154 08       		.byte	8
 1575 0155 08       		.byte	8
 1576 0156 01       		.byte	1
 1577 0157 01       		.byte	1
 1578 0158 C00A0000 		.word	2752
 1579 015c 08       		.byte	8
 1580 015d 08       		.byte	8
 1581 015e 01       		.byte	1
 1582 015f 01       		.byte	1
 1583 0160 000B0000 		.word	2816
 1584 0164 08       		.byte	8
 1585 0165 08       		.byte	8
 1586 0166 01       		.byte	1
 1587 0167 01       		.byte	1
 1588 0168 400B0000 		.word	2880
 1589 016c 08       		.byte	8
 1590 016d 08       		.byte	8
 1591 016e 01       		.byte	1
 1592 016f 01       		.byte	1
 1593 0170 800B0000 		.word	2944
 1594 0174 08       		.byte	8
 1595 0175 08       		.byte	8
 1596 0176 01       		.byte	1
 1597 0177 01       		.byte	1
 1598 0178 C00B0000 		.word	3008
 1599 017c 08       		.byte	8
 1600 017d 08       		.byte	8
 1601 017e 01       		.byte	1
 1602 017f 01       		.byte	1
 1603 0180 000C0000 		.word	3072
 1604 0184 08       		.byte	8
 1605 0185 08       		.byte	8
 1606 0186 01       		.byte	1
 1607 0187 01       		.byte	1
 1608 0188 400C0000 		.word	3136
 1609 018c 08       		.byte	8
 1610 018d 08       		.byte	8
 1611 018e 01       		.byte	1
 1612 018f 01       		.byte	1
 1613 0190 800C0000 		.word	3200
 1614 0194 08       		.byte	8
 1615 0195 08       		.byte	8
 1616 0196 01       		.byte	1
 1617 0197 01       		.byte	1
 1618 0198 C00C0000 		.word	3264
 1619 019c 08       		.byte	8
 1620 019d 08       		.byte	8
 1621 019e 01       		.byte	1
 1622 019f 01       		.byte	1
 1623 01a0 000D0000 		.word	3328
ARM GAS  C:\Users\GYULAI~1\AppData\Local\Temp\ccjFV3Tn.s 			page 36


 1624 01a4 08       		.byte	8
 1625 01a5 08       		.byte	8
 1626 01a6 01       		.byte	1
 1627 01a7 01       		.byte	1
 1628 01a8 400D0000 		.word	3392
 1629 01ac 08       		.byte	8
 1630 01ad 08       		.byte	8
 1631 01ae 01       		.byte	1
 1632 01af 01       		.byte	1
 1633 01b0 800D0000 		.word	3456
 1634 01b4 08       		.byte	8
 1635 01b5 08       		.byte	8
 1636 01b6 01       		.byte	1
 1637 01b7 01       		.byte	1
 1638 01b8 C00D0000 		.word	3520
 1639 01bc 08       		.byte	8
 1640 01bd 08       		.byte	8
 1641 01be 01       		.byte	1
 1642 01bf 01       		.byte	1
 1643 01c0 000E0000 		.word	3584
 1644 01c4 08       		.byte	8
 1645 01c5 08       		.byte	8
 1646 01c6 01       		.byte	1
 1647 01c7 01       		.byte	1
 1648 01c8 400E0000 		.word	3648
 1649 01cc 08       		.byte	8
 1650 01cd 08       		.byte	8
 1651 01ce 01       		.byte	1
 1652 01cf 01       		.byte	1
 1653 01d0 800E0000 		.word	3712
 1654 01d4 08       		.byte	8
 1655 01d5 08       		.byte	8
 1656 01d6 01       		.byte	1
 1657 01d7 01       		.byte	1
 1658 01d8 C00E0000 		.word	3776
 1659 01dc 08       		.byte	8
 1660 01dd 08       		.byte	8
 1661 01de 01       		.byte	1
 1662 01df 01       		.byte	1
 1663 01e0 000F0000 		.word	3840
 1664 01e4 08       		.byte	8
 1665 01e5 08       		.byte	8
 1666 01e6 01       		.byte	1
 1667 01e7 01       		.byte	1
 1668 01e8 400F0000 		.word	3904
 1669 01ec 08       		.byte	8
 1670 01ed 08       		.byte	8
 1671 01ee 01       		.byte	1
 1672 01ef 01       		.byte	1
 1673 01f0 800F0000 		.word	3968
 1674 01f4 08       		.byte	8
 1675 01f5 08       		.byte	8
 1676 01f6 01       		.byte	1
 1677 01f7 01       		.byte	1
 1678 01f8 C00F0000 		.word	4032
 1679 01fc 08       		.byte	8
 1680 01fd 08       		.byte	8
ARM GAS  C:\Users\GYULAI~1\AppData\Local\Temp\ccjFV3Tn.s 			page 37


 1681 01fe 01       		.byte	1
 1682 01ff 01       		.byte	1
 1683 0200 00100000 		.word	4096
 1684 0204 08       		.byte	8
 1685 0205 08       		.byte	8
 1686 0206 01       		.byte	1
 1687 0207 01       		.byte	1
 1688 0208 40100000 		.word	4160
 1689 020c 08       		.byte	8
 1690 020d 08       		.byte	8
 1691 020e 01       		.byte	1
 1692 020f 01       		.byte	1
 1693 0210 80100000 		.word	4224
 1694 0214 08       		.byte	8
 1695 0215 08       		.byte	8
 1696 0216 01       		.byte	1
 1697 0217 01       		.byte	1
 1698 0218 C0100000 		.word	4288
 1699 021c 08       		.byte	8
 1700 021d 08       		.byte	8
 1701 021e 01       		.byte	1
 1702 021f 01       		.byte	1
 1703 0220 00110000 		.word	4352
 1704 0224 08       		.byte	8
 1705 0225 08       		.byte	8
 1706 0226 01       		.byte	1
 1707 0227 01       		.byte	1
 1708 0228 40110000 		.word	4416
 1709 022c 08       		.byte	8
 1710 022d 08       		.byte	8
 1711 022e 01       		.byte	1
 1712 022f 01       		.byte	1
 1713 0230 80110000 		.word	4480
 1714 0234 08       		.byte	8
 1715 0235 08       		.byte	8
 1716 0236 01       		.byte	1
 1717 0237 01       		.byte	1
 1718 0238 C0110000 		.word	4544
 1719 023c 08       		.byte	8
 1720 023d 08       		.byte	8
 1721 023e 01       		.byte	1
 1722 023f 01       		.byte	1
 1723 0240 00120000 		.word	4608
 1724 0244 08       		.byte	8
 1725 0245 08       		.byte	8
 1726 0246 01       		.byte	1
 1727 0247 01       		.byte	1
 1728 0248 40120000 		.word	4672
 1729 024c 08       		.byte	8
 1730 024d 08       		.byte	8
 1731 024e 01       		.byte	1
 1732 024f 01       		.byte	1
 1733 0250 80120000 		.word	4736
 1734 0254 08       		.byte	8
 1735 0255 08       		.byte	8
 1736 0256 01       		.byte	1
 1737 0257 01       		.byte	1
ARM GAS  C:\Users\GYULAI~1\AppData\Local\Temp\ccjFV3Tn.s 			page 38


 1738 0258 C0120000 		.word	4800
 1739 025c 08       		.byte	8
 1740 025d 08       		.byte	8
 1741 025e 01       		.byte	1
 1742 025f 01       		.byte	1
 1743 0260 00130000 		.word	4864
 1744 0264 08       		.byte	8
 1745 0265 08       		.byte	8
 1746 0266 01       		.byte	1
 1747 0267 01       		.byte	1
 1748 0268 40130000 		.word	4928
 1749 026c 08       		.byte	8
 1750 026d 08       		.byte	8
 1751 026e 01       		.byte	1
 1752 026f 01       		.byte	1
 1753 0270 80130000 		.word	4992
 1754 0274 08       		.byte	8
 1755 0275 08       		.byte	8
 1756 0276 01       		.byte	1
 1757 0277 01       		.byte	1
 1758 0278 C0130000 		.word	5056
 1759 027c 08       		.byte	8
 1760 027d 08       		.byte	8
 1761 027e 01       		.byte	1
 1762 027f 01       		.byte	1
 1763 0280 00140000 		.word	5120
 1764 0284 08       		.byte	8
 1765 0285 08       		.byte	8
 1766 0286 01       		.byte	1
 1767 0287 01       		.byte	1
 1768 0288 40140000 		.word	5184
 1769 028c 08       		.byte	8
 1770 028d 08       		.byte	8
 1771 028e 01       		.byte	1
 1772 028f 01       		.byte	1
 1773 0290 80140000 		.word	5248
 1774 0294 08       		.byte	8
 1775 0295 08       		.byte	8
 1776 0296 01       		.byte	1
 1777 0297 01       		.byte	1
 1778 0298 C0140000 		.word	5312
 1779 029c 08       		.byte	8
 1780 029d 08       		.byte	8
 1781 029e 01       		.byte	1
 1782 029f 01       		.byte	1
 1783 02a0 00150000 		.word	5376
 1784 02a4 08       		.byte	8
 1785 02a5 08       		.byte	8
 1786 02a6 01       		.byte	1
 1787 02a7 01       		.byte	1
 1788 02a8 40150000 		.word	5440
 1789 02ac 08       		.byte	8
 1790 02ad 08       		.byte	8
 1791 02ae 01       		.byte	1
 1792 02af 01       		.byte	1
 1793 02b0 80150000 		.word	5504
 1794 02b4 08       		.byte	8
ARM GAS  C:\Users\GYULAI~1\AppData\Local\Temp\ccjFV3Tn.s 			page 39


 1795 02b5 08       		.byte	8
 1796 02b6 01       		.byte	1
 1797 02b7 01       		.byte	1
 1798 02b8 C0150000 		.word	5568
 1799 02bc 08       		.byte	8
 1800 02bd 08       		.byte	8
 1801 02be 01       		.byte	1
 1802 02bf 01       		.byte	1
 1803 02c0 00160000 		.word	5632
 1804 02c4 08       		.byte	8
 1805 02c5 08       		.byte	8
 1806 02c6 01       		.byte	1
 1807 02c7 01       		.byte	1
 1808 02c8 40160000 		.word	5696
 1809 02cc 08       		.byte	8
 1810 02cd 08       		.byte	8
 1811 02ce 01       		.byte	1
 1812 02cf 01       		.byte	1
 1813 02d0 80160000 		.word	5760
 1814 02d4 08       		.byte	8
 1815 02d5 08       		.byte	8
 1816 02d6 01       		.byte	1
 1817 02d7 01       		.byte	1
 1818 02d8 C0160000 		.word	5824
 1819 02dc 08       		.byte	8
 1820 02dd 08       		.byte	8
 1821 02de 01       		.byte	1
 1822 02df 01       		.byte	1
 1823 02e0 00170000 		.word	5888
 1824 02e4 08       		.byte	8
 1825 02e5 08       		.byte	8
 1826 02e6 01       		.byte	1
 1827 02e7 01       		.byte	1
 1828 02e8 40170000 		.word	5952
 1829 02ec 08       		.byte	8
 1830 02ed 08       		.byte	8
 1831 02ee 01       		.byte	1
 1832 02ef 01       		.byte	1
 1833 02f0 80170000 		.word	6016
 1834 02f4 08       		.byte	8
 1835 02f5 08       		.byte	8
 1836 02f6 01       		.byte	1
 1837 02f7 01       		.byte	1
 1838 02f8 00180000 		.word	6144
 1839 02fc 08       		.byte	8
 1840 02fd 08       		.byte	8
 1841 02fe 01       		.byte	1
 1842 02ff 01       		.byte	1
 1843 0300 40180000 		.word	6208
 1844 0304 08       		.byte	8
 1845 0305 08       		.byte	8
 1846 0306 01       		.byte	1
 1847 0307 01       		.byte	1
 1848 0308 C0170000 		.word	6080
 1849 030c 08       		.byte	8
 1850 030d 08       		.byte	8
 1851 030e 01       		.byte	1
ARM GAS  C:\Users\GYULAI~1\AppData\Local\Temp\ccjFV3Tn.s 			page 40


 1852 030f 01       		.byte	1
 1853 0310 80180000 		.word	6272
 1854 0314 08       		.byte	8
 1855 0315 08       		.byte	8
 1856 0316 01       		.byte	1
 1857 0317 01       		.byte	1
 1858 0318 C0180000 		.word	6336
 1859 031c 08       		.byte	8
 1860 031d 08       		.byte	8
 1861 031e 01       		.byte	1
 1862 031f 01       		.byte	1
 1863              		.type	codefont_8x8_data, %object
 1864              		.size	codefont_8x8_data, 800
 1865              	codefont_8x8_data:
 1866 0320 00       		.byte	0
 1867 0321 00       		.byte	0
 1868 0322 00       		.byte	0
 1869 0323 00       		.byte	0
 1870 0324 00       		.byte	0
 1871 0325 00       		.byte	0
 1872 0326 00       		.byte	0
 1873 0327 00       		.byte	0
 1874 0328 18       		.byte	24
 1875 0329 3C       		.byte	60
 1876 032a 3C       		.byte	60
 1877 032b 3C       		.byte	60
 1878 032c 18       		.byte	24
 1879 032d 00       		.byte	0
 1880 032e 18       		.byte	24
 1881 032f 18       		.byte	24
 1882 0330 6C       		.byte	108
 1883 0331 48       		.byte	72
 1884 0332 00       		.byte	0
 1885 0333 00       		.byte	0
 1886 0334 00       		.byte	0
 1887 0335 00       		.byte	0
 1888 0336 00       		.byte	0
 1889 0337 00       		.byte	0
 1890 0338 66       		.byte	102
 1891 0339 66       		.byte	102
 1892 033a FF       		.byte	-1
 1893 033b 66       		.byte	102
 1894 033c 66       		.byte	102
 1895 033d FF       		.byte	-1
 1896 033e 66       		.byte	102
 1897 033f 66       		.byte	102
 1898 0340 28       		.byte	40
 1899 0341 7C       		.byte	124
 1900 0342 AA       		.byte	-86
 1901 0343 7C       		.byte	124
 1902 0344 2A       		.byte	42
 1903 0345 AA       		.byte	-86
 1904 0346 7C       		.byte	124
 1905 0347 28       		.byte	40
 1906 0348 E1       		.byte	-31
 1907 0349 A2       		.byte	-94
 1908 034a E4       		.byte	-28
ARM GAS  C:\Users\GYULAI~1\AppData\Local\Temp\ccjFV3Tn.s 			page 41


 1909 034b 08       		.byte	8
 1910 034c 10       		.byte	16
 1911 034d 27       		.byte	39
 1912 034e 45       		.byte	69
 1913 034f 87       		.byte	-121
 1914 0350 00       		.byte	0
 1915 0351 30       		.byte	48
 1916 0352 48       		.byte	72
 1917 0353 30       		.byte	48
 1918 0354 58       		.byte	88
 1919 0355 8D       		.byte	-115
 1920 0356 86       		.byte	-122
 1921 0357 7B       		.byte	123
 1922 0358 18       		.byte	24
 1923 0359 10       		.byte	16
 1924 035a 00       		.byte	0
 1925 035b 00       		.byte	0
 1926 035c 00       		.byte	0
 1927 035d 00       		.byte	0
 1928 035e 00       		.byte	0
 1929 035f 00       		.byte	0
 1930 0360 08       		.byte	8
 1931 0361 10       		.byte	16
 1932 0362 20       		.byte	32
 1933 0363 20       		.byte	32
 1934 0364 20       		.byte	32
 1935 0365 20       		.byte	32
 1936 0366 10       		.byte	16
 1937 0367 08       		.byte	8
 1938 0368 10       		.byte	16
 1939 0369 08       		.byte	8
 1940 036a 04       		.byte	4
 1941 036b 04       		.byte	4
 1942 036c 04       		.byte	4
 1943 036d 04       		.byte	4
 1944 036e 08       		.byte	8
 1945 036f 10       		.byte	16
 1946 0370 99       		.byte	-103
 1947 0371 DB       		.byte	-37
 1948 0372 3C       		.byte	60
 1949 0373 FF       		.byte	-1
 1950 0374 FF       		.byte	-1
 1951 0375 3C       		.byte	60
 1952 0376 DB       		.byte	-37
 1953 0377 99       		.byte	-103
 1954 0378 00       		.byte	0
 1955 0379 18       		.byte	24
 1956 037a 18       		.byte	24
 1957 037b 7E       		.byte	126
 1958 037c 7E       		.byte	126
 1959 037d 18       		.byte	24
 1960 037e 18       		.byte	24
 1961 037f 00       		.byte	0
 1962 0380 00       		.byte	0
 1963 0381 00       		.byte	0
 1964 0382 00       		.byte	0
 1965 0383 00       		.byte	0
ARM GAS  C:\Users\GYULAI~1\AppData\Local\Temp\ccjFV3Tn.s 			page 42


 1966 0384 00       		.byte	0
 1967 0385 18       		.byte	24
 1968 0386 08       		.byte	8
 1969 0387 10       		.byte	16
 1970 0388 00       		.byte	0
 1971 0389 00       		.byte	0
 1972 038a 00       		.byte	0
 1973 038b 7E       		.byte	126
 1974 038c 7E       		.byte	126
 1975 038d 00       		.byte	0
 1976 038e 00       		.byte	0
 1977 038f 00       		.byte	0
 1978 0390 00       		.byte	0
 1979 0391 00       		.byte	0
 1980 0392 00       		.byte	0
 1981 0393 00       		.byte	0
 1982 0394 00       		.byte	0
 1983 0395 00       		.byte	0
 1984 0396 18       		.byte	24
 1985 0397 18       		.byte	24
 1986 0398 01       		.byte	1
 1987 0399 02       		.byte	2
 1988 039a 04       		.byte	4
 1989 039b 08       		.byte	8
 1990 039c 10       		.byte	16
 1991 039d 20       		.byte	32
 1992 039e 40       		.byte	64
 1993 039f 80       		.byte	-128
 1994 03a0 3C       		.byte	60
 1995 03a1 42       		.byte	66
 1996 03a2 85       		.byte	-123
 1997 03a3 89       		.byte	-119
 1998 03a4 91       		.byte	-111
 1999 03a5 A1       		.byte	-95
 2000 03a6 42       		.byte	66
 2001 03a7 3C       		.byte	60
 2002 03a8 30       		.byte	48
 2003 03a9 50       		.byte	80
 2004 03aa 10       		.byte	16
 2005 03ab 10       		.byte	16
 2006 03ac 10       		.byte	16
 2007 03ad 10       		.byte	16
 2008 03ae 10       		.byte	16
 2009 03af FF       		.byte	-1
 2010 03b0 7E       		.byte	126
 2011 03b1 81       		.byte	-127
 2012 03b2 01       		.byte	1
 2013 03b3 06       		.byte	6
 2014 03b4 18       		.byte	24
 2015 03b5 61       		.byte	97
 2016 03b6 81       		.byte	-127
 2017 03b7 FF       		.byte	-1
 2018 03b8 7E       		.byte	126
 2019 03b9 81       		.byte	-127
 2020 03ba 81       		.byte	-127
 2021 03bb 0E       		.byte	14
 2022 03bc 01       		.byte	1
ARM GAS  C:\Users\GYULAI~1\AppData\Local\Temp\ccjFV3Tn.s 			page 43


 2023 03bd 81       		.byte	-127
 2024 03be 81       		.byte	-127
 2025 03bf 7E       		.byte	126
 2026 03c0 06       		.byte	6
 2027 03c1 0A       		.byte	10
 2028 03c2 12       		.byte	18
 2029 03c3 22       		.byte	34
 2030 03c4 42       		.byte	66
 2031 03c5 FF       		.byte	-1
 2032 03c6 02       		.byte	2
 2033 03c7 07       		.byte	7
 2034 03c8 FF       		.byte	-1
 2035 03c9 81       		.byte	-127
 2036 03ca 80       		.byte	-128
 2037 03cb FE       		.byte	-2
 2038 03cc 01       		.byte	1
 2039 03cd 81       		.byte	-127
 2040 03ce 81       		.byte	-127
 2041 03cf 7E       		.byte	126
 2042 03d0 7E       		.byte	126
 2043 03d1 81       		.byte	-127
 2044 03d2 80       		.byte	-128
 2045 03d3 FE       		.byte	-2
 2046 03d4 81       		.byte	-127
 2047 03d5 81       		.byte	-127
 2048 03d6 81       		.byte	-127
 2049 03d7 7E       		.byte	126
 2050 03d8 FF       		.byte	-1
 2051 03d9 81       		.byte	-127
 2052 03da 02       		.byte	2
 2053 03db 04       		.byte	4
 2054 03dc 08       		.byte	8
 2055 03dd 10       		.byte	16
 2056 03de 10       		.byte	16
 2057 03df 38       		.byte	56
 2058 03e0 7E       		.byte	126
 2059 03e1 81       		.byte	-127
 2060 03e2 81       		.byte	-127
 2061 03e3 7E       		.byte	126
 2062 03e4 81       		.byte	-127
 2063 03e5 81       		.byte	-127
 2064 03e6 81       		.byte	-127
 2065 03e7 7E       		.byte	126
 2066 03e8 7E       		.byte	126
 2067 03e9 81       		.byte	-127
 2068 03ea 81       		.byte	-127
 2069 03eb 81       		.byte	-127
 2070 03ec 7F       		.byte	127
 2071 03ed 01       		.byte	1
 2072 03ee 81       		.byte	-127
 2073 03ef 7E       		.byte	126
 2074 03f0 00       		.byte	0
 2075 03f1 00       		.byte	0
 2076 03f2 00       		.byte	0
 2077 03f3 18       		.byte	24
 2078 03f4 18       		.byte	24
 2079 03f5 00       		.byte	0
ARM GAS  C:\Users\GYULAI~1\AppData\Local\Temp\ccjFV3Tn.s 			page 44


 2080 03f6 18       		.byte	24
 2081 03f7 18       		.byte	24
 2082 03f8 00       		.byte	0
 2083 03f9 00       		.byte	0
 2084 03fa 18       		.byte	24
 2085 03fb 18       		.byte	24
 2086 03fc 00       		.byte	0
 2087 03fd 18       		.byte	24
 2088 03fe 08       		.byte	8
 2089 03ff 10       		.byte	16
 2090 0400 00       		.byte	0
 2091 0401 0C       		.byte	12
 2092 0402 18       		.byte	24
 2093 0403 30       		.byte	48
 2094 0404 60       		.byte	96
 2095 0405 30       		.byte	48
 2096 0406 18       		.byte	24
 2097 0407 0C       		.byte	12
 2098 0408 00       		.byte	0
 2099 0409 00       		.byte	0
 2100 040a 7E       		.byte	126
 2101 040b 7E       		.byte	126
 2102 040c 00       		.byte	0
 2103 040d 7E       		.byte	126
 2104 040e 7E       		.byte	126
 2105 040f 00       		.byte	0
 2106 0410 00       		.byte	0
 2107 0411 60       		.byte	96
 2108 0412 30       		.byte	48
 2109 0413 18       		.byte	24
 2110 0414 0C       		.byte	12
 2111 0415 18       		.byte	24
 2112 0416 30       		.byte	48
 2113 0417 60       		.byte	96
 2114 0418 3E       		.byte	62
 2115 0419 41       		.byte	65
 2116 041a 41       		.byte	65
 2117 041b 02       		.byte	2
 2118 041c 1C       		.byte	28
 2119 041d 00       		.byte	0
 2120 041e 18       		.byte	24
 2121 041f 18       		.byte	24
 2122 0420 3C       		.byte	60
 2123 0421 42       		.byte	66
 2124 0422 9D       		.byte	-99
 2125 0423 85       		.byte	-123
 2126 0424 BD       		.byte	-67
 2127 0425 45       		.byte	69
 2128 0426 45       		.byte	69
 2129 0427 3A       		.byte	58
 2130 0428 18       		.byte	24
 2131 0429 24       		.byte	36
 2132 042a 42       		.byte	66
 2133 042b 42       		.byte	66
 2134 042c 7E       		.byte	126
 2135 042d 42       		.byte	66
 2136 042e 42       		.byte	66
ARM GAS  C:\Users\GYULAI~1\AppData\Local\Temp\ccjFV3Tn.s 			page 45


 2137 042f E7       		.byte	-25
 2138 0430 FC       		.byte	-4
 2139 0431 42       		.byte	66
 2140 0432 44       		.byte	68
 2141 0433 7E       		.byte	126
 2142 0434 41       		.byte	65
 2143 0435 41       		.byte	65
 2144 0436 41       		.byte	65
 2145 0437 FE       		.byte	-2
 2146 0438 3D       		.byte	61
 2147 0439 43       		.byte	67
 2148 043a 81       		.byte	-127
 2149 043b 80       		.byte	-128
 2150 043c 80       		.byte	-128
 2151 043d 81       		.byte	-127
 2152 043e 43       		.byte	67
 2153 043f 3D       		.byte	61
 2154 0440 FC       		.byte	-4
 2155 0441 42       		.byte	66
 2156 0442 41       		.byte	65
 2157 0443 41       		.byte	65
 2158 0444 41       		.byte	65
 2159 0445 41       		.byte	65
 2160 0446 42       		.byte	66
 2161 0447 FC       		.byte	-4
 2162 0448 FF       		.byte	-1
 2163 0449 41       		.byte	65
 2164 044a 40       		.byte	64
 2165 044b 78       		.byte	120
 2166 044c 40       		.byte	64
 2167 044d 40       		.byte	64
 2168 044e 41       		.byte	65
 2169 044f FF       		.byte	-1
 2170 0450 FF       		.byte	-1
 2171 0451 41       		.byte	65
 2172 0452 41       		.byte	65
 2173 0453 48       		.byte	72
 2174 0454 78       		.byte	120
 2175 0455 48       		.byte	72
 2176 0456 40       		.byte	64
 2177 0457 E0       		.byte	-32
 2178 0458 3F       		.byte	63
 2179 0459 41       		.byte	65
 2180 045a 80       		.byte	-128
 2181 045b 9F       		.byte	-97
 2182 045c 91       		.byte	-111
 2183 045d 81       		.byte	-127
 2184 045e 41       		.byte	65
 2185 045f 3E       		.byte	62
 2186 0460 E7       		.byte	-25
 2187 0461 42       		.byte	66
 2188 0462 42       		.byte	66
 2189 0463 7E       		.byte	126
 2190 0464 42       		.byte	66
 2191 0465 42       		.byte	66
 2192 0466 42       		.byte	66
 2193 0467 E7       		.byte	-25
ARM GAS  C:\Users\GYULAI~1\AppData\Local\Temp\ccjFV3Tn.s 			page 46


 2194 0468 FE       		.byte	-2
 2195 0469 10       		.byte	16
 2196 046a 10       		.byte	16
 2197 046b 10       		.byte	16
 2198 046c 10       		.byte	16
 2199 046d 10       		.byte	16
 2200 046e 10       		.byte	16
 2201 046f FE       		.byte	-2
 2202 0470 3F       		.byte	63
 2203 0471 04       		.byte	4
 2204 0472 04       		.byte	4
 2205 0473 04       		.byte	4
 2206 0474 C4       		.byte	-60
 2207 0475 84       		.byte	-124
 2208 0476 84       		.byte	-124
 2209 0477 78       		.byte	120
 2210 0478 EF       		.byte	-17
 2211 0479 44       		.byte	68
 2212 047a 48       		.byte	72
 2213 047b 70       		.byte	112
 2214 047c 48       		.byte	72
 2215 047d 44       		.byte	68
 2216 047e 42       		.byte	66
 2217 047f E7       		.byte	-25
 2218 0480 E0       		.byte	-32
 2219 0481 40       		.byte	64
 2220 0482 40       		.byte	64
 2221 0483 40       		.byte	64
 2222 0484 40       		.byte	64
 2223 0485 41       		.byte	65
 2224 0486 41       		.byte	65
 2225 0487 FF       		.byte	-1
 2226 0488 C7       		.byte	-57
 2227 0489 6A       		.byte	106
 2228 048a 52       		.byte	82
 2229 048b 52       		.byte	82
 2230 048c 42       		.byte	66
 2231 048d 42       		.byte	66
 2232 048e 42       		.byte	66
 2233 048f E7       		.byte	-25
 2234 0490 C7       		.byte	-57
 2235 0491 62       		.byte	98
 2236 0492 52       		.byte	82
 2237 0493 4A       		.byte	74
 2238 0494 46       		.byte	70
 2239 0495 42       		.byte	66
 2240 0496 42       		.byte	66
 2241 0497 E7       		.byte	-25
 2242 0498 3C       		.byte	60
 2243 0499 42       		.byte	66
 2244 049a 81       		.byte	-127
 2245 049b 81       		.byte	-127
 2246 049c 81       		.byte	-127
 2247 049d 81       		.byte	-127
 2248 049e 42       		.byte	66
 2249 049f 3C       		.byte	60
 2250 04a0 FE       		.byte	-2
ARM GAS  C:\Users\GYULAI~1\AppData\Local\Temp\ccjFV3Tn.s 			page 47


 2251 04a1 41       		.byte	65
 2252 04a2 41       		.byte	65
 2253 04a3 41       		.byte	65
 2254 04a4 7E       		.byte	126
 2255 04a5 40       		.byte	64
 2256 04a6 40       		.byte	64
 2257 04a7 E0       		.byte	-32
 2258 04a8 7E       		.byte	126
 2259 04a9 81       		.byte	-127
 2260 04aa 81       		.byte	-127
 2261 04ab 81       		.byte	-127
 2262 04ac 81       		.byte	-127
 2263 04ad 91       		.byte	-111
 2264 04ae 7E       		.byte	126
 2265 04af 10       		.byte	16
 2266 04b0 FE       		.byte	-2
 2267 04b1 41       		.byte	65
 2268 04b2 41       		.byte	65
 2269 04b3 41       		.byte	65
 2270 04b4 7E       		.byte	126
 2271 04b5 44       		.byte	68
 2272 04b6 42       		.byte	66
 2273 04b7 E7       		.byte	-25
 2274 04b8 7D       		.byte	125
 2275 04b9 83       		.byte	-125
 2276 04ba 81       		.byte	-127
 2277 04bb 7C       		.byte	124
 2278 04bc 02       		.byte	2
 2279 04bd 81       		.byte	-127
 2280 04be C1       		.byte	-63
 2281 04bf BE       		.byte	-66
 2282 04c0 FF       		.byte	-1
 2283 04c1 89       		.byte	-119
 2284 04c2 08       		.byte	8
 2285 04c3 08       		.byte	8
 2286 04c4 08       		.byte	8
 2287 04c5 08       		.byte	8
 2288 04c6 08       		.byte	8
 2289 04c7 1C       		.byte	28
 2290 04c8 E7       		.byte	-25
 2291 04c9 42       		.byte	66
 2292 04ca 42       		.byte	66
 2293 04cb 42       		.byte	66
 2294 04cc 42       		.byte	66
 2295 04cd 42       		.byte	66
 2296 04ce 42       		.byte	66
 2297 04cf 3C       		.byte	60
 2298 04d0 E7       		.byte	-25
 2299 04d1 42       		.byte	66
 2300 04d2 42       		.byte	66
 2301 04d3 42       		.byte	66
 2302 04d4 22       		.byte	34
 2303 04d5 24       		.byte	36
 2304 04d6 14       		.byte	20
 2305 04d7 08       		.byte	8
 2306 04d8 E7       		.byte	-25
 2307 04d9 42       		.byte	66
ARM GAS  C:\Users\GYULAI~1\AppData\Local\Temp\ccjFV3Tn.s 			page 48


 2308 04da 42       		.byte	66
 2309 04db 42       		.byte	66
 2310 04dc 52       		.byte	82
 2311 04dd 52       		.byte	82
 2312 04de 52       		.byte	82
 2313 04df 2C       		.byte	44
 2314 04e0 E7       		.byte	-25
 2315 04e1 42       		.byte	66
 2316 04e2 24       		.byte	36
 2317 04e3 18       		.byte	24
 2318 04e4 24       		.byte	36
 2319 04e5 24       		.byte	36
 2320 04e6 42       		.byte	66
 2321 04e7 E7       		.byte	-25
 2322 04e8 E7       		.byte	-25
 2323 04e9 42       		.byte	66
 2324 04ea 24       		.byte	36
 2325 04eb 14       		.byte	20
 2326 04ec 08       		.byte	8
 2327 04ed 08       		.byte	8
 2328 04ee 08       		.byte	8
 2329 04ef 1C       		.byte	28
 2330 04f0 FF       		.byte	-1
 2331 04f1 82       		.byte	-126
 2332 04f2 84       		.byte	-124
 2333 04f3 08       		.byte	8
 2334 04f4 10       		.byte	16
 2335 04f5 21       		.byte	33
 2336 04f6 41       		.byte	65
 2337 04f7 FF       		.byte	-1
 2338 04f8 1C       		.byte	28
 2339 04f9 10       		.byte	16
 2340 04fa 10       		.byte	16
 2341 04fb 10       		.byte	16
 2342 04fc 10       		.byte	16
 2343 04fd 10       		.byte	16
 2344 04fe 10       		.byte	16
 2345 04ff 1C       		.byte	28
 2346 0500 80       		.byte	-128
 2347 0501 40       		.byte	64
 2348 0502 20       		.byte	32
 2349 0503 10       		.byte	16
 2350 0504 08       		.byte	8
 2351 0505 04       		.byte	4
 2352 0506 02       		.byte	2
 2353 0507 01       		.byte	1
 2354 0508 38       		.byte	56
 2355 0509 08       		.byte	8
 2356 050a 08       		.byte	8
 2357 050b 08       		.byte	8
 2358 050c 08       		.byte	8
 2359 050d 08       		.byte	8
 2360 050e 08       		.byte	8
 2361 050f 38       		.byte	56
 2362 0510 10       		.byte	16
 2363 0511 28       		.byte	40
 2364 0512 44       		.byte	68
ARM GAS  C:\Users\GYULAI~1\AppData\Local\Temp\ccjFV3Tn.s 			page 49


 2365 0513 00       		.byte	0
 2366 0514 00       		.byte	0
 2367 0515 00       		.byte	0
 2368 0516 00       		.byte	0
 2369 0517 00       		.byte	0
 2370 0518 00       		.byte	0
 2371 0519 00       		.byte	0
 2372 051a 00       		.byte	0
 2373 051b 00       		.byte	0
 2374 051c 00       		.byte	0
 2375 051d 00       		.byte	0
 2376 051e 00       		.byte	0
 2377 051f FF       		.byte	-1
 2378 0520 18       		.byte	24
 2379 0521 0C       		.byte	12
 2380 0522 00       		.byte	0
 2381 0523 00       		.byte	0
 2382 0524 00       		.byte	0
 2383 0525 00       		.byte	0
 2384 0526 00       		.byte	0
 2385 0527 00       		.byte	0
 2386 0528 00       		.byte	0
 2387 0529 00       		.byte	0
 2388 052a 7C       		.byte	124
 2389 052b 02       		.byte	2
 2390 052c 7E       		.byte	126
 2391 052d 82       		.byte	-126
 2392 052e 82       		.byte	-126
 2393 052f 7F       		.byte	127
 2394 0530 C0       		.byte	-64
 2395 0531 40       		.byte	64
 2396 0532 5E       		.byte	94
 2397 0533 61       		.byte	97
 2398 0534 41       		.byte	65
 2399 0535 41       		.byte	65
 2400 0536 41       		.byte	65
 2401 0537 FE       		.byte	-2
 2402 0538 00       		.byte	0
 2403 0539 00       		.byte	0
 2404 053a 7E       		.byte	126
 2405 053b 81       		.byte	-127
 2406 053c 80       		.byte	-128
 2407 053d 80       		.byte	-128
 2408 053e 81       		.byte	-127
 2409 053f 7E       		.byte	126
 2410 0540 01       		.byte	1
 2411 0541 01       		.byte	1
 2412 0542 7D       		.byte	125
 2413 0543 83       		.byte	-125
 2414 0544 81       		.byte	-127
 2415 0545 81       		.byte	-127
 2416 0546 83       		.byte	-125
 2417 0547 7D       		.byte	125
 2418 0548 00       		.byte	0
 2419 0549 00       		.byte	0
 2420 054a 7E       		.byte	126
 2421 054b 81       		.byte	-127
ARM GAS  C:\Users\GYULAI~1\AppData\Local\Temp\ccjFV3Tn.s 			page 50


 2422 054c FF       		.byte	-1
 2423 054d 80       		.byte	-128
 2424 054e 81       		.byte	-127
 2425 054f 7E       		.byte	126
 2426 0550 1E       		.byte	30
 2427 0551 21       		.byte	33
 2428 0552 21       		.byte	33
 2429 0553 78       		.byte	120
 2430 0554 20       		.byte	32
 2431 0555 20       		.byte	32
 2432 0556 20       		.byte	32
 2433 0557 F8       		.byte	-8
 2434 0558 03       		.byte	3
 2435 0559 7E       		.byte	126
 2436 055a 81       		.byte	-127
 2437 055b FE       		.byte	-2
 2438 055c 40       		.byte	64
 2439 055d 7E       		.byte	126
 2440 055e 81       		.byte	-127
 2441 055f 7E       		.byte	126
 2442 0560 E0       		.byte	-32
 2443 0561 40       		.byte	64
 2444 0562 5C       		.byte	92
 2445 0563 62       		.byte	98
 2446 0564 42       		.byte	66
 2447 0565 42       		.byte	66
 2448 0566 42       		.byte	66
 2449 0567 E7       		.byte	-25
 2450 0568 10       		.byte	16
 2451 0569 00       		.byte	0
 2452 056a 30       		.byte	48
 2453 056b 10       		.byte	16
 2454 056c 10       		.byte	16
 2455 056d 10       		.byte	16
 2456 056e 10       		.byte	16
 2457 056f 7C       		.byte	124
 2458 0570 02       		.byte	2
 2459 0571 00       		.byte	0
 2460 0572 0E       		.byte	14
 2461 0573 02       		.byte	2
 2462 0574 02       		.byte	2
 2463 0575 02       		.byte	2
 2464 0576 82       		.byte	-126
 2465 0577 7C       		.byte	124
 2466 0578 E0       		.byte	-32
 2467 0579 4E       		.byte	78
 2468 057a 44       		.byte	68
 2469 057b 78       		.byte	120
 2470 057c 48       		.byte	72
 2471 057d 44       		.byte	68
 2472 057e 42       		.byte	66
 2473 057f E7       		.byte	-25
 2474 0580 18       		.byte	24
 2475 0581 08       		.byte	8
 2476 0582 08       		.byte	8
 2477 0583 08       		.byte	8
 2478 0584 08       		.byte	8
ARM GAS  C:\Users\GYULAI~1\AppData\Local\Temp\ccjFV3Tn.s 			page 51


 2479 0585 08       		.byte	8
 2480 0586 08       		.byte	8
 2481 0587 7F       		.byte	127
 2482 0588 00       		.byte	0
 2483 0589 00       		.byte	0
 2484 058a B6       		.byte	-74
 2485 058b 49       		.byte	73
 2486 058c 49       		.byte	73
 2487 058d 49       		.byte	73
 2488 058e 49       		.byte	73
 2489 058f DB       		.byte	-37
 2490 0590 00       		.byte	0
 2491 0591 00       		.byte	0
 2492 0592 DC       		.byte	-36
 2493 0593 62       		.byte	98
 2494 0594 42       		.byte	66
 2495 0595 42       		.byte	66
 2496 0596 42       		.byte	66
 2497 0597 E7       		.byte	-25
 2498 0598 00       		.byte	0
 2499 0599 00       		.byte	0
 2500 059a 7E       		.byte	126
 2501 059b 81       		.byte	-127
 2502 059c 81       		.byte	-127
 2503 059d 81       		.byte	-127
 2504 059e 81       		.byte	-127
 2505 059f 7E       		.byte	126
 2506 05a0 00       		.byte	0
 2507 05a1 FE       		.byte	-2
 2508 05a2 41       		.byte	65
 2509 05a3 41       		.byte	65
 2510 05a4 41       		.byte	65
 2511 05a5 7E       		.byte	126
 2512 05a6 40       		.byte	64
 2513 05a7 E0       		.byte	-32
 2514 05a8 00       		.byte	0
 2515 05a9 7E       		.byte	126
 2516 05aa 82       		.byte	-126
 2517 05ab 82       		.byte	-126
 2518 05ac 82       		.byte	-126
 2519 05ad 7E       		.byte	126
 2520 05ae 02       		.byte	2
 2521 05af 07       		.byte	7
 2522 05b0 00       		.byte	0
 2523 05b1 00       		.byte	0
 2524 05b2 DC       		.byte	-36
 2525 05b3 62       		.byte	98
 2526 05b4 42       		.byte	66
 2527 05b5 40       		.byte	64
 2528 05b6 40       		.byte	64
 2529 05b7 E0       		.byte	-32
 2530 05b8 00       		.byte	0
 2531 05b9 00       		.byte	0
 2532 05ba 7E       		.byte	126
 2533 05bb 80       		.byte	-128
 2534 05bc 7E       		.byte	126
 2535 05bd 01       		.byte	1
ARM GAS  C:\Users\GYULAI~1\AppData\Local\Temp\ccjFV3Tn.s 			page 52


 2536 05be 81       		.byte	-127
 2537 05bf FE       		.byte	-2
 2538 05c0 10       		.byte	16
 2539 05c1 10       		.byte	16
 2540 05c2 7C       		.byte	124
 2541 05c3 10       		.byte	16
 2542 05c4 10       		.byte	16
 2543 05c5 10       		.byte	16
 2544 05c6 11       		.byte	17
 2545 05c7 0E       		.byte	14
 2546 05c8 00       		.byte	0
 2547 05c9 00       		.byte	0
 2548 05ca E7       		.byte	-25
 2549 05cb 42       		.byte	66
 2550 05cc 42       		.byte	66
 2551 05cd 42       		.byte	66
 2552 05ce 42       		.byte	66
 2553 05cf 3C       		.byte	60
 2554 05d0 00       		.byte	0
 2555 05d1 00       		.byte	0
 2556 05d2 E7       		.byte	-25
 2557 05d3 42       		.byte	66
 2558 05d4 24       		.byte	36
 2559 05d5 24       		.byte	36
 2560 05d6 14       		.byte	20
 2561 05d7 08       		.byte	8
 2562 05d8 00       		.byte	0
 2563 05d9 00       		.byte	0
 2564 05da E7       		.byte	-25
 2565 05db 42       		.byte	66
 2566 05dc 52       		.byte	82
 2567 05dd 52       		.byte	82
 2568 05de 52       		.byte	82
 2569 05df 2C       		.byte	44
 2570 05e0 00       		.byte	0
 2571 05e1 00       		.byte	0
 2572 05e2 E7       		.byte	-25
 2573 05e3 24       		.byte	36
 2574 05e4 18       		.byte	24
 2575 05e5 24       		.byte	36
 2576 05e6 42       		.byte	66
 2577 05e7 E7       		.byte	-25
 2578 05e8 00       		.byte	0
 2579 05e9 00       		.byte	0
 2580 05ea E7       		.byte	-25
 2581 05eb 42       		.byte	66
 2582 05ec 42       		.byte	66
 2583 05ed 3E       		.byte	62
 2584 05ee 82       		.byte	-126
 2585 05ef 7C       		.byte	124
 2586 05f0 00       		.byte	0
 2587 05f1 00       		.byte	0
 2588 05f2 FF       		.byte	-1
 2589 05f3 81       		.byte	-127
 2590 05f4 0E       		.byte	14
 2591 05f5 70       		.byte	112
 2592 05f6 81       		.byte	-127
ARM GAS  C:\Users\GYULAI~1\AppData\Local\Temp\ccjFV3Tn.s 			page 53


 2593 05f7 FF       		.byte	-1
 2594 05f8 18       		.byte	24
 2595 05f9 30       		.byte	48
 2596 05fa 20       		.byte	32
 2597 05fb 60       		.byte	96
 2598 05fc 60       		.byte	96
 2599 05fd 20       		.byte	32
 2600 05fe 30       		.byte	48
 2601 05ff 18       		.byte	24
 2602 0600 18       		.byte	24
 2603 0601 18       		.byte	24
 2604 0602 18       		.byte	24
 2605 0603 18       		.byte	24
 2606 0604 18       		.byte	24
 2607 0605 18       		.byte	24
 2608 0606 18       		.byte	24
 2609 0607 18       		.byte	24
 2610 0608 18       		.byte	24
 2611 0609 0C       		.byte	12
 2612 060a 04       		.byte	4
 2613 060b 06       		.byte	6
 2614 060c 06       		.byte	6
 2615 060d 04       		.byte	4
 2616 060e 0C       		.byte	12
 2617 060f 18       		.byte	24
 2618 0610 00       		.byte	0
 2619 0611 00       		.byte	0
 2620 0612 00       		.byte	0
 2621 0613 30       		.byte	48
 2622 0614 49       		.byte	73
 2623 0615 06       		.byte	6
 2624 0616 00       		.byte	0
 2625 0617 00       		.byte	0
 2626 0618 00       		.byte	0
 2627 0619 FF       		.byte	-1
 2628 061a 81       		.byte	-127
 2629 061b C3       		.byte	-61
 2630 061c BD       		.byte	-67
 2631 061d 81       		.byte	-127
 2632 061e 81       		.byte	-127
 2633 061f FF       		.byte	-1
 2634 0620 3B       		.byte	59
 2635 0621 43       		.byte	67
 2636 0622 80       		.byte	-128
 2637 0623 80       		.byte	-128
 2638 0624 80       		.byte	-128
 2639 0625 80       		.byte	-128
 2640 0626 40       		.byte	64
 2641 0627 38       		.byte	56
 2642 0628 7B       		.byte	123
 2643 0629 43       		.byte	67
 2644 062a 40       		.byte	64
 2645 062b 78       		.byte	120
 2646 062c 40       		.byte	64
 2647 062d 40       		.byte	64
 2648 062e 40       		.byte	64
 2649 062f 40       		.byte	64
ARM GAS  C:\Users\GYULAI~1\AppData\Local\Temp\ccjFV3Tn.s 			page 54


 2650 0630 F8       		.byte	-8
 2651 0631 88       		.byte	-120
 2652 0632 F8       		.byte	-8
 2653 0633 87       		.byte	-121
 2654 0634 81       		.byte	-127
 2655 0635 8F       		.byte	-113
 2656 0636 89       		.byte	-119
 2657 0637 8F       		.byte	-113
 2658 0638 FF       		.byte	-1
 2659 0639 C3       		.byte	-61
 2660 063a A5       		.byte	-91
 2661 063b 99       		.byte	-103
 2662 063c 99       		.byte	-103
 2663 063d A5       		.byte	-91
 2664 063e C3       		.byte	-61
 2665 063f FF       		.byte	-1
 2666              		.bss
 2667              		.align	2
 2668              		.set	.LANCHOR0,. + 0
 2669              		.type	rhea_gfx_localFont, %object
 2670              		.size	rhea_gfx_localFont, 12
 2671              	rhea_gfx_localFont:
 2672 0000 00000000 		.space	12
 2672      00000000 
 2672      00000000 
 2673              		.type	rhea_gfx_cursorX, %object
 2674              		.size	rhea_gfx_cursorX, 2
 2675              	rhea_gfx_cursorX:
 2676 000c 0000     		.space	2
 2677              		.type	rhea_gfx_cursorY, %object
 2678              		.size	rhea_gfx_cursorY, 2
 2679              	rhea_gfx_cursorY:
 2680 000e 0000     		.space	2
 2681              		.text
 2682              	.Letext0:
 2683              		.file 2 "e:\\cypress\\psoc creator\\4.2\\psoc creator\\import\\gnu\\arm\\5.4.1\\arm-none-eabi\\inc
 2684              		.file 3 "e:\\cypress\\psoc creator\\4.2\\psoc creator\\import\\gnu\\arm\\5.4.1\\arm-none-eabi\\inc
 2685              		.file 4 "rhea\\gfx\\gfx.h"
 2686              		.file 5 "rhea\\gfx\\fonts/codefont_8x8.h"
 2687              		.file 6 "rhea\\gfx\\gfx_impl.h"
 2688              		.file 7 "e:\\cypress\\psoc creator\\4.2\\psoc creator\\import\\gnu\\arm\\5.4.1\\arm-none-eabi\\inc
 2689              		.section	.debug_info,"",%progbits
 2690              	.Ldebug_info0:
 2691 0000 F00B0000 		.4byte	0xbf0
 2692 0004 0400     		.2byte	0x4
 2693 0006 00000000 		.4byte	.Ldebug_abbrev0
 2694 000a 04       		.byte	0x4
 2695 000b 01       		.uleb128 0x1
 2696 000c 54030000 		.4byte	.LASF80
 2697 0010 0C       		.byte	0xc
 2698 0011 56000000 		.4byte	.LASF81
 2699 0015 0A040000 		.4byte	.LASF82
 2700 0019 60000000 		.4byte	.Ldebug_ranges0+0x60
 2701 001d 00000000 		.4byte	0
 2702 0021 00000000 		.4byte	.Ldebug_line0
 2703 0025 02       		.uleb128 0x2
 2704 0026 04       		.byte	0x4
ARM GAS  C:\Users\GYULAI~1\AppData\Local\Temp\ccjFV3Tn.s 			page 55


 2705 0027 05       		.byte	0x5
 2706 0028 696E7400 		.ascii	"int\000"
 2707 002c 03       		.uleb128 0x3
 2708 002d 04       		.byte	0x4
 2709 002e 07       		.byte	0x7
 2710 002f DD010000 		.4byte	.LASF0
 2711 0033 03       		.uleb128 0x3
 2712 0034 08       		.byte	0x8
 2713 0035 05       		.byte	0x5
 2714 0036 CC000000 		.4byte	.LASF1
 2715 003a 03       		.uleb128 0x3
 2716 003b 08       		.byte	0x8
 2717 003c 04       		.byte	0x4
 2718 003d 8D020000 		.4byte	.LASF2
 2719 0041 03       		.uleb128 0x3
 2720 0042 01       		.byte	0x1
 2721 0043 06       		.byte	0x6
 2722 0044 DA000000 		.4byte	.LASF3
 2723 0048 04       		.uleb128 0x4
 2724 0049 65000000 		.4byte	.LASF5
 2725 004d 02       		.byte	0x2
 2726 004e 1D       		.byte	0x1d
 2727 004f 53000000 		.4byte	0x53
 2728 0053 03       		.uleb128 0x3
 2729 0054 01       		.byte	0x1
 2730 0055 08       		.byte	0x8
 2731 0056 19030000 		.4byte	.LASF4
 2732 005a 04       		.uleb128 0x4
 2733 005b 9F010000 		.4byte	.LASF6
 2734 005f 02       		.byte	0x2
 2735 0060 29       		.byte	0x29
 2736 0061 65000000 		.4byte	0x65
 2737 0065 03       		.uleb128 0x3
 2738 0066 02       		.byte	0x2
 2739 0067 05       		.byte	0x5
 2740 0068 3A030000 		.4byte	.LASF7
 2741 006c 04       		.uleb128 0x4
 2742 006d 97040000 		.4byte	.LASF8
 2743 0071 02       		.byte	0x2
 2744 0072 2B       		.byte	0x2b
 2745 0073 77000000 		.4byte	0x77
 2746 0077 03       		.uleb128 0x3
 2747 0078 02       		.byte	0x2
 2748 0079 07       		.byte	0x7
 2749 007a 29020000 		.4byte	.LASF9
 2750 007e 03       		.uleb128 0x3
 2751 007f 04       		.byte	0x4
 2752 0080 05       		.byte	0x5
 2753 0081 0A010000 		.4byte	.LASF10
 2754 0085 04       		.uleb128 0x4
 2755 0086 5F010000 		.4byte	.LASF11
 2756 008a 02       		.byte	0x2
 2757 008b 41       		.byte	0x41
 2758 008c 90000000 		.4byte	0x90
 2759 0090 03       		.uleb128 0x3
 2760 0091 04       		.byte	0x4
 2761 0092 07       		.byte	0x7
ARM GAS  C:\Users\GYULAI~1\AppData\Local\Temp\ccjFV3Tn.s 			page 56


 2762 0093 11020000 		.4byte	.LASF12
 2763 0097 03       		.uleb128 0x3
 2764 0098 08       		.byte	0x8
 2765 0099 07       		.byte	0x7
 2766 009a A4000000 		.4byte	.LASF13
 2767 009e 03       		.uleb128 0x3
 2768 009f 04       		.byte	0x4
 2769 00a0 07       		.byte	0x7
 2770 00a1 75020000 		.4byte	.LASF14
 2771 00a5 03       		.uleb128 0x3
 2772 00a6 01       		.byte	0x1
 2773 00a7 08       		.byte	0x8
 2774 00a8 76040000 		.4byte	.LASF15
 2775 00ac 05       		.uleb128 0x5
 2776 00ad 04       		.byte	0x4
 2777 00ae B2000000 		.4byte	0xb2
 2778 00b2 06       		.uleb128 0x6
 2779 00b3 A5000000 		.4byte	0xa5
 2780 00b7 03       		.uleb128 0x3
 2781 00b8 08       		.byte	0x8
 2782 00b9 04       		.byte	0x4
 2783 00ba 30010000 		.4byte	.LASF16
 2784 00be 03       		.uleb128 0x3
 2785 00bf 04       		.byte	0x4
 2786 00c0 04       		.byte	0x4
 2787 00c1 D7020000 		.4byte	.LASF17
 2788 00c5 04       		.uleb128 0x4
 2789 00c6 21050000 		.4byte	.LASF18
 2790 00ca 03       		.byte	0x3
 2791 00cb 18       		.byte	0x18
 2792 00cc 48000000 		.4byte	0x48
 2793 00d0 04       		.uleb128 0x4
 2794 00d1 C4000000 		.4byte	.LASF19
 2795 00d5 03       		.byte	0x3
 2796 00d6 20       		.byte	0x20
 2797 00d7 5A000000 		.4byte	0x5a
 2798 00db 04       		.uleb128 0x4
 2799 00dc 27010000 		.4byte	.LASF20
 2800 00e0 03       		.byte	0x3
 2801 00e1 24       		.byte	0x24
 2802 00e2 6C000000 		.4byte	0x6c
 2803 00e6 04       		.uleb128 0x4
 2804 00e7 37040000 		.4byte	.LASF21
 2805 00eb 03       		.byte	0x3
 2806 00ec 30       		.byte	0x30
 2807 00ed 85000000 		.4byte	0x85
 2808 00f1 07       		.uleb128 0x7
 2809 00f2 F5040000 		.4byte	.LASF27
 2810 00f6 08       		.byte	0x8
 2811 00f7 04       		.byte	0x4
 2812 00f8 2C       		.byte	0x2c
 2813 00f9 3A010000 		.4byte	0x13a
 2814 00fd 08       		.uleb128 0x8
 2815 00fe AB040000 		.4byte	.LASF22
 2816 0102 04       		.byte	0x4
 2817 0103 2D       		.byte	0x2d
 2818 0104 E6000000 		.4byte	0xe6
ARM GAS  C:\Users\GYULAI~1\AppData\Local\Temp\ccjFV3Tn.s 			page 57


 2819 0108 00       		.byte	0
 2820 0109 08       		.uleb128 0x8
 2821 010a 23020000 		.4byte	.LASF23
 2822 010e 04       		.byte	0x4
 2823 010f 2E       		.byte	0x2e
 2824 0110 C5000000 		.4byte	0xc5
 2825 0114 04       		.byte	0x4
 2826 0115 08       		.uleb128 0x8
 2827 0116 45050000 		.4byte	.LASF24
 2828 011a 04       		.byte	0x4
 2829 011b 2F       		.byte	0x2f
 2830 011c C5000000 		.4byte	0xc5
 2831 0120 05       		.byte	0x5
 2832 0121 08       		.uleb128 0x8
 2833 0122 78000000 		.4byte	.LASF25
 2834 0126 04       		.byte	0x4
 2835 0127 30       		.byte	0x30
 2836 0128 C5000000 		.4byte	0xc5
 2837 012c 06       		.byte	0x6
 2838 012d 08       		.uleb128 0x8
 2839 012e 44030000 		.4byte	.LASF26
 2840 0132 04       		.byte	0x4
 2841 0133 31       		.byte	0x31
 2842 0134 C5000000 		.4byte	0xc5
 2843 0138 07       		.byte	0x7
 2844 0139 00       		.byte	0
 2845 013a 04       		.uleb128 0x4
 2846 013b F5040000 		.4byte	.LASF27
 2847 013f 04       		.byte	0x4
 2848 0140 35       		.byte	0x35
 2849 0141 F1000000 		.4byte	0xf1
 2850 0145 07       		.uleb128 0x7
 2851 0146 29050000 		.4byte	.LASF28
 2852 014a 0C       		.byte	0xc
 2853 014b 04       		.byte	0x4
 2854 014c 38       		.byte	0x38
 2855 014d 76010000 		.4byte	0x176
 2856 0151 08       		.uleb128 0x8
 2857 0152 09030000 		.4byte	.LASF29
 2858 0156 04       		.byte	0x4
 2859 0157 39       		.byte	0x39
 2860 0158 76010000 		.4byte	0x176
 2861 015c 00       		.byte	0
 2862 015d 08       		.uleb128 0x8
 2863 015e BB000000 		.4byte	.LASF30
 2864 0162 04       		.byte	0x4
 2865 0163 3A       		.byte	0x3a
 2866 0164 7C010000 		.4byte	0x17c
 2867 0168 04       		.byte	0x4
 2868 0169 08       		.uleb128 0x8
 2869 016a E6000000 		.4byte	.LASF31
 2870 016e 04       		.byte	0x4
 2871 016f 3B       		.byte	0x3b
 2872 0170 C5000000 		.4byte	0xc5
 2873 0174 08       		.byte	0x8
 2874 0175 00       		.byte	0
 2875 0176 05       		.uleb128 0x5
ARM GAS  C:\Users\GYULAI~1\AppData\Local\Temp\ccjFV3Tn.s 			page 58


 2876 0177 04       		.byte	0x4
 2877 0178 3A010000 		.4byte	0x13a
 2878 017c 05       		.uleb128 0x5
 2879 017d 04       		.byte	0x4
 2880 017e C5000000 		.4byte	0xc5
 2881 0182 04       		.uleb128 0x4
 2882 0183 29050000 		.4byte	.LASF28
 2883 0187 04       		.byte	0x4
 2884 0188 3F       		.byte	0x3f
 2885 0189 45010000 		.4byte	0x145
 2886 018d 04       		.uleb128 0x4
 2887 018e 59040000 		.4byte	.LASF32
 2888 0192 04       		.byte	0x4
 2889 0193 42       		.byte	0x42
 2890 0194 C5000000 		.4byte	0xc5
 2891 0198 04       		.uleb128 0x4
 2892 0199 4C050000 		.4byte	.LASF33
 2893 019d 04       		.byte	0x4
 2894 019e 45       		.byte	0x45
 2895 019f C5000000 		.4byte	0xc5
 2896 01a3 04       		.uleb128 0x4
 2897 01a4 4D020000 		.4byte	.LASF34
 2898 01a8 04       		.byte	0x4
 2899 01a9 48       		.byte	0x48
 2900 01aa DB000000 		.4byte	0xdb
 2901 01ae 04       		.uleb128 0x4
 2902 01af AD020000 		.4byte	.LASF35
 2903 01b3 04       		.byte	0x4
 2904 01b4 4B       		.byte	0x4b
 2905 01b5 DB000000 		.4byte	0xdb
 2906 01b9 09       		.uleb128 0x9
 2907 01ba 13010000 		.4byte	.LASF36
 2908 01be 01       		.byte	0x1
 2909 01bf 35       		.byte	0x35
 2910 01c0 00000000 		.4byte	.LFB0
 2911 01c4 20000000 		.4byte	.LFE0-.LFB0
 2912 01c8 01       		.uleb128 0x1
 2913 01c9 9C       		.byte	0x9c
 2914 01ca D8010000 		.4byte	0x1d8
 2915 01ce 0A       		.uleb128 0xa
 2916 01cf 06000000 		.4byte	.LVL0
 2917 01d3 900B0000 		.4byte	0xb90
 2918 01d7 00       		.byte	0
 2919 01d8 09       		.uleb128 0x9
 2920 01d9 7E020000 		.4byte	.LASF37
 2921 01dd 01       		.byte	0x1
 2922 01de 46       		.byte	0x46
 2923 01df 00000000 		.4byte	.LFB1
 2924 01e3 08000000 		.4byte	.LFE1-.LFB1
 2925 01e7 01       		.uleb128 0x1
 2926 01e8 9C       		.byte	0x9c
 2927 01e9 F7010000 		.4byte	0x1f7
 2928 01ed 0A       		.uleb128 0xa
 2929 01ee 06000000 		.4byte	.LVL1
 2930 01f2 9B0B0000 		.4byte	0xb9b
 2931 01f6 00       		.byte	0
 2932 01f7 09       		.uleb128 0x9
ARM GAS  C:\Users\GYULAI~1\AppData\Local\Temp\ccjFV3Tn.s 			page 59


 2933 01f8 BA010000 		.4byte	.LASF38
 2934 01fc 01       		.byte	0x1
 2935 01fd 4C       		.byte	0x4c
 2936 01fe 00000000 		.4byte	.LFB2
 2937 0202 08000000 		.4byte	.LFE2-.LFB2
 2938 0206 01       		.uleb128 0x1
 2939 0207 9C       		.byte	0x9c
 2940 0208 16020000 		.4byte	0x216
 2941 020c 0A       		.uleb128 0xa
 2942 020d 06000000 		.4byte	.LVL2
 2943 0211 A60B0000 		.4byte	0xba6
 2944 0215 00       		.byte	0
 2945 0216 09       		.uleb128 0x9
 2946 0217 A9010000 		.4byte	.LASF39
 2947 021b 01       		.byte	0x1
 2948 021c 52       		.byte	0x52
 2949 021d 00000000 		.4byte	.LFB3
 2950 0221 08000000 		.4byte	.LFE3-.LFB3
 2951 0225 01       		.uleb128 0x1
 2952 0226 9C       		.byte	0x9c
 2953 0227 35020000 		.4byte	0x235
 2954 022b 0A       		.uleb128 0xa
 2955 022c 06000000 		.4byte	.LVL3
 2956 0230 B10B0000 		.4byte	0xbb1
 2957 0234 00       		.byte	0
 2958 0235 09       		.uleb128 0x9
 2959 0236 2F000000 		.4byte	.LASF40
 2960 023a 01       		.byte	0x1
 2961 023b 58       		.byte	0x58
 2962 023c 00000000 		.4byte	.LFB4
 2963 0240 20000000 		.4byte	.LFE4-.LFB4
 2964 0244 01       		.uleb128 0x1
 2965 0245 9C       		.byte	0x9c
 2966 0246 59020000 		.4byte	0x259
 2967 024a 0B       		.uleb128 0xb
 2968 024b 05050000 		.4byte	.LASF42
 2969 024f 01       		.byte	0x1
 2970 0250 58       		.byte	0x58
 2971 0251 82010000 		.4byte	0x182
 2972 0255 02       		.uleb128 0x2
 2973 0256 91       		.byte	0x91
 2974 0257 6C       		.sleb128 -20
 2975 0258 00       		.byte	0
 2976 0259 09       		.uleb128 0x9
 2977 025a 8C010000 		.4byte	.LASF41
 2978 025e 01       		.byte	0x1
 2979 025f 5E       		.byte	0x5e
 2980 0260 00000000 		.4byte	.LFB5
 2981 0264 0C000000 		.4byte	.LFE5-.LFB5
 2982 0268 01       		.uleb128 0x1
 2983 0269 9C       		.byte	0x9c
 2984 026a AA020000 		.4byte	0x2aa
 2985 026e 0C       		.uleb128 0xc
 2986 026f 7800     		.ascii	"x\000"
 2987 0271 01       		.byte	0x1
 2988 0272 5E       		.byte	0x5e
 2989 0273 AE010000 		.4byte	0x1ae
ARM GAS  C:\Users\GYULAI~1\AppData\Local\Temp\ccjFV3Tn.s 			page 60


 2990 0277 00000000 		.4byte	.LLST0
 2991 027b 0C       		.uleb128 0xc
 2992 027c 7900     		.ascii	"y\000"
 2993 027e 01       		.byte	0x1
 2994 027f 5E       		.byte	0x5e
 2995 0280 AE010000 		.4byte	0x1ae
 2996 0284 21000000 		.4byte	.LLST1
 2997 0288 0D       		.uleb128 0xd
 2998 0289 70040000 		.4byte	.LASF43
 2999 028d 01       		.byte	0x1
 3000 028e 5E       		.byte	0x5e
 3001 028f 98010000 		.4byte	0x198
 3002 0293 42000000 		.4byte	.LLST2
 3003 0297 0A       		.uleb128 0xa
 3004 0298 06000000 		.4byte	.LVL5
 3005 029c BC0B0000 		.4byte	0xbbc
 3006 02a0 0A       		.uleb128 0xa
 3007 02a1 0A000000 		.4byte	.LVL6
 3008 02a5 16020000 		.4byte	0x216
 3009 02a9 00       		.byte	0
 3010 02aa 09       		.uleb128 0x9
 3011 02ab E0040000 		.4byte	.LASF44
 3012 02af 01       		.byte	0x1
 3013 02b0 67       		.byte	0x67
 3014 02b1 00000000 		.4byte	.LFB6
 3015 02b5 78000000 		.4byte	.LFE6-.LFB6
 3016 02b9 01       		.uleb128 0x1
 3017 02ba 9C       		.byte	0x9c
 3018 02bb 7B030000 		.4byte	0x37b
 3019 02bf 0C       		.uleb128 0xc
 3020 02c0 783000   		.ascii	"x0\000"
 3021 02c3 01       		.byte	0x1
 3022 02c4 67       		.byte	0x67
 3023 02c5 AE010000 		.4byte	0x1ae
 3024 02c9 63000000 		.4byte	.LLST3
 3025 02cd 0C       		.uleb128 0xc
 3026 02ce 793000   		.ascii	"y0\000"
 3027 02d1 01       		.byte	0x1
 3028 02d2 67       		.byte	0x67
 3029 02d3 AE010000 		.4byte	0x1ae
 3030 02d7 84000000 		.4byte	.LLST4
 3031 02db 0C       		.uleb128 0xc
 3032 02dc 783100   		.ascii	"x1\000"
 3033 02df 01       		.byte	0x1
 3034 02e0 67       		.byte	0x67
 3035 02e1 AE010000 		.4byte	0x1ae
 3036 02e5 A5000000 		.4byte	.LLST5
 3037 02e9 0C       		.uleb128 0xc
 3038 02ea 793100   		.ascii	"y1\000"
 3039 02ed 01       		.byte	0x1
 3040 02ee 67       		.byte	0x67
 3041 02ef AE010000 		.4byte	0x1ae
 3042 02f3 C6000000 		.4byte	.LLST6
 3043 02f7 0B       		.uleb128 0xb
 3044 02f8 70040000 		.4byte	.LASF43
 3045 02fc 01       		.byte	0x1
 3046 02fd 67       		.byte	0x67
ARM GAS  C:\Users\GYULAI~1\AppData\Local\Temp\ccjFV3Tn.s 			page 61


 3047 02fe 98010000 		.4byte	0x198
 3048 0302 02       		.uleb128 0x2
 3049 0303 91       		.byte	0x91
 3050 0304 00       		.sleb128 0
 3051 0305 0E       		.uleb128 0xe
 3052 0306 647800   		.ascii	"dx\000"
 3053 0309 01       		.byte	0x1
 3054 030a 6A       		.byte	0x6a
 3055 030b D0000000 		.4byte	0xd0
 3056 030f 01       		.uleb128 0x1
 3057 0310 5A       		.byte	0x5a
 3058 0311 0F       		.uleb128 0xf
 3059 0312 647900   		.ascii	"dy\000"
 3060 0315 01       		.byte	0x1
 3061 0316 6B       		.byte	0x6b
 3062 0317 D0000000 		.4byte	0xd0
 3063 031b E7000000 		.4byte	.LLST7
 3064 031f 0F       		.uleb128 0xf
 3065 0320 796900   		.ascii	"yi\000"
 3066 0323 01       		.byte	0x1
 3067 0324 6C       		.byte	0x6c
 3068 0325 D0000000 		.4byte	0xd0
 3069 0329 10010000 		.4byte	.LLST8
 3070 032d 0F       		.uleb128 0xf
 3071 032e 4400     		.ascii	"D\000"
 3072 0330 01       		.byte	0x1
 3073 0331 73       		.byte	0x73
 3074 0332 D0000000 		.4byte	0xd0
 3075 0336 48010000 		.4byte	.LLST9
 3076 033a 0E       		.uleb128 0xe
 3077 033b 7900     		.ascii	"y\000"
 3078 033d 01       		.byte	0x1
 3079 033e 74       		.byte	0x74
 3080 033f D0000000 		.4byte	0xd0
 3081 0343 01       		.uleb128 0x1
 3082 0344 57       		.byte	0x57
 3083 0345 10       		.uleb128 0x10
 3084 0346 46000000 		.4byte	.LBB2
 3085 034a 2C000000 		.4byte	.LBE2-.LBB2
 3086 034e 0F       		.uleb128 0xf
 3087 034f 7800     		.ascii	"x\000"
 3088 0351 01       		.byte	0x1
 3089 0352 76       		.byte	0x76
 3090 0353 D0000000 		.4byte	0xd0
 3091 0357 71010000 		.4byte	.LLST10
 3092 035b 11       		.uleb128 0x11
 3093 035c 58000000 		.4byte	.LVL22
 3094 0360 BC0B0000 		.4byte	0xbbc
 3095 0364 12       		.uleb128 0x12
 3096 0365 01       		.uleb128 0x1
 3097 0366 50       		.byte	0x50
 3098 0367 02       		.uleb128 0x2
 3099 0368 74       		.byte	0x74
 3100 0369 00       		.sleb128 0
 3101 036a 12       		.uleb128 0x12
 3102 036b 01       		.uleb128 0x1
 3103 036c 51       		.byte	0x51
ARM GAS  C:\Users\GYULAI~1\AppData\Local\Temp\ccjFV3Tn.s 			page 62


 3104 036d 02       		.uleb128 0x2
 3105 036e 76       		.byte	0x76
 3106 036f 00       		.sleb128 0
 3107 0370 12       		.uleb128 0x12
 3108 0371 01       		.uleb128 0x1
 3109 0372 52       		.byte	0x52
 3110 0373 04       		.uleb128 0x4
 3111 0374 91       		.byte	0x91
 3112 0375 54       		.sleb128 -44
 3113 0376 94       		.byte	0x94
 3114 0377 01       		.byte	0x1
 3115 0378 00       		.byte	0
 3116 0379 00       		.byte	0
 3117 037a 00       		.byte	0
 3118 037b 09       		.uleb128 0x9
 3119 037c 40000000 		.4byte	.LASF45
 3120 0380 01       		.byte	0x1
 3121 0381 81       		.byte	0x81
 3122 0382 00000000 		.4byte	.LFB7
 3123 0386 78000000 		.4byte	.LFE7-.LFB7
 3124 038a 01       		.uleb128 0x1
 3125 038b 9C       		.byte	0x9c
 3126 038c 4C040000 		.4byte	0x44c
 3127 0390 0C       		.uleb128 0xc
 3128 0391 783000   		.ascii	"x0\000"
 3129 0394 01       		.byte	0x1
 3130 0395 81       		.byte	0x81
 3131 0396 AE010000 		.4byte	0x1ae
 3132 039a 9C010000 		.4byte	.LLST11
 3133 039e 0C       		.uleb128 0xc
 3134 039f 793000   		.ascii	"y0\000"
 3135 03a2 01       		.byte	0x1
 3136 03a3 81       		.byte	0x81
 3137 03a4 AE010000 		.4byte	0x1ae
 3138 03a8 BD010000 		.4byte	.LLST12
 3139 03ac 0C       		.uleb128 0xc
 3140 03ad 783100   		.ascii	"x1\000"
 3141 03b0 01       		.byte	0x1
 3142 03b1 81       		.byte	0x81
 3143 03b2 AE010000 		.4byte	0x1ae
 3144 03b6 DE010000 		.4byte	.LLST13
 3145 03ba 0C       		.uleb128 0xc
 3146 03bb 793100   		.ascii	"y1\000"
 3147 03be 01       		.byte	0x1
 3148 03bf 81       		.byte	0x81
 3149 03c0 AE010000 		.4byte	0x1ae
 3150 03c4 FF010000 		.4byte	.LLST14
 3151 03c8 0B       		.uleb128 0xb
 3152 03c9 70040000 		.4byte	.LASF43
 3153 03cd 01       		.byte	0x1
 3154 03ce 81       		.byte	0x81
 3155 03cf 98010000 		.4byte	0x198
 3156 03d3 02       		.uleb128 0x2
 3157 03d4 91       		.byte	0x91
 3158 03d5 00       		.sleb128 0
 3159 03d6 0F       		.uleb128 0xf
 3160 03d7 647800   		.ascii	"dx\000"
ARM GAS  C:\Users\GYULAI~1\AppData\Local\Temp\ccjFV3Tn.s 			page 63


 3161 03da 01       		.byte	0x1
 3162 03db 84       		.byte	0x84
 3163 03dc D0000000 		.4byte	0xd0
 3164 03e0 20020000 		.4byte	.LLST15
 3165 03e4 0E       		.uleb128 0xe
 3166 03e5 647900   		.ascii	"dy\000"
 3167 03e8 01       		.byte	0x1
 3168 03e9 85       		.byte	0x85
 3169 03ea D0000000 		.4byte	0xd0
 3170 03ee 01       		.uleb128 0x1
 3171 03ef 5A       		.byte	0x5a
 3172 03f0 0F       		.uleb128 0xf
 3173 03f1 786900   		.ascii	"xi\000"
 3174 03f4 01       		.byte	0x1
 3175 03f5 86       		.byte	0x86
 3176 03f6 D0000000 		.4byte	0xd0
 3177 03fa 49020000 		.4byte	.LLST16
 3178 03fe 0F       		.uleb128 0xf
 3179 03ff 4400     		.ascii	"D\000"
 3180 0401 01       		.byte	0x1
 3181 0402 8D       		.byte	0x8d
 3182 0403 D0000000 		.4byte	0xd0
 3183 0407 81020000 		.4byte	.LLST17
 3184 040b 0E       		.uleb128 0xe
 3185 040c 7800     		.ascii	"x\000"
 3186 040e 01       		.byte	0x1
 3187 040f 8E       		.byte	0x8e
 3188 0410 D0000000 		.4byte	0xd0
 3189 0414 01       		.uleb128 0x1
 3190 0415 57       		.byte	0x57
 3191 0416 10       		.uleb128 0x10
 3192 0417 46000000 		.4byte	.LBB3
 3193 041b 2C000000 		.4byte	.LBE3-.LBB3
 3194 041f 0F       		.uleb128 0xf
 3195 0420 7900     		.ascii	"y\000"
 3196 0422 01       		.byte	0x1
 3197 0423 90       		.byte	0x90
 3198 0424 D0000000 		.4byte	0xd0
 3199 0428 AA020000 		.4byte	.LLST18
 3200 042c 11       		.uleb128 0x11
 3201 042d 58000000 		.4byte	.LVL45
 3202 0431 BC0B0000 		.4byte	0xbbc
 3203 0435 12       		.uleb128 0x12
 3204 0436 01       		.uleb128 0x1
 3205 0437 50       		.byte	0x50
 3206 0438 02       		.uleb128 0x2
 3207 0439 76       		.byte	0x76
 3208 043a 00       		.sleb128 0
 3209 043b 12       		.uleb128 0x12
 3210 043c 01       		.uleb128 0x1
 3211 043d 51       		.byte	0x51
 3212 043e 02       		.uleb128 0x2
 3213 043f 74       		.byte	0x74
 3214 0440 00       		.sleb128 0
 3215 0441 12       		.uleb128 0x12
 3216 0442 01       		.uleb128 0x1
 3217 0443 52       		.byte	0x52
ARM GAS  C:\Users\GYULAI~1\AppData\Local\Temp\ccjFV3Tn.s 			page 64


 3218 0444 04       		.uleb128 0x4
 3219 0445 91       		.byte	0x91
 3220 0446 54       		.sleb128 -44
 3221 0447 94       		.byte	0x94
 3222 0448 01       		.byte	0x1
 3223 0449 00       		.byte	0
 3224 044a 00       		.byte	0
 3225 044b 00       		.byte	0
 3226 044c 09       		.uleb128 0x9
 3227 044d 8A000000 		.4byte	.LASF46
 3228 0451 01       		.byte	0x1
 3229 0452 B3       		.byte	0xb3
 3230 0453 00000000 		.4byte	.LFB9
 3231 0457 2C000000 		.4byte	.LFE9-.LFB9
 3232 045b 01       		.uleb128 0x1
 3233 045c 9C       		.byte	0x9c
 3234 045d DD040000 		.4byte	0x4dd
 3235 0461 0C       		.uleb128 0xc
 3236 0462 7800     		.ascii	"x\000"
 3237 0464 01       		.byte	0x1
 3238 0465 B3       		.byte	0xb3
 3239 0466 AE010000 		.4byte	0x1ae
 3240 046a D5020000 		.4byte	.LLST19
 3241 046e 0C       		.uleb128 0xc
 3242 046f 7900     		.ascii	"y\000"
 3243 0471 01       		.byte	0x1
 3244 0472 B3       		.byte	0xb3
 3245 0473 AE010000 		.4byte	0x1ae
 3246 0477 F6020000 		.4byte	.LLST20
 3247 047b 0D       		.uleb128 0xd
 3248 047c 45050000 		.4byte	.LASF24
 3249 0480 01       		.byte	0x1
 3250 0481 B3       		.byte	0xb3
 3251 0482 8D010000 		.4byte	0x18d
 3252 0486 17030000 		.4byte	.LLST21
 3253 048a 0D       		.uleb128 0xd
 3254 048b 70040000 		.4byte	.LASF43
 3255 048f 01       		.byte	0x1
 3256 0490 B3       		.byte	0xb3
 3257 0491 98010000 		.4byte	0x198
 3258 0495 38030000 		.4byte	.LLST22
 3259 0499 13       		.uleb128 0x13
 3260 049a 0C000000 		.4byte	.LBB4
 3261 049e 18000000 		.4byte	.LBE4-.LBB4
 3262 04a2 D3040000 		.4byte	0x4d3
 3263 04a6 0F       		.uleb128 0xf
 3264 04a7 6900     		.ascii	"i\000"
 3265 04a9 01       		.byte	0x1
 3266 04aa B6       		.byte	0xb6
 3267 04ab 8D010000 		.4byte	0x18d
 3268 04af 59030000 		.4byte	.LLST23
 3269 04b3 11       		.uleb128 0x11
 3270 04b4 1C000000 		.4byte	.LVL56
 3271 04b8 BC0B0000 		.4byte	0xbbc
 3272 04bc 12       		.uleb128 0x12
 3273 04bd 01       		.uleb128 0x1
 3274 04be 50       		.byte	0x50
ARM GAS  C:\Users\GYULAI~1\AppData\Local\Temp\ccjFV3Tn.s 			page 65


 3275 04bf 02       		.uleb128 0x2
 3276 04c0 78       		.byte	0x78
 3277 04c1 00       		.sleb128 0
 3278 04c2 12       		.uleb128 0x12
 3279 04c3 01       		.uleb128 0x1
 3280 04c4 51       		.byte	0x51
 3281 04c5 05       		.uleb128 0x5
 3282 04c6 77       		.byte	0x77
 3283 04c7 00       		.sleb128 0
 3284 04c8 74       		.byte	0x74
 3285 04c9 00       		.sleb128 0
 3286 04ca 22       		.byte	0x22
 3287 04cb 12       		.uleb128 0x12
 3288 04cc 01       		.uleb128 0x1
 3289 04cd 52       		.byte	0x52
 3290 04ce 02       		.uleb128 0x2
 3291 04cf 76       		.byte	0x76
 3292 04d0 00       		.sleb128 0
 3293 04d1 00       		.byte	0
 3294 04d2 00       		.byte	0
 3295 04d3 0A       		.uleb128 0xa
 3296 04d4 28000000 		.4byte	.LVL59
 3297 04d8 16020000 		.4byte	0x216
 3298 04dc 00       		.byte	0
 3299 04dd 09       		.uleb128 0x9
 3300 04de 00000000 		.4byte	.LASF47
 3301 04e2 01       		.byte	0x1
 3302 04e3 9B       		.byte	0x9b
 3303 04e4 00000000 		.4byte	.LFB8
 3304 04e8 9A000000 		.4byte	.LFE8-.LFB8
 3305 04ec 01       		.uleb128 0x1
 3306 04ed 9C       		.byte	0x9c
 3307 04ee ED050000 		.4byte	0x5ed
 3308 04f2 0C       		.uleb128 0xc
 3309 04f3 783000   		.ascii	"x0\000"
 3310 04f6 01       		.byte	0x1
 3311 04f7 9B       		.byte	0x9b
 3312 04f8 AE010000 		.4byte	0x1ae
 3313 04fc 83030000 		.4byte	.LLST24
 3314 0500 0C       		.uleb128 0xc
 3315 0501 793000   		.ascii	"y0\000"
 3316 0504 01       		.byte	0x1
 3317 0505 9B       		.byte	0x9b
 3318 0506 AE010000 		.4byte	0x1ae
 3319 050a 21040000 		.4byte	.LLST25
 3320 050e 0C       		.uleb128 0xc
 3321 050f 783100   		.ascii	"x1\000"
 3322 0512 01       		.byte	0x1
 3323 0513 9B       		.byte	0x9b
 3324 0514 AE010000 		.4byte	0x1ae
 3325 0518 BF040000 		.4byte	.LLST26
 3326 051c 0C       		.uleb128 0xc
 3327 051d 793100   		.ascii	"y1\000"
 3328 0520 01       		.byte	0x1
 3329 0521 9B       		.byte	0x9b
 3330 0522 AE010000 		.4byte	0x1ae
 3331 0526 12050000 		.4byte	.LLST27
ARM GAS  C:\Users\GYULAI~1\AppData\Local\Temp\ccjFV3Tn.s 			page 66


 3332 052a 0B       		.uleb128 0xb
 3333 052b 70040000 		.4byte	.LASF43
 3334 052f 01       		.byte	0x1
 3335 0530 9B       		.byte	0x9b
 3336 0531 98010000 		.4byte	0x198
 3337 0535 02       		.uleb128 0x2
 3338 0536 91       		.byte	0x91
 3339 0537 00       		.sleb128 0
 3340 0538 14       		.uleb128 0x14
 3341 0539 22000000 		.4byte	.LVL64
 3342 053d 4C040000 		.4byte	0x44c
 3343 0541 4E050000 		.4byte	0x54e
 3344 0545 12       		.uleb128 0x12
 3345 0546 01       		.uleb128 0x1
 3346 0547 53       		.byte	0x53
 3347 0548 04       		.uleb128 0x4
 3348 0549 91       		.byte	0x91
 3349 054a 00       		.sleb128 0
 3350 054b 94       		.byte	0x94
 3351 054c 01       		.byte	0x1
 3352 054d 00       		.byte	0
 3353 054e 0A       		.uleb128 0xa
 3354 054f 3E000000 		.4byte	.LVL68
 3355 0553 C70B0000 		.4byte	0xbc7
 3356 0557 14       		.uleb128 0x14
 3357 0558 66000000 		.4byte	.LVL73
 3358 055c AA020000 		.4byte	0x2aa
 3359 0560 7A050000 		.4byte	0x57a
 3360 0564 12       		.uleb128 0x12
 3361 0565 01       		.uleb128 0x1
 3362 0566 50       		.byte	0x50
 3363 0567 02       		.uleb128 0x2
 3364 0568 74       		.byte	0x74
 3365 0569 00       		.sleb128 0
 3366 056a 12       		.uleb128 0x12
 3367 056b 01       		.uleb128 0x1
 3368 056c 51       		.byte	0x51
 3369 056d 02       		.uleb128 0x2
 3370 056e 75       		.byte	0x75
 3371 056f 00       		.sleb128 0
 3372 0570 12       		.uleb128 0x12
 3373 0571 02       		.uleb128 0x2
 3374 0572 7D       		.byte	0x7d
 3375 0573 00       		.sleb128 0
 3376 0574 04       		.uleb128 0x4
 3377 0575 91       		.byte	0x91
 3378 0576 00       		.sleb128 0
 3379 0577 94       		.byte	0x94
 3380 0578 01       		.byte	0x1
 3381 0579 00       		.byte	0
 3382 057a 14       		.uleb128 0x14
 3383 057b 72000000 		.4byte	.LVL75
 3384 057f AA020000 		.4byte	0x2aa
 3385 0583 9D050000 		.4byte	0x59d
 3386 0587 12       		.uleb128 0x12
 3387 0588 01       		.uleb128 0x1
 3388 0589 52       		.byte	0x52
ARM GAS  C:\Users\GYULAI~1\AppData\Local\Temp\ccjFV3Tn.s 			page 67


 3389 058a 02       		.uleb128 0x2
 3390 058b 74       		.byte	0x74
 3391 058c 00       		.sleb128 0
 3392 058d 12       		.uleb128 0x12
 3393 058e 01       		.uleb128 0x1
 3394 058f 53       		.byte	0x53
 3395 0590 02       		.uleb128 0x2
 3396 0591 75       		.byte	0x75
 3397 0592 00       		.sleb128 0
 3398 0593 12       		.uleb128 0x12
 3399 0594 02       		.uleb128 0x2
 3400 0595 7D       		.byte	0x7d
 3401 0596 00       		.sleb128 0
 3402 0597 04       		.uleb128 0x4
 3403 0598 91       		.byte	0x91
 3404 0599 00       		.sleb128 0
 3405 059a 94       		.byte	0x94
 3406 059b 01       		.byte	0x1
 3407 059c 00       		.byte	0
 3408 059d 14       		.uleb128 0x14
 3409 059e 86000000 		.4byte	.LVL79
 3410 05a2 7B030000 		.4byte	0x37b
 3411 05a6 C0050000 		.4byte	0x5c0
 3412 05aa 12       		.uleb128 0x12
 3413 05ab 01       		.uleb128 0x1
 3414 05ac 50       		.byte	0x50
 3415 05ad 02       		.uleb128 0x2
 3416 05ae 74       		.byte	0x74
 3417 05af 00       		.sleb128 0
 3418 05b0 12       		.uleb128 0x12
 3419 05b1 01       		.uleb128 0x1
 3420 05b2 51       		.byte	0x51
 3421 05b3 02       		.uleb128 0x2
 3422 05b4 75       		.byte	0x75
 3423 05b5 00       		.sleb128 0
 3424 05b6 12       		.uleb128 0x12
 3425 05b7 02       		.uleb128 0x2
 3426 05b8 7D       		.byte	0x7d
 3427 05b9 00       		.sleb128 0
 3428 05ba 04       		.uleb128 0x4
 3429 05bb 91       		.byte	0x91
 3430 05bc 00       		.sleb128 0
 3431 05bd 94       		.byte	0x94
 3432 05be 01       		.byte	0x1
 3433 05bf 00       		.byte	0
 3434 05c0 14       		.uleb128 0x14
 3435 05c1 92000000 		.4byte	.LVL81
 3436 05c5 7B030000 		.4byte	0x37b
 3437 05c9 E3050000 		.4byte	0x5e3
 3438 05cd 12       		.uleb128 0x12
 3439 05ce 01       		.uleb128 0x1
 3440 05cf 52       		.byte	0x52
 3441 05d0 02       		.uleb128 0x2
 3442 05d1 74       		.byte	0x74
 3443 05d2 00       		.sleb128 0
 3444 05d3 12       		.uleb128 0x12
 3445 05d4 01       		.uleb128 0x1
ARM GAS  C:\Users\GYULAI~1\AppData\Local\Temp\ccjFV3Tn.s 			page 68


 3446 05d5 53       		.byte	0x53
 3447 05d6 02       		.uleb128 0x2
 3448 05d7 75       		.byte	0x75
 3449 05d8 00       		.sleb128 0
 3450 05d9 12       		.uleb128 0x12
 3451 05da 02       		.uleb128 0x2
 3452 05db 7D       		.byte	0x7d
 3453 05dc 00       		.sleb128 0
 3454 05dd 04       		.uleb128 0x4
 3455 05de 91       		.byte	0x91
 3456 05df 00       		.sleb128 0
 3457 05e0 94       		.byte	0x94
 3458 05e1 01       		.byte	0x1
 3459 05e2 00       		.byte	0
 3460 05e3 0A       		.uleb128 0xa
 3461 05e4 96000000 		.4byte	.LVL82
 3462 05e8 16020000 		.4byte	0x216
 3463 05ec 00       		.byte	0
 3464 05ed 09       		.uleb128 0x9
 3465 05ee 7B040000 		.4byte	.LASF48
 3466 05f2 01       		.byte	0x1
 3467 05f3 BC       		.byte	0xbc
 3468 05f4 00000000 		.4byte	.LFB10
 3469 05f8 2E000000 		.4byte	.LFE10-.LFB10
 3470 05fc 01       		.uleb128 0x1
 3471 05fd 9C       		.byte	0x9c
 3472 05fe 7E060000 		.4byte	0x67e
 3473 0602 0C       		.uleb128 0xc
 3474 0603 7800     		.ascii	"x\000"
 3475 0605 01       		.byte	0x1
 3476 0606 BC       		.byte	0xbc
 3477 0607 AE010000 		.4byte	0x1ae
 3478 060b 33050000 		.4byte	.LLST28
 3479 060f 0C       		.uleb128 0xc
 3480 0610 7900     		.ascii	"y\000"
 3481 0612 01       		.byte	0x1
 3482 0613 BC       		.byte	0xbc
 3483 0614 AE010000 		.4byte	0x1ae
 3484 0618 54050000 		.4byte	.LLST29
 3485 061c 0D       		.uleb128 0xd
 3486 061d 69040000 		.4byte	.LASF49
 3487 0621 01       		.byte	0x1
 3488 0622 BC       		.byte	0xbc
 3489 0623 8D010000 		.4byte	0x18d
 3490 0627 75050000 		.4byte	.LLST30
 3491 062b 0D       		.uleb128 0xd
 3492 062c 70040000 		.4byte	.LASF43
 3493 0630 01       		.byte	0x1
 3494 0631 BC       		.byte	0xbc
 3495 0632 98010000 		.4byte	0x198
 3496 0636 96050000 		.4byte	.LLST31
 3497 063a 13       		.uleb128 0x13
 3498 063b 0C000000 		.4byte	.LBB5
 3499 063f 1A000000 		.4byte	.LBE5-.LBB5
 3500 0643 74060000 		.4byte	0x674
 3501 0647 0F       		.uleb128 0xf
 3502 0648 6900     		.ascii	"i\000"
ARM GAS  C:\Users\GYULAI~1\AppData\Local\Temp\ccjFV3Tn.s 			page 69


 3503 064a 01       		.byte	0x1
 3504 064b BF       		.byte	0xbf
 3505 064c 8D010000 		.4byte	0x18d
 3506 0650 B7050000 		.4byte	.LLST32
 3507 0654 11       		.uleb128 0x11
 3508 0655 1E000000 		.4byte	.LVL86
 3509 0659 BC0B0000 		.4byte	0xbbc
 3510 065d 12       		.uleb128 0x12
 3511 065e 01       		.uleb128 0x1
 3512 065f 50       		.byte	0x50
 3513 0660 05       		.uleb128 0x5
 3514 0661 78       		.byte	0x78
 3515 0662 00       		.sleb128 0
 3516 0663 74       		.byte	0x74
 3517 0664 00       		.sleb128 0
 3518 0665 22       		.byte	0x22
 3519 0666 12       		.uleb128 0x12
 3520 0667 01       		.uleb128 0x1
 3521 0668 51       		.byte	0x51
 3522 0669 02       		.uleb128 0x2
 3523 066a 77       		.byte	0x77
 3524 066b 00       		.sleb128 0
 3525 066c 12       		.uleb128 0x12
 3526 066d 01       		.uleb128 0x1
 3527 066e 52       		.byte	0x52
 3528 066f 02       		.uleb128 0x2
 3529 0670 76       		.byte	0x76
 3530 0671 00       		.sleb128 0
 3531 0672 00       		.byte	0
 3532 0673 00       		.byte	0
 3533 0674 0A       		.uleb128 0xa
 3534 0675 2A000000 		.4byte	.LVL89
 3535 0679 16020000 		.4byte	0x216
 3536 067d 00       		.byte	0
 3537 067e 15       		.uleb128 0x15
 3538 067f C9010000 		.4byte	.LASF50
 3539 0683 01       		.byte	0x1
 3540 0684 C5       		.byte	0xc5
 3541 0685 00000000 		.4byte	.LFB11
 3542 0689 5A000000 		.4byte	.LFE11-.LFB11
 3543 068d 01       		.uleb128 0x1
 3544 068e 9C       		.byte	0x9c
 3545 068f 41070000 		.4byte	0x741
 3546 0693 0C       		.uleb128 0xc
 3547 0694 7800     		.ascii	"x\000"
 3548 0696 01       		.byte	0x1
 3549 0697 C5       		.byte	0xc5
 3550 0698 AE010000 		.4byte	0x1ae
 3551 069c E1050000 		.4byte	.LLST33
 3552 06a0 0C       		.uleb128 0xc
 3553 06a1 7900     		.ascii	"y\000"
 3554 06a3 01       		.byte	0x1
 3555 06a4 C5       		.byte	0xc5
 3556 06a5 AE010000 		.4byte	0x1ae
 3557 06a9 02060000 		.4byte	.LLST34
 3558 06ad 0D       		.uleb128 0xd
 3559 06ae 3C020000 		.4byte	.LASF51
ARM GAS  C:\Users\GYULAI~1\AppData\Local\Temp\ccjFV3Tn.s 			page 70


 3560 06b2 01       		.byte	0x1
 3561 06b3 C5       		.byte	0xc5
 3562 06b4 8D010000 		.4byte	0x18d
 3563 06b8 23060000 		.4byte	.LLST35
 3564 06bc 0D       		.uleb128 0xd
 3565 06bd 70040000 		.4byte	.LASF43
 3566 06c1 01       		.byte	0x1
 3567 06c2 C5       		.byte	0xc5
 3568 06c3 98010000 		.4byte	0x198
 3569 06c7 44060000 		.4byte	.LLST36
 3570 06cb 13       		.uleb128 0x13
 3571 06cc 0C000000 		.4byte	.LBB6
 3572 06d0 46000000 		.4byte	.LBE6-.LBB6
 3573 06d4 37070000 		.4byte	0x737
 3574 06d8 0F       		.uleb128 0xf
 3575 06d9 6900     		.ascii	"i\000"
 3576 06db 01       		.byte	0x1
 3577 06dc C8       		.byte	0xc8
 3578 06dd AE010000 		.4byte	0x1ae
 3579 06e1 65060000 		.4byte	.LLST37
 3580 06e5 16       		.uleb128 0x16
 3581 06e6 00000000 		.4byte	.Ldebug_ranges0+0
 3582 06ea 0F       		.uleb128 0xf
 3583 06eb 6A00     		.ascii	"j\000"
 3584 06ed 01       		.byte	0x1
 3585 06ee C9       		.byte	0xc9
 3586 06ef AE010000 		.4byte	0x1ae
 3587 06f3 8F060000 		.4byte	.LLST38
 3588 06f7 10       		.uleb128 0x10
 3589 06f8 10000000 		.4byte	.LBB8
 3590 06fc 2E000000 		.4byte	.LBE8-.LBB8
 3591 0700 17       		.uleb128 0x17
 3592 0701 A2040000 		.4byte	.LASF52
 3593 0705 01       		.byte	0x1
 3594 0706 CA       		.byte	0xca
 3595 0707 8D010000 		.4byte	0x18d
 3596 070b B8060000 		.4byte	.LLST39
 3597 070f 0A       		.uleb128 0xa
 3598 0710 2A000000 		.4byte	.LVL94
 3599 0714 D20B0000 		.4byte	0xbd2
 3600 0718 11       		.uleb128 0x11
 3601 0719 3E000000 		.4byte	.LVL98
 3602 071d BC0B0000 		.4byte	0xbbc
 3603 0721 12       		.uleb128 0x12
 3604 0722 01       		.uleb128 0x1
 3605 0723 50       		.byte	0x50
 3606 0724 02       		.uleb128 0x2
 3607 0725 76       		.byte	0x76
 3608 0726 00       		.sleb128 0
 3609 0727 12       		.uleb128 0x12
 3610 0728 01       		.uleb128 0x1
 3611 0729 51       		.byte	0x51
 3612 072a 02       		.uleb128 0x2
 3613 072b 75       		.byte	0x75
 3614 072c 00       		.sleb128 0
 3615 072d 12       		.uleb128 0x12
 3616 072e 01       		.uleb128 0x1
ARM GAS  C:\Users\GYULAI~1\AppData\Local\Temp\ccjFV3Tn.s 			page 71


 3617 072f 52       		.byte	0x52
 3618 0730 02       		.uleb128 0x2
 3619 0731 7A       		.byte	0x7a
 3620 0732 00       		.sleb128 0
 3621 0733 00       		.byte	0
 3622 0734 00       		.byte	0
 3623 0735 00       		.byte	0
 3624 0736 00       		.byte	0
 3625 0737 0A       		.uleb128 0xa
 3626 0738 56000000 		.4byte	.LVL105
 3627 073c 16020000 		.4byte	0x216
 3628 0740 00       		.byte	0
 3629 0741 15       		.uleb128 0x15
 3630 0742 37010000 		.4byte	.LASF53
 3631 0746 01       		.byte	0x1
 3632 0747 D3       		.byte	0xd3
 3633 0748 00000000 		.4byte	.LFB12
 3634 074c 5A000000 		.4byte	.LFE12-.LFB12
 3635 0750 01       		.uleb128 0x1
 3636 0751 9C       		.byte	0x9c
 3637 0752 04080000 		.4byte	0x804
 3638 0756 0C       		.uleb128 0xc
 3639 0757 7800     		.ascii	"x\000"
 3640 0759 01       		.byte	0x1
 3641 075a D3       		.byte	0xd3
 3642 075b AE010000 		.4byte	0x1ae
 3643 075f CB060000 		.4byte	.LLST40
 3644 0763 0C       		.uleb128 0xc
 3645 0764 7900     		.ascii	"y\000"
 3646 0766 01       		.byte	0x1
 3647 0767 D3       		.byte	0xd3
 3648 0768 AE010000 		.4byte	0x1ae
 3649 076c EC060000 		.4byte	.LLST41
 3650 0770 0D       		.uleb128 0xd
 3651 0771 3C020000 		.4byte	.LASF51
 3652 0775 01       		.byte	0x1
 3653 0776 D3       		.byte	0xd3
 3654 0777 8D010000 		.4byte	0x18d
 3655 077b 0D070000 		.4byte	.LLST42
 3656 077f 0D       		.uleb128 0xd
 3657 0780 70040000 		.4byte	.LASF43
 3658 0784 01       		.byte	0x1
 3659 0785 D3       		.byte	0xd3
 3660 0786 98010000 		.4byte	0x198
 3661 078a 2E070000 		.4byte	.LLST43
 3662 078e 13       		.uleb128 0x13
 3663 078f 0C000000 		.4byte	.LBB10
 3664 0793 46000000 		.4byte	.LBE10-.LBB10
 3665 0797 FA070000 		.4byte	0x7fa
 3666 079b 0F       		.uleb128 0xf
 3667 079c 6900     		.ascii	"i\000"
 3668 079e 01       		.byte	0x1
 3669 079f D6       		.byte	0xd6
 3670 07a0 AE010000 		.4byte	0x1ae
 3671 07a4 4F070000 		.4byte	.LLST44
 3672 07a8 16       		.uleb128 0x16
 3673 07a9 18000000 		.4byte	.Ldebug_ranges0+0x18
ARM GAS  C:\Users\GYULAI~1\AppData\Local\Temp\ccjFV3Tn.s 			page 72


 3674 07ad 0F       		.uleb128 0xf
 3675 07ae 6A00     		.ascii	"j\000"
 3676 07b0 01       		.byte	0x1
 3677 07b1 D7       		.byte	0xd7
 3678 07b2 AE010000 		.4byte	0x1ae
 3679 07b6 79070000 		.4byte	.LLST45
 3680 07ba 10       		.uleb128 0x10
 3681 07bb 10000000 		.4byte	.LBB12
 3682 07bf 2E000000 		.4byte	.LBE12-.LBB12
 3683 07c3 17       		.uleb128 0x17
 3684 07c4 A2040000 		.4byte	.LASF52
 3685 07c8 01       		.byte	0x1
 3686 07c9 D8       		.byte	0xd8
 3687 07ca 8D010000 		.4byte	0x18d
 3688 07ce A2070000 		.4byte	.LLST46
 3689 07d2 0A       		.uleb128 0xa
 3690 07d3 2A000000 		.4byte	.LVL110
 3691 07d7 D20B0000 		.4byte	0xbd2
 3692 07db 11       		.uleb128 0x11
 3693 07dc 3E000000 		.4byte	.LVL114
 3694 07e0 BC0B0000 		.4byte	0xbbc
 3695 07e4 12       		.uleb128 0x12
 3696 07e5 01       		.uleb128 0x1
 3697 07e6 50       		.byte	0x50
 3698 07e7 02       		.uleb128 0x2
 3699 07e8 76       		.byte	0x76
 3700 07e9 00       		.sleb128 0
 3701 07ea 12       		.uleb128 0x12
 3702 07eb 01       		.uleb128 0x1
 3703 07ec 51       		.byte	0x51
 3704 07ed 02       		.uleb128 0x2
 3705 07ee 75       		.byte	0x75
 3706 07ef 00       		.sleb128 0
 3707 07f0 12       		.uleb128 0x12
 3708 07f1 01       		.uleb128 0x1
 3709 07f2 52       		.byte	0x52
 3710 07f3 02       		.uleb128 0x2
 3711 07f4 7A       		.byte	0x7a
 3712 07f5 00       		.sleb128 0
 3713 07f6 00       		.byte	0
 3714 07f7 00       		.byte	0
 3715 07f8 00       		.byte	0
 3716 07f9 00       		.byte	0
 3717 07fa 0A       		.uleb128 0xa
 3718 07fb 56000000 		.4byte	.LVL121
 3719 07ff 16020000 		.4byte	0x216
 3720 0803 00       		.byte	0
 3721 0804 09       		.uleb128 0x9
 3722 0805 0A050000 		.4byte	.LASF54
 3723 0809 01       		.byte	0x1
 3724 080a E1       		.byte	0xe1
 3725 080b 00000000 		.4byte	.LFB13
 3726 080f 52000000 		.4byte	.LFE13-.LFB13
 3727 0813 01       		.uleb128 0x1
 3728 0814 9C       		.byte	0x9c
 3729 0815 B9080000 		.4byte	0x8b9
 3730 0819 0C       		.uleb128 0xc
ARM GAS  C:\Users\GYULAI~1\AppData\Local\Temp\ccjFV3Tn.s 			page 73


 3731 081a 7800     		.ascii	"x\000"
 3732 081c 01       		.byte	0x1
 3733 081d E1       		.byte	0xe1
 3734 081e AE010000 		.4byte	0x1ae
 3735 0822 B5070000 		.4byte	.LLST47
 3736 0826 0C       		.uleb128 0xc
 3737 0827 7900     		.ascii	"y\000"
 3738 0829 01       		.byte	0x1
 3739 082a E1       		.byte	0xe1
 3740 082b AE010000 		.4byte	0x1ae
 3741 082f D6070000 		.4byte	.LLST48
 3742 0833 0D       		.uleb128 0xd
 3743 0834 23020000 		.4byte	.LASF23
 3744 0838 01       		.byte	0x1
 3745 0839 E1       		.byte	0xe1
 3746 083a 8D010000 		.4byte	0x18d
 3747 083e F7070000 		.4byte	.LLST49
 3748 0842 0D       		.uleb128 0xd
 3749 0843 45050000 		.4byte	.LASF24
 3750 0847 01       		.byte	0x1
 3751 0848 E1       		.byte	0xe1
 3752 0849 8D010000 		.4byte	0x18d
 3753 084d 18080000 		.4byte	.LLST50
 3754 0851 0B       		.uleb128 0xb
 3755 0852 70040000 		.4byte	.LASF43
 3756 0856 01       		.byte	0x1
 3757 0857 E1       		.byte	0xe1
 3758 0858 98010000 		.4byte	0x198
 3759 085c 02       		.uleb128 0x2
 3760 085d 91       		.byte	0x91
 3761 085e 00       		.sleb128 0
 3762 085f 13       		.uleb128 0x13
 3763 0860 10000000 		.4byte	.LBB14
 3764 0864 3A000000 		.4byte	.LBE14-.LBB14
 3765 0868 AF080000 		.4byte	0x8af
 3766 086c 0F       		.uleb128 0xf
 3767 086d 6900     		.ascii	"i\000"
 3768 086f 01       		.byte	0x1
 3769 0870 E4       		.byte	0xe4
 3770 0871 8D010000 		.4byte	0x18d
 3771 0875 39080000 		.4byte	.LLST51
 3772 0879 16       		.uleb128 0x16
 3773 087a 30000000 		.4byte	.Ldebug_ranges0+0x30
 3774 087e 0F       		.uleb128 0xf
 3775 087f 6A00     		.ascii	"j\000"
 3776 0881 01       		.byte	0x1
 3777 0882 E5       		.byte	0xe5
 3778 0883 8D010000 		.4byte	0x18d
 3779 0887 63080000 		.4byte	.LLST52
 3780 088b 11       		.uleb128 0x11
 3781 088c 36000000 		.4byte	.LVL125
 3782 0890 BC0B0000 		.4byte	0xbbc
 3783 0894 12       		.uleb128 0x12
 3784 0895 01       		.uleb128 0x1
 3785 0896 50       		.byte	0x50
 3786 0897 05       		.uleb128 0x5
 3787 0898 7A       		.byte	0x7a
ARM GAS  C:\Users\GYULAI~1\AppData\Local\Temp\ccjFV3Tn.s 			page 74


 3788 0899 00       		.sleb128 0
 3789 089a 75       		.byte	0x75
 3790 089b 00       		.sleb128 0
 3791 089c 22       		.byte	0x22
 3792 089d 12       		.uleb128 0x12
 3793 089e 01       		.uleb128 0x1
 3794 089f 51       		.byte	0x51
 3795 08a0 05       		.uleb128 0x5
 3796 08a1 79       		.byte	0x79
 3797 08a2 00       		.sleb128 0
 3798 08a3 74       		.byte	0x74
 3799 08a4 00       		.sleb128 0
 3800 08a5 22       		.byte	0x22
 3801 08a6 12       		.uleb128 0x12
 3802 08a7 01       		.uleb128 0x1
 3803 08a8 52       		.byte	0x52
 3804 08a9 02       		.uleb128 0x2
 3805 08aa 78       		.byte	0x78
 3806 08ab 00       		.sleb128 0
 3807 08ac 00       		.byte	0
 3808 08ad 00       		.byte	0
 3809 08ae 00       		.byte	0
 3810 08af 0A       		.uleb128 0xa
 3811 08b0 4E000000 		.4byte	.LVL132
 3812 08b4 16020000 		.4byte	0x216
 3813 08b8 00       		.byte	0
 3814 08b9 09       		.uleb128 0x9
 3815 08ba 12000000 		.4byte	.LASF55
 3816 08be 01       		.byte	0x1
 3817 08bf F0       		.byte	0xf0
 3818 08c0 00000000 		.4byte	.LFB14
 3819 08c4 42000000 		.4byte	.LFE14-.LFB14
 3820 08c8 01       		.uleb128 0x1
 3821 08c9 9C       		.byte	0x9c
 3822 08ca 6E090000 		.4byte	0x96e
 3823 08ce 0C       		.uleb128 0xc
 3824 08cf 7800     		.ascii	"x\000"
 3825 08d1 01       		.byte	0x1
 3826 08d2 F0       		.byte	0xf0
 3827 08d3 AE010000 		.4byte	0x1ae
 3828 08d7 8C080000 		.4byte	.LLST53
 3829 08db 0C       		.uleb128 0xc
 3830 08dc 7900     		.ascii	"y\000"
 3831 08de 01       		.byte	0x1
 3832 08df F0       		.byte	0xf0
 3833 08e0 AE010000 		.4byte	0x1ae
 3834 08e4 AD080000 		.4byte	.LLST54
 3835 08e8 0D       		.uleb128 0xd
 3836 08e9 23020000 		.4byte	.LASF23
 3837 08ed 01       		.byte	0x1
 3838 08ee F0       		.byte	0xf0
 3839 08ef 8D010000 		.4byte	0x18d
 3840 08f3 CE080000 		.4byte	.LLST55
 3841 08f7 0D       		.uleb128 0xd
 3842 08f8 45050000 		.4byte	.LASF24
 3843 08fc 01       		.byte	0x1
 3844 08fd F0       		.byte	0xf0
ARM GAS  C:\Users\GYULAI~1\AppData\Local\Temp\ccjFV3Tn.s 			page 75


 3845 08fe 8D010000 		.4byte	0x18d
 3846 0902 EF080000 		.4byte	.LLST56
 3847 0906 0B       		.uleb128 0xb
 3848 0907 70040000 		.4byte	.LASF43
 3849 090b 01       		.byte	0x1
 3850 090c F0       		.byte	0xf0
 3851 090d 98010000 		.4byte	0x198
 3852 0911 02       		.uleb128 0x2
 3853 0912 91       		.byte	0x91
 3854 0913 00       		.sleb128 0
 3855 0914 13       		.uleb128 0x13
 3856 0915 10000000 		.4byte	.LBB17
 3857 0919 2A000000 		.4byte	.LBE17-.LBB17
 3858 091d 64090000 		.4byte	0x964
 3859 0921 0F       		.uleb128 0xf
 3860 0922 6900     		.ascii	"i\000"
 3861 0924 01       		.byte	0x1
 3862 0925 F3       		.byte	0xf3
 3863 0926 8D010000 		.4byte	0x18d
 3864 092a 10090000 		.4byte	.LLST57
 3865 092e 16       		.uleb128 0x16
 3866 092f 48000000 		.4byte	.Ldebug_ranges0+0x48
 3867 0933 0F       		.uleb128 0xf
 3868 0934 6A00     		.ascii	"j\000"
 3869 0936 01       		.byte	0x1
 3870 0937 F4       		.byte	0xf4
 3871 0938 8D010000 		.4byte	0x18d
 3872 093c 3A090000 		.4byte	.LLST58
 3873 0940 11       		.uleb128 0x11
 3874 0941 26000000 		.4byte	.LVL136
 3875 0945 BC0B0000 		.4byte	0xbbc
 3876 0949 12       		.uleb128 0x12
 3877 094a 01       		.uleb128 0x1
 3878 094b 50       		.byte	0x50
 3879 094c 05       		.uleb128 0x5
 3880 094d 79       		.byte	0x79
 3881 094e 00       		.sleb128 0
 3882 094f 75       		.byte	0x75
 3883 0950 00       		.sleb128 0
 3884 0951 22       		.byte	0x22
 3885 0952 12       		.uleb128 0x12
 3886 0953 01       		.uleb128 0x1
 3887 0954 51       		.byte	0x51
 3888 0955 05       		.uleb128 0x5
 3889 0956 78       		.byte	0x78
 3890 0957 00       		.sleb128 0
 3891 0958 74       		.byte	0x74
 3892 0959 00       		.sleb128 0
 3893 095a 22       		.byte	0x22
 3894 095b 12       		.uleb128 0x12
 3895 095c 01       		.uleb128 0x1
 3896 095d 52       		.byte	0x52
 3897 095e 02       		.uleb128 0x2
 3898 095f 77       		.byte	0x77
 3899 0960 00       		.sleb128 0
 3900 0961 00       		.byte	0
 3901 0962 00       		.byte	0
ARM GAS  C:\Users\GYULAI~1\AppData\Local\Temp\ccjFV3Tn.s 			page 76


 3902 0963 00       		.byte	0
 3903 0964 0A       		.uleb128 0xa
 3904 0965 3E000000 		.4byte	.LVL143
 3905 0969 16020000 		.4byte	0x216
 3906 096d 00       		.byte	0
 3907 096e 09       		.uleb128 0x9
 3908 096f 5B050000 		.4byte	.LASF56
 3909 0973 01       		.byte	0x1
 3910 0974 FD       		.byte	0xfd
 3911 0975 00000000 		.4byte	.LFB15
 3912 0979 9C000000 		.4byte	.LFE15-.LFB15
 3913 097d 01       		.uleb128 0x1
 3914 097e 9C       		.byte	0x9c
 3915 097f 7D0A0000 		.4byte	0xa7d
 3916 0983 0C       		.uleb128 0xc
 3917 0984 7800     		.ascii	"x\000"
 3918 0986 01       		.byte	0x1
 3919 0987 FD       		.byte	0xfd
 3920 0988 AE010000 		.4byte	0x1ae
 3921 098c 63090000 		.4byte	.LLST59
 3922 0990 0C       		.uleb128 0xc
 3923 0991 7900     		.ascii	"y\000"
 3924 0993 01       		.byte	0x1
 3925 0994 FD       		.byte	0xfd
 3926 0995 AE010000 		.4byte	0x1ae
 3927 0999 84090000 		.4byte	.LLST60
 3928 099d 0D       		.uleb128 0xd
 3929 099e 6F000000 		.4byte	.LASF57
 3930 09a2 01       		.byte	0x1
 3931 09a3 FD       		.byte	0xfd
 3932 09a4 A3010000 		.4byte	0x1a3
 3933 09a8 A5090000 		.4byte	.LLST61
 3934 09ac 18       		.uleb128 0x18
 3935 09ad F1000000 		.4byte	.LASF58
 3936 09b1 01       		.byte	0x1
 3937 09b2 0001     		.2byte	0x100
 3938 09b4 3A010000 		.4byte	0x13a
 3939 09b8 02       		.uleb128 0x2
 3940 09b9 91       		.byte	0x91
 3941 09ba 58       		.sleb128 -40
 3942 09bb 19       		.uleb128 0x19
 3943 09bc DD020000 		.4byte	.LASF59
 3944 09c0 01       		.byte	0x1
 3945 09c1 0301     		.2byte	0x103
 3946 09c3 AE010000 		.4byte	0x1ae
 3947 09c7 C6090000 		.4byte	.LLST62
 3948 09cb 19       		.uleb128 0x19
 3949 09cc 51010000 		.4byte	.LASF60
 3950 09d0 01       		.byte	0x1
 3951 09d1 0401     		.2byte	0x104
 3952 09d3 AE010000 		.4byte	0x1ae
 3953 09d7 D9090000 		.4byte	.LLST63
 3954 09db 13       		.uleb128 0x13
 3955 09dc 3A000000 		.4byte	.LBB20
 3956 09e0 54000000 		.4byte	.LBE20-.LBB20
 3957 09e4 730A0000 		.4byte	0xa73
 3958 09e8 1A       		.uleb128 0x1a
ARM GAS  C:\Users\GYULAI~1\AppData\Local\Temp\ccjFV3Tn.s 			page 77


 3959 09e9 6A00     		.ascii	"j\000"
 3960 09eb 01       		.byte	0x1
 3961 09ec 0601     		.2byte	0x106
 3962 09ee AE010000 		.4byte	0x1ae
 3963 09f2 EC090000 		.4byte	.LLST64
 3964 09f6 10       		.uleb128 0x10
 3965 09f7 40000000 		.4byte	.LBB21
 3966 09fb 46000000 		.4byte	.LBE21-.LBB21
 3967 09ff 1A       		.uleb128 0x1a
 3968 0a00 6900     		.ascii	"i\000"
 3969 0a02 01       		.byte	0x1
 3970 0a03 0701     		.2byte	0x107
 3971 0a05 AE010000 		.4byte	0x1ae
 3972 0a09 0A0A0000 		.4byte	.LLST65
 3973 0a0d 10       		.uleb128 0x10
 3974 0a0e 48000000 		.4byte	.LBB22
 3975 0a12 36000000 		.4byte	.LBE22-.LBB22
 3976 0a16 19       		.uleb128 0x19
 3977 0a17 43020000 		.4byte	.LASF61
 3978 0a1b 01       		.byte	0x1
 3979 0a1c 0A01     		.2byte	0x10a
 3980 0a1e E6000000 		.4byte	0xe6
 3981 0a22 280A0000 		.4byte	.LLST66
 3982 0a26 19       		.uleb128 0x19
 3983 0a27 3C050000 		.4byte	.LASF62
 3984 0a2b 01       		.byte	0x1
 3985 0a2c 0B01     		.2byte	0x10b
 3986 0a2e C5000000 		.4byte	0xc5
 3987 0a32 690A0000 		.4byte	.LLST67
 3988 0a36 14       		.uleb128 0x14
 3989 0a37 6E000000 		.4byte	.LVL156
 3990 0a3b BC0B0000 		.4byte	0xbbc
 3991 0a3f 550A0000 		.4byte	0xa55
 3992 0a43 12       		.uleb128 0x12
 3993 0a44 01       		.uleb128 0x1
 3994 0a45 50       		.byte	0x50
 3995 0a46 02       		.uleb128 0x2
 3996 0a47 74       		.byte	0x74
 3997 0a48 00       		.sleb128 0
 3998 0a49 12       		.uleb128 0x12
 3999 0a4a 01       		.uleb128 0x1
 4000 0a4b 51       		.byte	0x51
 4001 0a4c 02       		.uleb128 0x2
 4002 0a4d 76       		.byte	0x76
 4003 0a4e 00       		.sleb128 0
 4004 0a4f 12       		.uleb128 0x12
 4005 0a50 01       		.uleb128 0x1
 4006 0a51 52       		.byte	0x52
 4007 0a52 01       		.uleb128 0x1
 4008 0a53 31       		.byte	0x31
 4009 0a54 00       		.byte	0
 4010 0a55 11       		.uleb128 0x11
 4011 0a56 7A000000 		.4byte	.LVL157
 4012 0a5a BC0B0000 		.4byte	0xbbc
 4013 0a5e 12       		.uleb128 0x12
 4014 0a5f 01       		.uleb128 0x1
 4015 0a60 50       		.byte	0x50
ARM GAS  C:\Users\GYULAI~1\AppData\Local\Temp\ccjFV3Tn.s 			page 78


 4016 0a61 02       		.uleb128 0x2
 4017 0a62 74       		.byte	0x74
 4018 0a63 00       		.sleb128 0
 4019 0a64 12       		.uleb128 0x12
 4020 0a65 01       		.uleb128 0x1
 4021 0a66 51       		.byte	0x51
 4022 0a67 02       		.uleb128 0x2
 4023 0a68 76       		.byte	0x76
 4024 0a69 00       		.sleb128 0
 4025 0a6a 12       		.uleb128 0x12
 4026 0a6b 01       		.uleb128 0x1
 4027 0a6c 52       		.byte	0x52
 4028 0a6d 01       		.uleb128 0x1
 4029 0a6e 30       		.byte	0x30
 4030 0a6f 00       		.byte	0
 4031 0a70 00       		.byte	0
 4032 0a71 00       		.byte	0
 4033 0a72 00       		.byte	0
 4034 0a73 0A       		.uleb128 0xa
 4035 0a74 92000000 		.4byte	.LVL164
 4036 0a78 16020000 		.4byte	0x216
 4037 0a7c 00       		.byte	0
 4038 0a7d 1B       		.uleb128 0x1b
 4039 0a7e EA010000 		.4byte	.LASF63
 4040 0a82 01       		.byte	0x1
 4041 0a83 1E01     		.2byte	0x11e
 4042 0a85 00000000 		.4byte	.LFB16
 4043 0a89 0C000000 		.4byte	.LFE16-.LFB16
 4044 0a8d 01       		.uleb128 0x1
 4045 0a8e 9C       		.byte	0x9c
 4046 0a8f AC0A0000 		.4byte	0xaac
 4047 0a93 1C       		.uleb128 0x1c
 4048 0a94 7800     		.ascii	"x\000"
 4049 0a96 01       		.byte	0x1
 4050 0a97 1E01     		.2byte	0x11e
 4051 0a99 AE010000 		.4byte	0x1ae
 4052 0a9d 01       		.uleb128 0x1
 4053 0a9e 50       		.byte	0x50
 4054 0a9f 1C       		.uleb128 0x1c
 4055 0aa0 7900     		.ascii	"y\000"
 4056 0aa2 01       		.byte	0x1
 4057 0aa3 1E01     		.2byte	0x11e
 4058 0aa5 AE010000 		.4byte	0x1ae
 4059 0aa9 01       		.uleb128 0x1
 4060 0aaa 51       		.byte	0x51
 4061 0aab 00       		.byte	0
 4062 0aac 1B       		.uleb128 0x1b
 4063 0aad CB040000 		.4byte	.LASF64
 4064 0ab1 01       		.byte	0x1
 4065 0ab2 2301     		.2byte	0x123
 4066 0ab4 00000000 		.4byte	.LFB17
 4067 0ab8 58000000 		.4byte	.LFE17-.LFB17
 4068 0abc 01       		.uleb128 0x1
 4069 0abd 9C       		.byte	0x9c
 4070 0abe EA0A0000 		.4byte	0xaea
 4071 0ac2 1D       		.uleb128 0x1d
 4072 0ac3 696400   		.ascii	"id\000"
ARM GAS  C:\Users\GYULAI~1\AppData\Local\Temp\ccjFV3Tn.s 			page 79


 4073 0ac6 01       		.byte	0x1
 4074 0ac7 2301     		.2byte	0x123
 4075 0ac9 A3010000 		.4byte	0x1a3
 4076 0acd AA0A0000 		.4byte	.LLST68
 4077 0ad1 18       		.uleb128 0x18
 4078 0ad2 F1000000 		.4byte	.LASF58
 4079 0ad6 01       		.byte	0x1
 4080 0ad7 2601     		.2byte	0x126
 4081 0ad9 3A010000 		.4byte	0x13a
 4082 0add 02       		.uleb128 0x2
 4083 0ade 91       		.byte	0x91
 4084 0adf 68       		.sleb128 -24
 4085 0ae0 0A       		.uleb128 0xa
 4086 0ae1 42000000 		.4byte	.LVL169
 4087 0ae5 DD0B0000 		.4byte	0xbdd
 4088 0ae9 00       		.byte	0
 4089 0aea 1B       		.uleb128 0x1b
 4090 0aeb FB030000 		.4byte	.LASF65
 4091 0aef 01       		.byte	0x1
 4092 0af0 3501     		.2byte	0x135
 4093 0af2 00000000 		.4byte	.LFB18
 4094 0af6 3C000000 		.4byte	.LFE18-.LFB18
 4095 0afa 01       		.uleb128 0x1
 4096 0afb 9C       		.byte	0x9c
 4097 0afc 1A0B0000 		.4byte	0xb1a
 4098 0b00 1D       		.uleb128 0x1d
 4099 0b01 73747200 		.ascii	"str\000"
 4100 0b05 01       		.byte	0x1
 4101 0b06 3501     		.2byte	0x135
 4102 0b08 AC000000 		.4byte	0xac
 4103 0b0c CB0A0000 		.4byte	.LLST69
 4104 0b10 0A       		.uleb128 0xa
 4105 0b11 2E000000 		.4byte	.LVL175
 4106 0b15 E80B0000 		.4byte	0xbe8
 4107 0b19 00       		.byte	0
 4108 0b1a 1E       		.uleb128 0x1e
 4109 0b1b 27030000 		.4byte	.LASF66
 4110 0b1f 01       		.byte	0x1
 4111 0b20 2F       		.byte	0x2f
 4112 0b21 82010000 		.4byte	0x182
 4113 0b25 05       		.uleb128 0x5
 4114 0b26 03       		.byte	0x3
 4115 0b27 00000000 		.4byte	rhea_gfx_localFont
 4116 0b2b 1E       		.uleb128 0x1e
 4117 0b2c 6A010000 		.4byte	.LASF67
 4118 0b30 01       		.byte	0x1
 4119 0b31 32       		.byte	0x32
 4120 0b32 AE010000 		.4byte	0x1ae
 4121 0b36 05       		.uleb128 0x5
 4122 0b37 03       		.byte	0x3
 4123 0b38 0C000000 		.4byte	rhea_gfx_cursorX
 4124 0b3c 1E       		.uleb128 0x1e
 4125 0b3d 7B010000 		.4byte	.LASF68
 4126 0b41 01       		.byte	0x1
 4127 0b42 33       		.byte	0x33
 4128 0b43 AE010000 		.4byte	0x1ae
 4129 0b47 05       		.uleb128 0x5
ARM GAS  C:\Users\GYULAI~1\AppData\Local\Temp\ccjFV3Tn.s 			page 80


 4130 0b48 03       		.byte	0x3
 4131 0b49 0E000000 		.4byte	rhea_gfx_cursorY
 4132 0b4d 1F       		.uleb128 0x1f
 4133 0b4e C5000000 		.4byte	0xc5
 4134 0b52 5E0B0000 		.4byte	0xb5e
 4135 0b56 20       		.uleb128 0x20
 4136 0b57 9E000000 		.4byte	0x9e
 4137 0b5b 1F03     		.2byte	0x31f
 4138 0b5d 00       		.byte	0
 4139 0b5e 21       		.uleb128 0x21
 4140 0b5f F8000000 		.4byte	.LASF69
 4141 0b63 05       		.byte	0x5
 4142 0b64 2D       		.byte	0x2d
 4143 0b65 4D0B0000 		.4byte	0xb4d
 4144 0b69 05       		.uleb128 0x5
 4145 0b6a 03       		.byte	0x3
 4146 0b6b 00000000 		.4byte	codefont_8x8_data
 4147 0b6f 1F       		.uleb128 0x1f
 4148 0b70 3A010000 		.4byte	0x13a
 4149 0b74 7F0B0000 		.4byte	0xb7f
 4150 0b78 22       		.uleb128 0x22
 4151 0b79 9E000000 		.4byte	0x9e
 4152 0b7d 63       		.byte	0x63
 4153 0b7e 00       		.byte	0
 4154 0b7f 21       		.uleb128 0x21
 4155 0b80 B2040000 		.4byte	.LASF70
 4156 0b84 05       		.byte	0x5
 4157 0b85 F9       		.byte	0xf9
 4158 0b86 6F0B0000 		.4byte	0xb6f
 4159 0b8a 05       		.uleb128 0x5
 4160 0b8b 03       		.byte	0x3
 4161 0b8c 00000000 		.4byte	codefont_8x8_descriptors
 4162 0b90 23       		.uleb128 0x23
 4163 0b91 40040000 		.4byte	.LASF71
 4164 0b95 40040000 		.4byte	.LASF71
 4165 0b99 06       		.byte	0x6
 4166 0b9a 2D       		.byte	0x2d
 4167 0b9b 23       		.uleb128 0x23
 4168 0b9c 99020000 		.4byte	.LASF72
 4169 0ba0 99020000 		.4byte	.LASF72
 4170 0ba4 06       		.byte	0x6
 4171 0ba5 33       		.byte	0x33
 4172 0ba6 23       		.uleb128 0x23
 4173 0ba7 FD010000 		.4byte	.LASF73
 4174 0bab FD010000 		.4byte	.LASF73
 4175 0baf 06       		.byte	0x6
 4176 0bb0 39       		.byte	0x39
 4177 0bb1 23       		.uleb128 0x23
 4178 0bb2 C1020000 		.4byte	.LASF74
 4179 0bb6 C1020000 		.4byte	.LASF74
 4180 0bba 06       		.byte	0x6
 4181 0bbb 3F       		.byte	0x3f
 4182 0bbc 23       		.uleb128 0x23
 4183 0bbd E2030000 		.4byte	.LASF75
 4184 0bc1 E2030000 		.4byte	.LASF75
 4185 0bc5 06       		.byte	0x6
 4186 0bc6 48       		.byte	0x48
ARM GAS  C:\Users\GYULAI~1\AppData\Local\Temp\ccjFV3Tn.s 			page 81


 4187 0bc7 23       		.uleb128 0x23
 4188 0bc8 ED020000 		.4byte	.LASF76
 4189 0bcc ED020000 		.4byte	.LASF76
 4190 0bd0 04       		.byte	0x4
 4191 0bd1 83       		.byte	0x83
 4192 0bd2 23       		.uleb128 0x23
 4193 0bd3 37050000 		.4byte	.LASF77
 4194 0bd7 37050000 		.4byte	.LASF77
 4195 0bdb 07       		.byte	0x7
 4196 0bdc 87       		.byte	0x87
 4197 0bdd 23       		.uleb128 0x23
 4198 0bde 6F050000 		.4byte	.LASF78
 4199 0be2 6F050000 		.4byte	.LASF78
 4200 0be6 04       		.byte	0x4
 4201 0be7 B1       		.byte	0xb1
 4202 0be8 23       		.uleb128 0x23
 4203 0be9 60020000 		.4byte	.LASF79
 4204 0bed 60020000 		.4byte	.LASF79
 4205 0bf1 04       		.byte	0x4
 4206 0bf2 C0       		.byte	0xc0
 4207 0bf3 00       		.byte	0
 4208              		.section	.debug_abbrev,"",%progbits
 4209              	.Ldebug_abbrev0:
 4210 0000 01       		.uleb128 0x1
 4211 0001 11       		.uleb128 0x11
 4212 0002 01       		.byte	0x1
 4213 0003 25       		.uleb128 0x25
 4214 0004 0E       		.uleb128 0xe
 4215 0005 13       		.uleb128 0x13
 4216 0006 0B       		.uleb128 0xb
 4217 0007 03       		.uleb128 0x3
 4218 0008 0E       		.uleb128 0xe
 4219 0009 1B       		.uleb128 0x1b
 4220 000a 0E       		.uleb128 0xe
 4221 000b 55       		.uleb128 0x55
 4222 000c 17       		.uleb128 0x17
 4223 000d 11       		.uleb128 0x11
 4224 000e 01       		.uleb128 0x1
 4225 000f 10       		.uleb128 0x10
 4226 0010 17       		.uleb128 0x17
 4227 0011 00       		.byte	0
 4228 0012 00       		.byte	0
 4229 0013 02       		.uleb128 0x2
 4230 0014 24       		.uleb128 0x24
 4231 0015 00       		.byte	0
 4232 0016 0B       		.uleb128 0xb
 4233 0017 0B       		.uleb128 0xb
 4234 0018 3E       		.uleb128 0x3e
 4235 0019 0B       		.uleb128 0xb
 4236 001a 03       		.uleb128 0x3
 4237 001b 08       		.uleb128 0x8
 4238 001c 00       		.byte	0
 4239 001d 00       		.byte	0
 4240 001e 03       		.uleb128 0x3
 4241 001f 24       		.uleb128 0x24
 4242 0020 00       		.byte	0
 4243 0021 0B       		.uleb128 0xb
ARM GAS  C:\Users\GYULAI~1\AppData\Local\Temp\ccjFV3Tn.s 			page 82


 4244 0022 0B       		.uleb128 0xb
 4245 0023 3E       		.uleb128 0x3e
 4246 0024 0B       		.uleb128 0xb
 4247 0025 03       		.uleb128 0x3
 4248 0026 0E       		.uleb128 0xe
 4249 0027 00       		.byte	0
 4250 0028 00       		.byte	0
 4251 0029 04       		.uleb128 0x4
 4252 002a 16       		.uleb128 0x16
 4253 002b 00       		.byte	0
 4254 002c 03       		.uleb128 0x3
 4255 002d 0E       		.uleb128 0xe
 4256 002e 3A       		.uleb128 0x3a
 4257 002f 0B       		.uleb128 0xb
 4258 0030 3B       		.uleb128 0x3b
 4259 0031 0B       		.uleb128 0xb
 4260 0032 49       		.uleb128 0x49
 4261 0033 13       		.uleb128 0x13
 4262 0034 00       		.byte	0
 4263 0035 00       		.byte	0
 4264 0036 05       		.uleb128 0x5
 4265 0037 0F       		.uleb128 0xf
 4266 0038 00       		.byte	0
 4267 0039 0B       		.uleb128 0xb
 4268 003a 0B       		.uleb128 0xb
 4269 003b 49       		.uleb128 0x49
 4270 003c 13       		.uleb128 0x13
 4271 003d 00       		.byte	0
 4272 003e 00       		.byte	0
 4273 003f 06       		.uleb128 0x6
 4274 0040 26       		.uleb128 0x26
 4275 0041 00       		.byte	0
 4276 0042 49       		.uleb128 0x49
 4277 0043 13       		.uleb128 0x13
 4278 0044 00       		.byte	0
 4279 0045 00       		.byte	0
 4280 0046 07       		.uleb128 0x7
 4281 0047 13       		.uleb128 0x13
 4282 0048 01       		.byte	0x1
 4283 0049 03       		.uleb128 0x3
 4284 004a 0E       		.uleb128 0xe
 4285 004b 0B       		.uleb128 0xb
 4286 004c 0B       		.uleb128 0xb
 4287 004d 3A       		.uleb128 0x3a
 4288 004e 0B       		.uleb128 0xb
 4289 004f 3B       		.uleb128 0x3b
 4290 0050 0B       		.uleb128 0xb
 4291 0051 01       		.uleb128 0x1
 4292 0052 13       		.uleb128 0x13
 4293 0053 00       		.byte	0
 4294 0054 00       		.byte	0
 4295 0055 08       		.uleb128 0x8
 4296 0056 0D       		.uleb128 0xd
 4297 0057 00       		.byte	0
 4298 0058 03       		.uleb128 0x3
 4299 0059 0E       		.uleb128 0xe
 4300 005a 3A       		.uleb128 0x3a
ARM GAS  C:\Users\GYULAI~1\AppData\Local\Temp\ccjFV3Tn.s 			page 83


 4301 005b 0B       		.uleb128 0xb
 4302 005c 3B       		.uleb128 0x3b
 4303 005d 0B       		.uleb128 0xb
 4304 005e 49       		.uleb128 0x49
 4305 005f 13       		.uleb128 0x13
 4306 0060 38       		.uleb128 0x38
 4307 0061 0B       		.uleb128 0xb
 4308 0062 00       		.byte	0
 4309 0063 00       		.byte	0
 4310 0064 09       		.uleb128 0x9
 4311 0065 2E       		.uleb128 0x2e
 4312 0066 01       		.byte	0x1
 4313 0067 3F       		.uleb128 0x3f
 4314 0068 19       		.uleb128 0x19
 4315 0069 03       		.uleb128 0x3
 4316 006a 0E       		.uleb128 0xe
 4317 006b 3A       		.uleb128 0x3a
 4318 006c 0B       		.uleb128 0xb
 4319 006d 3B       		.uleb128 0x3b
 4320 006e 0B       		.uleb128 0xb
 4321 006f 27       		.uleb128 0x27
 4322 0070 19       		.uleb128 0x19
 4323 0071 11       		.uleb128 0x11
 4324 0072 01       		.uleb128 0x1
 4325 0073 12       		.uleb128 0x12
 4326 0074 06       		.uleb128 0x6
 4327 0075 40       		.uleb128 0x40
 4328 0076 18       		.uleb128 0x18
 4329 0077 9742     		.uleb128 0x2117
 4330 0079 19       		.uleb128 0x19
 4331 007a 01       		.uleb128 0x1
 4332 007b 13       		.uleb128 0x13
 4333 007c 00       		.byte	0
 4334 007d 00       		.byte	0
 4335 007e 0A       		.uleb128 0xa
 4336 007f 898201   		.uleb128 0x4109
 4337 0082 00       		.byte	0
 4338 0083 11       		.uleb128 0x11
 4339 0084 01       		.uleb128 0x1
 4340 0085 31       		.uleb128 0x31
 4341 0086 13       		.uleb128 0x13
 4342 0087 00       		.byte	0
 4343 0088 00       		.byte	0
 4344 0089 0B       		.uleb128 0xb
 4345 008a 05       		.uleb128 0x5
 4346 008b 00       		.byte	0
 4347 008c 03       		.uleb128 0x3
 4348 008d 0E       		.uleb128 0xe
 4349 008e 3A       		.uleb128 0x3a
 4350 008f 0B       		.uleb128 0xb
 4351 0090 3B       		.uleb128 0x3b
 4352 0091 0B       		.uleb128 0xb
 4353 0092 49       		.uleb128 0x49
 4354 0093 13       		.uleb128 0x13
 4355 0094 02       		.uleb128 0x2
 4356 0095 18       		.uleb128 0x18
 4357 0096 00       		.byte	0
ARM GAS  C:\Users\GYULAI~1\AppData\Local\Temp\ccjFV3Tn.s 			page 84


 4358 0097 00       		.byte	0
 4359 0098 0C       		.uleb128 0xc
 4360 0099 05       		.uleb128 0x5
 4361 009a 00       		.byte	0
 4362 009b 03       		.uleb128 0x3
 4363 009c 08       		.uleb128 0x8
 4364 009d 3A       		.uleb128 0x3a
 4365 009e 0B       		.uleb128 0xb
 4366 009f 3B       		.uleb128 0x3b
 4367 00a0 0B       		.uleb128 0xb
 4368 00a1 49       		.uleb128 0x49
 4369 00a2 13       		.uleb128 0x13
 4370 00a3 02       		.uleb128 0x2
 4371 00a4 17       		.uleb128 0x17
 4372 00a5 00       		.byte	0
 4373 00a6 00       		.byte	0
 4374 00a7 0D       		.uleb128 0xd
 4375 00a8 05       		.uleb128 0x5
 4376 00a9 00       		.byte	0
 4377 00aa 03       		.uleb128 0x3
 4378 00ab 0E       		.uleb128 0xe
 4379 00ac 3A       		.uleb128 0x3a
 4380 00ad 0B       		.uleb128 0xb
 4381 00ae 3B       		.uleb128 0x3b
 4382 00af 0B       		.uleb128 0xb
 4383 00b0 49       		.uleb128 0x49
 4384 00b1 13       		.uleb128 0x13
 4385 00b2 02       		.uleb128 0x2
 4386 00b3 17       		.uleb128 0x17
 4387 00b4 00       		.byte	0
 4388 00b5 00       		.byte	0
 4389 00b6 0E       		.uleb128 0xe
 4390 00b7 34       		.uleb128 0x34
 4391 00b8 00       		.byte	0
 4392 00b9 03       		.uleb128 0x3
 4393 00ba 08       		.uleb128 0x8
 4394 00bb 3A       		.uleb128 0x3a
 4395 00bc 0B       		.uleb128 0xb
 4396 00bd 3B       		.uleb128 0x3b
 4397 00be 0B       		.uleb128 0xb
 4398 00bf 49       		.uleb128 0x49
 4399 00c0 13       		.uleb128 0x13
 4400 00c1 02       		.uleb128 0x2
 4401 00c2 18       		.uleb128 0x18
 4402 00c3 00       		.byte	0
 4403 00c4 00       		.byte	0
 4404 00c5 0F       		.uleb128 0xf
 4405 00c6 34       		.uleb128 0x34
 4406 00c7 00       		.byte	0
 4407 00c8 03       		.uleb128 0x3
 4408 00c9 08       		.uleb128 0x8
 4409 00ca 3A       		.uleb128 0x3a
 4410 00cb 0B       		.uleb128 0xb
 4411 00cc 3B       		.uleb128 0x3b
 4412 00cd 0B       		.uleb128 0xb
 4413 00ce 49       		.uleb128 0x49
 4414 00cf 13       		.uleb128 0x13
ARM GAS  C:\Users\GYULAI~1\AppData\Local\Temp\ccjFV3Tn.s 			page 85


 4415 00d0 02       		.uleb128 0x2
 4416 00d1 17       		.uleb128 0x17
 4417 00d2 00       		.byte	0
 4418 00d3 00       		.byte	0
 4419 00d4 10       		.uleb128 0x10
 4420 00d5 0B       		.uleb128 0xb
 4421 00d6 01       		.byte	0x1
 4422 00d7 11       		.uleb128 0x11
 4423 00d8 01       		.uleb128 0x1
 4424 00d9 12       		.uleb128 0x12
 4425 00da 06       		.uleb128 0x6
 4426 00db 00       		.byte	0
 4427 00dc 00       		.byte	0
 4428 00dd 11       		.uleb128 0x11
 4429 00de 898201   		.uleb128 0x4109
 4430 00e1 01       		.byte	0x1
 4431 00e2 11       		.uleb128 0x11
 4432 00e3 01       		.uleb128 0x1
 4433 00e4 31       		.uleb128 0x31
 4434 00e5 13       		.uleb128 0x13
 4435 00e6 00       		.byte	0
 4436 00e7 00       		.byte	0
 4437 00e8 12       		.uleb128 0x12
 4438 00e9 8A8201   		.uleb128 0x410a
 4439 00ec 00       		.byte	0
 4440 00ed 02       		.uleb128 0x2
 4441 00ee 18       		.uleb128 0x18
 4442 00ef 9142     		.uleb128 0x2111
 4443 00f1 18       		.uleb128 0x18
 4444 00f2 00       		.byte	0
 4445 00f3 00       		.byte	0
 4446 00f4 13       		.uleb128 0x13
 4447 00f5 0B       		.uleb128 0xb
 4448 00f6 01       		.byte	0x1
 4449 00f7 11       		.uleb128 0x11
 4450 00f8 01       		.uleb128 0x1
 4451 00f9 12       		.uleb128 0x12
 4452 00fa 06       		.uleb128 0x6
 4453 00fb 01       		.uleb128 0x1
 4454 00fc 13       		.uleb128 0x13
 4455 00fd 00       		.byte	0
 4456 00fe 00       		.byte	0
 4457 00ff 14       		.uleb128 0x14
 4458 0100 898201   		.uleb128 0x4109
 4459 0103 01       		.byte	0x1
 4460 0104 11       		.uleb128 0x11
 4461 0105 01       		.uleb128 0x1
 4462 0106 31       		.uleb128 0x31
 4463 0107 13       		.uleb128 0x13
 4464 0108 01       		.uleb128 0x1
 4465 0109 13       		.uleb128 0x13
 4466 010a 00       		.byte	0
 4467 010b 00       		.byte	0
 4468 010c 15       		.uleb128 0x15
 4469 010d 2E       		.uleb128 0x2e
 4470 010e 01       		.byte	0x1
 4471 010f 3F       		.uleb128 0x3f
ARM GAS  C:\Users\GYULAI~1\AppData\Local\Temp\ccjFV3Tn.s 			page 86


 4472 0110 19       		.uleb128 0x19
 4473 0111 03       		.uleb128 0x3
 4474 0112 0E       		.uleb128 0xe
 4475 0113 3A       		.uleb128 0x3a
 4476 0114 0B       		.uleb128 0xb
 4477 0115 3B       		.uleb128 0x3b
 4478 0116 0B       		.uleb128 0xb
 4479 0117 27       		.uleb128 0x27
 4480 0118 19       		.uleb128 0x19
 4481 0119 11       		.uleb128 0x11
 4482 011a 01       		.uleb128 0x1
 4483 011b 12       		.uleb128 0x12
 4484 011c 06       		.uleb128 0x6
 4485 011d 40       		.uleb128 0x40
 4486 011e 18       		.uleb128 0x18
 4487 011f 9642     		.uleb128 0x2116
 4488 0121 19       		.uleb128 0x19
 4489 0122 01       		.uleb128 0x1
 4490 0123 13       		.uleb128 0x13
 4491 0124 00       		.byte	0
 4492 0125 00       		.byte	0
 4493 0126 16       		.uleb128 0x16
 4494 0127 0B       		.uleb128 0xb
 4495 0128 01       		.byte	0x1
 4496 0129 55       		.uleb128 0x55
 4497 012a 17       		.uleb128 0x17
 4498 012b 00       		.byte	0
 4499 012c 00       		.byte	0
 4500 012d 17       		.uleb128 0x17
 4501 012e 34       		.uleb128 0x34
 4502 012f 00       		.byte	0
 4503 0130 03       		.uleb128 0x3
 4504 0131 0E       		.uleb128 0xe
 4505 0132 3A       		.uleb128 0x3a
 4506 0133 0B       		.uleb128 0xb
 4507 0134 3B       		.uleb128 0x3b
 4508 0135 0B       		.uleb128 0xb
 4509 0136 49       		.uleb128 0x49
 4510 0137 13       		.uleb128 0x13
 4511 0138 02       		.uleb128 0x2
 4512 0139 17       		.uleb128 0x17
 4513 013a 00       		.byte	0
 4514 013b 00       		.byte	0
 4515 013c 18       		.uleb128 0x18
 4516 013d 34       		.uleb128 0x34
 4517 013e 00       		.byte	0
 4518 013f 03       		.uleb128 0x3
 4519 0140 0E       		.uleb128 0xe
 4520 0141 3A       		.uleb128 0x3a
 4521 0142 0B       		.uleb128 0xb
 4522 0143 3B       		.uleb128 0x3b
 4523 0144 05       		.uleb128 0x5
 4524 0145 49       		.uleb128 0x49
 4525 0146 13       		.uleb128 0x13
 4526 0147 02       		.uleb128 0x2
 4527 0148 18       		.uleb128 0x18
 4528 0149 00       		.byte	0
ARM GAS  C:\Users\GYULAI~1\AppData\Local\Temp\ccjFV3Tn.s 			page 87


 4529 014a 00       		.byte	0
 4530 014b 19       		.uleb128 0x19
 4531 014c 34       		.uleb128 0x34
 4532 014d 00       		.byte	0
 4533 014e 03       		.uleb128 0x3
 4534 014f 0E       		.uleb128 0xe
 4535 0150 3A       		.uleb128 0x3a
 4536 0151 0B       		.uleb128 0xb
 4537 0152 3B       		.uleb128 0x3b
 4538 0153 05       		.uleb128 0x5
 4539 0154 49       		.uleb128 0x49
 4540 0155 13       		.uleb128 0x13
 4541 0156 02       		.uleb128 0x2
 4542 0157 17       		.uleb128 0x17
 4543 0158 00       		.byte	0
 4544 0159 00       		.byte	0
 4545 015a 1A       		.uleb128 0x1a
 4546 015b 34       		.uleb128 0x34
 4547 015c 00       		.byte	0
 4548 015d 03       		.uleb128 0x3
 4549 015e 08       		.uleb128 0x8
 4550 015f 3A       		.uleb128 0x3a
 4551 0160 0B       		.uleb128 0xb
 4552 0161 3B       		.uleb128 0x3b
 4553 0162 05       		.uleb128 0x5
 4554 0163 49       		.uleb128 0x49
 4555 0164 13       		.uleb128 0x13
 4556 0165 02       		.uleb128 0x2
 4557 0166 17       		.uleb128 0x17
 4558 0167 00       		.byte	0
 4559 0168 00       		.byte	0
 4560 0169 1B       		.uleb128 0x1b
 4561 016a 2E       		.uleb128 0x2e
 4562 016b 01       		.byte	0x1
 4563 016c 3F       		.uleb128 0x3f
 4564 016d 19       		.uleb128 0x19
 4565 016e 03       		.uleb128 0x3
 4566 016f 0E       		.uleb128 0xe
 4567 0170 3A       		.uleb128 0x3a
 4568 0171 0B       		.uleb128 0xb
 4569 0172 3B       		.uleb128 0x3b
 4570 0173 05       		.uleb128 0x5
 4571 0174 27       		.uleb128 0x27
 4572 0175 19       		.uleb128 0x19
 4573 0176 11       		.uleb128 0x11
 4574 0177 01       		.uleb128 0x1
 4575 0178 12       		.uleb128 0x12
 4576 0179 06       		.uleb128 0x6
 4577 017a 40       		.uleb128 0x40
 4578 017b 18       		.uleb128 0x18
 4579 017c 9742     		.uleb128 0x2117
 4580 017e 19       		.uleb128 0x19
 4581 017f 01       		.uleb128 0x1
 4582 0180 13       		.uleb128 0x13
 4583 0181 00       		.byte	0
 4584 0182 00       		.byte	0
 4585 0183 1C       		.uleb128 0x1c
ARM GAS  C:\Users\GYULAI~1\AppData\Local\Temp\ccjFV3Tn.s 			page 88


 4586 0184 05       		.uleb128 0x5
 4587 0185 00       		.byte	0
 4588 0186 03       		.uleb128 0x3
 4589 0187 08       		.uleb128 0x8
 4590 0188 3A       		.uleb128 0x3a
 4591 0189 0B       		.uleb128 0xb
 4592 018a 3B       		.uleb128 0x3b
 4593 018b 05       		.uleb128 0x5
 4594 018c 49       		.uleb128 0x49
 4595 018d 13       		.uleb128 0x13
 4596 018e 02       		.uleb128 0x2
 4597 018f 18       		.uleb128 0x18
 4598 0190 00       		.byte	0
 4599 0191 00       		.byte	0
 4600 0192 1D       		.uleb128 0x1d
 4601 0193 05       		.uleb128 0x5
 4602 0194 00       		.byte	0
 4603 0195 03       		.uleb128 0x3
 4604 0196 08       		.uleb128 0x8
 4605 0197 3A       		.uleb128 0x3a
 4606 0198 0B       		.uleb128 0xb
 4607 0199 3B       		.uleb128 0x3b
 4608 019a 05       		.uleb128 0x5
 4609 019b 49       		.uleb128 0x49
 4610 019c 13       		.uleb128 0x13
 4611 019d 02       		.uleb128 0x2
 4612 019e 17       		.uleb128 0x17
 4613 019f 00       		.byte	0
 4614 01a0 00       		.byte	0
 4615 01a1 1E       		.uleb128 0x1e
 4616 01a2 34       		.uleb128 0x34
 4617 01a3 00       		.byte	0
 4618 01a4 03       		.uleb128 0x3
 4619 01a5 0E       		.uleb128 0xe
 4620 01a6 3A       		.uleb128 0x3a
 4621 01a7 0B       		.uleb128 0xb
 4622 01a8 3B       		.uleb128 0x3b
 4623 01a9 0B       		.uleb128 0xb
 4624 01aa 49       		.uleb128 0x49
 4625 01ab 13       		.uleb128 0x13
 4626 01ac 02       		.uleb128 0x2
 4627 01ad 18       		.uleb128 0x18
 4628 01ae 00       		.byte	0
 4629 01af 00       		.byte	0
 4630 01b0 1F       		.uleb128 0x1f
 4631 01b1 01       		.uleb128 0x1
 4632 01b2 01       		.byte	0x1
 4633 01b3 49       		.uleb128 0x49
 4634 01b4 13       		.uleb128 0x13
 4635 01b5 01       		.uleb128 0x1
 4636 01b6 13       		.uleb128 0x13
 4637 01b7 00       		.byte	0
 4638 01b8 00       		.byte	0
 4639 01b9 20       		.uleb128 0x20
 4640 01ba 21       		.uleb128 0x21
 4641 01bb 00       		.byte	0
 4642 01bc 49       		.uleb128 0x49
ARM GAS  C:\Users\GYULAI~1\AppData\Local\Temp\ccjFV3Tn.s 			page 89


 4643 01bd 13       		.uleb128 0x13
 4644 01be 2F       		.uleb128 0x2f
 4645 01bf 05       		.uleb128 0x5
 4646 01c0 00       		.byte	0
 4647 01c1 00       		.byte	0
 4648 01c2 21       		.uleb128 0x21
 4649 01c3 34       		.uleb128 0x34
 4650 01c4 00       		.byte	0
 4651 01c5 03       		.uleb128 0x3
 4652 01c6 0E       		.uleb128 0xe
 4653 01c7 3A       		.uleb128 0x3a
 4654 01c8 0B       		.uleb128 0xb
 4655 01c9 3B       		.uleb128 0x3b
 4656 01ca 0B       		.uleb128 0xb
 4657 01cb 49       		.uleb128 0x49
 4658 01cc 13       		.uleb128 0x13
 4659 01cd 3F       		.uleb128 0x3f
 4660 01ce 19       		.uleb128 0x19
 4661 01cf 02       		.uleb128 0x2
 4662 01d0 18       		.uleb128 0x18
 4663 01d1 00       		.byte	0
 4664 01d2 00       		.byte	0
 4665 01d3 22       		.uleb128 0x22
 4666 01d4 21       		.uleb128 0x21
 4667 01d5 00       		.byte	0
 4668 01d6 49       		.uleb128 0x49
 4669 01d7 13       		.uleb128 0x13
 4670 01d8 2F       		.uleb128 0x2f
 4671 01d9 0B       		.uleb128 0xb
 4672 01da 00       		.byte	0
 4673 01db 00       		.byte	0
 4674 01dc 23       		.uleb128 0x23
 4675 01dd 2E       		.uleb128 0x2e
 4676 01de 00       		.byte	0
 4677 01df 3F       		.uleb128 0x3f
 4678 01e0 19       		.uleb128 0x19
 4679 01e1 3C       		.uleb128 0x3c
 4680 01e2 19       		.uleb128 0x19
 4681 01e3 6E       		.uleb128 0x6e
 4682 01e4 0E       		.uleb128 0xe
 4683 01e5 03       		.uleb128 0x3
 4684 01e6 0E       		.uleb128 0xe
 4685 01e7 3A       		.uleb128 0x3a
 4686 01e8 0B       		.uleb128 0xb
 4687 01e9 3B       		.uleb128 0x3b
 4688 01ea 0B       		.uleb128 0xb
 4689 01eb 00       		.byte	0
 4690 01ec 00       		.byte	0
 4691 01ed 00       		.byte	0
 4692              		.section	.debug_loc,"",%progbits
 4693              	.Ldebug_loc0:
 4694              	.LLST0:
 4695 0000 00000000 		.4byte	.LVL4
 4696 0004 05000000 		.4byte	.LVL5-1
 4697 0008 0100     		.2byte	0x1
 4698 000a 50       		.byte	0x50
 4699 000b 05000000 		.4byte	.LVL5-1
ARM GAS  C:\Users\GYULAI~1\AppData\Local\Temp\ccjFV3Tn.s 			page 90


 4700 000f 0C000000 		.4byte	.LFE5
 4701 0013 0400     		.2byte	0x4
 4702 0015 F3       		.byte	0xf3
 4703 0016 01       		.uleb128 0x1
 4704 0017 50       		.byte	0x50
 4705 0018 9F       		.byte	0x9f
 4706 0019 00000000 		.4byte	0
 4707 001d 00000000 		.4byte	0
 4708              	.LLST1:
 4709 0021 00000000 		.4byte	.LVL4
 4710 0025 05000000 		.4byte	.LVL5-1
 4711 0029 0100     		.2byte	0x1
 4712 002b 51       		.byte	0x51
 4713 002c 05000000 		.4byte	.LVL5-1
 4714 0030 0C000000 		.4byte	.LFE5
 4715 0034 0400     		.2byte	0x4
 4716 0036 F3       		.byte	0xf3
 4717 0037 01       		.uleb128 0x1
 4718 0038 51       		.byte	0x51
 4719 0039 9F       		.byte	0x9f
 4720 003a 00000000 		.4byte	0
 4721 003e 00000000 		.4byte	0
 4722              	.LLST2:
 4723 0042 00000000 		.4byte	.LVL4
 4724 0046 05000000 		.4byte	.LVL5-1
 4725 004a 0100     		.2byte	0x1
 4726 004c 52       		.byte	0x52
 4727 004d 05000000 		.4byte	.LVL5-1
 4728 0051 0C000000 		.4byte	.LFE5
 4729 0055 0400     		.2byte	0x4
 4730 0057 F3       		.byte	0xf3
 4731 0058 01       		.uleb128 0x1
 4732 0059 52       		.byte	0x52
 4733 005a 9F       		.byte	0x9f
 4734 005b 00000000 		.4byte	0
 4735 005f 00000000 		.4byte	0
 4736              	.LLST3:
 4737 0063 00000000 		.4byte	.LVL7
 4738 0067 4A000000 		.4byte	.LVL21
 4739 006b 0100     		.2byte	0x1
 4740 006d 50       		.byte	0x50
 4741 006e 4A000000 		.4byte	.LVL21
 4742 0072 78000000 		.4byte	.LFE6
 4743 0076 0400     		.2byte	0x4
 4744 0078 F3       		.byte	0xf3
 4745 0079 01       		.uleb128 0x1
 4746 007a 50       		.byte	0x50
 4747 007b 9F       		.byte	0x9f
 4748 007c 00000000 		.4byte	0
 4749 0080 00000000 		.4byte	0
 4750              	.LLST4:
 4751 0084 00000000 		.4byte	.LVL7
 4752 0088 4A000000 		.4byte	.LVL21
 4753 008c 0100     		.2byte	0x1
 4754 008e 51       		.byte	0x51
 4755 008f 4A000000 		.4byte	.LVL21
 4756 0093 78000000 		.4byte	.LFE6
ARM GAS  C:\Users\GYULAI~1\AppData\Local\Temp\ccjFV3Tn.s 			page 91


 4757 0097 0400     		.2byte	0x4
 4758 0099 F3       		.byte	0xf3
 4759 009a 01       		.uleb128 0x1
 4760 009b 51       		.byte	0x51
 4761 009c 9F       		.byte	0x9f
 4762 009d 00000000 		.4byte	0
 4763 00a1 00000000 		.4byte	0
 4764              	.LLST5:
 4765 00a5 00000000 		.4byte	.LVL7
 4766 00a9 0C000000 		.4byte	.LVL8
 4767 00ad 0100     		.2byte	0x1
 4768 00af 52       		.byte	0x52
 4769 00b0 0C000000 		.4byte	.LVL8
 4770 00b4 78000000 		.4byte	.LFE6
 4771 00b8 0400     		.2byte	0x4
 4772 00ba F3       		.byte	0xf3
 4773 00bb 01       		.uleb128 0x1
 4774 00bc 52       		.byte	0x52
 4775 00bd 9F       		.byte	0x9f
 4776 00be 00000000 		.4byte	0
 4777 00c2 00000000 		.4byte	0
 4778              	.LLST6:
 4779 00c6 00000000 		.4byte	.LVL7
 4780 00ca 18000000 		.4byte	.LVL10
 4781 00ce 0100     		.2byte	0x1
 4782 00d0 53       		.byte	0x53
 4783 00d1 18000000 		.4byte	.LVL10
 4784 00d5 78000000 		.4byte	.LFE6
 4785 00d9 0400     		.2byte	0x4
 4786 00db F3       		.byte	0xf3
 4787 00dc 01       		.uleb128 0x1
 4788 00dd 53       		.byte	0x53
 4789 00de 9F       		.byte	0x9f
 4790 00df 00000000 		.4byte	0
 4791 00e3 00000000 		.4byte	0
 4792              	.LLST7:
 4793 00e7 1E000000 		.4byte	.LVL11
 4794 00eb 28000000 		.4byte	.LVL13
 4795 00ef 0100     		.2byte	0x1
 4796 00f1 58       		.byte	0x58
 4797 00f2 28000000 		.4byte	.LVL13
 4798 00f6 2C000000 		.4byte	.LVL14
 4799 00fa 0100     		.2byte	0x1
 4800 00fc 53       		.byte	0x53
 4801 00fd 2C000000 		.4byte	.LVL14
 4802 0101 3A000000 		.4byte	.LVL17
 4803 0105 0100     		.2byte	0x1
 4804 0107 58       		.byte	0x58
 4805 0108 00000000 		.4byte	0
 4806 010c 00000000 		.4byte	0
 4807              	.LLST8:
 4808 0110 1E000000 		.4byte	.LVL11
 4809 0114 24000000 		.4byte	.LVL12
 4810 0118 0200     		.2byte	0x2
 4811 011a 31       		.byte	0x31
 4812 011b 9F       		.byte	0x9f
 4813 011c 24000000 		.4byte	.LVL12
ARM GAS  C:\Users\GYULAI~1\AppData\Local\Temp\ccjFV3Tn.s 			page 92


 4814 0120 32000000 		.4byte	.LVL15
 4815 0124 0300     		.2byte	0x3
 4816 0126 09       		.byte	0x9
 4817 0127 FF       		.byte	0xff
 4818 0128 9F       		.byte	0x9f
 4819 0129 32000000 		.4byte	.LVL15
 4820 012d 36000000 		.4byte	.LVL16
 4821 0131 0200     		.2byte	0x2
 4822 0133 31       		.byte	0x31
 4823 0134 9F       		.byte	0x9f
 4824 0135 36000000 		.4byte	.LVL16
 4825 0139 78000000 		.4byte	.LFE6
 4826 013d 0100     		.2byte	0x1
 4827 013f 5B       		.byte	0x5b
 4828 0140 00000000 		.4byte	0
 4829 0144 00000000 		.4byte	0
 4830              	.LLST9:
 4831 0148 44000000 		.4byte	.LVL18
 4832 014c 64000000 		.4byte	.LVL24
 4833 0150 0100     		.2byte	0x1
 4834 0152 55       		.byte	0x55
 4835 0153 66000000 		.4byte	.LVL25
 4836 0157 68000000 		.4byte	.LVL26
 4837 015b 0100     		.2byte	0x1
 4838 015d 55       		.byte	0x55
 4839 015e 6A000000 		.4byte	.LVL27
 4840 0162 78000000 		.4byte	.LFE6
 4841 0166 0100     		.2byte	0x1
 4842 0168 55       		.byte	0x55
 4843 0169 00000000 		.4byte	0
 4844 016d 00000000 		.4byte	0
 4845              	.LLST10:
 4846 0171 48000000 		.4byte	.LVL20
 4847 0175 6C000000 		.4byte	.LVL28
 4848 0179 0100     		.2byte	0x1
 4849 017b 54       		.byte	0x54
 4850 017c 6C000000 		.4byte	.LVL28
 4851 0180 6E000000 		.4byte	.LVL29
 4852 0184 0300     		.2byte	0x3
 4853 0186 74       		.byte	0x74
 4854 0187 7F       		.sleb128 -1
 4855 0188 9F       		.byte	0x9f
 4856 0189 6E000000 		.4byte	.LVL29
 4857 018d 78000000 		.4byte	.LFE6
 4858 0191 0100     		.2byte	0x1
 4859 0193 54       		.byte	0x54
 4860 0194 00000000 		.4byte	0
 4861 0198 00000000 		.4byte	0
 4862              	.LLST11:
 4863 019c 00000000 		.4byte	.LVL30
 4864 01a0 4A000000 		.4byte	.LVL44
 4865 01a4 0100     		.2byte	0x1
 4866 01a6 50       		.byte	0x50
 4867 01a7 4A000000 		.4byte	.LVL44
 4868 01ab 78000000 		.4byte	.LFE7
 4869 01af 0400     		.2byte	0x4
 4870 01b1 F3       		.byte	0xf3
ARM GAS  C:\Users\GYULAI~1\AppData\Local\Temp\ccjFV3Tn.s 			page 93


 4871 01b2 01       		.uleb128 0x1
 4872 01b3 50       		.byte	0x50
 4873 01b4 9F       		.byte	0x9f
 4874 01b5 00000000 		.4byte	0
 4875 01b9 00000000 		.4byte	0
 4876              	.LLST12:
 4877 01bd 00000000 		.4byte	.LVL30
 4878 01c1 4A000000 		.4byte	.LVL44
 4879 01c5 0100     		.2byte	0x1
 4880 01c7 51       		.byte	0x51
 4881 01c8 4A000000 		.4byte	.LVL44
 4882 01cc 78000000 		.4byte	.LFE7
 4883 01d0 0400     		.2byte	0x4
 4884 01d2 F3       		.byte	0xf3
 4885 01d3 01       		.uleb128 0x1
 4886 01d4 51       		.byte	0x51
 4887 01d5 9F       		.byte	0x9f
 4888 01d6 00000000 		.4byte	0
 4889 01da 00000000 		.4byte	0
 4890              	.LLST13:
 4891 01de 00000000 		.4byte	.LVL30
 4892 01e2 10000000 		.4byte	.LVL32
 4893 01e6 0100     		.2byte	0x1
 4894 01e8 52       		.byte	0x52
 4895 01e9 10000000 		.4byte	.LVL32
 4896 01ed 78000000 		.4byte	.LFE7
 4897 01f1 0400     		.2byte	0x4
 4898 01f3 F3       		.byte	0xf3
 4899 01f4 01       		.uleb128 0x1
 4900 01f5 52       		.byte	0x52
 4901 01f6 9F       		.byte	0x9f
 4902 01f7 00000000 		.4byte	0
 4903 01fb 00000000 		.4byte	0
 4904              	.LLST14:
 4905 01ff 00000000 		.4byte	.LVL30
 4906 0203 0C000000 		.4byte	.LVL31
 4907 0207 0100     		.2byte	0x1
 4908 0209 53       		.byte	0x53
 4909 020a 0C000000 		.4byte	.LVL31
 4910 020e 78000000 		.4byte	.LFE7
 4911 0212 0400     		.2byte	0x4
 4912 0214 F3       		.byte	0xf3
 4913 0215 01       		.uleb128 0x1
 4914 0216 53       		.byte	0x53
 4915 0217 9F       		.byte	0x9f
 4916 0218 00000000 		.4byte	0
 4917 021c 00000000 		.4byte	0
 4918              	.LLST15:
 4919 0220 16000000 		.4byte	.LVL33
 4920 0224 28000000 		.4byte	.LVL36
 4921 0228 0100     		.2byte	0x1
 4922 022a 58       		.byte	0x58
 4923 022b 28000000 		.4byte	.LVL36
 4924 022f 2C000000 		.4byte	.LVL37
 4925 0233 0100     		.2byte	0x1
 4926 0235 52       		.byte	0x52
 4927 0236 2C000000 		.4byte	.LVL37
ARM GAS  C:\Users\GYULAI~1\AppData\Local\Temp\ccjFV3Tn.s 			page 94


 4928 023a 3A000000 		.4byte	.LVL40
 4929 023e 0100     		.2byte	0x1
 4930 0240 58       		.byte	0x58
 4931 0241 00000000 		.4byte	0
 4932 0245 00000000 		.4byte	0
 4933              	.LLST16:
 4934 0249 1E000000 		.4byte	.LVL34
 4935 024d 24000000 		.4byte	.LVL35
 4936 0251 0200     		.2byte	0x2
 4937 0253 31       		.byte	0x31
 4938 0254 9F       		.byte	0x9f
 4939 0255 24000000 		.4byte	.LVL35
 4940 0259 32000000 		.4byte	.LVL38
 4941 025d 0300     		.2byte	0x3
 4942 025f 09       		.byte	0x9
 4943 0260 FF       		.byte	0xff
 4944 0261 9F       		.byte	0x9f
 4945 0262 32000000 		.4byte	.LVL38
 4946 0266 36000000 		.4byte	.LVL39
 4947 026a 0200     		.2byte	0x2
 4948 026c 31       		.byte	0x31
 4949 026d 9F       		.byte	0x9f
 4950 026e 36000000 		.4byte	.LVL39
 4951 0272 78000000 		.4byte	.LFE7
 4952 0276 0100     		.2byte	0x1
 4953 0278 5B       		.byte	0x5b
 4954 0279 00000000 		.4byte	0
 4955 027d 00000000 		.4byte	0
 4956              	.LLST17:
 4957 0281 44000000 		.4byte	.LVL41
 4958 0285 64000000 		.4byte	.LVL47
 4959 0289 0100     		.2byte	0x1
 4960 028b 55       		.byte	0x55
 4961 028c 66000000 		.4byte	.LVL48
 4962 0290 68000000 		.4byte	.LVL49
 4963 0294 0100     		.2byte	0x1
 4964 0296 55       		.byte	0x55
 4965 0297 6A000000 		.4byte	.LVL50
 4966 029b 78000000 		.4byte	.LFE7
 4967 029f 0100     		.2byte	0x1
 4968 02a1 55       		.byte	0x55
 4969 02a2 00000000 		.4byte	0
 4970 02a6 00000000 		.4byte	0
 4971              	.LLST18:
 4972 02aa 48000000 		.4byte	.LVL43
 4973 02ae 6C000000 		.4byte	.LVL51
 4974 02b2 0100     		.2byte	0x1
 4975 02b4 54       		.byte	0x54
 4976 02b5 6C000000 		.4byte	.LVL51
 4977 02b9 6E000000 		.4byte	.LVL52
 4978 02bd 0300     		.2byte	0x3
 4979 02bf 74       		.byte	0x74
 4980 02c0 7F       		.sleb128 -1
 4981 02c1 9F       		.byte	0x9f
 4982 02c2 6E000000 		.4byte	.LVL52
 4983 02c6 78000000 		.4byte	.LFE7
 4984 02ca 0100     		.2byte	0x1
ARM GAS  C:\Users\GYULAI~1\AppData\Local\Temp\ccjFV3Tn.s 			page 95


 4985 02cc 54       		.byte	0x54
 4986 02cd 00000000 		.4byte	0
 4987 02d1 00000000 		.4byte	0
 4988              	.LLST19:
 4989 02d5 00000000 		.4byte	.LVL53
 4990 02d9 10000000 		.4byte	.LVL55
 4991 02dd 0100     		.2byte	0x1
 4992 02df 50       		.byte	0x50
 4993 02e0 10000000 		.4byte	.LVL55
 4994 02e4 2C000000 		.4byte	.LFE9
 4995 02e8 0400     		.2byte	0x4
 4996 02ea F3       		.byte	0xf3
 4997 02eb 01       		.uleb128 0x1
 4998 02ec 50       		.byte	0x50
 4999 02ed 9F       		.byte	0x9f
 5000 02ee 00000000 		.4byte	0
 5001 02f2 00000000 		.4byte	0
 5002              	.LLST20:
 5003 02f6 00000000 		.4byte	.LVL53
 5004 02fa 10000000 		.4byte	.LVL55
 5005 02fe 0100     		.2byte	0x1
 5006 0300 51       		.byte	0x51
 5007 0301 10000000 		.4byte	.LVL55
 5008 0305 2C000000 		.4byte	.LFE9
 5009 0309 0400     		.2byte	0x4
 5010 030b F3       		.byte	0xf3
 5011 030c 01       		.uleb128 0x1
 5012 030d 51       		.byte	0x51
 5013 030e 9F       		.byte	0x9f
 5014 030f 00000000 		.4byte	0
 5015 0313 00000000 		.4byte	0
 5016              	.LLST21:
 5017 0317 00000000 		.4byte	.LVL53
 5018 031b 10000000 		.4byte	.LVL55
 5019 031f 0100     		.2byte	0x1
 5020 0321 52       		.byte	0x52
 5021 0322 10000000 		.4byte	.LVL55
 5022 0326 2C000000 		.4byte	.LFE9
 5023 032a 0400     		.2byte	0x4
 5024 032c F3       		.byte	0xf3
 5025 032d 01       		.uleb128 0x1
 5026 032e 52       		.byte	0x52
 5027 032f 9F       		.byte	0x9f
 5028 0330 00000000 		.4byte	0
 5029 0334 00000000 		.4byte	0
 5030              	.LLST22:
 5031 0338 00000000 		.4byte	.LVL53
 5032 033c 10000000 		.4byte	.LVL55
 5033 0340 0100     		.2byte	0x1
 5034 0342 53       		.byte	0x53
 5035 0343 10000000 		.4byte	.LVL55
 5036 0347 2C000000 		.4byte	.LFE9
 5037 034b 0400     		.2byte	0x4
 5038 034d F3       		.byte	0xf3
 5039 034e 01       		.uleb128 0x1
 5040 034f 53       		.byte	0x53
 5041 0350 9F       		.byte	0x9f
ARM GAS  C:\Users\GYULAI~1\AppData\Local\Temp\ccjFV3Tn.s 			page 96


 5042 0351 00000000 		.4byte	0
 5043 0355 00000000 		.4byte	0
 5044              	.LLST23:
 5045 0359 0C000000 		.4byte	.LVL54
 5046 035d 10000000 		.4byte	.LVL55
 5047 0361 0200     		.2byte	0x2
 5048 0363 30       		.byte	0x30
 5049 0364 9F       		.byte	0x9f
 5050 0365 10000000 		.4byte	.LVL55
 5051 0369 1E000000 		.4byte	.LVL57
 5052 036d 0100     		.2byte	0x1
 5053 036f 54       		.byte	0x54
 5054 0370 20000000 		.4byte	.LVL58
 5055 0374 2C000000 		.4byte	.LFE9
 5056 0378 0100     		.2byte	0x1
 5057 037a 54       		.byte	0x54
 5058 037b 00000000 		.4byte	0
 5059 037f 00000000 		.4byte	0
 5060              	.LLST24:
 5061 0383 00000000 		.4byte	.LVL60
 5062 0387 21000000 		.4byte	.LVL64-1
 5063 038b 0100     		.2byte	0x1
 5064 038d 50       		.byte	0x50
 5065 038e 21000000 		.4byte	.LVL64-1
 5066 0392 24000000 		.4byte	.LVL65
 5067 0396 0400     		.2byte	0x4
 5068 0398 F3       		.byte	0xf3
 5069 0399 01       		.uleb128 0x1
 5070 039a 50       		.byte	0x50
 5071 039b 9F       		.byte	0x9f
 5072 039c 24000000 		.4byte	.LVL65
 5073 03a0 3A000000 		.4byte	.LVL67
 5074 03a4 0100     		.2byte	0x1
 5075 03a6 50       		.byte	0x50
 5076 03a7 3A000000 		.4byte	.LVL67
 5077 03ab 40000000 		.4byte	.LVL69
 5078 03af 0400     		.2byte	0x4
 5079 03b1 F3       		.byte	0xf3
 5080 03b2 01       		.uleb128 0x1
 5081 03b3 50       		.byte	0x50
 5082 03b4 9F       		.byte	0x9f
 5083 03b5 40000000 		.4byte	.LVL69
 5084 03b9 62000000 		.4byte	.LVL72
 5085 03bd 0100     		.2byte	0x1
 5086 03bf 50       		.byte	0x50
 5087 03c0 62000000 		.4byte	.LVL72
 5088 03c4 68000000 		.4byte	.LVL74
 5089 03c8 0400     		.2byte	0x4
 5090 03ca F3       		.byte	0xf3
 5091 03cb 01       		.uleb128 0x1
 5092 03cc 50       		.byte	0x50
 5093 03cd 9F       		.byte	0x9f
 5094 03ce 68000000 		.4byte	.LVL74
 5095 03d2 71000000 		.4byte	.LVL75-1
 5096 03d6 0100     		.2byte	0x1
 5097 03d8 50       		.byte	0x50
 5098 03d9 71000000 		.4byte	.LVL75-1
ARM GAS  C:\Users\GYULAI~1\AppData\Local\Temp\ccjFV3Tn.s 			page 97


 5099 03dd 74000000 		.4byte	.LVL76
 5100 03e1 0400     		.2byte	0x4
 5101 03e3 F3       		.byte	0xf3
 5102 03e4 01       		.uleb128 0x1
 5103 03e5 50       		.byte	0x50
 5104 03e6 9F       		.byte	0x9f
 5105 03e7 74000000 		.4byte	.LVL76
 5106 03eb 82000000 		.4byte	.LVL78
 5107 03ef 0100     		.2byte	0x1
 5108 03f1 50       		.byte	0x50
 5109 03f2 82000000 		.4byte	.LVL78
 5110 03f6 88000000 		.4byte	.LVL80
 5111 03fa 0400     		.2byte	0x4
 5112 03fc F3       		.byte	0xf3
 5113 03fd 01       		.uleb128 0x1
 5114 03fe 50       		.byte	0x50
 5115 03ff 9F       		.byte	0x9f
 5116 0400 88000000 		.4byte	.LVL80
 5117 0404 91000000 		.4byte	.LVL81-1
 5118 0408 0100     		.2byte	0x1
 5119 040a 50       		.byte	0x50
 5120 040b 91000000 		.4byte	.LVL81-1
 5121 040f 9A000000 		.4byte	.LFE8
 5122 0413 0400     		.2byte	0x4
 5123 0415 F3       		.byte	0xf3
 5124 0416 01       		.uleb128 0x1
 5125 0417 50       		.byte	0x50
 5126 0418 9F       		.byte	0x9f
 5127 0419 00000000 		.4byte	0
 5128 041d 00000000 		.4byte	0
 5129              	.LLST25:
 5130 0421 00000000 		.4byte	.LVL60
 5131 0425 1E000000 		.4byte	.LVL63
 5132 0429 0100     		.2byte	0x1
 5133 042b 51       		.byte	0x51
 5134 042c 1E000000 		.4byte	.LVL63
 5135 0430 24000000 		.4byte	.LVL65
 5136 0434 0400     		.2byte	0x4
 5137 0436 F3       		.byte	0xf3
 5138 0437 01       		.uleb128 0x1
 5139 0438 51       		.byte	0x51
 5140 0439 9F       		.byte	0x9f
 5141 043a 24000000 		.4byte	.LVL65
 5142 043e 3D000000 		.4byte	.LVL68-1
 5143 0442 0100     		.2byte	0x1
 5144 0444 51       		.byte	0x51
 5145 0445 3D000000 		.4byte	.LVL68-1
 5146 0449 40000000 		.4byte	.LVL69
 5147 044d 0400     		.2byte	0x4
 5148 044f F3       		.byte	0xf3
 5149 0450 01       		.uleb128 0x1
 5150 0451 51       		.byte	0x51
 5151 0452 9F       		.byte	0x9f
 5152 0453 40000000 		.4byte	.LVL69
 5153 0457 60000000 		.4byte	.LVL71
 5154 045b 0100     		.2byte	0x1
 5155 045d 51       		.byte	0x51
ARM GAS  C:\Users\GYULAI~1\AppData\Local\Temp\ccjFV3Tn.s 			page 98


 5156 045e 60000000 		.4byte	.LVL71
 5157 0462 68000000 		.4byte	.LVL74
 5158 0466 0400     		.2byte	0x4
 5159 0468 F3       		.byte	0xf3
 5160 0469 01       		.uleb128 0x1
 5161 046a 51       		.byte	0x51
 5162 046b 9F       		.byte	0x9f
 5163 046c 68000000 		.4byte	.LVL74
 5164 0470 71000000 		.4byte	.LVL75-1
 5165 0474 0100     		.2byte	0x1
 5166 0476 51       		.byte	0x51
 5167 0477 71000000 		.4byte	.LVL75-1
 5168 047b 74000000 		.4byte	.LVL76
 5169 047f 0400     		.2byte	0x4
 5170 0481 F3       		.byte	0xf3
 5171 0482 01       		.uleb128 0x1
 5172 0483 51       		.byte	0x51
 5173 0484 9F       		.byte	0x9f
 5174 0485 74000000 		.4byte	.LVL76
 5175 0489 80000000 		.4byte	.LVL77
 5176 048d 0100     		.2byte	0x1
 5177 048f 51       		.byte	0x51
 5178 0490 80000000 		.4byte	.LVL77
 5179 0494 88000000 		.4byte	.LVL80
 5180 0498 0400     		.2byte	0x4
 5181 049a F3       		.byte	0xf3
 5182 049b 01       		.uleb128 0x1
 5183 049c 51       		.byte	0x51
 5184 049d 9F       		.byte	0x9f
 5185 049e 88000000 		.4byte	.LVL80
 5186 04a2 91000000 		.4byte	.LVL81-1
 5187 04a6 0100     		.2byte	0x1
 5188 04a8 51       		.byte	0x51
 5189 04a9 91000000 		.4byte	.LVL81-1
 5190 04ad 9A000000 		.4byte	.LFE8
 5191 04b1 0400     		.2byte	0x4
 5192 04b3 F3       		.byte	0xf3
 5193 04b4 01       		.uleb128 0x1
 5194 04b5 51       		.byte	0x51
 5195 04b6 9F       		.byte	0x9f
 5196 04b7 00000000 		.4byte	0
 5197 04bb 00000000 		.4byte	0
 5198              	.LLST26:
 5199 04bf 00000000 		.4byte	.LVL60
 5200 04c3 10000000 		.4byte	.LVL62
 5201 04c7 0100     		.2byte	0x1
 5202 04c9 52       		.byte	0x52
 5203 04ca 10000000 		.4byte	.LVL62
 5204 04ce 24000000 		.4byte	.LVL65
 5205 04d2 0400     		.2byte	0x4
 5206 04d4 F3       		.byte	0xf3
 5207 04d5 01       		.uleb128 0x1
 5208 04d6 52       		.byte	0x52
 5209 04d7 9F       		.byte	0x9f
 5210 04d8 24000000 		.4byte	.LVL65
 5211 04dc 2C000000 		.4byte	.LVL66
 5212 04e0 0100     		.2byte	0x1
ARM GAS  C:\Users\GYULAI~1\AppData\Local\Temp\ccjFV3Tn.s 			page 99


 5213 04e2 52       		.byte	0x52
 5214 04e3 2C000000 		.4byte	.LVL66
 5215 04e7 40000000 		.4byte	.LVL69
 5216 04eb 0400     		.2byte	0x4
 5217 04ed F3       		.byte	0xf3
 5218 04ee 01       		.uleb128 0x1
 5219 04ef 52       		.byte	0x52
 5220 04f0 9F       		.byte	0x9f
 5221 04f1 40000000 		.4byte	.LVL69
 5222 04f5 4A000000 		.4byte	.LVL70
 5223 04f9 0100     		.2byte	0x1
 5224 04fb 52       		.byte	0x52
 5225 04fc 4A000000 		.4byte	.LVL70
 5226 0500 9A000000 		.4byte	.LFE8
 5227 0504 0400     		.2byte	0x4
 5228 0506 F3       		.byte	0xf3
 5229 0507 01       		.uleb128 0x1
 5230 0508 52       		.byte	0x52
 5231 0509 9F       		.byte	0x9f
 5232 050a 00000000 		.4byte	0
 5233 050e 00000000 		.4byte	0
 5234              	.LLST27:
 5235 0512 00000000 		.4byte	.LVL60
 5236 0516 0A000000 		.4byte	.LVL61
 5237 051a 0100     		.2byte	0x1
 5238 051c 53       		.byte	0x53
 5239 051d 0A000000 		.4byte	.LVL61
 5240 0521 9A000000 		.4byte	.LFE8
 5241 0525 0400     		.2byte	0x4
 5242 0527 F3       		.byte	0xf3
 5243 0528 01       		.uleb128 0x1
 5244 0529 53       		.byte	0x53
 5245 052a 9F       		.byte	0x9f
 5246 052b 00000000 		.4byte	0
 5247 052f 00000000 		.4byte	0
 5248              	.LLST28:
 5249 0533 00000000 		.4byte	.LVL83
 5250 0537 10000000 		.4byte	.LVL85
 5251 053b 0100     		.2byte	0x1
 5252 053d 50       		.byte	0x50
 5253 053e 10000000 		.4byte	.LVL85
 5254 0542 2E000000 		.4byte	.LFE10
 5255 0546 0400     		.2byte	0x4
 5256 0548 F3       		.byte	0xf3
 5257 0549 01       		.uleb128 0x1
 5258 054a 50       		.byte	0x50
 5259 054b 9F       		.byte	0x9f
 5260 054c 00000000 		.4byte	0
 5261 0550 00000000 		.4byte	0
 5262              	.LLST29:
 5263 0554 00000000 		.4byte	.LVL83
 5264 0558 10000000 		.4byte	.LVL85
 5265 055c 0100     		.2byte	0x1
 5266 055e 51       		.byte	0x51
 5267 055f 10000000 		.4byte	.LVL85
 5268 0563 2E000000 		.4byte	.LFE10
 5269 0567 0400     		.2byte	0x4
ARM GAS  C:\Users\GYULAI~1\AppData\Local\Temp\ccjFV3Tn.s 			page 100


 5270 0569 F3       		.byte	0xf3
 5271 056a 01       		.uleb128 0x1
 5272 056b 51       		.byte	0x51
 5273 056c 9F       		.byte	0x9f
 5274 056d 00000000 		.4byte	0
 5275 0571 00000000 		.4byte	0
 5276              	.LLST30:
 5277 0575 00000000 		.4byte	.LVL83
 5278 0579 10000000 		.4byte	.LVL85
 5279 057d 0100     		.2byte	0x1
 5280 057f 52       		.byte	0x52
 5281 0580 10000000 		.4byte	.LVL85
 5282 0584 2E000000 		.4byte	.LFE10
 5283 0588 0400     		.2byte	0x4
 5284 058a F3       		.byte	0xf3
 5285 058b 01       		.uleb128 0x1
 5286 058c 52       		.byte	0x52
 5287 058d 9F       		.byte	0x9f
 5288 058e 00000000 		.4byte	0
 5289 0592 00000000 		.4byte	0
 5290              	.LLST31:
 5291 0596 00000000 		.4byte	.LVL83
 5292 059a 10000000 		.4byte	.LVL85
 5293 059e 0100     		.2byte	0x1
 5294 05a0 53       		.byte	0x53
 5295 05a1 10000000 		.4byte	.LVL85
 5296 05a5 2E000000 		.4byte	.LFE10
 5297 05a9 0400     		.2byte	0x4
 5298 05ab F3       		.byte	0xf3
 5299 05ac 01       		.uleb128 0x1
 5300 05ad 53       		.byte	0x53
 5301 05ae 9F       		.byte	0x9f
 5302 05af 00000000 		.4byte	0
 5303 05b3 00000000 		.4byte	0
 5304              	.LLST32:
 5305 05b7 0C000000 		.4byte	.LVL84
 5306 05bb 10000000 		.4byte	.LVL85
 5307 05bf 0200     		.2byte	0x2
 5308 05c1 30       		.byte	0x30
 5309 05c2 9F       		.byte	0x9f
 5310 05c3 10000000 		.4byte	.LVL85
 5311 05c7 20000000 		.4byte	.LVL87
 5312 05cb 0100     		.2byte	0x1
 5313 05cd 54       		.byte	0x54
 5314 05ce 22000000 		.4byte	.LVL88
 5315 05d2 2E000000 		.4byte	.LFE10
 5316 05d6 0100     		.2byte	0x1
 5317 05d8 54       		.byte	0x54
 5318 05d9 00000000 		.4byte	0
 5319 05dd 00000000 		.4byte	0
 5320              	.LLST33:
 5321 05e1 00000000 		.4byte	.LVL90
 5322 05e5 10000000 		.4byte	.LVL92
 5323 05e9 0100     		.2byte	0x1
 5324 05eb 50       		.byte	0x50
 5325 05ec 10000000 		.4byte	.LVL92
 5326 05f0 5A000000 		.4byte	.LFE11
ARM GAS  C:\Users\GYULAI~1\AppData\Local\Temp\ccjFV3Tn.s 			page 101


 5327 05f4 0400     		.2byte	0x4
 5328 05f6 F3       		.byte	0xf3
 5329 05f7 01       		.uleb128 0x1
 5330 05f8 50       		.byte	0x50
 5331 05f9 9F       		.byte	0x9f
 5332 05fa 00000000 		.4byte	0
 5333 05fe 00000000 		.4byte	0
 5334              	.LLST34:
 5335 0602 00000000 		.4byte	.LVL90
 5336 0606 10000000 		.4byte	.LVL92
 5337 060a 0100     		.2byte	0x1
 5338 060c 51       		.byte	0x51
 5339 060d 10000000 		.4byte	.LVL92
 5340 0611 5A000000 		.4byte	.LFE11
 5341 0615 0400     		.2byte	0x4
 5342 0617 F3       		.byte	0xf3
 5343 0618 01       		.uleb128 0x1
 5344 0619 51       		.byte	0x51
 5345 061a 9F       		.byte	0x9f
 5346 061b 00000000 		.4byte	0
 5347 061f 00000000 		.4byte	0
 5348              	.LLST35:
 5349 0623 00000000 		.4byte	.LVL90
 5350 0627 10000000 		.4byte	.LVL92
 5351 062b 0100     		.2byte	0x1
 5352 062d 52       		.byte	0x52
 5353 062e 10000000 		.4byte	.LVL92
 5354 0632 5A000000 		.4byte	.LFE11
 5355 0636 0400     		.2byte	0x4
 5356 0638 F3       		.byte	0xf3
 5357 0639 01       		.uleb128 0x1
 5358 063a 52       		.byte	0x52
 5359 063b 9F       		.byte	0x9f
 5360 063c 00000000 		.4byte	0
 5361 0640 00000000 		.4byte	0
 5362              	.LLST36:
 5363 0644 00000000 		.4byte	.LVL90
 5364 0648 10000000 		.4byte	.LVL92
 5365 064c 0100     		.2byte	0x1
 5366 064e 53       		.byte	0x53
 5367 064f 10000000 		.4byte	.LVL92
 5368 0653 5A000000 		.4byte	.LFE11
 5369 0657 0400     		.2byte	0x4
 5370 0659 F3       		.byte	0xf3
 5371 065a 01       		.uleb128 0x1
 5372 065b 53       		.byte	0x53
 5373 065c 9F       		.byte	0x9f
 5374 065d 00000000 		.4byte	0
 5375 0661 00000000 		.4byte	0
 5376              	.LLST37:
 5377 0665 0C000000 		.4byte	.LVL91
 5378 0669 10000000 		.4byte	.LVL92
 5379 066d 0200     		.2byte	0x2
 5380 066f 30       		.byte	0x30
 5381 0670 9F       		.byte	0x9f
 5382 0671 10000000 		.4byte	.LVL92
 5383 0675 4C000000 		.4byte	.LVL103
ARM GAS  C:\Users\GYULAI~1\AppData\Local\Temp\ccjFV3Tn.s 			page 102


 5384 0679 0100     		.2byte	0x1
 5385 067b 56       		.byte	0x56
 5386 067c 4E000000 		.4byte	.LVL104
 5387 0680 5A000000 		.4byte	.LFE11
 5388 0684 0100     		.2byte	0x1
 5389 0686 56       		.byte	0x56
 5390 0687 00000000 		.4byte	0
 5391 068b 00000000 		.4byte	0
 5392              	.LLST38:
 5393 068f 10000000 		.4byte	.LVL92
 5394 0693 40000000 		.4byte	.LVL99
 5395 0697 0100     		.2byte	0x1
 5396 0699 55       		.byte	0x55
 5397 069a 42000000 		.4byte	.LVL100
 5398 069e 44000000 		.4byte	.LVL101
 5399 06a2 0100     		.2byte	0x1
 5400 06a4 55       		.byte	0x55
 5401 06a5 46000000 		.4byte	.LVL102
 5402 06a9 4E000000 		.4byte	.LVL104
 5403 06ad 0100     		.2byte	0x1
 5404 06af 55       		.byte	0x55
 5405 06b0 00000000 		.4byte	0
 5406 06b4 00000000 		.4byte	0
 5407              	.LLST39:
 5408 06b8 30000000 		.4byte	.LVL96
 5409 06bc 3A000000 		.4byte	.LVL97
 5410 06c0 0100     		.2byte	0x1
 5411 06c2 50       		.byte	0x50
 5412 06c3 00000000 		.4byte	0
 5413 06c7 00000000 		.4byte	0
 5414              	.LLST40:
 5415 06cb 00000000 		.4byte	.LVL106
 5416 06cf 10000000 		.4byte	.LVL108
 5417 06d3 0100     		.2byte	0x1
 5418 06d5 50       		.byte	0x50
 5419 06d6 10000000 		.4byte	.LVL108
 5420 06da 5A000000 		.4byte	.LFE12
 5421 06de 0400     		.2byte	0x4
 5422 06e0 F3       		.byte	0xf3
 5423 06e1 01       		.uleb128 0x1
 5424 06e2 50       		.byte	0x50
 5425 06e3 9F       		.byte	0x9f
 5426 06e4 00000000 		.4byte	0
 5427 06e8 00000000 		.4byte	0
 5428              	.LLST41:
 5429 06ec 00000000 		.4byte	.LVL106
 5430 06f0 10000000 		.4byte	.LVL108
 5431 06f4 0100     		.2byte	0x1
 5432 06f6 51       		.byte	0x51
 5433 06f7 10000000 		.4byte	.LVL108
 5434 06fb 5A000000 		.4byte	.LFE12
 5435 06ff 0400     		.2byte	0x4
 5436 0701 F3       		.byte	0xf3
 5437 0702 01       		.uleb128 0x1
 5438 0703 51       		.byte	0x51
 5439 0704 9F       		.byte	0x9f
 5440 0705 00000000 		.4byte	0
ARM GAS  C:\Users\GYULAI~1\AppData\Local\Temp\ccjFV3Tn.s 			page 103


 5441 0709 00000000 		.4byte	0
 5442              	.LLST42:
 5443 070d 00000000 		.4byte	.LVL106
 5444 0711 10000000 		.4byte	.LVL108
 5445 0715 0100     		.2byte	0x1
 5446 0717 52       		.byte	0x52
 5447 0718 10000000 		.4byte	.LVL108
 5448 071c 5A000000 		.4byte	.LFE12
 5449 0720 0400     		.2byte	0x4
 5450 0722 F3       		.byte	0xf3
 5451 0723 01       		.uleb128 0x1
 5452 0724 52       		.byte	0x52
 5453 0725 9F       		.byte	0x9f
 5454 0726 00000000 		.4byte	0
 5455 072a 00000000 		.4byte	0
 5456              	.LLST43:
 5457 072e 00000000 		.4byte	.LVL106
 5458 0732 10000000 		.4byte	.LVL108
 5459 0736 0100     		.2byte	0x1
 5460 0738 53       		.byte	0x53
 5461 0739 10000000 		.4byte	.LVL108
 5462 073d 5A000000 		.4byte	.LFE12
 5463 0741 0400     		.2byte	0x4
 5464 0743 F3       		.byte	0xf3
 5465 0744 01       		.uleb128 0x1
 5466 0745 53       		.byte	0x53
 5467 0746 9F       		.byte	0x9f
 5468 0747 00000000 		.4byte	0
 5469 074b 00000000 		.4byte	0
 5470              	.LLST44:
 5471 074f 0C000000 		.4byte	.LVL107
 5472 0753 10000000 		.4byte	.LVL108
 5473 0757 0200     		.2byte	0x2
 5474 0759 30       		.byte	0x30
 5475 075a 9F       		.byte	0x9f
 5476 075b 10000000 		.4byte	.LVL108
 5477 075f 4C000000 		.4byte	.LVL119
 5478 0763 0100     		.2byte	0x1
 5479 0765 56       		.byte	0x56
 5480 0766 4E000000 		.4byte	.LVL120
 5481 076a 5A000000 		.4byte	.LFE12
 5482 076e 0100     		.2byte	0x1
 5483 0770 56       		.byte	0x56
 5484 0771 00000000 		.4byte	0
 5485 0775 00000000 		.4byte	0
 5486              	.LLST45:
 5487 0779 10000000 		.4byte	.LVL108
 5488 077d 40000000 		.4byte	.LVL115
 5489 0781 0100     		.2byte	0x1
 5490 0783 55       		.byte	0x55
 5491 0784 42000000 		.4byte	.LVL116
 5492 0788 44000000 		.4byte	.LVL117
 5493 078c 0100     		.2byte	0x1
 5494 078e 55       		.byte	0x55
 5495 078f 46000000 		.4byte	.LVL118
 5496 0793 4E000000 		.4byte	.LVL120
 5497 0797 0100     		.2byte	0x1
ARM GAS  C:\Users\GYULAI~1\AppData\Local\Temp\ccjFV3Tn.s 			page 104


 5498 0799 55       		.byte	0x55
 5499 079a 00000000 		.4byte	0
 5500 079e 00000000 		.4byte	0
 5501              	.LLST46:
 5502 07a2 30000000 		.4byte	.LVL112
 5503 07a6 3A000000 		.4byte	.LVL113
 5504 07aa 0100     		.2byte	0x1
 5505 07ac 50       		.byte	0x50
 5506 07ad 00000000 		.4byte	0
 5507 07b1 00000000 		.4byte	0
 5508              	.LLST47:
 5509 07b5 00000000 		.4byte	.LVL122
 5510 07b9 14000000 		.4byte	.LVL124
 5511 07bd 0100     		.2byte	0x1
 5512 07bf 50       		.byte	0x50
 5513 07c0 14000000 		.4byte	.LVL124
 5514 07c4 52000000 		.4byte	.LFE13
 5515 07c8 0400     		.2byte	0x4
 5516 07ca F3       		.byte	0xf3
 5517 07cb 01       		.uleb128 0x1
 5518 07cc 50       		.byte	0x50
 5519 07cd 9F       		.byte	0x9f
 5520 07ce 00000000 		.4byte	0
 5521 07d2 00000000 		.4byte	0
 5522              	.LLST48:
 5523 07d6 00000000 		.4byte	.LVL122
 5524 07da 14000000 		.4byte	.LVL124
 5525 07de 0100     		.2byte	0x1
 5526 07e0 51       		.byte	0x51
 5527 07e1 14000000 		.4byte	.LVL124
 5528 07e5 52000000 		.4byte	.LFE13
 5529 07e9 0400     		.2byte	0x4
 5530 07eb F3       		.byte	0xf3
 5531 07ec 01       		.uleb128 0x1
 5532 07ed 51       		.byte	0x51
 5533 07ee 9F       		.byte	0x9f
 5534 07ef 00000000 		.4byte	0
 5535 07f3 00000000 		.4byte	0
 5536              	.LLST49:
 5537 07f7 00000000 		.4byte	.LVL122
 5538 07fb 14000000 		.4byte	.LVL124
 5539 07ff 0100     		.2byte	0x1
 5540 0801 52       		.byte	0x52
 5541 0802 14000000 		.4byte	.LVL124
 5542 0806 52000000 		.4byte	.LFE13
 5543 080a 0400     		.2byte	0x4
 5544 080c F3       		.byte	0xf3
 5545 080d 01       		.uleb128 0x1
 5546 080e 52       		.byte	0x52
 5547 080f 9F       		.byte	0x9f
 5548 0810 00000000 		.4byte	0
 5549 0814 00000000 		.4byte	0
 5550              	.LLST50:
 5551 0818 00000000 		.4byte	.LVL122
 5552 081c 14000000 		.4byte	.LVL124
 5553 0820 0100     		.2byte	0x1
 5554 0822 53       		.byte	0x53
ARM GAS  C:\Users\GYULAI~1\AppData\Local\Temp\ccjFV3Tn.s 			page 105


 5555 0823 14000000 		.4byte	.LVL124
 5556 0827 52000000 		.4byte	.LFE13
 5557 082b 0400     		.2byte	0x4
 5558 082d F3       		.byte	0xf3
 5559 082e 01       		.uleb128 0x1
 5560 082f 53       		.byte	0x53
 5561 0830 9F       		.byte	0x9f
 5562 0831 00000000 		.4byte	0
 5563 0835 00000000 		.4byte	0
 5564              	.LLST51:
 5565 0839 10000000 		.4byte	.LVL123
 5566 083d 14000000 		.4byte	.LVL124
 5567 0841 0200     		.2byte	0x2
 5568 0843 30       		.byte	0x30
 5569 0844 9F       		.byte	0x9f
 5570 0845 14000000 		.4byte	.LVL124
 5571 0849 44000000 		.4byte	.LVL130
 5572 084d 0100     		.2byte	0x1
 5573 084f 55       		.byte	0x55
 5574 0850 46000000 		.4byte	.LVL131
 5575 0854 52000000 		.4byte	.LFE13
 5576 0858 0100     		.2byte	0x1
 5577 085a 55       		.byte	0x55
 5578 085b 00000000 		.4byte	0
 5579 085f 00000000 		.4byte	0
 5580              	.LLST52:
 5581 0863 14000000 		.4byte	.LVL124
 5582 0867 38000000 		.4byte	.LVL126
 5583 086b 0100     		.2byte	0x1
 5584 086d 54       		.byte	0x54
 5585 086e 3A000000 		.4byte	.LVL127
 5586 0872 3C000000 		.4byte	.LVL128
 5587 0876 0100     		.2byte	0x1
 5588 0878 54       		.byte	0x54
 5589 0879 3E000000 		.4byte	.LVL129
 5590 087d 46000000 		.4byte	.LVL131
 5591 0881 0100     		.2byte	0x1
 5592 0883 54       		.byte	0x54
 5593 0884 00000000 		.4byte	0
 5594 0888 00000000 		.4byte	0
 5595              	.LLST53:
 5596 088c 00000000 		.4byte	.LVL133
 5597 0890 14000000 		.4byte	.LVL135
 5598 0894 0100     		.2byte	0x1
 5599 0896 50       		.byte	0x50
 5600 0897 14000000 		.4byte	.LVL135
 5601 089b 42000000 		.4byte	.LFE14
 5602 089f 0400     		.2byte	0x4
 5603 08a1 F3       		.byte	0xf3
 5604 08a2 01       		.uleb128 0x1
 5605 08a3 50       		.byte	0x50
 5606 08a4 9F       		.byte	0x9f
 5607 08a5 00000000 		.4byte	0
 5608 08a9 00000000 		.4byte	0
 5609              	.LLST54:
 5610 08ad 00000000 		.4byte	.LVL133
 5611 08b1 14000000 		.4byte	.LVL135
ARM GAS  C:\Users\GYULAI~1\AppData\Local\Temp\ccjFV3Tn.s 			page 106


 5612 08b5 0100     		.2byte	0x1
 5613 08b7 51       		.byte	0x51
 5614 08b8 14000000 		.4byte	.LVL135
 5615 08bc 42000000 		.4byte	.LFE14
 5616 08c0 0400     		.2byte	0x4
 5617 08c2 F3       		.byte	0xf3
 5618 08c3 01       		.uleb128 0x1
 5619 08c4 51       		.byte	0x51
 5620 08c5 9F       		.byte	0x9f
 5621 08c6 00000000 		.4byte	0
 5622 08ca 00000000 		.4byte	0
 5623              	.LLST55:
 5624 08ce 00000000 		.4byte	.LVL133
 5625 08d2 14000000 		.4byte	.LVL135
 5626 08d6 0100     		.2byte	0x1
 5627 08d8 52       		.byte	0x52
 5628 08d9 14000000 		.4byte	.LVL135
 5629 08dd 42000000 		.4byte	.LFE14
 5630 08e1 0400     		.2byte	0x4
 5631 08e3 F3       		.byte	0xf3
 5632 08e4 01       		.uleb128 0x1
 5633 08e5 52       		.byte	0x52
 5634 08e6 9F       		.byte	0x9f
 5635 08e7 00000000 		.4byte	0
 5636 08eb 00000000 		.4byte	0
 5637              	.LLST56:
 5638 08ef 00000000 		.4byte	.LVL133
 5639 08f3 14000000 		.4byte	.LVL135
 5640 08f7 0100     		.2byte	0x1
 5641 08f9 53       		.byte	0x53
 5642 08fa 14000000 		.4byte	.LVL135
 5643 08fe 42000000 		.4byte	.LFE14
 5644 0902 0400     		.2byte	0x4
 5645 0904 F3       		.byte	0xf3
 5646 0905 01       		.uleb128 0x1
 5647 0906 53       		.byte	0x53
 5648 0907 9F       		.byte	0x9f
 5649 0908 00000000 		.4byte	0
 5650 090c 00000000 		.4byte	0
 5651              	.LLST57:
 5652 0910 10000000 		.4byte	.LVL134
 5653 0914 14000000 		.4byte	.LVL135
 5654 0918 0200     		.2byte	0x2
 5655 091a 30       		.byte	0x30
 5656 091b 9F       		.byte	0x9f
 5657 091c 14000000 		.4byte	.LVL135
 5658 0920 34000000 		.4byte	.LVL141
 5659 0924 0100     		.2byte	0x1
 5660 0926 55       		.byte	0x55
 5661 0927 36000000 		.4byte	.LVL142
 5662 092b 42000000 		.4byte	.LFE14
 5663 092f 0100     		.2byte	0x1
 5664 0931 55       		.byte	0x55
 5665 0932 00000000 		.4byte	0
 5666 0936 00000000 		.4byte	0
 5667              	.LLST58:
 5668 093a 14000000 		.4byte	.LVL135
ARM GAS  C:\Users\GYULAI~1\AppData\Local\Temp\ccjFV3Tn.s 			page 107


 5669 093e 28000000 		.4byte	.LVL137
 5670 0942 0100     		.2byte	0x1
 5671 0944 54       		.byte	0x54
 5672 0945 2A000000 		.4byte	.LVL138
 5673 0949 2C000000 		.4byte	.LVL139
 5674 094d 0100     		.2byte	0x1
 5675 094f 54       		.byte	0x54
 5676 0950 2E000000 		.4byte	.LVL140
 5677 0954 36000000 		.4byte	.LVL142
 5678 0958 0100     		.2byte	0x1
 5679 095a 54       		.byte	0x54
 5680 095b 00000000 		.4byte	0
 5681 095f 00000000 		.4byte	0
 5682              	.LLST59:
 5683 0963 00000000 		.4byte	.LVL144
 5684 0967 16000000 		.4byte	.LVL147
 5685 096b 0100     		.2byte	0x1
 5686 096d 50       		.byte	0x50
 5687 096e 16000000 		.4byte	.LVL147
 5688 0972 9C000000 		.4byte	.LFE15
 5689 0976 0400     		.2byte	0x4
 5690 0978 F3       		.byte	0xf3
 5691 0979 01       		.uleb128 0x1
 5692 097a 50       		.byte	0x50
 5693 097b 9F       		.byte	0x9f
 5694 097c 00000000 		.4byte	0
 5695 0980 00000000 		.4byte	0
 5696              	.LLST60:
 5697 0984 00000000 		.4byte	.LVL144
 5698 0988 0C000000 		.4byte	.LVL145
 5699 098c 0100     		.2byte	0x1
 5700 098e 51       		.byte	0x51
 5701 098f 0C000000 		.4byte	.LVL145
 5702 0993 9C000000 		.4byte	.LFE15
 5703 0997 0400     		.2byte	0x4
 5704 0999 F3       		.byte	0xf3
 5705 099a 01       		.uleb128 0x1
 5706 099b 51       		.byte	0x51
 5707 099c 9F       		.byte	0x9f
 5708 099d 00000000 		.4byte	0
 5709 09a1 00000000 		.4byte	0
 5710              	.LLST61:
 5711 09a5 00000000 		.4byte	.LVL144
 5712 09a9 12000000 		.4byte	.LVL146
 5713 09ad 0100     		.2byte	0x1
 5714 09af 52       		.byte	0x52
 5715 09b0 12000000 		.4byte	.LVL146
 5716 09b4 9C000000 		.4byte	.LFE15
 5717 09b8 0400     		.2byte	0x4
 5718 09ba F3       		.byte	0xf3
 5719 09bb 01       		.uleb128 0x1
 5720 09bc 52       		.byte	0x52
 5721 09bd 9F       		.byte	0x9f
 5722 09be 00000000 		.4byte	0
 5723 09c2 00000000 		.4byte	0
 5724              	.LLST62:
 5725 09c6 2A000000 		.4byte	.LVL148
ARM GAS  C:\Users\GYULAI~1\AppData\Local\Temp\ccjFV3Tn.s 			page 108


 5726 09ca 98000000 		.4byte	.LVL165
 5727 09ce 0100     		.2byte	0x1
 5728 09d0 57       		.byte	0x57
 5729 09d1 00000000 		.4byte	0
 5730 09d5 00000000 		.4byte	0
 5731              	.LLST63:
 5732 09d9 3A000000 		.4byte	.LVL149
 5733 09dd 98000000 		.4byte	.LVL165
 5734 09e1 0100     		.2byte	0x1
 5735 09e3 58       		.byte	0x58
 5736 09e4 00000000 		.4byte	0
 5737 09e8 00000000 		.4byte	0
 5738              	.LLST64:
 5739 09ec 3E000000 		.4byte	.LVL150
 5740 09f0 88000000 		.4byte	.LVL162
 5741 09f4 0100     		.2byte	0x1
 5742 09f6 56       		.byte	0x56
 5743 09f7 8A000000 		.4byte	.LVL163
 5744 09fb 98000000 		.4byte	.LVL165
 5745 09ff 0100     		.2byte	0x1
 5746 0a01 56       		.byte	0x56
 5747 0a02 00000000 		.4byte	0
 5748 0a06 00000000 		.4byte	0
 5749              	.LLST65:
 5750 0a0a 46000000 		.4byte	.LVL151
 5751 0a0e 80000000 		.4byte	.LVL160
 5752 0a12 0100     		.2byte	0x1
 5753 0a14 54       		.byte	0x54
 5754 0a15 82000000 		.4byte	.LVL161
 5755 0a19 8A000000 		.4byte	.LVL163
 5756 0a1d 0100     		.2byte	0x1
 5757 0a1f 54       		.byte	0x54
 5758 0a20 00000000 		.4byte	0
 5759 0a24 00000000 		.4byte	0
 5760              	.LLST66:
 5761 0a28 4C000000 		.4byte	.LVL152
 5762 0a2c 56000000 		.4byte	.LVL154
 5763 0a30 0100     		.2byte	0x1
 5764 0a32 52       		.byte	0x52
 5765 0a33 56000000 		.4byte	.LVL154
 5766 0a37 7C000000 		.4byte	.LVL158
 5767 0a3b 0500     		.2byte	0x5
 5768 0a3d 75       		.byte	0x75
 5769 0a3e 00       		.sleb128 0
 5770 0a3f 33       		.byte	0x33
 5771 0a40 25       		.byte	0x25
 5772 0a41 9F       		.byte	0x9f
 5773 0a42 7C000000 		.4byte	.LVL158
 5774 0a46 7E000000 		.4byte	.LVL159
 5775 0a4a 0600     		.2byte	0x6
 5776 0a4c 7D       		.byte	0x7d
 5777 0a4d 00       		.sleb128 0
 5778 0a4e 06       		.byte	0x6
 5779 0a4f 33       		.byte	0x33
 5780 0a50 25       		.byte	0x25
 5781 0a51 9F       		.byte	0x9f
 5782 0a52 7E000000 		.4byte	.LVL159
ARM GAS  C:\Users\GYULAI~1\AppData\Local\Temp\ccjFV3Tn.s 			page 109


 5783 0a56 82000000 		.4byte	.LVL161
 5784 0a5a 0500     		.2byte	0x5
 5785 0a5c 75       		.byte	0x75
 5786 0a5d 7F       		.sleb128 -1
 5787 0a5e 33       		.byte	0x33
 5788 0a5f 25       		.byte	0x25
 5789 0a60 9F       		.byte	0x9f
 5790 0a61 00000000 		.4byte	0
 5791 0a65 00000000 		.4byte	0
 5792              	.LLST67:
 5793 0a69 50000000 		.4byte	.LVL153
 5794 0a6d 5A000000 		.4byte	.LVL155
 5795 0a71 0100     		.2byte	0x1
 5796 0a73 53       		.byte	0x53
 5797 0a74 5A000000 		.4byte	.LVL155
 5798 0a78 7C000000 		.4byte	.LVL158
 5799 0a7c 0500     		.2byte	0x5
 5800 0a7e 75       		.byte	0x75
 5801 0a7f 00       		.sleb128 0
 5802 0a80 37       		.byte	0x37
 5803 0a81 1A       		.byte	0x1a
 5804 0a82 9F       		.byte	0x9f
 5805 0a83 7C000000 		.4byte	.LVL158
 5806 0a87 7E000000 		.4byte	.LVL159
 5807 0a8b 0600     		.2byte	0x6
 5808 0a8d 7D       		.byte	0x7d
 5809 0a8e 00       		.sleb128 0
 5810 0a8f 06       		.byte	0x6
 5811 0a90 37       		.byte	0x37
 5812 0a91 1A       		.byte	0x1a
 5813 0a92 9F       		.byte	0x9f
 5814 0a93 7E000000 		.4byte	.LVL159
 5815 0a97 82000000 		.4byte	.LVL161
 5816 0a9b 0500     		.2byte	0x5
 5817 0a9d 75       		.byte	0x75
 5818 0a9e 7F       		.sleb128 -1
 5819 0a9f 37       		.byte	0x37
 5820 0aa0 1A       		.byte	0x1a
 5821 0aa1 9F       		.byte	0x9f
 5822 0aa2 00000000 		.4byte	0
 5823 0aa6 00000000 		.4byte	0
 5824              	.LLST68:
 5825 0aaa 00000000 		.4byte	.LVL167
 5826 0aae 12000000 		.4byte	.LVL168
 5827 0ab2 0100     		.2byte	0x1
 5828 0ab4 50       		.byte	0x50
 5829 0ab5 12000000 		.4byte	.LVL168
 5830 0ab9 58000000 		.4byte	.LFE17
 5831 0abd 0400     		.2byte	0x4
 5832 0abf F3       		.byte	0xf3
 5833 0ac0 01       		.uleb128 0x1
 5834 0ac1 50       		.byte	0x50
 5835 0ac2 9F       		.byte	0x9f
 5836 0ac3 00000000 		.4byte	0
 5837 0ac7 00000000 		.4byte	0
 5838              	.LLST69:
 5839 0acb 00000000 		.4byte	.LVL170
ARM GAS  C:\Users\GYULAI~1\AppData\Local\Temp\ccjFV3Tn.s 			page 110


 5840 0acf 06000000 		.4byte	.LVL171
 5841 0ad3 0100     		.2byte	0x1
 5842 0ad5 50       		.byte	0x50
 5843 0ad6 06000000 		.4byte	.LVL171
 5844 0ada 36000000 		.4byte	.LVL176
 5845 0ade 0100     		.2byte	0x1
 5846 0ae0 54       		.byte	0x54
 5847 0ae1 00000000 		.4byte	0
 5848 0ae5 00000000 		.4byte	0
 5849              		.section	.debug_aranges,"",%progbits
 5850 0000 AC000000 		.4byte	0xac
 5851 0004 0200     		.2byte	0x2
 5852 0006 00000000 		.4byte	.Ldebug_info0
 5853 000a 04       		.byte	0x4
 5854 000b 00       		.byte	0
 5855 000c 0000     		.2byte	0
 5856 000e 0000     		.2byte	0
 5857 0010 00000000 		.4byte	.LFB0
 5858 0014 20000000 		.4byte	.LFE0-.LFB0
 5859 0018 00000000 		.4byte	.LFB1
 5860 001c 08000000 		.4byte	.LFE1-.LFB1
 5861 0020 00000000 		.4byte	.LFB2
 5862 0024 08000000 		.4byte	.LFE2-.LFB2
 5863 0028 00000000 		.4byte	.LFB3
 5864 002c 08000000 		.4byte	.LFE3-.LFB3
 5865 0030 00000000 		.4byte	.LFB4
 5866 0034 20000000 		.4byte	.LFE4-.LFB4
 5867 0038 00000000 		.4byte	.LFB5
 5868 003c 0C000000 		.4byte	.LFE5-.LFB5
 5869 0040 00000000 		.4byte	.LFB6
 5870 0044 78000000 		.4byte	.LFE6-.LFB6
 5871 0048 00000000 		.4byte	.LFB7
 5872 004c 78000000 		.4byte	.LFE7-.LFB7
 5873 0050 00000000 		.4byte	.LFB9
 5874 0054 2C000000 		.4byte	.LFE9-.LFB9
 5875 0058 00000000 		.4byte	.LFB8
 5876 005c 9A000000 		.4byte	.LFE8-.LFB8
 5877 0060 00000000 		.4byte	.LFB10
 5878 0064 2E000000 		.4byte	.LFE10-.LFB10
 5879 0068 00000000 		.4byte	.LFB11
 5880 006c 5A000000 		.4byte	.LFE11-.LFB11
 5881 0070 00000000 		.4byte	.LFB12
 5882 0074 5A000000 		.4byte	.LFE12-.LFB12
 5883 0078 00000000 		.4byte	.LFB13
 5884 007c 52000000 		.4byte	.LFE13-.LFB13
 5885 0080 00000000 		.4byte	.LFB14
 5886 0084 42000000 		.4byte	.LFE14-.LFB14
 5887 0088 00000000 		.4byte	.LFB15
 5888 008c 9C000000 		.4byte	.LFE15-.LFB15
 5889 0090 00000000 		.4byte	.LFB16
 5890 0094 0C000000 		.4byte	.LFE16-.LFB16
 5891 0098 00000000 		.4byte	.LFB17
 5892 009c 58000000 		.4byte	.LFE17-.LFB17
 5893 00a0 00000000 		.4byte	.LFB18
 5894 00a4 3C000000 		.4byte	.LFE18-.LFB18
 5895 00a8 00000000 		.4byte	0
 5896 00ac 00000000 		.4byte	0
ARM GAS  C:\Users\GYULAI~1\AppData\Local\Temp\ccjFV3Tn.s 			page 111


 5897              		.section	.debug_ranges,"",%progbits
 5898              	.Ldebug_ranges0:
 5899 0000 10000000 		.4byte	.LBB7
 5900 0004 44000000 		.4byte	.LBE7
 5901 0008 46000000 		.4byte	.LBB9
 5902 000c 4A000000 		.4byte	.LBE9
 5903 0010 00000000 		.4byte	0
 5904 0014 00000000 		.4byte	0
 5905 0018 10000000 		.4byte	.LBB11
 5906 001c 44000000 		.4byte	.LBE11
 5907 0020 46000000 		.4byte	.LBB13
 5908 0024 4A000000 		.4byte	.LBE13
 5909 0028 00000000 		.4byte	0
 5910 002c 00000000 		.4byte	0
 5911 0030 14000000 		.4byte	.LBB15
 5912 0034 3C000000 		.4byte	.LBE15
 5913 0038 3E000000 		.4byte	.LBB16
 5914 003c 42000000 		.4byte	.LBE16
 5915 0040 00000000 		.4byte	0
 5916 0044 00000000 		.4byte	0
 5917 0048 14000000 		.4byte	.LBB18
 5918 004c 2C000000 		.4byte	.LBE18
 5919 0050 2E000000 		.4byte	.LBB19
 5920 0054 32000000 		.4byte	.LBE19
 5921 0058 00000000 		.4byte	0
 5922 005c 00000000 		.4byte	0
 5923 0060 00000000 		.4byte	.LFB0
 5924 0064 20000000 		.4byte	.LFE0
 5925 0068 00000000 		.4byte	.LFB1
 5926 006c 08000000 		.4byte	.LFE1
 5927 0070 00000000 		.4byte	.LFB2
 5928 0074 08000000 		.4byte	.LFE2
 5929 0078 00000000 		.4byte	.LFB3
 5930 007c 08000000 		.4byte	.LFE3
 5931 0080 00000000 		.4byte	.LFB4
 5932 0084 20000000 		.4byte	.LFE4
 5933 0088 00000000 		.4byte	.LFB5
 5934 008c 0C000000 		.4byte	.LFE5
 5935 0090 00000000 		.4byte	.LFB6
 5936 0094 78000000 		.4byte	.LFE6
 5937 0098 00000000 		.4byte	.LFB7
 5938 009c 78000000 		.4byte	.LFE7
 5939 00a0 00000000 		.4byte	.LFB9
 5940 00a4 2C000000 		.4byte	.LFE9
 5941 00a8 00000000 		.4byte	.LFB8
 5942 00ac 9A000000 		.4byte	.LFE8
 5943 00b0 00000000 		.4byte	.LFB10
 5944 00b4 2E000000 		.4byte	.LFE10
 5945 00b8 00000000 		.4byte	.LFB11
 5946 00bc 5A000000 		.4byte	.LFE11
 5947 00c0 00000000 		.4byte	.LFB12
 5948 00c4 5A000000 		.4byte	.LFE12
 5949 00c8 00000000 		.4byte	.LFB13
 5950 00cc 52000000 		.4byte	.LFE13
 5951 00d0 00000000 		.4byte	.LFB14
 5952 00d4 42000000 		.4byte	.LFE14
 5953 00d8 00000000 		.4byte	.LFB15
ARM GAS  C:\Users\GYULAI~1\AppData\Local\Temp\ccjFV3Tn.s 			page 112


 5954 00dc 9C000000 		.4byte	.LFE15
 5955 00e0 00000000 		.4byte	.LFB16
 5956 00e4 0C000000 		.4byte	.LFE16
 5957 00e8 00000000 		.4byte	.LFB17
 5958 00ec 58000000 		.4byte	.LFE17
 5959 00f0 00000000 		.4byte	.LFB18
 5960 00f4 3C000000 		.4byte	.LFE18
 5961 00f8 00000000 		.4byte	0
 5962 00fc 00000000 		.4byte	0
 5963              		.section	.debug_line,"",%progbits
 5964              	.Ldebug_line0:
 5965 0000 25040000 		.section	.debug_str,"MS",%progbits,1
 5965      02009001 
 5965      00000201 
 5965      FB0E0D00 
 5965      01010101 
 5966              	.LASF47:
 5967 0000 72686561 		.ascii	"rhea_gfx_DrawLine\000"
 5967      5F676678 
 5967      5F447261 
 5967      774C696E 
 5967      6500
 5968              	.LASF55:
 5969 0012 72686561 		.ascii	"rhea_gfx_drawFilledRectangle\000"
 5969      5F676678 
 5969      5F647261 
 5969      7746696C 
 5969      6C656452 
 5970              	.LASF40:
 5971 002f 72686561 		.ascii	"rhea_gfx_SetFont\000"
 5971      5F676678 
 5971      5F536574 
 5971      466F6E74 
 5971      00
 5972              	.LASF45:
 5973 0040 72686561 		.ascii	"rhea_gfx_DrawLineHigh\000"
 5973      5F676678 
 5973      5F447261 
 5973      774C696E 
 5973      65486967 
 5974              	.LASF81:
 5975 0056 72686561 		.ascii	"rhea\\gfx\\gfx.c\000"
 5975      5C676678 
 5975      5C676678 
 5975      2E6300
 5976              	.LASF5:
 5977 0065 5F5F7569 		.ascii	"__uint8_t\000"
 5977      6E74385F 
 5977      7400
 5978              	.LASF57:
 5979 006f 73796D62 		.ascii	"symbolID\000"
 5979      6F6C4944 
 5979      00
 5980              	.LASF25:
 5981 0078 70616464 		.ascii	"paddingHorizontal\000"
 5981      696E6748 
 5981      6F72697A 
ARM GAS  C:\Users\GYULAI~1\AppData\Local\Temp\ccjFV3Tn.s 			page 113


 5981      6F6E7461 
 5981      6C00
 5982              	.LASF46:
 5983 008a 72686561 		.ascii	"rhea_gfx_DrawVerticalLine\000"
 5983      5F676678 
 5983      5F447261 
 5983      77566572 
 5983      74696361 
 5984              	.LASF13:
 5985 00a4 6C6F6E67 		.ascii	"long long unsigned int\000"
 5985      206C6F6E 
 5985      6720756E 
 5985      7369676E 
 5985      65642069 
 5986              	.LASF30:
 5987 00bb 666F6E74 		.ascii	"fontData\000"
 5987      44617461 
 5987      00
 5988              	.LASF19:
 5989 00c4 696E7431 		.ascii	"int16_t\000"
 5989      365F7400 
 5990              	.LASF1:
 5991 00cc 6C6F6E67 		.ascii	"long long int\000"
 5991      206C6F6E 
 5991      6720696E 
 5991      7400
 5992              	.LASF3:
 5993 00da 7369676E 		.ascii	"signed char\000"
 5993      65642063 
 5993      68617200 
 5994              	.LASF31:
 5995 00e6 666F6E74 		.ascii	"fontHeight\000"
 5995      48656967 
 5995      687400
 5996              	.LASF58:
 5997 00f1 73796D62 		.ascii	"symbol\000"
 5997      6F6C00
 5998              	.LASF69:
 5999 00f8 636F6465 		.ascii	"codefont_8x8_data\000"
 5999      666F6E74 
 5999      5F387838 
 5999      5F646174 
 5999      6100
 6000              	.LASF10:
 6001 010a 6C6F6E67 		.ascii	"long int\000"
 6001      20696E74 
 6001      00
 6002              	.LASF36:
 6003 0113 72686561 		.ascii	"rhea_gfx_Initialize\000"
 6003      5F676678 
 6003      5F496E69 
 6003      7469616C 
 6003      697A6500 
 6004              	.LASF20:
 6005 0127 75696E74 		.ascii	"uint16_t\000"
 6005      31365F74 
 6005      00
ARM GAS  C:\Users\GYULAI~1\AppData\Local\Temp\ccjFV3Tn.s 			page 114


 6006              	.LASF16:
 6007 0130 646F7562 		.ascii	"double\000"
 6007      6C6500
 6008              	.LASF53:
 6009 0137 72686561 		.ascii	"rhea_gfx_drawFilledCircle\000"
 6009      5F676678 
 6009      5F647261 
 6009      7746696C 
 6009      6C656443 
 6010              	.LASF60:
 6011 0151 6C696D69 		.ascii	"limitVertical\000"
 6011      74566572 
 6011      74696361 
 6011      6C00
 6012              	.LASF11:
 6013 015f 5F5F7569 		.ascii	"__uint32_t\000"
 6013      6E743332 
 6013      5F7400
 6014              	.LASF67:
 6015 016a 72686561 		.ascii	"rhea_gfx_cursorX\000"
 6015      5F676678 
 6015      5F637572 
 6015      736F7258 
 6015      00
 6016              	.LASF68:
 6017 017b 72686561 		.ascii	"rhea_gfx_cursorY\000"
 6017      5F676678 
 6017      5F637572 
 6017      736F7259 
 6017      00
 6018              	.LASF41:
 6019 018c 72686561 		.ascii	"rhea_gfx_DrawPixel\000"
 6019      5F676678 
 6019      5F447261 
 6019      77506978 
 6019      656C00
 6020              	.LASF6:
 6021 019f 5F5F696E 		.ascii	"__int16_t\000"
 6021      7431365F 
 6021      7400
 6022              	.LASF39:
 6023 01a9 72686561 		.ascii	"rhea_gfx_Refresh\000"
 6023      5F676678 
 6023      5F526566 
 6023      72657368 
 6023      00
 6024              	.LASF38:
 6025 01ba 72686561 		.ascii	"rhea_gfx_Clear\000"
 6025      5F676678 
 6025      5F436C65 
 6025      617200
 6026              	.LASF50:
 6027 01c9 72686561 		.ascii	"rhea_gfx_drawCircle\000"
 6027      5F676678 
 6027      5F647261 
 6027      77436972 
 6027      636C6500 
ARM GAS  C:\Users\GYULAI~1\AppData\Local\Temp\ccjFV3Tn.s 			page 115


 6028              	.LASF0:
 6029 01dd 756E7369 		.ascii	"unsigned int\000"
 6029      676E6564 
 6029      20696E74 
 6029      00
 6030              	.LASF63:
 6031 01ea 72686561 		.ascii	"rhea_gfx_setCursor\000"
 6031      5F676678 
 6031      5F736574 
 6031      43757273 
 6031      6F7200
 6032              	.LASF73:
 6033 01fd 72686561 		.ascii	"rhea_gfx_clear_impl\000"
 6033      5F676678 
 6033      5F636C65 
 6033      61725F69 
 6033      6D706C00 
 6034              	.LASF12:
 6035 0211 6C6F6E67 		.ascii	"long unsigned int\000"
 6035      20756E73 
 6035      69676E65 
 6035      6420696E 
 6035      7400
 6036              	.LASF23:
 6037 0223 77696474 		.ascii	"width\000"
 6037      6800
 6038              	.LASF9:
 6039 0229 73686F72 		.ascii	"short unsigned int\000"
 6039      7420756E 
 6039      7369676E 
 6039      65642069 
 6039      6E7400
 6040              	.LASF51:
 6041 023c 72616469 		.ascii	"radius\000"
 6041      757300
 6042              	.LASF61:
 6043 0243 62797465 		.ascii	"byteIndex\000"
 6043      496E6465 
 6043      7800
 6044              	.LASF34:
 6045 024d 72686561 		.ascii	"rhea_gfx_symbol_id\000"
 6045      5F676678 
 6045      5F73796D 
 6045      626F6C5F 
 6045      696400
 6046              	.LASF79:
 6047 0260 72686561 		.ascii	"rhea_gfx_PrintSymbol\000"
 6047      5F676678 
 6047      5F507269 
 6047      6E745379 
 6047      6D626F6C 
 6048              	.LASF14:
 6049 0275 73697A65 		.ascii	"sizetype\000"
 6049      74797065 
 6049      00
 6050              	.LASF37:
 6051 027e 72686561 		.ascii	"rhea_gfx_Reset\000"
ARM GAS  C:\Users\GYULAI~1\AppData\Local\Temp\ccjFV3Tn.s 			page 116


 6051      5F676678 
 6051      5F526573 
 6051      657400
 6052              	.LASF2:
 6053 028d 6C6F6E67 		.ascii	"long double\000"
 6053      20646F75 
 6053      626C6500 
 6054              	.LASF72:
 6055 0299 72686561 		.ascii	"rhea_gfx_reset_impl\000"
 6055      5F676678 
 6055      5F726573 
 6055      65745F69 
 6055      6D706C00 
 6056              	.LASF35:
 6057 02ad 72686561 		.ascii	"rhea_gfx_coordinate\000"
 6057      5F676678 
 6057      5F636F6F 
 6057      7264696E 
 6057      61746500 
 6058              	.LASF74:
 6059 02c1 72686561 		.ascii	"rhea_gfx_refresh_impl\000"
 6059      5F676678 
 6059      5F726566 
 6059      72657368 
 6059      5F696D70 
 6060              	.LASF17:
 6061 02d7 666C6F61 		.ascii	"float\000"
 6061      7400
 6062              	.LASF59:
 6063 02dd 6C696D69 		.ascii	"limitHorizontal\000"
 6063      74486F72 
 6063      697A6F6E 
 6063      74616C00 
 6064              	.LASF76:
 6065 02ed 72686561 		.ascii	"rhea_gfx_DrawHorizontalLine\000"
 6065      5F676678 
 6065      5F447261 
 6065      77486F72 
 6065      697A6F6E 
 6066              	.LASF29:
 6067 0309 666F6E74 		.ascii	"fontDescriptors\000"
 6067      44657363 
 6067      72697074 
 6067      6F727300 
 6068              	.LASF4:
 6069 0319 756E7369 		.ascii	"unsigned char\000"
 6069      676E6564 
 6069      20636861 
 6069      7200
 6070              	.LASF66:
 6071 0327 72686561 		.ascii	"rhea_gfx_localFont\000"
 6071      5F676678 
 6071      5F6C6F63 
 6071      616C466F 
 6071      6E7400
 6072              	.LASF7:
 6073 033a 73686F72 		.ascii	"short int\000"
ARM GAS  C:\Users\GYULAI~1\AppData\Local\Temp\ccjFV3Tn.s 			page 117


 6073      7420696E 
 6073      7400
 6074              	.LASF26:
 6075 0344 70616464 		.ascii	"paddingVertical\000"
 6075      696E6756 
 6075      65727469 
 6075      63616C00 
 6076              	.LASF80:
 6077 0354 474E5520 		.ascii	"GNU C11 5.4.1 20160609 (release) [ARM/embedded-5-br"
 6077      43313120 
 6077      352E342E 
 6077      31203230 
 6077      31363036 
 6078 0387 616E6368 		.ascii	"anch revision 237715] -mcpu=cortex-m3 -mthumb -g -O"
 6078      20726576 
 6078      6973696F 
 6078      6E203233 
 6078      37373135 
 6079 03ba 67202D66 		.ascii	"g -ffunction-sections -ffat-lto-objects\000"
 6079      66756E63 
 6079      74696F6E 
 6079      2D736563 
 6079      74696F6E 
 6080              	.LASF75:
 6081 03e2 72686561 		.ascii	"rhea_gfx_writePixel_impl\000"
 6081      5F676678 
 6081      5F777269 
 6081      74655069 
 6081      78656C5F 
 6082              	.LASF65:
 6083 03fb 72686561 		.ascii	"rhea_gfx_print\000"
 6083      5F676678 
 6083      5F707269 
 6083      6E7400
 6084              	.LASF82:
 6085 040a 453A5C43 		.ascii	"E:\\Cypress\\Projects\\RheaWorkspace\\Rhea.cydsn\000"
 6085      79707265 
 6085      73735C50 
 6085      726F6A65 
 6085      6374735C 
 6086              	.LASF21:
 6087 0437 75696E74 		.ascii	"uint32_t\000"
 6087      33325F74 
 6087      00
 6088              	.LASF71:
 6089 0440 72686561 		.ascii	"rhea_gfx_initialize_impl\000"
 6089      5F676678 
 6089      5F696E69 
 6089      7469616C 
 6089      697A655F 
 6090              	.LASF32:
 6091 0459 72686561 		.ascii	"rhea_gfx_size_t\000"
 6091      5F676678 
 6091      5F73697A 
 6091      655F7400 
 6092              	.LASF49:
 6093 0469 6C656E67 		.ascii	"length\000"
ARM GAS  C:\Users\GYULAI~1\AppData\Local\Temp\ccjFV3Tn.s 			page 118


 6093      746800
 6094              	.LASF43:
 6095 0470 636F6C6F 		.ascii	"color\000"
 6095      7200
 6096              	.LASF15:
 6097 0476 63686172 		.ascii	"char\000"
 6097      00
 6098              	.LASF48:
 6099 047b 72686561 		.ascii	"rhea_gfx_drawHorizontalLine\000"
 6099      5F676678 
 6099      5F647261 
 6099      77486F72 
 6099      697A6F6E 
 6100              	.LASF8:
 6101 0497 5F5F7569 		.ascii	"__uint16_t\000"
 6101      6E743136 
 6101      5F7400
 6102              	.LASF52:
 6103 04a2 64697374 		.ascii	"distance\000"
 6103      616E6365 
 6103      00
 6104              	.LASF22:
 6105 04ab 6F666673 		.ascii	"offset\000"
 6105      657400
 6106              	.LASF70:
 6107 04b2 636F6465 		.ascii	"codefont_8x8_descriptors\000"
 6107      666F6E74 
 6107      5F387838 
 6107      5F646573 
 6107      63726970 
 6108              	.LASF64:
 6109 04cb 72686561 		.ascii	"rhea_gfx_printSymbol\000"
 6109      5F676678 
 6109      5F707269 
 6109      6E745379 
 6109      6D626F6C 
 6110              	.LASF44:
 6111 04e0 72686561 		.ascii	"rhea_gfx_DrawLineLow\000"
 6111      5F676678 
 6111      5F447261 
 6111      774C696E 
 6111      654C6F77 
 6112              	.LASF27:
 6113 04f5 72686561 		.ascii	"rhea_gfx_symbol\000"
 6113      5F676678 
 6113      5F73796D 
 6113      626F6C00 
 6114              	.LASF42:
 6115 0505 666F6E74 		.ascii	"font\000"
 6115      00
 6116              	.LASF54:
 6117 050a 72686561 		.ascii	"rhea_gfx_drawRectangle\000"
 6117      5F676678 
 6117      5F647261 
 6117      77526563 
 6117      74616E67 
 6118              	.LASF18:
ARM GAS  C:\Users\GYULAI~1\AppData\Local\Temp\ccjFV3Tn.s 			page 119


 6119 0521 75696E74 		.ascii	"uint8_t\000"
 6119      385F7400 
 6120              	.LASF28:
 6121 0529 72686561 		.ascii	"rhea_gfx_font\000"
 6121      5F676678 
 6121      5F666F6E 
 6121      7400
 6122              	.LASF77:
 6123 0537 73717274 		.ascii	"sqrt\000"
 6123      00
 6124              	.LASF62:
 6125 053c 62697449 		.ascii	"bitIndex\000"
 6125      6E646578 
 6125      00
 6126              	.LASF24:
 6127 0545 68656967 		.ascii	"height\000"
 6127      687400
 6128              	.LASF33:
 6129 054c 72686561 		.ascii	"rhea_gfx_color\000"
 6129      5F676678 
 6129      5F636F6C 
 6129      6F7200
 6130              	.LASF56:
 6131 055b 72686561 		.ascii	"rhea_gfx_drawSymbol\000"
 6131      5F676678 
 6131      5F647261 
 6131      7753796D 
 6131      626F6C00 
 6132              	.LASF78:
 6133 056f 72686561 		.ascii	"rhea_gfx_DrawSymbol\000"
 6133      5F676678 
 6133      5F447261 
 6133      7753796D 
 6133      626F6C00 
 6134              		.ident	"GCC: (GNU Tools for ARM Embedded Processors) 5.4.1 20160609 (release) [ARM/embedded-5-bran
