ARM GAS  C:\Users\GYULAI~1\AppData\Local\Temp\ccilvZpi.s 			page 1


   1              		.syntax unified
   2              		.cpu cortex-m3
   3              		.fpu softvfp
   4              		.eabi_attribute 20, 1
   5              		.eabi_attribute 21, 1
   6              		.eabi_attribute 23, 3
   7              		.eabi_attribute 24, 1
   8              		.eabi_attribute 25, 1
   9              		.eabi_attribute 26, 1
  10              		.eabi_attribute 30, 6
  11              		.eabi_attribute 34, 1
  12              		.eabi_attribute 18, 4
  13              		.thumb
  14              		.syntax unified
  15              		.file	"gfx.c"
  16              		.text
  17              	.Ltext0:
  18              		.cfi_sections	.debug_frame
  19              		.global	codefont_8x8_data
  20              		.data
  21              		.align	2
  22              		.type	codefont_8x8_data, %object
  23              		.size	codefont_8x8_data, 800
  24              	codefont_8x8_data:
  25 0000 00       		.byte	0
  26 0001 00       		.byte	0
  27 0002 00       		.byte	0
  28 0003 00       		.byte	0
  29 0004 00       		.byte	0
  30 0005 00       		.byte	0
  31 0006 00       		.byte	0
  32 0007 00       		.byte	0
  33 0008 18       		.byte	24
  34 0009 3C       		.byte	60
  35 000a 3C       		.byte	60
  36 000b 3C       		.byte	60
  37 000c 18       		.byte	24
  38 000d 00       		.byte	0
  39 000e 18       		.byte	24
  40 000f 18       		.byte	24
  41 0010 6C       		.byte	108
  42 0011 48       		.byte	72
  43 0012 00       		.byte	0
  44 0013 00       		.byte	0
  45 0014 00       		.byte	0
  46 0015 00       		.byte	0
  47 0016 00       		.byte	0
  48 0017 00       		.byte	0
  49 0018 66       		.byte	102
  50 0019 66       		.byte	102
  51 001a FF       		.byte	-1
  52 001b 66       		.byte	102
  53 001c 66       		.byte	102
  54 001d FF       		.byte	-1
  55 001e 66       		.byte	102
  56 001f 66       		.byte	102
  57 0020 28       		.byte	40
ARM GAS  C:\Users\GYULAI~1\AppData\Local\Temp\ccilvZpi.s 			page 2


  58 0021 7C       		.byte	124
  59 0022 AA       		.byte	-86
  60 0023 7C       		.byte	124
  61 0024 2A       		.byte	42
  62 0025 AA       		.byte	-86
  63 0026 7C       		.byte	124
  64 0027 28       		.byte	40
  65 0028 E1       		.byte	-31
  66 0029 A2       		.byte	-94
  67 002a E4       		.byte	-28
  68 002b 08       		.byte	8
  69 002c 10       		.byte	16
  70 002d 27       		.byte	39
  71 002e 45       		.byte	69
  72 002f 87       		.byte	-121
  73 0030 00       		.byte	0
  74 0031 30       		.byte	48
  75 0032 48       		.byte	72
  76 0033 30       		.byte	48
  77 0034 58       		.byte	88
  78 0035 8D       		.byte	-115
  79 0036 86       		.byte	-122
  80 0037 7B       		.byte	123
  81 0038 18       		.byte	24
  82 0039 10       		.byte	16
  83 003a 00       		.byte	0
  84 003b 00       		.byte	0
  85 003c 00       		.byte	0
  86 003d 00       		.byte	0
  87 003e 00       		.byte	0
  88 003f 00       		.byte	0
  89 0040 08       		.byte	8
  90 0041 10       		.byte	16
  91 0042 20       		.byte	32
  92 0043 20       		.byte	32
  93 0044 20       		.byte	32
  94 0045 20       		.byte	32
  95 0046 10       		.byte	16
  96 0047 08       		.byte	8
  97 0048 10       		.byte	16
  98 0049 08       		.byte	8
  99 004a 04       		.byte	4
 100 004b 04       		.byte	4
 101 004c 04       		.byte	4
 102 004d 04       		.byte	4
 103 004e 08       		.byte	8
 104 004f 10       		.byte	16
 105 0050 99       		.byte	-103
 106 0051 DB       		.byte	-37
 107 0052 3C       		.byte	60
 108 0053 FF       		.byte	-1
 109 0054 FF       		.byte	-1
 110 0055 3C       		.byte	60
 111 0056 DB       		.byte	-37
 112 0057 99       		.byte	-103
 113 0058 00       		.byte	0
 114 0059 18       		.byte	24
ARM GAS  C:\Users\GYULAI~1\AppData\Local\Temp\ccilvZpi.s 			page 3


 115 005a 18       		.byte	24
 116 005b 7E       		.byte	126
 117 005c 7E       		.byte	126
 118 005d 18       		.byte	24
 119 005e 18       		.byte	24
 120 005f 00       		.byte	0
 121 0060 00       		.byte	0
 122 0061 00       		.byte	0
 123 0062 00       		.byte	0
 124 0063 00       		.byte	0
 125 0064 00       		.byte	0
 126 0065 18       		.byte	24
 127 0066 08       		.byte	8
 128 0067 10       		.byte	16
 129 0068 00       		.byte	0
 130 0069 00       		.byte	0
 131 006a 00       		.byte	0
 132 006b 7E       		.byte	126
 133 006c 7E       		.byte	126
 134 006d 00       		.byte	0
 135 006e 00       		.byte	0
 136 006f 00       		.byte	0
 137 0070 00       		.byte	0
 138 0071 00       		.byte	0
 139 0072 00       		.byte	0
 140 0073 00       		.byte	0
 141 0074 00       		.byte	0
 142 0075 00       		.byte	0
 143 0076 18       		.byte	24
 144 0077 18       		.byte	24
 145 0078 01       		.byte	1
 146 0079 02       		.byte	2
 147 007a 04       		.byte	4
 148 007b 08       		.byte	8
 149 007c 10       		.byte	16
 150 007d 20       		.byte	32
 151 007e 40       		.byte	64
 152 007f 80       		.byte	-128
 153 0080 3C       		.byte	60
 154 0081 42       		.byte	66
 155 0082 85       		.byte	-123
 156 0083 89       		.byte	-119
 157 0084 91       		.byte	-111
 158 0085 A1       		.byte	-95
 159 0086 42       		.byte	66
 160 0087 3C       		.byte	60
 161 0088 30       		.byte	48
 162 0089 50       		.byte	80
 163 008a 10       		.byte	16
 164 008b 10       		.byte	16
 165 008c 10       		.byte	16
 166 008d 10       		.byte	16
 167 008e 10       		.byte	16
 168 008f FF       		.byte	-1
 169 0090 7E       		.byte	126
 170 0091 81       		.byte	-127
 171 0092 01       		.byte	1
ARM GAS  C:\Users\GYULAI~1\AppData\Local\Temp\ccilvZpi.s 			page 4


 172 0093 06       		.byte	6
 173 0094 18       		.byte	24
 174 0095 61       		.byte	97
 175 0096 81       		.byte	-127
 176 0097 FF       		.byte	-1
 177 0098 7E       		.byte	126
 178 0099 81       		.byte	-127
 179 009a 81       		.byte	-127
 180 009b 0E       		.byte	14
 181 009c 01       		.byte	1
 182 009d 81       		.byte	-127
 183 009e 81       		.byte	-127
 184 009f 7E       		.byte	126
 185 00a0 06       		.byte	6
 186 00a1 0A       		.byte	10
 187 00a2 12       		.byte	18
 188 00a3 22       		.byte	34
 189 00a4 42       		.byte	66
 190 00a5 FF       		.byte	-1
 191 00a6 02       		.byte	2
 192 00a7 07       		.byte	7
 193 00a8 FF       		.byte	-1
 194 00a9 81       		.byte	-127
 195 00aa 80       		.byte	-128
 196 00ab FE       		.byte	-2
 197 00ac 01       		.byte	1
 198 00ad 81       		.byte	-127
 199 00ae 81       		.byte	-127
 200 00af 7E       		.byte	126
 201 00b0 7E       		.byte	126
 202 00b1 81       		.byte	-127
 203 00b2 80       		.byte	-128
 204 00b3 FE       		.byte	-2
 205 00b4 81       		.byte	-127
 206 00b5 81       		.byte	-127
 207 00b6 81       		.byte	-127
 208 00b7 7E       		.byte	126
 209 00b8 FF       		.byte	-1
 210 00b9 81       		.byte	-127
 211 00ba 02       		.byte	2
 212 00bb 04       		.byte	4
 213 00bc 08       		.byte	8
 214 00bd 10       		.byte	16
 215 00be 10       		.byte	16
 216 00bf 38       		.byte	56
 217 00c0 7E       		.byte	126
 218 00c1 81       		.byte	-127
 219 00c2 81       		.byte	-127
 220 00c3 7E       		.byte	126
 221 00c4 81       		.byte	-127
 222 00c5 81       		.byte	-127
 223 00c6 81       		.byte	-127
 224 00c7 7E       		.byte	126
 225 00c8 7E       		.byte	126
 226 00c9 81       		.byte	-127
 227 00ca 81       		.byte	-127
 228 00cb 81       		.byte	-127
ARM GAS  C:\Users\GYULAI~1\AppData\Local\Temp\ccilvZpi.s 			page 5


 229 00cc 7F       		.byte	127
 230 00cd 01       		.byte	1
 231 00ce 81       		.byte	-127
 232 00cf 7E       		.byte	126
 233 00d0 00       		.byte	0
 234 00d1 00       		.byte	0
 235 00d2 00       		.byte	0
 236 00d3 18       		.byte	24
 237 00d4 18       		.byte	24
 238 00d5 00       		.byte	0
 239 00d6 18       		.byte	24
 240 00d7 18       		.byte	24
 241 00d8 00       		.byte	0
 242 00d9 00       		.byte	0
 243 00da 18       		.byte	24
 244 00db 18       		.byte	24
 245 00dc 00       		.byte	0
 246 00dd 18       		.byte	24
 247 00de 08       		.byte	8
 248 00df 10       		.byte	16
 249 00e0 00       		.byte	0
 250 00e1 0C       		.byte	12
 251 00e2 18       		.byte	24
 252 00e3 30       		.byte	48
 253 00e4 60       		.byte	96
 254 00e5 30       		.byte	48
 255 00e6 18       		.byte	24
 256 00e7 0C       		.byte	12
 257 00e8 00       		.byte	0
 258 00e9 00       		.byte	0
 259 00ea 7E       		.byte	126
 260 00eb 7E       		.byte	126
 261 00ec 00       		.byte	0
 262 00ed 7E       		.byte	126
 263 00ee 7E       		.byte	126
 264 00ef 00       		.byte	0
 265 00f0 00       		.byte	0
 266 00f1 60       		.byte	96
 267 00f2 30       		.byte	48
 268 00f3 18       		.byte	24
 269 00f4 0C       		.byte	12
 270 00f5 18       		.byte	24
 271 00f6 30       		.byte	48
 272 00f7 60       		.byte	96
 273 00f8 3E       		.byte	62
 274 00f9 41       		.byte	65
 275 00fa 41       		.byte	65
 276 00fb 02       		.byte	2
 277 00fc 1C       		.byte	28
 278 00fd 00       		.byte	0
 279 00fe 18       		.byte	24
 280 00ff 18       		.byte	24
 281 0100 3C       		.byte	60
 282 0101 42       		.byte	66
 283 0102 9D       		.byte	-99
 284 0103 85       		.byte	-123
 285 0104 BD       		.byte	-67
ARM GAS  C:\Users\GYULAI~1\AppData\Local\Temp\ccilvZpi.s 			page 6


 286 0105 45       		.byte	69
 287 0106 45       		.byte	69
 288 0107 3A       		.byte	58
 289 0108 18       		.byte	24
 290 0109 24       		.byte	36
 291 010a 42       		.byte	66
 292 010b 42       		.byte	66
 293 010c 7E       		.byte	126
 294 010d 42       		.byte	66
 295 010e 42       		.byte	66
 296 010f E7       		.byte	-25
 297 0110 FC       		.byte	-4
 298 0111 42       		.byte	66
 299 0112 44       		.byte	68
 300 0113 7E       		.byte	126
 301 0114 41       		.byte	65
 302 0115 41       		.byte	65
 303 0116 41       		.byte	65
 304 0117 FE       		.byte	-2
 305 0118 3D       		.byte	61
 306 0119 43       		.byte	67
 307 011a 81       		.byte	-127
 308 011b 80       		.byte	-128
 309 011c 80       		.byte	-128
 310 011d 81       		.byte	-127
 311 011e 43       		.byte	67
 312 011f 3D       		.byte	61
 313 0120 FC       		.byte	-4
 314 0121 42       		.byte	66
 315 0122 41       		.byte	65
 316 0123 41       		.byte	65
 317 0124 41       		.byte	65
 318 0125 41       		.byte	65
 319 0126 42       		.byte	66
 320 0127 FC       		.byte	-4
 321 0128 FF       		.byte	-1
 322 0129 41       		.byte	65
 323 012a 40       		.byte	64
 324 012b 78       		.byte	120
 325 012c 40       		.byte	64
 326 012d 40       		.byte	64
 327 012e 41       		.byte	65
 328 012f FF       		.byte	-1
 329 0130 FF       		.byte	-1
 330 0131 41       		.byte	65
 331 0132 41       		.byte	65
 332 0133 48       		.byte	72
 333 0134 78       		.byte	120
 334 0135 48       		.byte	72
 335 0136 40       		.byte	64
 336 0137 E0       		.byte	-32
 337 0138 3F       		.byte	63
 338 0139 41       		.byte	65
 339 013a 80       		.byte	-128
 340 013b 9F       		.byte	-97
 341 013c 91       		.byte	-111
 342 013d 81       		.byte	-127
ARM GAS  C:\Users\GYULAI~1\AppData\Local\Temp\ccilvZpi.s 			page 7


 343 013e 41       		.byte	65
 344 013f 3E       		.byte	62
 345 0140 E7       		.byte	-25
 346 0141 42       		.byte	66
 347 0142 42       		.byte	66
 348 0143 7E       		.byte	126
 349 0144 42       		.byte	66
 350 0145 42       		.byte	66
 351 0146 42       		.byte	66
 352 0147 E7       		.byte	-25
 353 0148 FE       		.byte	-2
 354 0149 10       		.byte	16
 355 014a 10       		.byte	16
 356 014b 10       		.byte	16
 357 014c 10       		.byte	16
 358 014d 10       		.byte	16
 359 014e 10       		.byte	16
 360 014f FE       		.byte	-2
 361 0150 3F       		.byte	63
 362 0151 04       		.byte	4
 363 0152 04       		.byte	4
 364 0153 04       		.byte	4
 365 0154 C4       		.byte	-60
 366 0155 84       		.byte	-124
 367 0156 84       		.byte	-124
 368 0157 78       		.byte	120
 369 0158 EF       		.byte	-17
 370 0159 44       		.byte	68
 371 015a 48       		.byte	72
 372 015b 70       		.byte	112
 373 015c 48       		.byte	72
 374 015d 44       		.byte	68
 375 015e 42       		.byte	66
 376 015f E7       		.byte	-25
 377 0160 E0       		.byte	-32
 378 0161 40       		.byte	64
 379 0162 40       		.byte	64
 380 0163 40       		.byte	64
 381 0164 40       		.byte	64
 382 0165 41       		.byte	65
 383 0166 41       		.byte	65
 384 0167 FF       		.byte	-1
 385 0168 C7       		.byte	-57
 386 0169 6A       		.byte	106
 387 016a 52       		.byte	82
 388 016b 52       		.byte	82
 389 016c 42       		.byte	66
 390 016d 42       		.byte	66
 391 016e 42       		.byte	66
 392 016f E7       		.byte	-25
 393 0170 C7       		.byte	-57
 394 0171 62       		.byte	98
 395 0172 52       		.byte	82
 396 0173 4A       		.byte	74
 397 0174 46       		.byte	70
 398 0175 42       		.byte	66
 399 0176 42       		.byte	66
ARM GAS  C:\Users\GYULAI~1\AppData\Local\Temp\ccilvZpi.s 			page 8


 400 0177 E7       		.byte	-25
 401 0178 3C       		.byte	60
 402 0179 42       		.byte	66
 403 017a 81       		.byte	-127
 404 017b 81       		.byte	-127
 405 017c 81       		.byte	-127
 406 017d 81       		.byte	-127
 407 017e 42       		.byte	66
 408 017f 3C       		.byte	60
 409 0180 FE       		.byte	-2
 410 0181 41       		.byte	65
 411 0182 41       		.byte	65
 412 0183 41       		.byte	65
 413 0184 7E       		.byte	126
 414 0185 40       		.byte	64
 415 0186 40       		.byte	64
 416 0187 E0       		.byte	-32
 417 0188 7E       		.byte	126
 418 0189 81       		.byte	-127
 419 018a 81       		.byte	-127
 420 018b 81       		.byte	-127
 421 018c 81       		.byte	-127
 422 018d 91       		.byte	-111
 423 018e 7E       		.byte	126
 424 018f 10       		.byte	16
 425 0190 FE       		.byte	-2
 426 0191 41       		.byte	65
 427 0192 41       		.byte	65
 428 0193 41       		.byte	65
 429 0194 7E       		.byte	126
 430 0195 44       		.byte	68
 431 0196 42       		.byte	66
 432 0197 E7       		.byte	-25
 433 0198 7D       		.byte	125
 434 0199 83       		.byte	-125
 435 019a 81       		.byte	-127
 436 019b 7C       		.byte	124
 437 019c 02       		.byte	2
 438 019d 81       		.byte	-127
 439 019e C1       		.byte	-63
 440 019f BE       		.byte	-66
 441 01a0 FF       		.byte	-1
 442 01a1 89       		.byte	-119
 443 01a2 08       		.byte	8
 444 01a3 08       		.byte	8
 445 01a4 08       		.byte	8
 446 01a5 08       		.byte	8
 447 01a6 08       		.byte	8
 448 01a7 1C       		.byte	28
 449 01a8 E7       		.byte	-25
 450 01a9 42       		.byte	66
 451 01aa 42       		.byte	66
 452 01ab 42       		.byte	66
 453 01ac 42       		.byte	66
 454 01ad 42       		.byte	66
 455 01ae 42       		.byte	66
 456 01af 3C       		.byte	60
ARM GAS  C:\Users\GYULAI~1\AppData\Local\Temp\ccilvZpi.s 			page 9


 457 01b0 E7       		.byte	-25
 458 01b1 42       		.byte	66
 459 01b2 42       		.byte	66
 460 01b3 42       		.byte	66
 461 01b4 22       		.byte	34
 462 01b5 24       		.byte	36
 463 01b6 14       		.byte	20
 464 01b7 08       		.byte	8
 465 01b8 E7       		.byte	-25
 466 01b9 42       		.byte	66
 467 01ba 42       		.byte	66
 468 01bb 42       		.byte	66
 469 01bc 52       		.byte	82
 470 01bd 52       		.byte	82
 471 01be 52       		.byte	82
 472 01bf 2C       		.byte	44
 473 01c0 E7       		.byte	-25
 474 01c1 42       		.byte	66
 475 01c2 24       		.byte	36
 476 01c3 18       		.byte	24
 477 01c4 24       		.byte	36
 478 01c5 24       		.byte	36
 479 01c6 42       		.byte	66
 480 01c7 E7       		.byte	-25
 481 01c8 E7       		.byte	-25
 482 01c9 42       		.byte	66
 483 01ca 24       		.byte	36
 484 01cb 14       		.byte	20
 485 01cc 08       		.byte	8
 486 01cd 08       		.byte	8
 487 01ce 08       		.byte	8
 488 01cf 1C       		.byte	28
 489 01d0 FF       		.byte	-1
 490 01d1 82       		.byte	-126
 491 01d2 84       		.byte	-124
 492 01d3 08       		.byte	8
 493 01d4 10       		.byte	16
 494 01d5 21       		.byte	33
 495 01d6 41       		.byte	65
 496 01d7 FF       		.byte	-1
 497 01d8 1C       		.byte	28
 498 01d9 10       		.byte	16
 499 01da 10       		.byte	16
 500 01db 10       		.byte	16
 501 01dc 10       		.byte	16
 502 01dd 10       		.byte	16
 503 01de 10       		.byte	16
 504 01df 1C       		.byte	28
 505 01e0 80       		.byte	-128
 506 01e1 40       		.byte	64
 507 01e2 20       		.byte	32
 508 01e3 10       		.byte	16
 509 01e4 08       		.byte	8
 510 01e5 04       		.byte	4
 511 01e6 02       		.byte	2
 512 01e7 01       		.byte	1
 513 01e8 38       		.byte	56
ARM GAS  C:\Users\GYULAI~1\AppData\Local\Temp\ccilvZpi.s 			page 10


 514 01e9 08       		.byte	8
 515 01ea 08       		.byte	8
 516 01eb 08       		.byte	8
 517 01ec 08       		.byte	8
 518 01ed 08       		.byte	8
 519 01ee 08       		.byte	8
 520 01ef 38       		.byte	56
 521 01f0 10       		.byte	16
 522 01f1 28       		.byte	40
 523 01f2 44       		.byte	68
 524 01f3 00       		.byte	0
 525 01f4 00       		.byte	0
 526 01f5 00       		.byte	0
 527 01f6 00       		.byte	0
 528 01f7 00       		.byte	0
 529 01f8 00       		.byte	0
 530 01f9 00       		.byte	0
 531 01fa 00       		.byte	0
 532 01fb 00       		.byte	0
 533 01fc 00       		.byte	0
 534 01fd 00       		.byte	0
 535 01fe 00       		.byte	0
 536 01ff FF       		.byte	-1
 537 0200 18       		.byte	24
 538 0201 0C       		.byte	12
 539 0202 00       		.byte	0
 540 0203 00       		.byte	0
 541 0204 00       		.byte	0
 542 0205 00       		.byte	0
 543 0206 00       		.byte	0
 544 0207 00       		.byte	0
 545 0208 00       		.byte	0
 546 0209 00       		.byte	0
 547 020a 7C       		.byte	124
 548 020b 02       		.byte	2
 549 020c 7E       		.byte	126
 550 020d 82       		.byte	-126
 551 020e 82       		.byte	-126
 552 020f 7F       		.byte	127
 553 0210 C0       		.byte	-64
 554 0211 40       		.byte	64
 555 0212 5E       		.byte	94
 556 0213 61       		.byte	97
 557 0214 41       		.byte	65
 558 0215 41       		.byte	65
 559 0216 41       		.byte	65
 560 0217 FE       		.byte	-2
 561 0218 00       		.byte	0
 562 0219 00       		.byte	0
 563 021a 7E       		.byte	126
 564 021b 81       		.byte	-127
 565 021c 80       		.byte	-128
 566 021d 80       		.byte	-128
 567 021e 81       		.byte	-127
 568 021f 7E       		.byte	126
 569 0220 01       		.byte	1
 570 0221 01       		.byte	1
ARM GAS  C:\Users\GYULAI~1\AppData\Local\Temp\ccilvZpi.s 			page 11


 571 0222 7D       		.byte	125
 572 0223 83       		.byte	-125
 573 0224 81       		.byte	-127
 574 0225 81       		.byte	-127
 575 0226 83       		.byte	-125
 576 0227 7D       		.byte	125
 577 0228 00       		.byte	0
 578 0229 00       		.byte	0
 579 022a 7E       		.byte	126
 580 022b 81       		.byte	-127
 581 022c FF       		.byte	-1
 582 022d 80       		.byte	-128
 583 022e 81       		.byte	-127
 584 022f 7E       		.byte	126
 585 0230 1E       		.byte	30
 586 0231 21       		.byte	33
 587 0232 21       		.byte	33
 588 0233 78       		.byte	120
 589 0234 20       		.byte	32
 590 0235 20       		.byte	32
 591 0236 20       		.byte	32
 592 0237 F8       		.byte	-8
 593 0238 03       		.byte	3
 594 0239 7E       		.byte	126
 595 023a 81       		.byte	-127
 596 023b FE       		.byte	-2
 597 023c 40       		.byte	64
 598 023d 7E       		.byte	126
 599 023e 81       		.byte	-127
 600 023f 7E       		.byte	126
 601 0240 E0       		.byte	-32
 602 0241 40       		.byte	64
 603 0242 5C       		.byte	92
 604 0243 62       		.byte	98
 605 0244 42       		.byte	66
 606 0245 42       		.byte	66
 607 0246 42       		.byte	66
 608 0247 E7       		.byte	-25
 609 0248 10       		.byte	16
 610 0249 00       		.byte	0
 611 024a 30       		.byte	48
 612 024b 10       		.byte	16
 613 024c 10       		.byte	16
 614 024d 10       		.byte	16
 615 024e 10       		.byte	16
 616 024f 7C       		.byte	124
 617 0250 02       		.byte	2
 618 0251 00       		.byte	0
 619 0252 0E       		.byte	14
 620 0253 02       		.byte	2
 621 0254 02       		.byte	2
 622 0255 02       		.byte	2
 623 0256 82       		.byte	-126
 624 0257 7C       		.byte	124
 625 0258 E0       		.byte	-32
 626 0259 4E       		.byte	78
 627 025a 44       		.byte	68
ARM GAS  C:\Users\GYULAI~1\AppData\Local\Temp\ccilvZpi.s 			page 12


 628 025b 78       		.byte	120
 629 025c 48       		.byte	72
 630 025d 44       		.byte	68
 631 025e 42       		.byte	66
 632 025f E7       		.byte	-25
 633 0260 18       		.byte	24
 634 0261 08       		.byte	8
 635 0262 08       		.byte	8
 636 0263 08       		.byte	8
 637 0264 08       		.byte	8
 638 0265 08       		.byte	8
 639 0266 08       		.byte	8
 640 0267 7F       		.byte	127
 641 0268 00       		.byte	0
 642 0269 00       		.byte	0
 643 026a B6       		.byte	-74
 644 026b 49       		.byte	73
 645 026c 49       		.byte	73
 646 026d 49       		.byte	73
 647 026e 49       		.byte	73
 648 026f DB       		.byte	-37
 649 0270 00       		.byte	0
 650 0271 00       		.byte	0
 651 0272 DC       		.byte	-36
 652 0273 62       		.byte	98
 653 0274 42       		.byte	66
 654 0275 42       		.byte	66
 655 0276 42       		.byte	66
 656 0277 E7       		.byte	-25
 657 0278 00       		.byte	0
 658 0279 00       		.byte	0
 659 027a 7E       		.byte	126
 660 027b 81       		.byte	-127
 661 027c 81       		.byte	-127
 662 027d 81       		.byte	-127
 663 027e 81       		.byte	-127
 664 027f 7E       		.byte	126
 665 0280 00       		.byte	0
 666 0281 FE       		.byte	-2
 667 0282 41       		.byte	65
 668 0283 41       		.byte	65
 669 0284 41       		.byte	65
 670 0285 7E       		.byte	126
 671 0286 40       		.byte	64
 672 0287 E0       		.byte	-32
 673 0288 00       		.byte	0
 674 0289 7E       		.byte	126
 675 028a 82       		.byte	-126
 676 028b 82       		.byte	-126
 677 028c 82       		.byte	-126
 678 028d 7E       		.byte	126
 679 028e 02       		.byte	2
 680 028f 07       		.byte	7
 681 0290 00       		.byte	0
 682 0291 00       		.byte	0
 683 0292 DC       		.byte	-36
 684 0293 62       		.byte	98
ARM GAS  C:\Users\GYULAI~1\AppData\Local\Temp\ccilvZpi.s 			page 13


 685 0294 42       		.byte	66
 686 0295 40       		.byte	64
 687 0296 40       		.byte	64
 688 0297 E0       		.byte	-32
 689 0298 00       		.byte	0
 690 0299 00       		.byte	0
 691 029a 7E       		.byte	126
 692 029b 80       		.byte	-128
 693 029c 7E       		.byte	126
 694 029d 01       		.byte	1
 695 029e 81       		.byte	-127
 696 029f FE       		.byte	-2
 697 02a0 10       		.byte	16
 698 02a1 10       		.byte	16
 699 02a2 7C       		.byte	124
 700 02a3 10       		.byte	16
 701 02a4 10       		.byte	16
 702 02a5 10       		.byte	16
 703 02a6 11       		.byte	17
 704 02a7 0E       		.byte	14
 705 02a8 00       		.byte	0
 706 02a9 00       		.byte	0
 707 02aa E7       		.byte	-25
 708 02ab 42       		.byte	66
 709 02ac 42       		.byte	66
 710 02ad 42       		.byte	66
 711 02ae 42       		.byte	66
 712 02af 3C       		.byte	60
 713 02b0 00       		.byte	0
 714 02b1 00       		.byte	0
 715 02b2 E7       		.byte	-25
 716 02b3 42       		.byte	66
 717 02b4 24       		.byte	36
 718 02b5 24       		.byte	36
 719 02b6 14       		.byte	20
 720 02b7 08       		.byte	8
 721 02b8 00       		.byte	0
 722 02b9 00       		.byte	0
 723 02ba E7       		.byte	-25
 724 02bb 42       		.byte	66
 725 02bc 52       		.byte	82
 726 02bd 52       		.byte	82
 727 02be 52       		.byte	82
 728 02bf 2C       		.byte	44
 729 02c0 00       		.byte	0
 730 02c1 00       		.byte	0
 731 02c2 E7       		.byte	-25
 732 02c3 24       		.byte	36
 733 02c4 18       		.byte	24
 734 02c5 24       		.byte	36
 735 02c6 42       		.byte	66
 736 02c7 E7       		.byte	-25
 737 02c8 00       		.byte	0
 738 02c9 00       		.byte	0
 739 02ca E7       		.byte	-25
 740 02cb 42       		.byte	66
 741 02cc 42       		.byte	66
ARM GAS  C:\Users\GYULAI~1\AppData\Local\Temp\ccilvZpi.s 			page 14


 742 02cd 3E       		.byte	62
 743 02ce 82       		.byte	-126
 744 02cf 7C       		.byte	124
 745 02d0 00       		.byte	0
 746 02d1 00       		.byte	0
 747 02d2 FF       		.byte	-1
 748 02d3 81       		.byte	-127
 749 02d4 0E       		.byte	14
 750 02d5 70       		.byte	112
 751 02d6 81       		.byte	-127
 752 02d7 FF       		.byte	-1
 753 02d8 18       		.byte	24
 754 02d9 30       		.byte	48
 755 02da 20       		.byte	32
 756 02db 60       		.byte	96
 757 02dc 60       		.byte	96
 758 02dd 20       		.byte	32
 759 02de 30       		.byte	48
 760 02df 18       		.byte	24
 761 02e0 18       		.byte	24
 762 02e1 18       		.byte	24
 763 02e2 18       		.byte	24
 764 02e3 18       		.byte	24
 765 02e4 18       		.byte	24
 766 02e5 18       		.byte	24
 767 02e6 18       		.byte	24
 768 02e7 18       		.byte	24
 769 02e8 18       		.byte	24
 770 02e9 0C       		.byte	12
 771 02ea 04       		.byte	4
 772 02eb 06       		.byte	6
 773 02ec 06       		.byte	6
 774 02ed 04       		.byte	4
 775 02ee 0C       		.byte	12
 776 02ef 18       		.byte	24
 777 02f0 00       		.byte	0
 778 02f1 00       		.byte	0
 779 02f2 00       		.byte	0
 780 02f3 30       		.byte	48
 781 02f4 49       		.byte	73
 782 02f5 06       		.byte	6
 783 02f6 00       		.byte	0
 784 02f7 00       		.byte	0
 785 02f8 00       		.byte	0
 786 02f9 FF       		.byte	-1
 787 02fa 81       		.byte	-127
 788 02fb C3       		.byte	-61
 789 02fc BD       		.byte	-67
 790 02fd 81       		.byte	-127
 791 02fe 81       		.byte	-127
 792 02ff FF       		.byte	-1
 793 0300 3B       		.byte	59
 794 0301 43       		.byte	67
 795 0302 80       		.byte	-128
 796 0303 80       		.byte	-128
 797 0304 80       		.byte	-128
 798 0305 80       		.byte	-128
ARM GAS  C:\Users\GYULAI~1\AppData\Local\Temp\ccilvZpi.s 			page 15


 799 0306 40       		.byte	64
 800 0307 38       		.byte	56
 801 0308 7B       		.byte	123
 802 0309 43       		.byte	67
 803 030a 40       		.byte	64
 804 030b 78       		.byte	120
 805 030c 40       		.byte	64
 806 030d 40       		.byte	64
 807 030e 40       		.byte	64
 808 030f 40       		.byte	64
 809 0310 F8       		.byte	-8
 810 0311 88       		.byte	-120
 811 0312 F8       		.byte	-8
 812 0313 87       		.byte	-121
 813 0314 81       		.byte	-127
 814 0315 8F       		.byte	-113
 815 0316 89       		.byte	-119
 816 0317 8F       		.byte	-113
 817 0318 FF       		.byte	-1
 818 0319 C3       		.byte	-61
 819 031a A5       		.byte	-91
 820 031b 99       		.byte	-103
 821 031c 99       		.byte	-103
 822 031d A5       		.byte	-91
 823 031e C3       		.byte	-61
 824 031f FF       		.byte	-1
 825              		.global	codefont_8x8_descriptors
 826              		.align	2
 827              		.type	codefont_8x8_descriptors, %object
 828              		.size	codefont_8x8_descriptors, 800
 829              	codefont_8x8_descriptors:
 830 0320 00000000 		.word	0
 831 0324 08       		.byte	8
 832 0325 08       		.byte	8
 833 0326 01       		.byte	1
 834 0327 01       		.byte	1
 835 0328 40000000 		.word	64
 836 032c 08       		.byte	8
 837 032d 08       		.byte	8
 838 032e 01       		.byte	1
 839 032f 01       		.byte	1
 840 0330 80000000 		.word	128
 841 0334 08       		.byte	8
 842 0335 08       		.byte	8
 843 0336 01       		.byte	1
 844 0337 01       		.byte	1
 845 0338 C0000000 		.word	192
 846 033c 08       		.byte	8
 847 033d 08       		.byte	8
 848 033e 01       		.byte	1
 849 033f 01       		.byte	1
 850 0340 00010000 		.word	256
 851 0344 08       		.byte	8
 852 0345 08       		.byte	8
 853 0346 01       		.byte	1
 854 0347 01       		.byte	1
 855 0348 40010000 		.word	320
ARM GAS  C:\Users\GYULAI~1\AppData\Local\Temp\ccilvZpi.s 			page 16


 856 034c 08       		.byte	8
 857 034d 08       		.byte	8
 858 034e 01       		.byte	1
 859 034f 01       		.byte	1
 860 0350 80010000 		.word	384
 861 0354 08       		.byte	8
 862 0355 08       		.byte	8
 863 0356 01       		.byte	1
 864 0357 01       		.byte	1
 865 0358 C0010000 		.word	448
 866 035c 08       		.byte	8
 867 035d 08       		.byte	8
 868 035e 01       		.byte	1
 869 035f 01       		.byte	1
 870 0360 00020000 		.word	512
 871 0364 08       		.byte	8
 872 0365 08       		.byte	8
 873 0366 01       		.byte	1
 874 0367 01       		.byte	1
 875 0368 40020000 		.word	576
 876 036c 08       		.byte	8
 877 036d 08       		.byte	8
 878 036e 01       		.byte	1
 879 036f 01       		.byte	1
 880 0370 80020000 		.word	640
 881 0374 08       		.byte	8
 882 0375 08       		.byte	8
 883 0376 01       		.byte	1
 884 0377 01       		.byte	1
 885 0378 C0020000 		.word	704
 886 037c 08       		.byte	8
 887 037d 08       		.byte	8
 888 037e 01       		.byte	1
 889 037f 01       		.byte	1
 890 0380 00030000 		.word	768
 891 0384 08       		.byte	8
 892 0385 08       		.byte	8
 893 0386 01       		.byte	1
 894 0387 01       		.byte	1
 895 0388 40030000 		.word	832
 896 038c 08       		.byte	8
 897 038d 08       		.byte	8
 898 038e 01       		.byte	1
 899 038f 01       		.byte	1
 900 0390 80030000 		.word	896
 901 0394 08       		.byte	8
 902 0395 08       		.byte	8
 903 0396 01       		.byte	1
 904 0397 01       		.byte	1
 905 0398 C0030000 		.word	960
 906 039c 08       		.byte	8
 907 039d 08       		.byte	8
 908 039e 01       		.byte	1
 909 039f 01       		.byte	1
 910 03a0 00040000 		.word	1024
 911 03a4 08       		.byte	8
 912 03a5 08       		.byte	8
ARM GAS  C:\Users\GYULAI~1\AppData\Local\Temp\ccilvZpi.s 			page 17


 913 03a6 01       		.byte	1
 914 03a7 01       		.byte	1
 915 03a8 40040000 		.word	1088
 916 03ac 08       		.byte	8
 917 03ad 08       		.byte	8
 918 03ae 01       		.byte	1
 919 03af 01       		.byte	1
 920 03b0 80040000 		.word	1152
 921 03b4 08       		.byte	8
 922 03b5 08       		.byte	8
 923 03b6 01       		.byte	1
 924 03b7 01       		.byte	1
 925 03b8 C0040000 		.word	1216
 926 03bc 08       		.byte	8
 927 03bd 08       		.byte	8
 928 03be 01       		.byte	1
 929 03bf 01       		.byte	1
 930 03c0 00050000 		.word	1280
 931 03c4 08       		.byte	8
 932 03c5 08       		.byte	8
 933 03c6 01       		.byte	1
 934 03c7 01       		.byte	1
 935 03c8 40050000 		.word	1344
 936 03cc 08       		.byte	8
 937 03cd 08       		.byte	8
 938 03ce 01       		.byte	1
 939 03cf 01       		.byte	1
 940 03d0 80050000 		.word	1408
 941 03d4 08       		.byte	8
 942 03d5 08       		.byte	8
 943 03d6 01       		.byte	1
 944 03d7 01       		.byte	1
 945 03d8 C0050000 		.word	1472
 946 03dc 08       		.byte	8
 947 03dd 08       		.byte	8
 948 03de 01       		.byte	1
 949 03df 01       		.byte	1
 950 03e0 00060000 		.word	1536
 951 03e4 08       		.byte	8
 952 03e5 08       		.byte	8
 953 03e6 01       		.byte	1
 954 03e7 01       		.byte	1
 955 03e8 40060000 		.word	1600
 956 03ec 08       		.byte	8
 957 03ed 08       		.byte	8
 958 03ee 01       		.byte	1
 959 03ef 01       		.byte	1
 960 03f0 80060000 		.word	1664
 961 03f4 08       		.byte	8
 962 03f5 08       		.byte	8
 963 03f6 01       		.byte	1
 964 03f7 01       		.byte	1
 965 03f8 C0060000 		.word	1728
 966 03fc 08       		.byte	8
 967 03fd 08       		.byte	8
 968 03fe 01       		.byte	1
 969 03ff 01       		.byte	1
ARM GAS  C:\Users\GYULAI~1\AppData\Local\Temp\ccilvZpi.s 			page 18


 970 0400 00070000 		.word	1792
 971 0404 08       		.byte	8
 972 0405 08       		.byte	8
 973 0406 01       		.byte	1
 974 0407 01       		.byte	1
 975 0408 40070000 		.word	1856
 976 040c 08       		.byte	8
 977 040d 08       		.byte	8
 978 040e 01       		.byte	1
 979 040f 01       		.byte	1
 980 0410 80070000 		.word	1920
 981 0414 08       		.byte	8
 982 0415 08       		.byte	8
 983 0416 01       		.byte	1
 984 0417 01       		.byte	1
 985 0418 C0070000 		.word	1984
 986 041c 08       		.byte	8
 987 041d 08       		.byte	8
 988 041e 01       		.byte	1
 989 041f 01       		.byte	1
 990 0420 00080000 		.word	2048
 991 0424 08       		.byte	8
 992 0425 08       		.byte	8
 993 0426 01       		.byte	1
 994 0427 01       		.byte	1
 995 0428 40080000 		.word	2112
 996 042c 08       		.byte	8
 997 042d 08       		.byte	8
 998 042e 01       		.byte	1
 999 042f 01       		.byte	1
 1000 0430 80080000 		.word	2176
 1001 0434 08       		.byte	8
 1002 0435 08       		.byte	8
 1003 0436 01       		.byte	1
 1004 0437 01       		.byte	1
 1005 0438 C0080000 		.word	2240
 1006 043c 08       		.byte	8
 1007 043d 08       		.byte	8
 1008 043e 01       		.byte	1
 1009 043f 01       		.byte	1
 1010 0440 00090000 		.word	2304
 1011 0444 08       		.byte	8
 1012 0445 08       		.byte	8
 1013 0446 01       		.byte	1
 1014 0447 01       		.byte	1
 1015 0448 40090000 		.word	2368
 1016 044c 08       		.byte	8
 1017 044d 08       		.byte	8
 1018 044e 01       		.byte	1
 1019 044f 01       		.byte	1
 1020 0450 80090000 		.word	2432
 1021 0454 08       		.byte	8
 1022 0455 08       		.byte	8
 1023 0456 01       		.byte	1
 1024 0457 01       		.byte	1
 1025 0458 C0090000 		.word	2496
 1026 045c 08       		.byte	8
ARM GAS  C:\Users\GYULAI~1\AppData\Local\Temp\ccilvZpi.s 			page 19


 1027 045d 08       		.byte	8
 1028 045e 01       		.byte	1
 1029 045f 01       		.byte	1
 1030 0460 000A0000 		.word	2560
 1031 0464 08       		.byte	8
 1032 0465 08       		.byte	8
 1033 0466 01       		.byte	1
 1034 0467 01       		.byte	1
 1035 0468 400A0000 		.word	2624
 1036 046c 08       		.byte	8
 1037 046d 08       		.byte	8
 1038 046e 01       		.byte	1
 1039 046f 01       		.byte	1
 1040 0470 800A0000 		.word	2688
 1041 0474 08       		.byte	8
 1042 0475 08       		.byte	8
 1043 0476 01       		.byte	1
 1044 0477 01       		.byte	1
 1045 0478 C00A0000 		.word	2752
 1046 047c 08       		.byte	8
 1047 047d 08       		.byte	8
 1048 047e 01       		.byte	1
 1049 047f 01       		.byte	1
 1050 0480 000B0000 		.word	2816
 1051 0484 08       		.byte	8
 1052 0485 08       		.byte	8
 1053 0486 01       		.byte	1
 1054 0487 01       		.byte	1
 1055 0488 400B0000 		.word	2880
 1056 048c 08       		.byte	8
 1057 048d 08       		.byte	8
 1058 048e 01       		.byte	1
 1059 048f 01       		.byte	1
 1060 0490 800B0000 		.word	2944
 1061 0494 08       		.byte	8
 1062 0495 08       		.byte	8
 1063 0496 01       		.byte	1
 1064 0497 01       		.byte	1
 1065 0498 C00B0000 		.word	3008
 1066 049c 08       		.byte	8
 1067 049d 08       		.byte	8
 1068 049e 01       		.byte	1
 1069 049f 01       		.byte	1
 1070 04a0 000C0000 		.word	3072
 1071 04a4 08       		.byte	8
 1072 04a5 08       		.byte	8
 1073 04a6 01       		.byte	1
 1074 04a7 01       		.byte	1
 1075 04a8 400C0000 		.word	3136
 1076 04ac 08       		.byte	8
 1077 04ad 08       		.byte	8
 1078 04ae 01       		.byte	1
 1079 04af 01       		.byte	1
 1080 04b0 800C0000 		.word	3200
 1081 04b4 08       		.byte	8
 1082 04b5 08       		.byte	8
 1083 04b6 01       		.byte	1
ARM GAS  C:\Users\GYULAI~1\AppData\Local\Temp\ccilvZpi.s 			page 20


 1084 04b7 01       		.byte	1
 1085 04b8 C00C0000 		.word	3264
 1086 04bc 08       		.byte	8
 1087 04bd 08       		.byte	8
 1088 04be 01       		.byte	1
 1089 04bf 01       		.byte	1
 1090 04c0 000D0000 		.word	3328
 1091 04c4 08       		.byte	8
 1092 04c5 08       		.byte	8
 1093 04c6 01       		.byte	1
 1094 04c7 01       		.byte	1
 1095 04c8 400D0000 		.word	3392
 1096 04cc 08       		.byte	8
 1097 04cd 08       		.byte	8
 1098 04ce 01       		.byte	1
 1099 04cf 01       		.byte	1
 1100 04d0 800D0000 		.word	3456
 1101 04d4 08       		.byte	8
 1102 04d5 08       		.byte	8
 1103 04d6 01       		.byte	1
 1104 04d7 01       		.byte	1
 1105 04d8 C00D0000 		.word	3520
 1106 04dc 08       		.byte	8
 1107 04dd 08       		.byte	8
 1108 04de 01       		.byte	1
 1109 04df 01       		.byte	1
 1110 04e0 000E0000 		.word	3584
 1111 04e4 08       		.byte	8
 1112 04e5 08       		.byte	8
 1113 04e6 01       		.byte	1
 1114 04e7 01       		.byte	1
 1115 04e8 400E0000 		.word	3648
 1116 04ec 08       		.byte	8
 1117 04ed 08       		.byte	8
 1118 04ee 01       		.byte	1
 1119 04ef 01       		.byte	1
 1120 04f0 800E0000 		.word	3712
 1121 04f4 08       		.byte	8
 1122 04f5 08       		.byte	8
 1123 04f6 01       		.byte	1
 1124 04f7 01       		.byte	1
 1125 04f8 C00E0000 		.word	3776
 1126 04fc 08       		.byte	8
 1127 04fd 08       		.byte	8
 1128 04fe 01       		.byte	1
 1129 04ff 01       		.byte	1
 1130 0500 000F0000 		.word	3840
 1131 0504 08       		.byte	8
 1132 0505 08       		.byte	8
 1133 0506 01       		.byte	1
 1134 0507 01       		.byte	1
 1135 0508 400F0000 		.word	3904
 1136 050c 08       		.byte	8
 1137 050d 08       		.byte	8
 1138 050e 01       		.byte	1
 1139 050f 01       		.byte	1
 1140 0510 800F0000 		.word	3968
ARM GAS  C:\Users\GYULAI~1\AppData\Local\Temp\ccilvZpi.s 			page 21


 1141 0514 08       		.byte	8
 1142 0515 08       		.byte	8
 1143 0516 01       		.byte	1
 1144 0517 01       		.byte	1
 1145 0518 C00F0000 		.word	4032
 1146 051c 08       		.byte	8
 1147 051d 08       		.byte	8
 1148 051e 01       		.byte	1
 1149 051f 01       		.byte	1
 1150 0520 00100000 		.word	4096
 1151 0524 08       		.byte	8
 1152 0525 08       		.byte	8
 1153 0526 01       		.byte	1
 1154 0527 01       		.byte	1
 1155 0528 40100000 		.word	4160
 1156 052c 08       		.byte	8
 1157 052d 08       		.byte	8
 1158 052e 01       		.byte	1
 1159 052f 01       		.byte	1
 1160 0530 80100000 		.word	4224
 1161 0534 08       		.byte	8
 1162 0535 08       		.byte	8
 1163 0536 01       		.byte	1
 1164 0537 01       		.byte	1
 1165 0538 C0100000 		.word	4288
 1166 053c 08       		.byte	8
 1167 053d 08       		.byte	8
 1168 053e 01       		.byte	1
 1169 053f 01       		.byte	1
 1170 0540 00110000 		.word	4352
 1171 0544 08       		.byte	8
 1172 0545 08       		.byte	8
 1173 0546 01       		.byte	1
 1174 0547 01       		.byte	1
 1175 0548 40110000 		.word	4416
 1176 054c 08       		.byte	8
 1177 054d 08       		.byte	8
 1178 054e 01       		.byte	1
 1179 054f 01       		.byte	1
 1180 0550 80110000 		.word	4480
 1181 0554 08       		.byte	8
 1182 0555 08       		.byte	8
 1183 0556 01       		.byte	1
 1184 0557 01       		.byte	1
 1185 0558 C0110000 		.word	4544
 1186 055c 08       		.byte	8
 1187 055d 08       		.byte	8
 1188 055e 01       		.byte	1
 1189 055f 01       		.byte	1
 1190 0560 00120000 		.word	4608
 1191 0564 08       		.byte	8
 1192 0565 08       		.byte	8
 1193 0566 01       		.byte	1
 1194 0567 01       		.byte	1
 1195 0568 40120000 		.word	4672
 1196 056c 08       		.byte	8
 1197 056d 08       		.byte	8
ARM GAS  C:\Users\GYULAI~1\AppData\Local\Temp\ccilvZpi.s 			page 22


 1198 056e 01       		.byte	1
 1199 056f 01       		.byte	1
 1200 0570 80120000 		.word	4736
 1201 0574 08       		.byte	8
 1202 0575 08       		.byte	8
 1203 0576 01       		.byte	1
 1204 0577 01       		.byte	1
 1205 0578 C0120000 		.word	4800
 1206 057c 08       		.byte	8
 1207 057d 08       		.byte	8
 1208 057e 01       		.byte	1
 1209 057f 01       		.byte	1
 1210 0580 00130000 		.word	4864
 1211 0584 08       		.byte	8
 1212 0585 08       		.byte	8
 1213 0586 01       		.byte	1
 1214 0587 01       		.byte	1
 1215 0588 40130000 		.word	4928
 1216 058c 08       		.byte	8
 1217 058d 08       		.byte	8
 1218 058e 01       		.byte	1
 1219 058f 01       		.byte	1
 1220 0590 80130000 		.word	4992
 1221 0594 08       		.byte	8
 1222 0595 08       		.byte	8
 1223 0596 01       		.byte	1
 1224 0597 01       		.byte	1
 1225 0598 C0130000 		.word	5056
 1226 059c 08       		.byte	8
 1227 059d 08       		.byte	8
 1228 059e 01       		.byte	1
 1229 059f 01       		.byte	1
 1230 05a0 00140000 		.word	5120
 1231 05a4 08       		.byte	8
 1232 05a5 08       		.byte	8
 1233 05a6 01       		.byte	1
 1234 05a7 01       		.byte	1
 1235 05a8 40140000 		.word	5184
 1236 05ac 08       		.byte	8
 1237 05ad 08       		.byte	8
 1238 05ae 01       		.byte	1
 1239 05af 01       		.byte	1
 1240 05b0 80140000 		.word	5248
 1241 05b4 08       		.byte	8
 1242 05b5 08       		.byte	8
 1243 05b6 01       		.byte	1
 1244 05b7 01       		.byte	1
 1245 05b8 C0140000 		.word	5312
 1246 05bc 08       		.byte	8
 1247 05bd 08       		.byte	8
 1248 05be 01       		.byte	1
 1249 05bf 01       		.byte	1
 1250 05c0 00150000 		.word	5376
 1251 05c4 08       		.byte	8
 1252 05c5 08       		.byte	8
 1253 05c6 01       		.byte	1
 1254 05c7 01       		.byte	1
ARM GAS  C:\Users\GYULAI~1\AppData\Local\Temp\ccilvZpi.s 			page 23


 1255 05c8 40150000 		.word	5440
 1256 05cc 08       		.byte	8
 1257 05cd 08       		.byte	8
 1258 05ce 01       		.byte	1
 1259 05cf 01       		.byte	1
 1260 05d0 80150000 		.word	5504
 1261 05d4 08       		.byte	8
 1262 05d5 08       		.byte	8
 1263 05d6 01       		.byte	1
 1264 05d7 01       		.byte	1
 1265 05d8 C0150000 		.word	5568
 1266 05dc 08       		.byte	8
 1267 05dd 08       		.byte	8
 1268 05de 01       		.byte	1
 1269 05df 01       		.byte	1
 1270 05e0 00160000 		.word	5632
 1271 05e4 08       		.byte	8
 1272 05e5 08       		.byte	8
 1273 05e6 01       		.byte	1
 1274 05e7 01       		.byte	1
 1275 05e8 40160000 		.word	5696
 1276 05ec 08       		.byte	8
 1277 05ed 08       		.byte	8
 1278 05ee 01       		.byte	1
 1279 05ef 01       		.byte	1
 1280 05f0 80160000 		.word	5760
 1281 05f4 08       		.byte	8
 1282 05f5 08       		.byte	8
 1283 05f6 01       		.byte	1
 1284 05f7 01       		.byte	1
 1285 05f8 C0160000 		.word	5824
 1286 05fc 08       		.byte	8
 1287 05fd 08       		.byte	8
 1288 05fe 01       		.byte	1
 1289 05ff 01       		.byte	1
 1290 0600 00170000 		.word	5888
 1291 0604 08       		.byte	8
 1292 0605 08       		.byte	8
 1293 0606 01       		.byte	1
 1294 0607 01       		.byte	1
 1295 0608 40170000 		.word	5952
 1296 060c 08       		.byte	8
 1297 060d 08       		.byte	8
 1298 060e 01       		.byte	1
 1299 060f 01       		.byte	1
 1300 0610 80170000 		.word	6016
 1301 0614 08       		.byte	8
 1302 0615 08       		.byte	8
 1303 0616 01       		.byte	1
 1304 0617 01       		.byte	1
 1305 0618 00180000 		.word	6144
 1306 061c 08       		.byte	8
 1307 061d 08       		.byte	8
 1308 061e 01       		.byte	1
 1309 061f 01       		.byte	1
 1310 0620 40180000 		.word	6208
 1311 0624 08       		.byte	8
ARM GAS  C:\Users\GYULAI~1\AppData\Local\Temp\ccilvZpi.s 			page 24


 1312 0625 08       		.byte	8
 1313 0626 01       		.byte	1
 1314 0627 01       		.byte	1
 1315 0628 C0170000 		.word	6080
 1316 062c 08       		.byte	8
 1317 062d 08       		.byte	8
 1318 062e 01       		.byte	1
 1319 062f 01       		.byte	1
 1320 0630 80180000 		.word	6272
 1321 0634 08       		.byte	8
 1322 0635 08       		.byte	8
 1323 0636 01       		.byte	1
 1324 0637 01       		.byte	1
 1325 0638 C0180000 		.word	6336
 1326 063c 08       		.byte	8
 1327 063d 08       		.byte	8
 1328 063e 01       		.byte	1
 1329 063f 01       		.byte	1
 1330              		.bss
 1331              		.align	2
 1332              	rhea_gfx_localFont:
 1333 0000 00000000 		.space	12
 1333      00000000 
 1333      00000000 
 1334              		.align	1
 1335              	rhea_gfx_cursorX:
 1336 000c 0000     		.space	2
 1337              		.align	1
 1338              	rhea_gfx_cursorY:
 1339 000e 0000     		.space	2
 1340              		.section	.rodata
 1341              		.align	2
 1342              	.LC1:
 1343 0000 00000000 		.word	codefont_8x8_descriptors
 1344 0004 00000000 		.word	codefont_8x8_data
 1345 0008 08       		.byte	8
 1346 0009 000000   		.space	3
 1347              		.section	.text.rhea_gfx_Initialize,"ax",%progbits
 1348              		.align	2
 1349              		.global	rhea_gfx_Initialize
 1350              		.thumb
 1351              		.thumb_func
 1352              		.type	rhea_gfx_Initialize, %function
 1353              	rhea_gfx_Initialize:
 1354              	.LFB0:
 1355              		.file 1 "rhea\\gfx\\gfx.c"
   1:rhea\gfx/gfx.c **** /*********************************************************************************
   2:rhea\gfx/gfx.c ****  * Copyright (c) 2020 Peter Gyulai
   3:rhea\gfx/gfx.c ****  *
   4:rhea\gfx/gfx.c ****  * Permission is hereby granted, free of charge, to any person obtaining a copy
   5:rhea\gfx/gfx.c ****  * of this software and associated documentation files (the "Software"), to deal
   6:rhea\gfx/gfx.c ****  * in the Software without restriction, including without limitation the rights
   7:rhea\gfx/gfx.c ****  * to use, copy, modify, merge, publish, distribute, sublicense, and/or sell
   8:rhea\gfx/gfx.c ****  * copies of the Software, and to permit persons to whom the Software is
   9:rhea\gfx/gfx.c ****  * furnished to do so, subject to the following conditions:
  10:rhea\gfx/gfx.c ****  *
  11:rhea\gfx/gfx.c ****  * The above copyright notice and this permission notice shall be included in all
ARM GAS  C:\Users\GYULAI~1\AppData\Local\Temp\ccilvZpi.s 			page 25


  12:rhea\gfx/gfx.c ****  * copies or substantial portions of the Software.
  13:rhea\gfx/gfx.c ****  *
  14:rhea\gfx/gfx.c ****  * THE SOFTWARE IS PROVIDED "AS IS", WITHOUT WARRANTY OF ANY KIND,
  15:rhea\gfx/gfx.c ****  * EXPRESS OR IMPLIED, INCLUDING BUT NOT LIMITED TO THE WARRANTIES OF
  16:rhea\gfx/gfx.c ****  * MERCHANTABILITY, FITNESS FOR A PARTICULAR PURPOSE AND NONINFRINGEMENT.
  17:rhea\gfx/gfx.c ****  * IN NO EVENT SHALL THE AUTHORS OR COPYRIGHT HOLDERS BE LIABLE FOR ANY CLAIM,
  18:rhea\gfx/gfx.c ****  * DAMAGES OR OTHER LIABILITY, WHETHER IN AN ACTION OF CONTRACT, TORT OR
  19:rhea\gfx/gfx.c ****  * OTHERWISE, ARISING FROM, OUT OF OR IN CONNECTION WITH THE SOFTWARE OR THE USE
  20:rhea\gfx/gfx.c ****  * OR OTHER DEALINGS IN THE SOFTWARE.
  21:rhea\gfx/gfx.c **** **********************************************************************************/
  22:rhea\gfx/gfx.c **** 
  23:rhea\gfx/gfx.c **** /**
  24:rhea\gfx/gfx.c ****  * @file    gfx.c
  25:rhea\gfx/gfx.c ****  * @author  Peter Gyulai
  26:rhea\gfx/gfx.c ****  * @version 1.0.0
  27:rhea\gfx/gfx.c ****  * @date    2020.04.26
  28:rhea\gfx/gfx.c ****  * @brief   Library implementation.
  29:rhea\gfx/gfx.c ****  * @details
  30:rhea\gfx/gfx.c ****  * This file contains the function definitions used by the Rhea graphics library.
  31:rhea\gfx/gfx.c ****  */
  32:rhea\gfx/gfx.c **** 
  33:rhea\gfx/gfx.c **** // Doxygen documentation duplication suppression
  34:rhea\gfx/gfx.c **** #ifndef DOXYGEN_SHOULD_SKIP_THIS
  35:rhea\gfx/gfx.c **** 
  36:rhea\gfx/gfx.c **** // Standard includes
  37:rhea\gfx/gfx.c **** #include <math.h>
  38:rhea\gfx/gfx.c **** #include <stdlib.h>
  39:rhea\gfx/gfx.c **** 
  40:rhea\gfx/gfx.c **** // Project includes
  41:rhea\gfx/gfx.c **** #include "gfx.h"
  42:rhea\gfx/gfx.c **** #include "gfx_impl.h"
  43:rhea\gfx/gfx.c **** #include "fonts/codefont_8x8.h"
  44:rhea\gfx/gfx.c ****     
  45:rhea\gfx/gfx.c ****     
  46:rhea\gfx/gfx.c **** // Local font settings & data
  47:rhea\gfx/gfx.c **** static rhea_gfx_font rhea_gfx_localFont;
  48:rhea\gfx/gfx.c **** 
  49:rhea\gfx/gfx.c **** // Local cursor position
  50:rhea\gfx/gfx.c **** static rhea_gfx_coordinate rhea_gfx_cursorX = 0;
  51:rhea\gfx/gfx.c **** static rhea_gfx_coordinate rhea_gfx_cursorY = 0;
  52:rhea\gfx/gfx.c **** 
  53:rhea\gfx/gfx.c **** void rhea_gfx_Initialize(void) {
 1356              		.loc 1 53 0
 1357              		.cfi_startproc
 1358              		@ args = 0, pretend = 0, frame = 0
 1359              		@ frame_needed = 1, uses_anonymous_args = 0
 1360 0000 80B5     		push	{r7, lr}
 1361              		.cfi_def_cfa_offset 8
 1362              		.cfi_offset 7, -8
 1363              		.cfi_offset 14, -4
 1364 0002 00AF     		add	r7, sp, #0
 1365              		.cfi_def_cfa_register 7
  54:rhea\gfx/gfx.c **** 
  55:rhea\gfx/gfx.c **** 	// Invoking driver implementation
  56:rhea\gfx/gfx.c **** 	rhea_gfx_initialize_impl();
 1366              		.loc 1 56 0
 1367 0004 FFF7FEFF 		bl	rhea_gfx_initialize_impl
ARM GAS  C:\Users\GYULAI~1\AppData\Local\Temp\ccilvZpi.s 			page 26


  57:rhea\gfx/gfx.c **** 
  58:rhea\gfx/gfx.c **** 	// Initializing default fonts
  59:rhea\gfx/gfx.c **** 	rhea_gfx_localFont = (rhea_gfx_font) {
 1368              		.loc 1 59 0
 1369 0008 064B     		ldr	r3, .L2
 1370 000a 074A     		ldr	r2, .L2+4
 1371 000c 07CA     		ldmia	r2, {r0, r1, r2}
 1372 000e 83E80700 		stmia	r3, {r0, r1, r2}
  60:rhea\gfx/gfx.c **** 		.fontDescriptors = codefont_8x8_descriptors,
  61:rhea\gfx/gfx.c **** 		.fontData        = codefont_8x8_data,
  62:rhea\gfx/gfx.c **** 		.fontHeight      = 8
  63:rhea\gfx/gfx.c **** 	};
  64:rhea\gfx/gfx.c **** 
  65:rhea\gfx/gfx.c **** 	// Initializing text cursor
  66:rhea\gfx/gfx.c **** 	rhea_gfx_cursorX = 0;
 1373              		.loc 1 66 0
 1374 0012 064B     		ldr	r3, .L2+8
 1375 0014 0022     		movs	r2, #0
 1376 0016 1A80     		strh	r2, [r3]	@ movhi
  67:rhea\gfx/gfx.c **** 	rhea_gfx_cursorY = 0;
 1377              		.loc 1 67 0
 1378 0018 054B     		ldr	r3, .L2+12
 1379 001a 0022     		movs	r2, #0
 1380 001c 1A80     		strh	r2, [r3]	@ movhi
  68:rhea\gfx/gfx.c **** }
 1381              		.loc 1 68 0
 1382 001e 00BF     		nop
 1383 0020 80BD     		pop	{r7, pc}
 1384              	.L3:
 1385 0022 00BF     		.align	2
 1386              	.L2:
 1387 0024 00000000 		.word	rhea_gfx_localFont
 1388 0028 00000000 		.word	.LC1
 1389 002c 0C000000 		.word	rhea_gfx_cursorX
 1390 0030 0E000000 		.word	rhea_gfx_cursorY
 1391              		.cfi_endproc
 1392              	.LFE0:
 1393              		.size	rhea_gfx_Initialize, .-rhea_gfx_Initialize
 1394              		.section	.text.rhea_gfx_Reset,"ax",%progbits
 1395              		.align	2
 1396              		.global	rhea_gfx_Reset
 1397              		.thumb
 1398              		.thumb_func
 1399              		.type	rhea_gfx_Reset, %function
 1400              	rhea_gfx_Reset:
 1401              	.LFB1:
  69:rhea\gfx/gfx.c **** 
  70:rhea\gfx/gfx.c **** void rhea_gfx_Reset(void) {
 1402              		.loc 1 70 0
 1403              		.cfi_startproc
 1404              		@ args = 0, pretend = 0, frame = 0
 1405              		@ frame_needed = 1, uses_anonymous_args = 0
 1406 0000 80B5     		push	{r7, lr}
 1407              		.cfi_def_cfa_offset 8
 1408              		.cfi_offset 7, -8
 1409              		.cfi_offset 14, -4
 1410 0002 00AF     		add	r7, sp, #0
ARM GAS  C:\Users\GYULAI~1\AppData\Local\Temp\ccilvZpi.s 			page 27


 1411              		.cfi_def_cfa_register 7
  71:rhea\gfx/gfx.c **** 
  72:rhea\gfx/gfx.c **** 	// Invoking driver implementation
  73:rhea\gfx/gfx.c **** 	rhea_gfx_reset_impl();
 1412              		.loc 1 73 0
 1413 0004 FFF7FEFF 		bl	rhea_gfx_reset_impl
  74:rhea\gfx/gfx.c **** }
 1414              		.loc 1 74 0
 1415 0008 00BF     		nop
 1416 000a 80BD     		pop	{r7, pc}
 1417              		.cfi_endproc
 1418              	.LFE1:
 1419              		.size	rhea_gfx_Reset, .-rhea_gfx_Reset
 1420              		.section	.text.rhea_gfx_Clear,"ax",%progbits
 1421              		.align	2
 1422              		.global	rhea_gfx_Clear
 1423              		.thumb
 1424              		.thumb_func
 1425              		.type	rhea_gfx_Clear, %function
 1426              	rhea_gfx_Clear:
 1427              	.LFB2:
  75:rhea\gfx/gfx.c **** 
  76:rhea\gfx/gfx.c **** void rhea_gfx_Clear(void) {
 1428              		.loc 1 76 0
 1429              		.cfi_startproc
 1430              		@ args = 0, pretend = 0, frame = 0
 1431              		@ frame_needed = 1, uses_anonymous_args = 0
 1432 0000 80B5     		push	{r7, lr}
 1433              		.cfi_def_cfa_offset 8
 1434              		.cfi_offset 7, -8
 1435              		.cfi_offset 14, -4
 1436 0002 00AF     		add	r7, sp, #0
 1437              		.cfi_def_cfa_register 7
  77:rhea\gfx/gfx.c **** 
  78:rhea\gfx/gfx.c **** 	// Invoking driver implementation
  79:rhea\gfx/gfx.c **** 	rhea_gfx_clear_impl();
 1438              		.loc 1 79 0
 1439 0004 FFF7FEFF 		bl	rhea_gfx_clear_impl
  80:rhea\gfx/gfx.c **** }
 1440              		.loc 1 80 0
 1441 0008 00BF     		nop
 1442 000a 80BD     		pop	{r7, pc}
 1443              		.cfi_endproc
 1444              	.LFE2:
 1445              		.size	rhea_gfx_Clear, .-rhea_gfx_Clear
 1446              		.section	.text.rhea_gfx_Refresh,"ax",%progbits
 1447              		.align	2
 1448              		.global	rhea_gfx_Refresh
 1449              		.thumb
 1450              		.thumb_func
 1451              		.type	rhea_gfx_Refresh, %function
 1452              	rhea_gfx_Refresh:
 1453              	.LFB3:
  81:rhea\gfx/gfx.c **** 
  82:rhea\gfx/gfx.c **** void rhea_gfx_Refresh(void) {
 1454              		.loc 1 82 0
 1455              		.cfi_startproc
ARM GAS  C:\Users\GYULAI~1\AppData\Local\Temp\ccilvZpi.s 			page 28


 1456              		@ args = 0, pretend = 0, frame = 0
 1457              		@ frame_needed = 1, uses_anonymous_args = 0
 1458 0000 80B5     		push	{r7, lr}
 1459              		.cfi_def_cfa_offset 8
 1460              		.cfi_offset 7, -8
 1461              		.cfi_offset 14, -4
 1462 0002 00AF     		add	r7, sp, #0
 1463              		.cfi_def_cfa_register 7
  83:rhea\gfx/gfx.c **** 
  84:rhea\gfx/gfx.c **** 	// Invoking driver implementation
  85:rhea\gfx/gfx.c **** 	rhea_gfx_refresh_impl();
 1464              		.loc 1 85 0
 1465 0004 FFF7FEFF 		bl	rhea_gfx_refresh_impl
  86:rhea\gfx/gfx.c **** }
 1466              		.loc 1 86 0
 1467 0008 00BF     		nop
 1468 000a 80BD     		pop	{r7, pc}
 1469              		.cfi_endproc
 1470              	.LFE3:
 1471              		.size	rhea_gfx_Refresh, .-rhea_gfx_Refresh
 1472              		.section	.text.rhea_gfx_SetFont,"ax",%progbits
 1473              		.align	2
 1474              		.global	rhea_gfx_SetFont
 1475              		.thumb
 1476              		.thumb_func
 1477              		.type	rhea_gfx_SetFont, %function
 1478              	rhea_gfx_SetFont:
 1479              	.LFB4:
  87:rhea\gfx/gfx.c **** 
  88:rhea\gfx/gfx.c **** void rhea_gfx_SetFont(rhea_gfx_font font) {
 1480              		.loc 1 88 0
 1481              		.cfi_startproc
 1482              		@ args = 0, pretend = 0, frame = 16
 1483              		@ frame_needed = 1, uses_anonymous_args = 0
 1484              		@ link register save eliminated.
 1485 0000 90B4     		push	{r4, r7}
 1486              		.cfi_def_cfa_offset 8
 1487              		.cfi_offset 4, -8
 1488              		.cfi_offset 7, -4
 1489 0002 84B0     		sub	sp, sp, #16
 1490              		.cfi_def_cfa_offset 24
 1491 0004 00AF     		add	r7, sp, #0
 1492              		.cfi_def_cfa_register 7
 1493 0006 3B1D     		adds	r3, r7, #4
 1494 0008 83E80700 		stmia	r3, {r0, r1, r2}
  89:rhea\gfx/gfx.c **** 
  90:rhea\gfx/gfx.c **** 	// Setting local font instance
  91:rhea\gfx/gfx.c **** 	rhea_gfx_localFont = font;
 1495              		.loc 1 91 0
 1496 000c 054B     		ldr	r3, .L8
 1497 000e 1C46     		mov	r4, r3
 1498 0010 3B1D     		adds	r3, r7, #4
 1499 0012 93E80700 		ldmia	r3, {r0, r1, r2}
 1500 0016 84E80700 		stmia	r4, {r0, r1, r2}
  92:rhea\gfx/gfx.c **** }
 1501              		.loc 1 92 0
 1502 001a 00BF     		nop
ARM GAS  C:\Users\GYULAI~1\AppData\Local\Temp\ccilvZpi.s 			page 29


 1503 001c 1037     		adds	r7, r7, #16
 1504              		.cfi_def_cfa_offset 8
 1505 001e BD46     		mov	sp, r7
 1506              		.cfi_def_cfa_register 13
 1507              		@ sp needed
 1508 0020 90BC     		pop	{r4, r7}
 1509              		.cfi_restore 7
 1510              		.cfi_restore 4
 1511              		.cfi_def_cfa_offset 0
 1512 0022 7047     		bx	lr
 1513              	.L9:
 1514              		.align	2
 1515              	.L8:
 1516 0024 00000000 		.word	rhea_gfx_localFont
 1517              		.cfi_endproc
 1518              	.LFE4:
 1519              		.size	rhea_gfx_SetFont, .-rhea_gfx_SetFont
 1520              		.section	.text.rhea_gfx_DrawPixel,"ax",%progbits
 1521              		.align	2
 1522              		.global	rhea_gfx_DrawPixel
 1523              		.thumb
 1524              		.thumb_func
 1525              		.type	rhea_gfx_DrawPixel, %function
 1526              	rhea_gfx_DrawPixel:
 1527              	.LFB5:
  93:rhea\gfx/gfx.c **** 
  94:rhea\gfx/gfx.c **** void rhea_gfx_DrawPixel(rhea_gfx_coordinate x, rhea_gfx_coordinate y, rhea_gfx_color color) {
 1528              		.loc 1 94 0
 1529              		.cfi_startproc
 1530              		@ args = 0, pretend = 0, frame = 8
 1531              		@ frame_needed = 1, uses_anonymous_args = 0
 1532 0000 80B5     		push	{r7, lr}
 1533              		.cfi_def_cfa_offset 8
 1534              		.cfi_offset 7, -8
 1535              		.cfi_offset 14, -4
 1536 0002 82B0     		sub	sp, sp, #8
 1537              		.cfi_def_cfa_offset 16
 1538 0004 00AF     		add	r7, sp, #0
 1539              		.cfi_def_cfa_register 7
 1540 0006 0346     		mov	r3, r0
 1541 0008 FB80     		strh	r3, [r7, #6]	@ movhi
 1542 000a 0B46     		mov	r3, r1	@ movhi
 1543 000c BB80     		strh	r3, [r7, #4]	@ movhi
 1544 000e 1346     		mov	r3, r2
 1545 0010 FB70     		strb	r3, [r7, #3]
  95:rhea\gfx/gfx.c **** 
  96:rhea\gfx/gfx.c **** 	// Drawing pixel
  97:rhea\gfx/gfx.c **** 	rhea_gfx_writePixel_impl(x, y, color);
 1546              		.loc 1 97 0
 1547 0012 FA78     		ldrb	r2, [r7, #3]	@ zero_extendqisi2
 1548 0014 B988     		ldrh	r1, [r7, #4]
 1549 0016 FB88     		ldrh	r3, [r7, #6]
 1550 0018 1846     		mov	r0, r3
 1551 001a FFF7FEFF 		bl	rhea_gfx_writePixel_impl
  98:rhea\gfx/gfx.c **** 
  99:rhea\gfx/gfx.c **** 	// Refreshing display
 100:rhea\gfx/gfx.c **** 	rhea_gfx_Refresh();
ARM GAS  C:\Users\GYULAI~1\AppData\Local\Temp\ccilvZpi.s 			page 30


 1552              		.loc 1 100 0
 1553 001e FFF7FEFF 		bl	rhea_gfx_Refresh
 101:rhea\gfx/gfx.c **** }
 1554              		.loc 1 101 0
 1555 0022 00BF     		nop
 1556 0024 0837     		adds	r7, r7, #8
 1557              		.cfi_def_cfa_offset 8
 1558 0026 BD46     		mov	sp, r7
 1559              		.cfi_def_cfa_register 13
 1560              		@ sp needed
 1561 0028 80BD     		pop	{r7, pc}
 1562              		.cfi_endproc
 1563              	.LFE5:
 1564              		.size	rhea_gfx_DrawPixel, .-rhea_gfx_DrawPixel
 1565 002a 00BF     		.section	.text.rhea_gfx_DrawLineLow,"ax",%progbits
 1566              		.align	2
 1567              		.global	rhea_gfx_DrawLineLow
 1568              		.thumb
 1569              		.thumb_func
 1570              		.type	rhea_gfx_DrawLineLow, %function
 1571              	rhea_gfx_DrawLineLow:
 1572              	.LFB6:
 102:rhea\gfx/gfx.c **** 
 103:rhea\gfx/gfx.c **** void rhea_gfx_DrawLineLow(rhea_gfx_coordinate x0, rhea_gfx_coordinate y0, rhea_gfx_coordinate x1, r
 1573              		.loc 1 103 0
 1574              		.cfi_startproc
 1575              		@ args = 4, pretend = 0, frame = 24
 1576              		@ frame_needed = 1, uses_anonymous_args = 0
 1577 0000 90B5     		push	{r4, r7, lr}
 1578              		.cfi_def_cfa_offset 12
 1579              		.cfi_offset 4, -12
 1580              		.cfi_offset 7, -8
 1581              		.cfi_offset 14, -4
 1582 0002 87B0     		sub	sp, sp, #28
 1583              		.cfi_def_cfa_offset 40
 1584 0004 00AF     		add	r7, sp, #0
 1585              		.cfi_def_cfa_register 7
 1586 0006 0446     		mov	r4, r0
 1587 0008 0846     		mov	r0, r1
 1588 000a 1146     		mov	r1, r2
 1589 000c 1A46     		mov	r2, r3
 1590 000e 2346     		mov	r3, r4	@ movhi
 1591 0010 FB80     		strh	r3, [r7, #6]	@ movhi
 1592 0012 0346     		mov	r3, r0	@ movhi
 1593 0014 BB80     		strh	r3, [r7, #4]	@ movhi
 1594 0016 0B46     		mov	r3, r1	@ movhi
 1595 0018 7B80     		strh	r3, [r7, #2]	@ movhi
 1596 001a 1346     		mov	r3, r2	@ movhi
 1597 001c 3B80     		strh	r3, [r7]	@ movhi
 104:rhea\gfx/gfx.c **** 
 105:rhea\gfx/gfx.c **** 	// Bresenham's Line Drawing Algorithm for negative slopes
 106:rhea\gfx/gfx.c **** 	int16_t dx = x1 - x0;
 1598              		.loc 1 106 0
 1599 001e 7A88     		ldrh	r2, [r7, #2]	@ movhi
 1600 0020 FB88     		ldrh	r3, [r7, #6]	@ movhi
 1601 0022 D31A     		subs	r3, r2, r3
 1602 0024 9BB2     		uxth	r3, r3
ARM GAS  C:\Users\GYULAI~1\AppData\Local\Temp\ccilvZpi.s 			page 31


 1603 0026 BB81     		strh	r3, [r7, #12]	@ movhi
 107:rhea\gfx/gfx.c **** 	int16_t dy = y1 - y0;
 1604              		.loc 1 107 0
 1605 0028 3A88     		ldrh	r2, [r7]	@ movhi
 1606 002a BB88     		ldrh	r3, [r7, #4]	@ movhi
 1607 002c D31A     		subs	r3, r2, r3
 1608 002e 9BB2     		uxth	r3, r3
 1609 0030 FB82     		strh	r3, [r7, #22]	@ movhi
 108:rhea\gfx/gfx.c **** 	int16_t yi = 1;
 1610              		.loc 1 108 0
 1611 0032 0123     		movs	r3, #1
 1612 0034 BB82     		strh	r3, [r7, #20]	@ movhi
 109:rhea\gfx/gfx.c **** 
 110:rhea\gfx/gfx.c **** 	if (dy < 0) {
 1613              		.loc 1 110 0
 1614 0036 B7F91630 		ldrsh	r3, [r7, #22]
 1615 003a 002B     		cmp	r3, #0
 1616 003c 06DA     		bge	.L12
 111:rhea\gfx/gfx.c **** 		yi = -1;
 1617              		.loc 1 111 0
 1618 003e 4FF6FF73 		movw	r3, #65535
 1619 0042 BB82     		strh	r3, [r7, #20]	@ movhi
 112:rhea\gfx/gfx.c **** 		dy = -dy;
 1620              		.loc 1 112 0
 1621 0044 FB8A     		ldrh	r3, [r7, #22]
 1622 0046 5B42     		negs	r3, r3
 1623 0048 9BB2     		uxth	r3, r3
 1624 004a FB82     		strh	r3, [r7, #22]	@ movhi
 1625              	.L12:
 113:rhea\gfx/gfx.c **** 	}
 114:rhea\gfx/gfx.c **** 
 115:rhea\gfx/gfx.c **** 	int16_t D = 2 * dy - dx;
 1626              		.loc 1 115 0
 1627 004c FB8A     		ldrh	r3, [r7, #22]
 1628 004e 5B00     		lsls	r3, r3, #1
 1629 0050 9AB2     		uxth	r2, r3
 1630 0052 BB89     		ldrh	r3, [r7, #12]
 1631 0054 D31A     		subs	r3, r2, r3
 1632 0056 9BB2     		uxth	r3, r3
 1633 0058 7B82     		strh	r3, [r7, #18]	@ movhi
 116:rhea\gfx/gfx.c **** 	int16_t y = y0;
 1634              		.loc 1 116 0
 1635 005a BB88     		ldrh	r3, [r7, #4]	@ movhi
 1636 005c 3B82     		strh	r3, [r7, #16]	@ movhi
 1637              	.LBB2:
 117:rhea\gfx/gfx.c **** 
 118:rhea\gfx/gfx.c **** 	for (int16_t x = x0; x < x1; x++) {
 1638              		.loc 1 118 0
 1639 005e FB88     		ldrh	r3, [r7, #6]	@ movhi
 1640 0060 FB81     		strh	r3, [r7, #14]	@ movhi
 1641 0062 23E0     		b	.L13
 1642              	.L15:
 119:rhea\gfx/gfx.c **** 		rhea_gfx_writePixel_impl(x, y, color);
 1643              		.loc 1 119 0
 1644 0064 FB89     		ldrh	r3, [r7, #14]
 1645 0066 398A     		ldrh	r1, [r7, #16]
 1646 0068 97F82820 		ldrb	r2, [r7, #40]	@ zero_extendqisi2
ARM GAS  C:\Users\GYULAI~1\AppData\Local\Temp\ccilvZpi.s 			page 32


 1647 006c 1846     		mov	r0, r3
 1648 006e FFF7FEFF 		bl	rhea_gfx_writePixel_impl
 120:rhea\gfx/gfx.c **** 		if (D > 0) {
 1649              		.loc 1 120 0
 1650 0072 B7F91230 		ldrsh	r3, [r7, #18]
 1651 0076 002B     		cmp	r3, #0
 1652 0078 0BDD     		ble	.L14
 121:rhea\gfx/gfx.c **** 			y = y + yi;
 1653              		.loc 1 121 0
 1654 007a 3A8A     		ldrh	r2, [r7, #16]
 1655 007c BB8A     		ldrh	r3, [r7, #20]
 1656 007e 1344     		add	r3, r3, r2
 1657 0080 9BB2     		uxth	r3, r3
 1658 0082 3B82     		strh	r3, [r7, #16]	@ movhi
 122:rhea\gfx/gfx.c **** 			D = D - 2 * dx;
 1659              		.loc 1 122 0
 1660 0084 7A8A     		ldrh	r2, [r7, #18]
 1661 0086 BB89     		ldrh	r3, [r7, #12]
 1662 0088 5B00     		lsls	r3, r3, #1
 1663 008a 9BB2     		uxth	r3, r3
 1664 008c D31A     		subs	r3, r2, r3
 1665 008e 9BB2     		uxth	r3, r3
 1666 0090 7B82     		strh	r3, [r7, #18]	@ movhi
 1667              	.L14:
 123:rhea\gfx/gfx.c **** 		}
 124:rhea\gfx/gfx.c **** 
 125:rhea\gfx/gfx.c **** 		D = D + 2 * dy;
 1668              		.loc 1 125 0 discriminator 2
 1669 0092 FB8A     		ldrh	r3, [r7, #22]
 1670 0094 5B00     		lsls	r3, r3, #1
 1671 0096 9AB2     		uxth	r2, r3
 1672 0098 7B8A     		ldrh	r3, [r7, #18]
 1673 009a 1344     		add	r3, r3, r2
 1674 009c 9BB2     		uxth	r3, r3
 1675 009e 7B82     		strh	r3, [r7, #18]	@ movhi
 118:rhea\gfx/gfx.c **** 		rhea_gfx_writePixel_impl(x, y, color);
 1676              		.loc 1 118 0 discriminator 2
 1677 00a0 B7F90E30 		ldrsh	r3, [r7, #14]
 1678 00a4 9BB2     		uxth	r3, r3
 1679 00a6 0133     		adds	r3, r3, #1
 1680 00a8 9BB2     		uxth	r3, r3
 1681 00aa FB81     		strh	r3, [r7, #14]	@ movhi
 1682              	.L13:
 118:rhea\gfx/gfx.c **** 		rhea_gfx_writePixel_impl(x, y, color);
 1683              		.loc 1 118 0 is_stmt 0 discriminator 1
 1684 00ac B7F90E20 		ldrsh	r2, [r7, #14]
 1685 00b0 7B88     		ldrh	r3, [r7, #2]
 1686 00b2 9A42     		cmp	r2, r3
 1687 00b4 D6DB     		blt	.L15
 1688              	.LBE2:
 126:rhea\gfx/gfx.c **** 	}
 127:rhea\gfx/gfx.c **** }
 1689              		.loc 1 127 0 is_stmt 1
 1690 00b6 00BF     		nop
 1691 00b8 1C37     		adds	r7, r7, #28
 1692              		.cfi_def_cfa_offset 12
 1693 00ba BD46     		mov	sp, r7
ARM GAS  C:\Users\GYULAI~1\AppData\Local\Temp\ccilvZpi.s 			page 33


 1694              		.cfi_def_cfa_register 13
 1695              		@ sp needed
 1696 00bc 90BD     		pop	{r4, r7, pc}
 1697              		.cfi_endproc
 1698              	.LFE6:
 1699              		.size	rhea_gfx_DrawLineLow, .-rhea_gfx_DrawLineLow
 1700 00be 00BF     		.section	.text.rhea_gfx_DrawLineHigh,"ax",%progbits
 1701              		.align	2
 1702              		.global	rhea_gfx_DrawLineHigh
 1703              		.thumb
 1704              		.thumb_func
 1705              		.type	rhea_gfx_DrawLineHigh, %function
 1706              	rhea_gfx_DrawLineHigh:
 1707              	.LFB7:
 128:rhea\gfx/gfx.c **** 
 129:rhea\gfx/gfx.c **** void rhea_gfx_DrawLineHigh(rhea_gfx_coordinate x0, rhea_gfx_coordinate y0, rhea_gfx_coordinate x1, 
 1708              		.loc 1 129 0
 1709              		.cfi_startproc
 1710              		@ args = 4, pretend = 0, frame = 24
 1711              		@ frame_needed = 1, uses_anonymous_args = 0
 1712 0000 90B5     		push	{r4, r7, lr}
 1713              		.cfi_def_cfa_offset 12
 1714              		.cfi_offset 4, -12
 1715              		.cfi_offset 7, -8
 1716              		.cfi_offset 14, -4
 1717 0002 87B0     		sub	sp, sp, #28
 1718              		.cfi_def_cfa_offset 40
 1719 0004 00AF     		add	r7, sp, #0
 1720              		.cfi_def_cfa_register 7
 1721 0006 0446     		mov	r4, r0
 1722 0008 0846     		mov	r0, r1
 1723 000a 1146     		mov	r1, r2
 1724 000c 1A46     		mov	r2, r3
 1725 000e 2346     		mov	r3, r4	@ movhi
 1726 0010 FB80     		strh	r3, [r7, #6]	@ movhi
 1727 0012 0346     		mov	r3, r0	@ movhi
 1728 0014 BB80     		strh	r3, [r7, #4]	@ movhi
 1729 0016 0B46     		mov	r3, r1	@ movhi
 1730 0018 7B80     		strh	r3, [r7, #2]	@ movhi
 1731 001a 1346     		mov	r3, r2	@ movhi
 1732 001c 3B80     		strh	r3, [r7]	@ movhi
 130:rhea\gfx/gfx.c **** 
 131:rhea\gfx/gfx.c **** 	// Bresenham's Line Drawing Algorithm for positive slopes
 132:rhea\gfx/gfx.c **** 	int16_t dx = x1 - x0;
 1733              		.loc 1 132 0
 1734 001e 7A88     		ldrh	r2, [r7, #2]	@ movhi
 1735 0020 FB88     		ldrh	r3, [r7, #6]	@ movhi
 1736 0022 D31A     		subs	r3, r2, r3
 1737 0024 9BB2     		uxth	r3, r3
 1738 0026 FB82     		strh	r3, [r7, #22]	@ movhi
 133:rhea\gfx/gfx.c **** 	int16_t dy = y1 - y0;
 1739              		.loc 1 133 0
 1740 0028 3A88     		ldrh	r2, [r7]	@ movhi
 1741 002a BB88     		ldrh	r3, [r7, #4]	@ movhi
 1742 002c D31A     		subs	r3, r2, r3
 1743 002e 9BB2     		uxth	r3, r3
 1744 0030 BB81     		strh	r3, [r7, #12]	@ movhi
ARM GAS  C:\Users\GYULAI~1\AppData\Local\Temp\ccilvZpi.s 			page 34


 134:rhea\gfx/gfx.c **** 	int16_t xi = 1;
 1745              		.loc 1 134 0
 1746 0032 0123     		movs	r3, #1
 1747 0034 BB82     		strh	r3, [r7, #20]	@ movhi
 135:rhea\gfx/gfx.c **** 
 136:rhea\gfx/gfx.c **** 	if (dx < 0) {
 1748              		.loc 1 136 0
 1749 0036 B7F91630 		ldrsh	r3, [r7, #22]
 1750 003a 002B     		cmp	r3, #0
 1751 003c 06DA     		bge	.L17
 137:rhea\gfx/gfx.c **** 		xi = -1;
 1752              		.loc 1 137 0
 1753 003e 4FF6FF73 		movw	r3, #65535
 1754 0042 BB82     		strh	r3, [r7, #20]	@ movhi
 138:rhea\gfx/gfx.c **** 		dx = -dx;
 1755              		.loc 1 138 0
 1756 0044 FB8A     		ldrh	r3, [r7, #22]
 1757 0046 5B42     		negs	r3, r3
 1758 0048 9BB2     		uxth	r3, r3
 1759 004a FB82     		strh	r3, [r7, #22]	@ movhi
 1760              	.L17:
 139:rhea\gfx/gfx.c **** 	}
 140:rhea\gfx/gfx.c **** 
 141:rhea\gfx/gfx.c **** 	int16_t D = 2 * dx - dy;
 1761              		.loc 1 141 0
 1762 004c FB8A     		ldrh	r3, [r7, #22]
 1763 004e 5B00     		lsls	r3, r3, #1
 1764 0050 9AB2     		uxth	r2, r3
 1765 0052 BB89     		ldrh	r3, [r7, #12]
 1766 0054 D31A     		subs	r3, r2, r3
 1767 0056 9BB2     		uxth	r3, r3
 1768 0058 7B82     		strh	r3, [r7, #18]	@ movhi
 142:rhea\gfx/gfx.c **** 	int16_t x = x0;
 1769              		.loc 1 142 0
 1770 005a FB88     		ldrh	r3, [r7, #6]	@ movhi
 1771 005c 3B82     		strh	r3, [r7, #16]	@ movhi
 1772              	.LBB3:
 143:rhea\gfx/gfx.c **** 
 144:rhea\gfx/gfx.c **** 	for (int16_t y = y0; y < y1; y++) {
 1773              		.loc 1 144 0
 1774 005e BB88     		ldrh	r3, [r7, #4]	@ movhi
 1775 0060 FB81     		strh	r3, [r7, #14]	@ movhi
 1776 0062 23E0     		b	.L18
 1777              	.L20:
 145:rhea\gfx/gfx.c **** 		rhea_gfx_writePixel_impl(x, y, color);
 1778              		.loc 1 145 0
 1779 0064 3B8A     		ldrh	r3, [r7, #16]
 1780 0066 F989     		ldrh	r1, [r7, #14]
 1781 0068 97F82820 		ldrb	r2, [r7, #40]	@ zero_extendqisi2
 1782 006c 1846     		mov	r0, r3
 1783 006e FFF7FEFF 		bl	rhea_gfx_writePixel_impl
 146:rhea\gfx/gfx.c **** 		if (D > 0) {
 1784              		.loc 1 146 0
 1785 0072 B7F91230 		ldrsh	r3, [r7, #18]
 1786 0076 002B     		cmp	r3, #0
 1787 0078 0BDD     		ble	.L19
 147:rhea\gfx/gfx.c **** 			x = x + xi;
ARM GAS  C:\Users\GYULAI~1\AppData\Local\Temp\ccilvZpi.s 			page 35


 1788              		.loc 1 147 0
 1789 007a 3A8A     		ldrh	r2, [r7, #16]
 1790 007c BB8A     		ldrh	r3, [r7, #20]
 1791 007e 1344     		add	r3, r3, r2
 1792 0080 9BB2     		uxth	r3, r3
 1793 0082 3B82     		strh	r3, [r7, #16]	@ movhi
 148:rhea\gfx/gfx.c **** 			D = D - 2 * dy;
 1794              		.loc 1 148 0
 1795 0084 7A8A     		ldrh	r2, [r7, #18]
 1796 0086 BB89     		ldrh	r3, [r7, #12]
 1797 0088 5B00     		lsls	r3, r3, #1
 1798 008a 9BB2     		uxth	r3, r3
 1799 008c D31A     		subs	r3, r2, r3
 1800 008e 9BB2     		uxth	r3, r3
 1801 0090 7B82     		strh	r3, [r7, #18]	@ movhi
 1802              	.L19:
 149:rhea\gfx/gfx.c **** 		}
 150:rhea\gfx/gfx.c **** 
 151:rhea\gfx/gfx.c **** 		D = D + 2 * dx;
 1803              		.loc 1 151 0 discriminator 2
 1804 0092 FB8A     		ldrh	r3, [r7, #22]
 1805 0094 5B00     		lsls	r3, r3, #1
 1806 0096 9AB2     		uxth	r2, r3
 1807 0098 7B8A     		ldrh	r3, [r7, #18]
 1808 009a 1344     		add	r3, r3, r2
 1809 009c 9BB2     		uxth	r3, r3
 1810 009e 7B82     		strh	r3, [r7, #18]	@ movhi
 144:rhea\gfx/gfx.c **** 		rhea_gfx_writePixel_impl(x, y, color);
 1811              		.loc 1 144 0 discriminator 2
 1812 00a0 B7F90E30 		ldrsh	r3, [r7, #14]
 1813 00a4 9BB2     		uxth	r3, r3
 1814 00a6 0133     		adds	r3, r3, #1
 1815 00a8 9BB2     		uxth	r3, r3
 1816 00aa FB81     		strh	r3, [r7, #14]	@ movhi
 1817              	.L18:
 144:rhea\gfx/gfx.c **** 		rhea_gfx_writePixel_impl(x, y, color);
 1818              		.loc 1 144 0 is_stmt 0 discriminator 1
 1819 00ac B7F90E20 		ldrsh	r2, [r7, #14]
 1820 00b0 3B88     		ldrh	r3, [r7]
 1821 00b2 9A42     		cmp	r2, r3
 1822 00b4 D6DB     		blt	.L20
 1823              	.LBE3:
 152:rhea\gfx/gfx.c **** 	}
 153:rhea\gfx/gfx.c **** }
 1824              		.loc 1 153 0 is_stmt 1
 1825 00b6 00BF     		nop
 1826 00b8 1C37     		adds	r7, r7, #28
 1827              		.cfi_def_cfa_offset 12
 1828 00ba BD46     		mov	sp, r7
 1829              		.cfi_def_cfa_register 13
 1830              		@ sp needed
 1831 00bc 90BD     		pop	{r4, r7, pc}
 1832              		.cfi_endproc
 1833              	.LFE7:
 1834              		.size	rhea_gfx_DrawLineHigh, .-rhea_gfx_DrawLineHigh
 1835 00be 00BF     		.section	.text.rhea_gfx_DrawLine,"ax",%progbits
 1836              		.align	2
ARM GAS  C:\Users\GYULAI~1\AppData\Local\Temp\ccilvZpi.s 			page 36


 1837              		.global	rhea_gfx_DrawLine
 1838              		.thumb
 1839              		.thumb_func
 1840              		.type	rhea_gfx_DrawLine, %function
 1841              	rhea_gfx_DrawLine:
 1842              	.LFB8:
 154:rhea\gfx/gfx.c **** 
 155:rhea\gfx/gfx.c **** void rhea_gfx_DrawLine(rhea_gfx_coordinate x0, rhea_gfx_coordinate y0, rhea_gfx_coordinate x1, rhea
 1843              		.loc 1 155 0
 1844              		.cfi_startproc
 1845              		@ args = 4, pretend = 0, frame = 8
 1846              		@ frame_needed = 1, uses_anonymous_args = 0
 1847 0000 90B5     		push	{r4, r7, lr}
 1848              		.cfi_def_cfa_offset 12
 1849              		.cfi_offset 4, -12
 1850              		.cfi_offset 7, -8
 1851              		.cfi_offset 14, -4
 1852 0002 85B0     		sub	sp, sp, #20
 1853              		.cfi_def_cfa_offset 32
 1854 0004 02AF     		add	r7, sp, #8
 1855              		.cfi_def_cfa 7, 24
 1856 0006 0446     		mov	r4, r0
 1857 0008 0846     		mov	r0, r1
 1858 000a 1146     		mov	r1, r2
 1859 000c 1A46     		mov	r2, r3
 1860 000e 2346     		mov	r3, r4	@ movhi
 1861 0010 FB80     		strh	r3, [r7, #6]	@ movhi
 1862 0012 0346     		mov	r3, r0	@ movhi
 1863 0014 BB80     		strh	r3, [r7, #4]	@ movhi
 1864 0016 0B46     		mov	r3, r1	@ movhi
 1865 0018 7B80     		strh	r3, [r7, #2]	@ movhi
 1866 001a 1346     		mov	r3, r2	@ movhi
 1867 001c 3B80     		strh	r3, [r7]	@ movhi
 156:rhea\gfx/gfx.c **** 
 157:rhea\gfx/gfx.c **** 	// Checking if can be implemented efficiently
 158:rhea\gfx/gfx.c **** 	if (x0 == x1) {
 1868              		.loc 1 158 0
 1869 001e FA88     		ldrh	r2, [r7, #6]
 1870 0020 7B88     		ldrh	r3, [r7, #2]
 1871 0022 9A42     		cmp	r2, r3
 1872 0024 11D1     		bne	.L22
 159:rhea\gfx/gfx.c **** 		rhea_gfx_DrawVerticalLine(x0, y0 < y1 ? y0 : y1, abs(y1 - y0), color); return;
 1873              		.loc 1 159 0
 1874 0026 3A88     		ldrh	r2, [r7]
 1875 0028 BB88     		ldrh	r3, [r7, #4]
 1876 002a 9342     		cmp	r3, r2
 1877 002c 28BF     		it	cs
 1878 002e 1346     		movcs	r3, r2
 1879 0030 99B2     		uxth	r1, r3
 1880 0032 3A88     		ldrh	r2, [r7]
 1881 0034 BB88     		ldrh	r3, [r7, #4]
 1882 0036 D31A     		subs	r3, r2, r3
 1883 0038 002B     		cmp	r3, #0
 1884 003a B8BF     		it	lt
 1885 003c 5B42     		rsblt	r3, r3, #0
 1886 003e DAB2     		uxtb	r2, r3
 1887 0040 3B7E     		ldrb	r3, [r7, #24]	@ zero_extendqisi2
ARM GAS  C:\Users\GYULAI~1\AppData\Local\Temp\ccilvZpi.s 			page 37


 1888 0042 F888     		ldrh	r0, [r7, #6]
 1889 0044 FFF7FEFF 		bl	rhea_gfx_DrawVerticalLine
 1890 0048 53E0     		b	.L21
 1891              	.L22:
 160:rhea\gfx/gfx.c **** 	}
 161:rhea\gfx/gfx.c **** 	if (y0 == y1) {
 1892              		.loc 1 161 0
 1893 004a BA88     		ldrh	r2, [r7, #4]
 1894 004c 3B88     		ldrh	r3, [r7]
 1895 004e 9A42     		cmp	r2, r3
 1896 0050 11D1     		bne	.L24
 162:rhea\gfx/gfx.c **** 		rhea_gfx_DrawHorizontalLine(x0 < x1 ? x0 : x1, y0, abs(x1 - x0), color); return;
 1897              		.loc 1 162 0
 1898 0052 7A88     		ldrh	r2, [r7, #2]
 1899 0054 FB88     		ldrh	r3, [r7, #6]
 1900 0056 9342     		cmp	r3, r2
 1901 0058 28BF     		it	cs
 1902 005a 1346     		movcs	r3, r2
 1903 005c 98B2     		uxth	r0, r3
 1904 005e 7A88     		ldrh	r2, [r7, #2]
 1905 0060 FB88     		ldrh	r3, [r7, #6]
 1906 0062 D31A     		subs	r3, r2, r3
 1907 0064 002B     		cmp	r3, #0
 1908 0066 B8BF     		it	lt
 1909 0068 5B42     		rsblt	r3, r3, #0
 1910 006a DAB2     		uxtb	r2, r3
 1911 006c 3B7E     		ldrb	r3, [r7, #24]	@ zero_extendqisi2
 1912 006e B988     		ldrh	r1, [r7, #4]
 1913 0070 FFF7FEFF 		bl	rhea_gfx_DrawHorizontalLine
 1914 0074 3DE0     		b	.L21
 1915              	.L24:
 163:rhea\gfx/gfx.c **** 	}
 164:rhea\gfx/gfx.c **** 
 165:rhea\gfx/gfx.c **** 	// Bresenham's Line Drawing Algorithm
 166:rhea\gfx/gfx.c **** 	if (abs(y1 - y0) < abs(x1 - x0)) {
 1916              		.loc 1 166 0
 1917 0076 3A88     		ldrh	r2, [r7]
 1918 0078 BB88     		ldrh	r3, [r7, #4]
 1919 007a D31A     		subs	r3, r2, r3
 1920 007c 83EAE372 		eor	r2, r3, r3, asr #31
 1921 0080 A2EBE372 		sub	r2, r2, r3, asr #31
 1922 0084 7988     		ldrh	r1, [r7, #2]
 1923 0086 FB88     		ldrh	r3, [r7, #6]
 1924 0088 CB1A     		subs	r3, r1, r3
 1925 008a 002B     		cmp	r3, #0
 1926 008c B8BF     		it	lt
 1927 008e 5B42     		rsblt	r3, r3, #0
 1928 0090 9A42     		cmp	r2, r3
 1929 0092 17DA     		bge	.L25
 167:rhea\gfx/gfx.c **** 		if (x0 > x1) rhea_gfx_DrawLineLow(x1, y1, x0, y0, color);
 1930              		.loc 1 167 0
 1931 0094 FA88     		ldrh	r2, [r7, #6]
 1932 0096 7B88     		ldrh	r3, [r7, #2]
 1933 0098 9A42     		cmp	r2, r3
 1934 009a 09D9     		bls	.L26
 1935              		.loc 1 167 0 is_stmt 0 discriminator 1
 1936 009c BC88     		ldrh	r4, [r7, #4]
ARM GAS  C:\Users\GYULAI~1\AppData\Local\Temp\ccilvZpi.s 			page 38


 1937 009e FA88     		ldrh	r2, [r7, #6]
 1938 00a0 3988     		ldrh	r1, [r7]
 1939 00a2 7888     		ldrh	r0, [r7, #2]
 1940 00a4 3B7E     		ldrb	r3, [r7, #24]	@ zero_extendqisi2
 1941 00a6 0093     		str	r3, [sp]
 1942 00a8 2346     		mov	r3, r4
 1943 00aa FFF7FEFF 		bl	rhea_gfx_DrawLineLow
 1944 00ae 20E0     		b	.L21
 1945              	.L26:
 168:rhea\gfx/gfx.c **** 		else         rhea_gfx_DrawLineLow(x0, y0, x1, y1, color);
 1946              		.loc 1 168 0 is_stmt 1
 1947 00b0 3C88     		ldrh	r4, [r7]
 1948 00b2 7A88     		ldrh	r2, [r7, #2]
 1949 00b4 B988     		ldrh	r1, [r7, #4]
 1950 00b6 F888     		ldrh	r0, [r7, #6]
 1951 00b8 3B7E     		ldrb	r3, [r7, #24]	@ zero_extendqisi2
 1952 00ba 0093     		str	r3, [sp]
 1953 00bc 2346     		mov	r3, r4
 1954 00be FFF7FEFF 		bl	rhea_gfx_DrawLineLow
 1955 00c2 16E0     		b	.L21
 1956              	.L25:
 169:rhea\gfx/gfx.c **** 	}
 170:rhea\gfx/gfx.c **** 	else {
 171:rhea\gfx/gfx.c **** 		if (y0 > y1) rhea_gfx_DrawLineHigh(x1, y1, x0, y0, color);
 1957              		.loc 1 171 0
 1958 00c4 BA88     		ldrh	r2, [r7, #4]
 1959 00c6 3B88     		ldrh	r3, [r7]
 1960 00c8 9A42     		cmp	r2, r3
 1961 00ca 09D9     		bls	.L28
 1962              		.loc 1 171 0 is_stmt 0 discriminator 1
 1963 00cc BC88     		ldrh	r4, [r7, #4]
 1964 00ce FA88     		ldrh	r2, [r7, #6]
 1965 00d0 3988     		ldrh	r1, [r7]
 1966 00d2 7888     		ldrh	r0, [r7, #2]
 1967 00d4 3B7E     		ldrb	r3, [r7, #24]	@ zero_extendqisi2
 1968 00d6 0093     		str	r3, [sp]
 1969 00d8 2346     		mov	r3, r4
 1970 00da FFF7FEFF 		bl	rhea_gfx_DrawLineHigh
 1971 00de 08E0     		b	.L21
 1972              	.L28:
 172:rhea\gfx/gfx.c **** 		else         rhea_gfx_DrawLineHigh(x0, y0, x1, y1, color);
 1973              		.loc 1 172 0 is_stmt 1
 1974 00e0 3C88     		ldrh	r4, [r7]
 1975 00e2 7A88     		ldrh	r2, [r7, #2]
 1976 00e4 B988     		ldrh	r1, [r7, #4]
 1977 00e6 F888     		ldrh	r0, [r7, #6]
 1978 00e8 3B7E     		ldrb	r3, [r7, #24]	@ zero_extendqisi2
 1979 00ea 0093     		str	r3, [sp]
 1980 00ec 2346     		mov	r3, r4
 1981 00ee FFF7FEFF 		bl	rhea_gfx_DrawLineHigh
 1982              	.L21:
 173:rhea\gfx/gfx.c **** 	}
 174:rhea\gfx/gfx.c **** 
 175:rhea\gfx/gfx.c **** 	// Refreshing display
 176:rhea\gfx/gfx.c **** 	// rhea_gfx_Refresh();
 177:rhea\gfx/gfx.c **** }
 1983              		.loc 1 177 0
ARM GAS  C:\Users\GYULAI~1\AppData\Local\Temp\ccilvZpi.s 			page 39


 1984 00f2 0C37     		adds	r7, r7, #12
 1985              		.cfi_def_cfa_offset 12
 1986 00f4 BD46     		mov	sp, r7
 1987              		.cfi_def_cfa_register 13
 1988              		@ sp needed
 1989 00f6 90BD     		pop	{r4, r7, pc}
 1990              		.cfi_endproc
 1991              	.LFE8:
 1992              		.size	rhea_gfx_DrawLine, .-rhea_gfx_DrawLine
 1993              		.section	.text.rhea_gfx_DrawVerticalLine,"ax",%progbits
 1994              		.align	2
 1995              		.global	rhea_gfx_DrawVerticalLine
 1996              		.thumb
 1997              		.thumb_func
 1998              		.type	rhea_gfx_DrawVerticalLine, %function
 1999              	rhea_gfx_DrawVerticalLine:
 2000              	.LFB9:
 178:rhea\gfx/gfx.c **** 
 179:rhea\gfx/gfx.c **** void rhea_gfx_DrawVerticalLine(rhea_gfx_coordinate x, rhea_gfx_coordinate y, rhea_gfx_size_t height
 2001              		.loc 1 179 0
 2002              		.cfi_startproc
 2003              		@ args = 0, pretend = 0, frame = 16
 2004              		@ frame_needed = 1, uses_anonymous_args = 0
 2005 0000 90B5     		push	{r4, r7, lr}
 2006              		.cfi_def_cfa_offset 12
 2007              		.cfi_offset 4, -12
 2008              		.cfi_offset 7, -8
 2009              		.cfi_offset 14, -4
 2010 0002 85B0     		sub	sp, sp, #20
 2011              		.cfi_def_cfa_offset 32
 2012 0004 00AF     		add	r7, sp, #0
 2013              		.cfi_def_cfa_register 7
 2014 0006 0446     		mov	r4, r0
 2015 0008 0846     		mov	r0, r1
 2016 000a 1146     		mov	r1, r2
 2017 000c 1A46     		mov	r2, r3
 2018 000e 2346     		mov	r3, r4	@ movhi
 2019 0010 FB80     		strh	r3, [r7, #6]	@ movhi
 2020 0012 0346     		mov	r3, r0	@ movhi
 2021 0014 BB80     		strh	r3, [r7, #4]	@ movhi
 2022 0016 0B46     		mov	r3, r1
 2023 0018 FB70     		strb	r3, [r7, #3]
 2024 001a 1346     		mov	r3, r2
 2025 001c BB70     		strb	r3, [r7, #2]
 2026              	.LBB4:
 180:rhea\gfx/gfx.c **** 
 181:rhea\gfx/gfx.c **** 	// Drawing vertical line
 182:rhea\gfx/gfx.c **** 	for (rhea_gfx_size_t i = 0; i < height; i++) rhea_gfx_writePixel_impl(x, y + i, color);
 2027              		.loc 1 182 0
 2028 001e 0023     		movs	r3, #0
 2029 0020 FB73     		strb	r3, [r7, #15]
 2030 0022 0CE0     		b	.L30
 2031              	.L31:
 2032              		.loc 1 182 0 is_stmt 0 discriminator 3
 2033 0024 FB7B     		ldrb	r3, [r7, #15]	@ zero_extendqisi2
 2034 0026 9AB2     		uxth	r2, r3
 2035 0028 BB88     		ldrh	r3, [r7, #4]	@ movhi
ARM GAS  C:\Users\GYULAI~1\AppData\Local\Temp\ccilvZpi.s 			page 40


 2036 002a 1344     		add	r3, r3, r2
 2037 002c 99B2     		uxth	r1, r3
 2038 002e BA78     		ldrb	r2, [r7, #2]	@ zero_extendqisi2
 2039 0030 FB88     		ldrh	r3, [r7, #6]
 2040 0032 1846     		mov	r0, r3
 2041 0034 FFF7FEFF 		bl	rhea_gfx_writePixel_impl
 2042 0038 FB7B     		ldrb	r3, [r7, #15]	@ zero_extendqisi2
 2043 003a 0133     		adds	r3, r3, #1
 2044 003c FB73     		strb	r3, [r7, #15]
 2045              	.L30:
 2046              		.loc 1 182 0 discriminator 1
 2047 003e FA7B     		ldrb	r2, [r7, #15]	@ zero_extendqisi2
 2048 0040 FB78     		ldrb	r3, [r7, #3]	@ zero_extendqisi2
 2049 0042 9A42     		cmp	r2, r3
 2050 0044 EED3     		bcc	.L31
 2051              	.LBE4:
 183:rhea\gfx/gfx.c **** 
 184:rhea\gfx/gfx.c **** 	// Refreshing display
 185:rhea\gfx/gfx.c **** 	// rhea_gfx_Refresh();
 186:rhea\gfx/gfx.c **** }
 2052              		.loc 1 186 0 is_stmt 1
 2053 0046 00BF     		nop
 2054 0048 1437     		adds	r7, r7, #20
 2055              		.cfi_def_cfa_offset 12
 2056 004a BD46     		mov	sp, r7
 2057              		.cfi_def_cfa_register 13
 2058              		@ sp needed
 2059 004c 90BD     		pop	{r4, r7, pc}
 2060              		.cfi_endproc
 2061              	.LFE9:
 2062              		.size	rhea_gfx_DrawVerticalLine, .-rhea_gfx_DrawVerticalLine
 2063 004e 00BF     		.section	.text.rhea_gfx_DrawHorizontalLine,"ax",%progbits
 2064              		.align	2
 2065              		.global	rhea_gfx_DrawHorizontalLine
 2066              		.thumb
 2067              		.thumb_func
 2068              		.type	rhea_gfx_DrawHorizontalLine, %function
 2069              	rhea_gfx_DrawHorizontalLine:
 2070              	.LFB10:
 187:rhea\gfx/gfx.c **** 
 188:rhea\gfx/gfx.c **** void rhea_gfx_DrawHorizontalLine(rhea_gfx_coordinate x, rhea_gfx_coordinate y, rhea_gfx_size_t leng
 2071              		.loc 1 188 0
 2072              		.cfi_startproc
 2073              		@ args = 0, pretend = 0, frame = 16
 2074              		@ frame_needed = 1, uses_anonymous_args = 0
 2075 0000 90B5     		push	{r4, r7, lr}
 2076              		.cfi_def_cfa_offset 12
 2077              		.cfi_offset 4, -12
 2078              		.cfi_offset 7, -8
 2079              		.cfi_offset 14, -4
 2080 0002 85B0     		sub	sp, sp, #20
 2081              		.cfi_def_cfa_offset 32
 2082 0004 00AF     		add	r7, sp, #0
 2083              		.cfi_def_cfa_register 7
 2084 0006 0446     		mov	r4, r0
 2085 0008 0846     		mov	r0, r1
 2086 000a 1146     		mov	r1, r2
ARM GAS  C:\Users\GYULAI~1\AppData\Local\Temp\ccilvZpi.s 			page 41


 2087 000c 1A46     		mov	r2, r3
 2088 000e 2346     		mov	r3, r4	@ movhi
 2089 0010 FB80     		strh	r3, [r7, #6]	@ movhi
 2090 0012 0346     		mov	r3, r0	@ movhi
 2091 0014 BB80     		strh	r3, [r7, #4]	@ movhi
 2092 0016 0B46     		mov	r3, r1
 2093 0018 FB70     		strb	r3, [r7, #3]
 2094 001a 1346     		mov	r3, r2
 2095 001c BB70     		strb	r3, [r7, #2]
 2096              	.LBB5:
 189:rhea\gfx/gfx.c **** 
 190:rhea\gfx/gfx.c **** 	// Drawing horizontal line
 191:rhea\gfx/gfx.c **** 	for (rhea_gfx_size_t i = 0; i < length; i++) rhea_gfx_writePixel_impl(x + i, y, color);
 2097              		.loc 1 191 0
 2098 001e 0023     		movs	r3, #0
 2099 0020 FB73     		strb	r3, [r7, #15]
 2100 0022 0CE0     		b	.L33
 2101              	.L34:
 2102              		.loc 1 191 0 is_stmt 0 discriminator 3
 2103 0024 FB7B     		ldrb	r3, [r7, #15]	@ zero_extendqisi2
 2104 0026 9AB2     		uxth	r2, r3
 2105 0028 FB88     		ldrh	r3, [r7, #6]	@ movhi
 2106 002a 1344     		add	r3, r3, r2
 2107 002c 9BB2     		uxth	r3, r3
 2108 002e BA78     		ldrb	r2, [r7, #2]	@ zero_extendqisi2
 2109 0030 B988     		ldrh	r1, [r7, #4]
 2110 0032 1846     		mov	r0, r3
 2111 0034 FFF7FEFF 		bl	rhea_gfx_writePixel_impl
 2112 0038 FB7B     		ldrb	r3, [r7, #15]	@ zero_extendqisi2
 2113 003a 0133     		adds	r3, r3, #1
 2114 003c FB73     		strb	r3, [r7, #15]
 2115              	.L33:
 2116              		.loc 1 191 0 discriminator 1
 2117 003e FA7B     		ldrb	r2, [r7, #15]	@ zero_extendqisi2
 2118 0040 FB78     		ldrb	r3, [r7, #3]	@ zero_extendqisi2
 2119 0042 9A42     		cmp	r2, r3
 2120 0044 EED3     		bcc	.L34
 2121              	.LBE5:
 192:rhea\gfx/gfx.c **** 
 193:rhea\gfx/gfx.c **** 	// Refreshing display
 194:rhea\gfx/gfx.c **** 	// rhea_gfx_Refresh();
 195:rhea\gfx/gfx.c **** }
 2122              		.loc 1 195 0 is_stmt 1
 2123 0046 00BF     		nop
 2124 0048 1437     		adds	r7, r7, #20
 2125              		.cfi_def_cfa_offset 12
 2126 004a BD46     		mov	sp, r7
 2127              		.cfi_def_cfa_register 13
 2128              		@ sp needed
 2129 004c 90BD     		pop	{r4, r7, pc}
 2130              		.cfi_endproc
 2131              	.LFE10:
 2132              		.size	rhea_gfx_DrawHorizontalLine, .-rhea_gfx_DrawHorizontalLine
 2133              		.global	__aeabi_i2d
 2134              		.global	__aeabi_d2uiz
 2135 004e 00BF     		.section	.text.rhea_gfx_DrawCircle,"ax",%progbits
 2136              		.align	2
ARM GAS  C:\Users\GYULAI~1\AppData\Local\Temp\ccilvZpi.s 			page 42


 2137              		.global	rhea_gfx_DrawCircle
 2138              		.thumb
 2139              		.thumb_func
 2140              		.type	rhea_gfx_DrawCircle, %function
 2141              	rhea_gfx_DrawCircle:
 2142              	.LFB11:
 196:rhea\gfx/gfx.c **** 
 197:rhea\gfx/gfx.c **** void rhea_gfx_DrawCircle(rhea_gfx_coordinate x, rhea_gfx_coordinate y, rhea_gfx_size_t radius, rhea
 2143              		.loc 1 197 0
 2144              		.cfi_startproc
 2145              		@ args = 0, pretend = 0, frame = 16
 2146              		@ frame_needed = 1, uses_anonymous_args = 0
 2147 0000 90B5     		push	{r4, r7, lr}
 2148              		.cfi_def_cfa_offset 12
 2149              		.cfi_offset 4, -12
 2150              		.cfi_offset 7, -8
 2151              		.cfi_offset 14, -4
 2152 0002 85B0     		sub	sp, sp, #20
 2153              		.cfi_def_cfa_offset 32
 2154 0004 00AF     		add	r7, sp, #0
 2155              		.cfi_def_cfa_register 7
 2156 0006 0446     		mov	r4, r0
 2157 0008 0846     		mov	r0, r1
 2158 000a 1146     		mov	r1, r2
 2159 000c 1A46     		mov	r2, r3
 2160 000e 2346     		mov	r3, r4	@ movhi
 2161 0010 FB80     		strh	r3, [r7, #6]	@ movhi
 2162 0012 0346     		mov	r3, r0	@ movhi
 2163 0014 BB80     		strh	r3, [r7, #4]	@ movhi
 2164 0016 0B46     		mov	r3, r1
 2165 0018 FB70     		strb	r3, [r7, #3]
 2166 001a 1346     		mov	r3, r2
 2167 001c BB70     		strb	r3, [r7, #2]
 2168              	.LBB6:
 198:rhea\gfx/gfx.c **** 
 199:rhea\gfx/gfx.c **** 	// Drawing circle
 200:rhea\gfx/gfx.c **** 	for (rhea_gfx_coordinate i = 0; i < RHEA_GFX_WIDTH; i++) {
 2169              		.loc 1 200 0
 2170 001e 0023     		movs	r3, #0
 2171 0020 FB81     		strh	r3, [r7, #14]	@ movhi
 2172 0022 37E0     		b	.L36
 2173              	.L40:
 2174              	.LBB7:
 201:rhea\gfx/gfx.c **** 		for (rhea_gfx_coordinate j = 0; j < RHEA_GFX_HEIGHT; j++) {
 2175              		.loc 1 201 0
 2176 0024 0023     		movs	r3, #0
 2177 0026 BB81     		strh	r3, [r7, #12]	@ movhi
 2178 0028 2EE0     		b	.L37
 2179              	.L39:
 2180              	.LBB8:
 202:rhea\gfx/gfx.c **** 			rhea_gfx_size_t distance = (rhea_gfx_size_t) sqrt((x - i) * (x - i) + (y - j) * (y - j));
 2181              		.loc 1 202 0
 2182 002a FA88     		ldrh	r2, [r7, #6]
 2183 002c FB89     		ldrh	r3, [r7, #14]
 2184 002e D31A     		subs	r3, r2, r3
 2185 0030 F988     		ldrh	r1, [r7, #6]
 2186 0032 FA89     		ldrh	r2, [r7, #14]
ARM GAS  C:\Users\GYULAI~1\AppData\Local\Temp\ccilvZpi.s 			page 43


 2187 0034 8A1A     		subs	r2, r1, r2
 2188 0036 02FB03F2 		mul	r2, r2, r3
 2189 003a B988     		ldrh	r1, [r7, #4]
 2190 003c BB89     		ldrh	r3, [r7, #12]
 2191 003e CB1A     		subs	r3, r1, r3
 2192 0040 B888     		ldrh	r0, [r7, #4]
 2193 0042 B989     		ldrh	r1, [r7, #12]
 2194 0044 411A     		subs	r1, r0, r1
 2195 0046 01FB03F3 		mul	r3, r1, r3
 2196 004a 1344     		add	r3, r3, r2
 2197 004c 1846     		mov	r0, r3
 2198 004e FFF7FEFF 		bl	__aeabi_i2d
 2199 0052 0346     		mov	r3, r0
 2200 0054 0C46     		mov	r4, r1
 2201 0056 1846     		mov	r0, r3
 2202 0058 2146     		mov	r1, r4
 2203 005a FFF7FEFF 		bl	sqrt
 2204 005e 0346     		mov	r3, r0
 2205 0060 0C46     		mov	r4, r1
 2206 0062 1846     		mov	r0, r3
 2207 0064 2146     		mov	r1, r4
 2208 0066 FFF7FEFF 		bl	__aeabi_d2uiz
 2209 006a 0346     		mov	r3, r0
 2210 006c FB72     		strb	r3, [r7, #11]
 203:rhea\gfx/gfx.c **** 			if (distance == radius) rhea_gfx_writePixel_impl(i, j, color);
 2211              		.loc 1 203 0
 2212 006e FA7A     		ldrb	r2, [r7, #11]	@ zero_extendqisi2
 2213 0070 FB78     		ldrb	r3, [r7, #3]	@ zero_extendqisi2
 2214 0072 9A42     		cmp	r2, r3
 2215 0074 05D1     		bne	.L38
 2216              		.loc 1 203 0 is_stmt 0 discriminator 1
 2217 0076 BA78     		ldrb	r2, [r7, #2]	@ zero_extendqisi2
 2218 0078 B989     		ldrh	r1, [r7, #12]
 2219 007a FB89     		ldrh	r3, [r7, #14]
 2220 007c 1846     		mov	r0, r3
 2221 007e FFF7FEFF 		bl	rhea_gfx_writePixel_impl
 2222              	.L38:
 2223              	.LBE8:
 201:rhea\gfx/gfx.c **** 		for (rhea_gfx_coordinate j = 0; j < RHEA_GFX_HEIGHT; j++) {
 2224              		.loc 1 201 0 is_stmt 1 discriminator 2
 2225 0082 BB89     		ldrh	r3, [r7, #12]
 2226 0084 0133     		adds	r3, r3, #1
 2227 0086 BB81     		strh	r3, [r7, #12]	@ movhi
 2228              	.L37:
 201:rhea\gfx/gfx.c **** 		for (rhea_gfx_coordinate j = 0; j < RHEA_GFX_HEIGHT; j++) {
 2229              		.loc 1 201 0 is_stmt 0 discriminator 1
 2230 0088 BB89     		ldrh	r3, [r7, #12]
 2231 008a 1F2B     		cmp	r3, #31
 2232 008c CDD9     		bls	.L39
 2233              	.LBE7:
 200:rhea\gfx/gfx.c **** 		for (rhea_gfx_coordinate j = 0; j < RHEA_GFX_HEIGHT; j++) {
 2234              		.loc 1 200 0 is_stmt 1 discriminator 2
 2235 008e FB89     		ldrh	r3, [r7, #14]
 2236 0090 0133     		adds	r3, r3, #1
 2237 0092 FB81     		strh	r3, [r7, #14]	@ movhi
 2238              	.L36:
 200:rhea\gfx/gfx.c **** 		for (rhea_gfx_coordinate j = 0; j < RHEA_GFX_HEIGHT; j++) {
ARM GAS  C:\Users\GYULAI~1\AppData\Local\Temp\ccilvZpi.s 			page 44


 2239              		.loc 1 200 0 is_stmt 0 discriminator 1
 2240 0094 FB89     		ldrh	r3, [r7, #14]
 2241 0096 7F2B     		cmp	r3, #127
 2242 0098 C4D9     		bls	.L40
 2243              	.LBE6:
 204:rhea\gfx/gfx.c **** 		}
 205:rhea\gfx/gfx.c **** 	}
 206:rhea\gfx/gfx.c **** 
 207:rhea\gfx/gfx.c **** 	// Refreshing display
 208:rhea\gfx/gfx.c **** 	// rhea_gfx_Refresh();
 209:rhea\gfx/gfx.c **** }
 2244              		.loc 1 209 0 is_stmt 1
 2245 009a 00BF     		nop
 2246 009c 1437     		adds	r7, r7, #20
 2247              		.cfi_def_cfa_offset 12
 2248 009e BD46     		mov	sp, r7
 2249              		.cfi_def_cfa_register 13
 2250              		@ sp needed
 2251 00a0 90BD     		pop	{r4, r7, pc}
 2252              		.cfi_endproc
 2253              	.LFE11:
 2254              		.size	rhea_gfx_DrawCircle, .-rhea_gfx_DrawCircle
 2255 00a2 00BF     		.section	.text.rhea_gfx_DrawFilledCircle,"ax",%progbits
 2256              		.align	2
 2257              		.global	rhea_gfx_DrawFilledCircle
 2258              		.thumb
 2259              		.thumb_func
 2260              		.type	rhea_gfx_DrawFilledCircle, %function
 2261              	rhea_gfx_DrawFilledCircle:
 2262              	.LFB12:
 210:rhea\gfx/gfx.c **** 
 211:rhea\gfx/gfx.c **** void rhea_gfx_DrawFilledCircle(rhea_gfx_coordinate x, rhea_gfx_coordinate y, rhea_gfx_size_t radius
 2263              		.loc 1 211 0
 2264              		.cfi_startproc
 2265              		@ args = 0, pretend = 0, frame = 16
 2266              		@ frame_needed = 1, uses_anonymous_args = 0
 2267 0000 90B5     		push	{r4, r7, lr}
 2268              		.cfi_def_cfa_offset 12
 2269              		.cfi_offset 4, -12
 2270              		.cfi_offset 7, -8
 2271              		.cfi_offset 14, -4
 2272 0002 85B0     		sub	sp, sp, #20
 2273              		.cfi_def_cfa_offset 32
 2274 0004 00AF     		add	r7, sp, #0
 2275              		.cfi_def_cfa_register 7
 2276 0006 0446     		mov	r4, r0
 2277 0008 0846     		mov	r0, r1
 2278 000a 1146     		mov	r1, r2
 2279 000c 1A46     		mov	r2, r3
 2280 000e 2346     		mov	r3, r4	@ movhi
 2281 0010 FB80     		strh	r3, [r7, #6]	@ movhi
 2282 0012 0346     		mov	r3, r0	@ movhi
 2283 0014 BB80     		strh	r3, [r7, #4]	@ movhi
 2284 0016 0B46     		mov	r3, r1
 2285 0018 FB70     		strb	r3, [r7, #3]
 2286 001a 1346     		mov	r3, r2
 2287 001c BB70     		strb	r3, [r7, #2]
ARM GAS  C:\Users\GYULAI~1\AppData\Local\Temp\ccilvZpi.s 			page 45


 2288              	.LBB9:
 212:rhea\gfx/gfx.c **** 
 213:rhea\gfx/gfx.c **** 	// Drawing filled circle
 214:rhea\gfx/gfx.c **** 	for (rhea_gfx_coordinate i = 0; i < RHEA_GFX_WIDTH; i++) {
 2289              		.loc 1 214 0
 2290 001e 0023     		movs	r3, #0
 2291 0020 FB81     		strh	r3, [r7, #14]	@ movhi
 2292 0022 37E0     		b	.L42
 2293              	.L46:
 2294              	.LBB10:
 215:rhea\gfx/gfx.c **** 		for (rhea_gfx_coordinate j = 0; j < RHEA_GFX_HEIGHT; j++) {
 2295              		.loc 1 215 0
 2296 0024 0023     		movs	r3, #0
 2297 0026 BB81     		strh	r3, [r7, #12]	@ movhi
 2298 0028 2EE0     		b	.L43
 2299              	.L45:
 2300              	.LBB11:
 216:rhea\gfx/gfx.c **** 			rhea_gfx_size_t distance = (rhea_gfx_size_t) sqrt((x - i) * (x - i) + (y - j) * (y - j));
 2301              		.loc 1 216 0
 2302 002a FA88     		ldrh	r2, [r7, #6]
 2303 002c FB89     		ldrh	r3, [r7, #14]
 2304 002e D31A     		subs	r3, r2, r3
 2305 0030 F988     		ldrh	r1, [r7, #6]
 2306 0032 FA89     		ldrh	r2, [r7, #14]
 2307 0034 8A1A     		subs	r2, r1, r2
 2308 0036 02FB03F2 		mul	r2, r2, r3
 2309 003a B988     		ldrh	r1, [r7, #4]
 2310 003c BB89     		ldrh	r3, [r7, #12]
 2311 003e CB1A     		subs	r3, r1, r3
 2312 0040 B888     		ldrh	r0, [r7, #4]
 2313 0042 B989     		ldrh	r1, [r7, #12]
 2314 0044 411A     		subs	r1, r0, r1
 2315 0046 01FB03F3 		mul	r3, r1, r3
 2316 004a 1344     		add	r3, r3, r2
 2317 004c 1846     		mov	r0, r3
 2318 004e FFF7FEFF 		bl	__aeabi_i2d
 2319 0052 0346     		mov	r3, r0
 2320 0054 0C46     		mov	r4, r1
 2321 0056 1846     		mov	r0, r3
 2322 0058 2146     		mov	r1, r4
 2323 005a FFF7FEFF 		bl	sqrt
 2324 005e 0346     		mov	r3, r0
 2325 0060 0C46     		mov	r4, r1
 2326 0062 1846     		mov	r0, r3
 2327 0064 2146     		mov	r1, r4
 2328 0066 FFF7FEFF 		bl	__aeabi_d2uiz
 2329 006a 0346     		mov	r3, r0
 2330 006c FB72     		strb	r3, [r7, #11]
 217:rhea\gfx/gfx.c **** 			if (distance <= radius) rhea_gfx_writePixel_impl(i, j, color);
 2331              		.loc 1 217 0
 2332 006e FA7A     		ldrb	r2, [r7, #11]	@ zero_extendqisi2
 2333 0070 FB78     		ldrb	r3, [r7, #3]	@ zero_extendqisi2
 2334 0072 9A42     		cmp	r2, r3
 2335 0074 05D8     		bhi	.L44
 2336              		.loc 1 217 0 is_stmt 0 discriminator 1
 2337 0076 BA78     		ldrb	r2, [r7, #2]	@ zero_extendqisi2
 2338 0078 B989     		ldrh	r1, [r7, #12]
ARM GAS  C:\Users\GYULAI~1\AppData\Local\Temp\ccilvZpi.s 			page 46


 2339 007a FB89     		ldrh	r3, [r7, #14]
 2340 007c 1846     		mov	r0, r3
 2341 007e FFF7FEFF 		bl	rhea_gfx_writePixel_impl
 2342              	.L44:
 2343              	.LBE11:
 215:rhea\gfx/gfx.c **** 		for (rhea_gfx_coordinate j = 0; j < RHEA_GFX_HEIGHT; j++) {
 2344              		.loc 1 215 0 is_stmt 1 discriminator 2
 2345 0082 BB89     		ldrh	r3, [r7, #12]
 2346 0084 0133     		adds	r3, r3, #1
 2347 0086 BB81     		strh	r3, [r7, #12]	@ movhi
 2348              	.L43:
 215:rhea\gfx/gfx.c **** 		for (rhea_gfx_coordinate j = 0; j < RHEA_GFX_HEIGHT; j++) {
 2349              		.loc 1 215 0 is_stmt 0 discriminator 1
 2350 0088 BB89     		ldrh	r3, [r7, #12]
 2351 008a 1F2B     		cmp	r3, #31
 2352 008c CDD9     		bls	.L45
 2353              	.LBE10:
 214:rhea\gfx/gfx.c **** 		for (rhea_gfx_coordinate j = 0; j < RHEA_GFX_HEIGHT; j++) {
 2354              		.loc 1 214 0 is_stmt 1 discriminator 2
 2355 008e FB89     		ldrh	r3, [r7, #14]
 2356 0090 0133     		adds	r3, r3, #1
 2357 0092 FB81     		strh	r3, [r7, #14]	@ movhi
 2358              	.L42:
 214:rhea\gfx/gfx.c **** 		for (rhea_gfx_coordinate j = 0; j < RHEA_GFX_HEIGHT; j++) {
 2359              		.loc 1 214 0 is_stmt 0 discriminator 1
 2360 0094 FB89     		ldrh	r3, [r7, #14]
 2361 0096 7F2B     		cmp	r3, #127
 2362 0098 C4D9     		bls	.L46
 2363              	.LBE9:
 218:rhea\gfx/gfx.c **** 		}
 219:rhea\gfx/gfx.c **** 	}
 220:rhea\gfx/gfx.c **** 
 221:rhea\gfx/gfx.c **** 	// Refreshing display
 222:rhea\gfx/gfx.c **** 	// rhea_gfx_Refresh();
 223:rhea\gfx/gfx.c **** }
 2364              		.loc 1 223 0 is_stmt 1
 2365 009a 00BF     		nop
 2366 009c 1437     		adds	r7, r7, #20
 2367              		.cfi_def_cfa_offset 12
 2368 009e BD46     		mov	sp, r7
 2369              		.cfi_def_cfa_register 13
 2370              		@ sp needed
 2371 00a0 90BD     		pop	{r4, r7, pc}
 2372              		.cfi_endproc
 2373              	.LFE12:
 2374              		.size	rhea_gfx_DrawFilledCircle, .-rhea_gfx_DrawFilledCircle
 2375 00a2 00BF     		.section	.text.rhea_gfx_DrawRectangle,"ax",%progbits
 2376              		.align	2
 2377              		.global	rhea_gfx_DrawRectangle
 2378              		.thumb
 2379              		.thumb_func
 2380              		.type	rhea_gfx_DrawRectangle, %function
 2381              	rhea_gfx_DrawRectangle:
 2382              	.LFB13:
 224:rhea\gfx/gfx.c **** 
 225:rhea\gfx/gfx.c **** void rhea_gfx_DrawRectangle(rhea_gfx_coordinate x, rhea_gfx_coordinate y, rhea_gfx_size_t width, rh
 2383              		.loc 1 225 0
ARM GAS  C:\Users\GYULAI~1\AppData\Local\Temp\ccilvZpi.s 			page 47


 2384              		.cfi_startproc
 2385              		@ args = 4, pretend = 0, frame = 16
 2386              		@ frame_needed = 1, uses_anonymous_args = 0
 2387 0000 90B5     		push	{r4, r7, lr}
 2388              		.cfi_def_cfa_offset 12
 2389              		.cfi_offset 4, -12
 2390              		.cfi_offset 7, -8
 2391              		.cfi_offset 14, -4
 2392 0002 85B0     		sub	sp, sp, #20
 2393              		.cfi_def_cfa_offset 32
 2394 0004 00AF     		add	r7, sp, #0
 2395              		.cfi_def_cfa_register 7
 2396 0006 0446     		mov	r4, r0
 2397 0008 0846     		mov	r0, r1
 2398 000a 1146     		mov	r1, r2
 2399 000c 1A46     		mov	r2, r3
 2400 000e 2346     		mov	r3, r4	@ movhi
 2401 0010 FB80     		strh	r3, [r7, #6]	@ movhi
 2402 0012 0346     		mov	r3, r0	@ movhi
 2403 0014 BB80     		strh	r3, [r7, #4]	@ movhi
 2404 0016 0B46     		mov	r3, r1
 2405 0018 FB70     		strb	r3, [r7, #3]
 2406 001a 1346     		mov	r3, r2
 2407 001c BB70     		strb	r3, [r7, #2]
 2408              	.LBB12:
 226:rhea\gfx/gfx.c **** 
 227:rhea\gfx/gfx.c **** 	// Drawing rectangle
 228:rhea\gfx/gfx.c **** 	for (rhea_gfx_size_t i = 0; i < width; i++) {
 2409              		.loc 1 228 0
 2410 001e 0023     		movs	r3, #0
 2411 0020 FB73     		strb	r3, [r7, #15]
 2412 0022 2BE0     		b	.L48
 2413              	.L53:
 2414              	.LBB13:
 229:rhea\gfx/gfx.c **** 		for (rhea_gfx_size_t j = 0; j < height; j++) {
 2415              		.loc 1 229 0
 2416 0024 0023     		movs	r3, #0
 2417 0026 BB73     		strb	r3, [r7, #14]
 2418 0028 21E0     		b	.L49
 2419              	.L52:
 230:rhea\gfx/gfx.c **** 			if (i == 0 || i == width - 1 || j == 0 || j == height - 1) {
 2420              		.loc 1 230 0
 2421 002a FB7B     		ldrb	r3, [r7, #15]	@ zero_extendqisi2
 2422 002c 002B     		cmp	r3, #0
 2423 002e 0CD0     		beq	.L50
 2424              		.loc 1 230 0 is_stmt 0 discriminator 1
 2425 0030 FA7B     		ldrb	r2, [r7, #15]	@ zero_extendqisi2
 2426 0032 FB78     		ldrb	r3, [r7, #3]	@ zero_extendqisi2
 2427 0034 013B     		subs	r3, r3, #1
 2428 0036 9A42     		cmp	r2, r3
 2429 0038 07D0     		beq	.L50
 2430              		.loc 1 230 0 discriminator 2
 2431 003a BB7B     		ldrb	r3, [r7, #14]	@ zero_extendqisi2
 2432 003c 002B     		cmp	r3, #0
 2433 003e 04D0     		beq	.L50
 2434              		.loc 1 230 0 discriminator 3
 2435 0040 BA7B     		ldrb	r2, [r7, #14]	@ zero_extendqisi2
ARM GAS  C:\Users\GYULAI~1\AppData\Local\Temp\ccilvZpi.s 			page 48


 2436 0042 BB78     		ldrb	r3, [r7, #2]	@ zero_extendqisi2
 2437 0044 013B     		subs	r3, r3, #1
 2438 0046 9A42     		cmp	r2, r3
 2439 0048 0ED1     		bne	.L51
 2440              	.L50:
 231:rhea\gfx/gfx.c **** 				rhea_gfx_writePixel_impl(x + i, y + j, color);
 2441              		.loc 1 231 0 is_stmt 1
 2442 004a FB7B     		ldrb	r3, [r7, #15]	@ zero_extendqisi2
 2443 004c 9AB2     		uxth	r2, r3
 2444 004e FB88     		ldrh	r3, [r7, #6]	@ movhi
 2445 0050 1344     		add	r3, r3, r2
 2446 0052 98B2     		uxth	r0, r3
 2447 0054 BB7B     		ldrb	r3, [r7, #14]	@ zero_extendqisi2
 2448 0056 9AB2     		uxth	r2, r3
 2449 0058 BB88     		ldrh	r3, [r7, #4]	@ movhi
 2450 005a 1344     		add	r3, r3, r2
 2451 005c 9BB2     		uxth	r3, r3
 2452 005e 97F82020 		ldrb	r2, [r7, #32]	@ zero_extendqisi2
 2453 0062 1946     		mov	r1, r3
 2454 0064 FFF7FEFF 		bl	rhea_gfx_writePixel_impl
 2455              	.L51:
 229:rhea\gfx/gfx.c **** 		for (rhea_gfx_size_t j = 0; j < height; j++) {
 2456              		.loc 1 229 0 discriminator 2
 2457 0068 BB7B     		ldrb	r3, [r7, #14]	@ zero_extendqisi2
 2458 006a 0133     		adds	r3, r3, #1
 2459 006c BB73     		strb	r3, [r7, #14]
 2460              	.L49:
 229:rhea\gfx/gfx.c **** 		for (rhea_gfx_size_t j = 0; j < height; j++) {
 2461              		.loc 1 229 0 is_stmt 0 discriminator 1
 2462 006e BA7B     		ldrb	r2, [r7, #14]	@ zero_extendqisi2
 2463 0070 BB78     		ldrb	r3, [r7, #2]	@ zero_extendqisi2
 2464 0072 9A42     		cmp	r2, r3
 2465 0074 D9D3     		bcc	.L52
 2466              	.LBE13:
 228:rhea\gfx/gfx.c **** 		for (rhea_gfx_size_t j = 0; j < height; j++) {
 2467              		.loc 1 228 0 is_stmt 1 discriminator 2
 2468 0076 FB7B     		ldrb	r3, [r7, #15]	@ zero_extendqisi2
 2469 0078 0133     		adds	r3, r3, #1
 2470 007a FB73     		strb	r3, [r7, #15]
 2471              	.L48:
 228:rhea\gfx/gfx.c **** 		for (rhea_gfx_size_t j = 0; j < height; j++) {
 2472              		.loc 1 228 0 is_stmt 0 discriminator 1
 2473 007c FA7B     		ldrb	r2, [r7, #15]	@ zero_extendqisi2
 2474 007e FB78     		ldrb	r3, [r7, #3]	@ zero_extendqisi2
 2475 0080 9A42     		cmp	r2, r3
 2476 0082 CFD3     		bcc	.L53
 2477              	.LBE12:
 232:rhea\gfx/gfx.c **** 			}
 233:rhea\gfx/gfx.c **** 		}
 234:rhea\gfx/gfx.c **** 	}
 235:rhea\gfx/gfx.c **** 
 236:rhea\gfx/gfx.c **** 	// Refreshing display
 237:rhea\gfx/gfx.c **** 	// rhea_gfx_Refresh();
 238:rhea\gfx/gfx.c **** }
 2478              		.loc 1 238 0 is_stmt 1
 2479 0084 00BF     		nop
 2480 0086 1437     		adds	r7, r7, #20
ARM GAS  C:\Users\GYULAI~1\AppData\Local\Temp\ccilvZpi.s 			page 49


 2481              		.cfi_def_cfa_offset 12
 2482 0088 BD46     		mov	sp, r7
 2483              		.cfi_def_cfa_register 13
 2484              		@ sp needed
 2485 008a 90BD     		pop	{r4, r7, pc}
 2486              		.cfi_endproc
 2487              	.LFE13:
 2488              		.size	rhea_gfx_DrawRectangle, .-rhea_gfx_DrawRectangle
 2489              		.section	.text.rhea_gfx_DrawFilledRectangle,"ax",%progbits
 2490              		.align	2
 2491              		.global	rhea_gfx_DrawFilledRectangle
 2492              		.thumb
 2493              		.thumb_func
 2494              		.type	rhea_gfx_DrawFilledRectangle, %function
 2495              	rhea_gfx_DrawFilledRectangle:
 2496              	.LFB14:
 239:rhea\gfx/gfx.c **** 
 240:rhea\gfx/gfx.c **** void rhea_gfx_DrawFilledRectangle(rhea_gfx_coordinate x, rhea_gfx_coordinate y, rhea_gfx_size_t wid
 2497              		.loc 1 240 0
 2498              		.cfi_startproc
 2499              		@ args = 4, pretend = 0, frame = 16
 2500              		@ frame_needed = 1, uses_anonymous_args = 0
 2501 0000 90B5     		push	{r4, r7, lr}
 2502              		.cfi_def_cfa_offset 12
 2503              		.cfi_offset 4, -12
 2504              		.cfi_offset 7, -8
 2505              		.cfi_offset 14, -4
 2506 0002 85B0     		sub	sp, sp, #20
 2507              		.cfi_def_cfa_offset 32
 2508 0004 00AF     		add	r7, sp, #0
 2509              		.cfi_def_cfa_register 7
 2510 0006 0446     		mov	r4, r0
 2511 0008 0846     		mov	r0, r1
 2512 000a 1146     		mov	r1, r2
 2513 000c 1A46     		mov	r2, r3
 2514 000e 2346     		mov	r3, r4	@ movhi
 2515 0010 FB80     		strh	r3, [r7, #6]	@ movhi
 2516 0012 0346     		mov	r3, r0	@ movhi
 2517 0014 BB80     		strh	r3, [r7, #4]	@ movhi
 2518 0016 0B46     		mov	r3, r1
 2519 0018 FB70     		strb	r3, [r7, #3]
 2520 001a 1346     		mov	r3, r2
 2521 001c BB70     		strb	r3, [r7, #2]
 2522              	.LBB14:
 241:rhea\gfx/gfx.c **** 
 242:rhea\gfx/gfx.c **** 	// Drawing filled rectangle
 243:rhea\gfx/gfx.c **** 	for (rhea_gfx_size_t i = 0; i < width; i++) {
 2523              		.loc 1 243 0
 2524 001e 0023     		movs	r3, #0
 2525 0020 FB73     		strb	r3, [r7, #15]
 2526 0022 1BE0     		b	.L55
 2527              	.L58:
 2528              	.LBB15:
 244:rhea\gfx/gfx.c **** 		for (rhea_gfx_size_t j = 0; j < height; j++) {
 2529              		.loc 1 244 0
 2530 0024 0023     		movs	r3, #0
 2531 0026 BB73     		strb	r3, [r7, #14]
ARM GAS  C:\Users\GYULAI~1\AppData\Local\Temp\ccilvZpi.s 			page 50


 2532 0028 11E0     		b	.L56
 2533              	.L57:
 245:rhea\gfx/gfx.c **** 			rhea_gfx_writePixel_impl(x + i, y + j, color);
 2534              		.loc 1 245 0 discriminator 3
 2535 002a FB7B     		ldrb	r3, [r7, #15]	@ zero_extendqisi2
 2536 002c 9AB2     		uxth	r2, r3
 2537 002e FB88     		ldrh	r3, [r7, #6]	@ movhi
 2538 0030 1344     		add	r3, r3, r2
 2539 0032 98B2     		uxth	r0, r3
 2540 0034 BB7B     		ldrb	r3, [r7, #14]	@ zero_extendqisi2
 2541 0036 9AB2     		uxth	r2, r3
 2542 0038 BB88     		ldrh	r3, [r7, #4]	@ movhi
 2543 003a 1344     		add	r3, r3, r2
 2544 003c 9BB2     		uxth	r3, r3
 2545 003e 97F82020 		ldrb	r2, [r7, #32]	@ zero_extendqisi2
 2546 0042 1946     		mov	r1, r3
 2547 0044 FFF7FEFF 		bl	rhea_gfx_writePixel_impl
 244:rhea\gfx/gfx.c **** 		for (rhea_gfx_size_t j = 0; j < height; j++) {
 2548              		.loc 1 244 0 discriminator 3
 2549 0048 BB7B     		ldrb	r3, [r7, #14]	@ zero_extendqisi2
 2550 004a 0133     		adds	r3, r3, #1
 2551 004c BB73     		strb	r3, [r7, #14]
 2552              	.L56:
 244:rhea\gfx/gfx.c **** 		for (rhea_gfx_size_t j = 0; j < height; j++) {
 2553              		.loc 1 244 0 is_stmt 0 discriminator 1
 2554 004e BA7B     		ldrb	r2, [r7, #14]	@ zero_extendqisi2
 2555 0050 BB78     		ldrb	r3, [r7, #2]	@ zero_extendqisi2
 2556 0052 9A42     		cmp	r2, r3
 2557 0054 E9D3     		bcc	.L57
 2558              	.LBE15:
 243:rhea\gfx/gfx.c **** 		for (rhea_gfx_size_t j = 0; j < height; j++) {
 2559              		.loc 1 243 0 is_stmt 1 discriminator 2
 2560 0056 FB7B     		ldrb	r3, [r7, #15]	@ zero_extendqisi2
 2561 0058 0133     		adds	r3, r3, #1
 2562 005a FB73     		strb	r3, [r7, #15]
 2563              	.L55:
 243:rhea\gfx/gfx.c **** 		for (rhea_gfx_size_t j = 0; j < height; j++) {
 2564              		.loc 1 243 0 is_stmt 0 discriminator 1
 2565 005c FA7B     		ldrb	r2, [r7, #15]	@ zero_extendqisi2
 2566 005e FB78     		ldrb	r3, [r7, #3]	@ zero_extendqisi2
 2567 0060 9A42     		cmp	r2, r3
 2568 0062 DFD3     		bcc	.L58
 2569              	.LBE14:
 246:rhea\gfx/gfx.c **** 		}
 247:rhea\gfx/gfx.c **** 	}
 248:rhea\gfx/gfx.c **** 
 249:rhea\gfx/gfx.c **** 	// Refreshing display
 250:rhea\gfx/gfx.c **** 	// rhea_gfx_Refresh();
 251:rhea\gfx/gfx.c **** }
 2570              		.loc 1 251 0 is_stmt 1
 2571 0064 00BF     		nop
 2572 0066 1437     		adds	r7, r7, #20
 2573              		.cfi_def_cfa_offset 12
 2574 0068 BD46     		mov	sp, r7
 2575              		.cfi_def_cfa_register 13
 2576              		@ sp needed
 2577 006a 90BD     		pop	{r4, r7, pc}
ARM GAS  C:\Users\GYULAI~1\AppData\Local\Temp\ccilvZpi.s 			page 51


 2578              		.cfi_endproc
 2579              	.LFE14:
 2580              		.size	rhea_gfx_DrawFilledRectangle, .-rhea_gfx_DrawFilledRectangle
 2581              		.section	.text.rhea_gfx_DrawSymbolHelper,"ax",%progbits
 2582              		.align	2
 2583              		.global	rhea_gfx_DrawSymbolHelper
 2584              		.thumb
 2585              		.thumb_func
 2586              		.type	rhea_gfx_DrawSymbolHelper, %function
 2587              	rhea_gfx_DrawSymbolHelper:
 2588              	.LFB15:
 252:rhea\gfx/gfx.c **** 
 253:rhea\gfx/gfx.c **** void rhea_gfx_DrawSymbolHelper(rhea_gfx_coordinate x, rhea_gfx_coordinate y, rhea_gfx_symbol_id sym
 2589              		.loc 1 253 0
 2590              		.cfi_startproc
 2591              		@ args = 0, pretend = 0, frame = 32
 2592              		@ frame_needed = 1, uses_anonymous_args = 0
 2593 0000 80B5     		push	{r7, lr}
 2594              		.cfi_def_cfa_offset 8
 2595              		.cfi_offset 7, -8
 2596              		.cfi_offset 14, -4
 2597 0002 88B0     		sub	sp, sp, #32
 2598              		.cfi_def_cfa_offset 40
 2599 0004 00AF     		add	r7, sp, #0
 2600              		.cfi_def_cfa_register 7
 2601 0006 0346     		mov	r3, r0
 2602 0008 FB80     		strh	r3, [r7, #6]	@ movhi
 2603 000a 0B46     		mov	r3, r1	@ movhi
 2604 000c BB80     		strh	r3, [r7, #4]	@ movhi
 2605 000e 1346     		mov	r3, r2	@ movhi
 2606 0010 7B80     		strh	r3, [r7, #2]	@ movhi
 254:rhea\gfx/gfx.c **** 
 255:rhea\gfx/gfx.c **** 	// Extracting symbol descriptor
 256:rhea\gfx/gfx.c **** 	rhea_gfx_symbol symbol = rhea_gfx_localFont.fontDescriptors[symbolID];
 2607              		.loc 1 256 0
 2608 0012 314B     		ldr	r3, .L66
 2609 0014 1A68     		ldr	r2, [r3]
 2610 0016 7B88     		ldrh	r3, [r7, #2]
 2611 0018 DB00     		lsls	r3, r3, #3
 2612 001a 1A44     		add	r2, r2, r3
 2613 001c 07F10803 		add	r3, r7, #8
 2614 0020 92E80300 		ldmia	r2, {r0, r1}
 2615 0024 83E80300 		stmia	r3, {r0, r1}
 257:rhea\gfx/gfx.c **** 
 258:rhea\gfx/gfx.c **** 	// Calculating coordinate limits
 259:rhea\gfx/gfx.c **** 	rhea_gfx_coordinate limitHorizontal = x + symbol.width + symbol.paddingHorizontal;
 2616              		.loc 1 259 0
 2617 0028 3B7B     		ldrb	r3, [r7, #12]	@ zero_extendqisi2
 2618 002a 9AB2     		uxth	r2, r3
 2619 002c FB88     		ldrh	r3, [r7, #6]	@ movhi
 2620 002e 1344     		add	r3, r3, r2
 2621 0030 9AB2     		uxth	r2, r3
 2622 0032 BB7B     		ldrb	r3, [r7, #14]	@ zero_extendqisi2
 2623 0034 9BB2     		uxth	r3, r3
 2624 0036 1344     		add	r3, r3, r2
 2625 0038 7B83     		strh	r3, [r7, #26]	@ movhi
 260:rhea\gfx/gfx.c **** 	rhea_gfx_coordinate limitVertical = y + symbol.height + symbol.paddingVertical;
ARM GAS  C:\Users\GYULAI~1\AppData\Local\Temp\ccilvZpi.s 			page 52


 2626              		.loc 1 260 0
 2627 003a 7B7B     		ldrb	r3, [r7, #13]	@ zero_extendqisi2
 2628 003c 9AB2     		uxth	r2, r3
 2629 003e BB88     		ldrh	r3, [r7, #4]	@ movhi
 2630 0040 1344     		add	r3, r3, r2
 2631 0042 9AB2     		uxth	r2, r3
 2632 0044 FB7B     		ldrb	r3, [r7, #15]	@ zero_extendqisi2
 2633 0046 9BB2     		uxth	r3, r3
 2634 0048 1344     		add	r3, r3, r2
 2635 004a 3B83     		strh	r3, [r7, #24]	@ movhi
 2636              	.LBB16:
 261:rhea\gfx/gfx.c **** 
 262:rhea\gfx/gfx.c **** 	for (rhea_gfx_coordinate j = y + symbol.paddingVertical; j < limitVertical; j++) {
 2637              		.loc 1 262 0
 2638 004c FB7B     		ldrb	r3, [r7, #15]	@ zero_extendqisi2
 2639 004e 9AB2     		uxth	r2, r3
 2640 0050 BB88     		ldrh	r3, [r7, #4]	@ movhi
 2641 0052 1344     		add	r3, r3, r2
 2642 0054 FB83     		strh	r3, [r7, #30]	@ movhi
 2643 0056 36E0     		b	.L60
 2644              	.L65:
 2645              	.LBB17:
 263:rhea\gfx/gfx.c **** 		for (rhea_gfx_coordinate i = x + symbol.paddingHorizontal; i < limitHorizontal; i++) {
 2646              		.loc 1 263 0
 2647 0058 BB7B     		ldrb	r3, [r7, #14]	@ zero_extendqisi2
 2648 005a 9AB2     		uxth	r2, r3
 2649 005c FB88     		ldrh	r3, [r7, #6]	@ movhi
 2650 005e 1344     		add	r3, r3, r2
 2651 0060 BB83     		strh	r3, [r7, #28]	@ movhi
 2652 0062 29E0     		b	.L61
 2653              	.L64:
 2654              	.LBB18:
 264:rhea\gfx/gfx.c **** 
 265:rhea\gfx/gfx.c **** 			// Calculating pixel databit position
 266:rhea\gfx/gfx.c **** 			uint32_t byteIndex = symbol.offset / 8;
 2655              		.loc 1 266 0
 2656 0064 BB68     		ldr	r3, [r7, #8]
 2657 0066 DB08     		lsrs	r3, r3, #3
 2658 0068 7B61     		str	r3, [r7, #20]
 267:rhea\gfx/gfx.c **** 			uint8_t  bitIndex  = symbol.offset % 8;
 2659              		.loc 1 267 0
 2660 006a BB68     		ldr	r3, [r7, #8]
 2661 006c DBB2     		uxtb	r3, r3
 2662 006e 03F00703 		and	r3, r3, #7
 2663 0072 FB74     		strb	r3, [r7, #19]
 268:rhea\gfx/gfx.c **** 
 269:rhea\gfx/gfx.c **** 			// Printing next pixel
 270:rhea\gfx/gfx.c **** 			if (rhea_gfx_localFont.fontData[byteIndex] & (1 << (7 - bitIndex))) {
 2664              		.loc 1 270 0
 2665 0074 184B     		ldr	r3, .L66
 2666 0076 5A68     		ldr	r2, [r3, #4]
 2667 0078 7B69     		ldr	r3, [r7, #20]
 2668 007a 1344     		add	r3, r3, r2
 2669 007c 1B78     		ldrb	r3, [r3]	@ zero_extendqisi2
 2670 007e 1A46     		mov	r2, r3
 2671 0080 FB7C     		ldrb	r3, [r7, #19]	@ zero_extendqisi2
 2672 0082 C3F10703 		rsb	r3, r3, #7
ARM GAS  C:\Users\GYULAI~1\AppData\Local\Temp\ccilvZpi.s 			page 53


 2673 0086 42FA03F3 		asr	r3, r2, r3
 2674 008a 03F00103 		and	r3, r3, #1
 2675 008e 002B     		cmp	r3, #0
 2676 0090 06D0     		beq	.L62
 271:rhea\gfx/gfx.c **** 				rhea_gfx_writePixel_impl(i, j, 1);
 2677              		.loc 1 271 0
 2678 0092 F98B     		ldrh	r1, [r7, #30]
 2679 0094 BB8B     		ldrh	r3, [r7, #28]
 2680 0096 0122     		movs	r2, #1
 2681 0098 1846     		mov	r0, r3
 2682 009a FFF7FEFF 		bl	rhea_gfx_writePixel_impl
 2683 009e 05E0     		b	.L63
 2684              	.L62:
 272:rhea\gfx/gfx.c **** 			}
 273:rhea\gfx/gfx.c **** 			else {
 274:rhea\gfx/gfx.c **** 				rhea_gfx_writePixel_impl(i, j, 0);
 2685              		.loc 1 274 0
 2686 00a0 F98B     		ldrh	r1, [r7, #30]
 2687 00a2 BB8B     		ldrh	r3, [r7, #28]
 2688 00a4 0022     		movs	r2, #0
 2689 00a6 1846     		mov	r0, r3
 2690 00a8 FFF7FEFF 		bl	rhea_gfx_writePixel_impl
 2691              	.L63:
 275:rhea\gfx/gfx.c **** 			}
 276:rhea\gfx/gfx.c **** 
 277:rhea\gfx/gfx.c **** 			// Increasing offset
 278:rhea\gfx/gfx.c **** 			symbol.offset++;
 2692              		.loc 1 278 0 discriminator 2
 2693 00ac BB68     		ldr	r3, [r7, #8]
 2694 00ae 0133     		adds	r3, r3, #1
 2695 00b0 BB60     		str	r3, [r7, #8]
 2696              	.LBE18:
 263:rhea\gfx/gfx.c **** 
 2697              		.loc 1 263 0 discriminator 2
 2698 00b2 BB8B     		ldrh	r3, [r7, #28]
 2699 00b4 0133     		adds	r3, r3, #1
 2700 00b6 BB83     		strh	r3, [r7, #28]	@ movhi
 2701              	.L61:
 263:rhea\gfx/gfx.c **** 
 2702              		.loc 1 263 0 is_stmt 0 discriminator 1
 2703 00b8 BA8B     		ldrh	r2, [r7, #28]
 2704 00ba 7B8B     		ldrh	r3, [r7, #26]
 2705 00bc 9A42     		cmp	r2, r3
 2706 00be D1D3     		bcc	.L64
 2707              	.LBE17:
 262:rhea\gfx/gfx.c **** 		for (rhea_gfx_coordinate i = x + symbol.paddingHorizontal; i < limitHorizontal; i++) {
 2708              		.loc 1 262 0 is_stmt 1 discriminator 2
 2709 00c0 FB8B     		ldrh	r3, [r7, #30]
 2710 00c2 0133     		adds	r3, r3, #1
 2711 00c4 FB83     		strh	r3, [r7, #30]	@ movhi
 2712              	.L60:
 262:rhea\gfx/gfx.c **** 		for (rhea_gfx_coordinate i = x + symbol.paddingHorizontal; i < limitHorizontal; i++) {
 2713              		.loc 1 262 0 is_stmt 0 discriminator 1
 2714 00c6 FA8B     		ldrh	r2, [r7, #30]
 2715 00c8 3B8B     		ldrh	r3, [r7, #24]
 2716 00ca 9A42     		cmp	r2, r3
 2717 00cc C4D3     		bcc	.L65
ARM GAS  C:\Users\GYULAI~1\AppData\Local\Temp\ccilvZpi.s 			page 54


 2718              	.LBE16:
 279:rhea\gfx/gfx.c **** 		}
 280:rhea\gfx/gfx.c **** 	}
 281:rhea\gfx/gfx.c **** }
 2719              		.loc 1 281 0 is_stmt 1
 2720 00ce 00BF     		nop
 2721 00d0 2037     		adds	r7, r7, #32
 2722              		.cfi_def_cfa_offset 8
 2723 00d2 BD46     		mov	sp, r7
 2724              		.cfi_def_cfa_register 13
 2725              		@ sp needed
 2726 00d4 80BD     		pop	{r7, pc}
 2727              	.L67:
 2728 00d6 00BF     		.align	2
 2729              	.L66:
 2730 00d8 00000000 		.word	rhea_gfx_localFont
 2731              		.cfi_endproc
 2732              	.LFE15:
 2733              		.size	rhea_gfx_DrawSymbolHelper, .-rhea_gfx_DrawSymbolHelper
 2734              		.section	.text.rhea_gfx_DrawSymbol,"ax",%progbits
 2735              		.align	2
 2736              		.global	rhea_gfx_DrawSymbol
 2737              		.thumb
 2738              		.thumb_func
 2739              		.type	rhea_gfx_DrawSymbol, %function
 2740              	rhea_gfx_DrawSymbol:
 2741              	.LFB16:
 282:rhea\gfx/gfx.c **** 
 283:rhea\gfx/gfx.c **** void rhea_gfx_DrawSymbol(rhea_gfx_coordinate x, rhea_gfx_coordinate y, rhea_gfx_symbol_id symbolID)
 2742              		.loc 1 283 0
 2743              		.cfi_startproc
 2744              		@ args = 0, pretend = 0, frame = 8
 2745              		@ frame_needed = 1, uses_anonymous_args = 0
 2746 0000 80B5     		push	{r7, lr}
 2747              		.cfi_def_cfa_offset 8
 2748              		.cfi_offset 7, -8
 2749              		.cfi_offset 14, -4
 2750 0002 82B0     		sub	sp, sp, #8
 2751              		.cfi_def_cfa_offset 16
 2752 0004 00AF     		add	r7, sp, #0
 2753              		.cfi_def_cfa_register 7
 2754 0006 0346     		mov	r3, r0
 2755 0008 FB80     		strh	r3, [r7, #6]	@ movhi
 2756 000a 0B46     		mov	r3, r1	@ movhi
 2757 000c BB80     		strh	r3, [r7, #4]	@ movhi
 2758 000e 1346     		mov	r3, r2	@ movhi
 2759 0010 7B80     		strh	r3, [r7, #2]	@ movhi
 284:rhea\gfx/gfx.c ****     
 285:rhea\gfx/gfx.c ****     // Drawing symbol to display buffer
 286:rhea\gfx/gfx.c ****     rhea_gfx_DrawSymbolHelper(x,y,symbolID);
 2760              		.loc 1 286 0
 2761 0012 7A88     		ldrh	r2, [r7, #2]
 2762 0014 B988     		ldrh	r1, [r7, #4]
 2763 0016 FB88     		ldrh	r3, [r7, #6]
 2764 0018 1846     		mov	r0, r3
 2765 001a FFF7FEFF 		bl	rhea_gfx_DrawSymbolHelper
 287:rhea\gfx/gfx.c ****     
ARM GAS  C:\Users\GYULAI~1\AppData\Local\Temp\ccilvZpi.s 			page 55


 288:rhea\gfx/gfx.c ****     // Refreshing display
 289:rhea\gfx/gfx.c **** 	// rhea_gfx_Refresh();
 290:rhea\gfx/gfx.c **** }
 2766              		.loc 1 290 0
 2767 001e 00BF     		nop
 2768 0020 0837     		adds	r7, r7, #8
 2769              		.cfi_def_cfa_offset 8
 2770 0022 BD46     		mov	sp, r7
 2771              		.cfi_def_cfa_register 13
 2772              		@ sp needed
 2773 0024 80BD     		pop	{r7, pc}
 2774              		.cfi_endproc
 2775              	.LFE16:
 2776              		.size	rhea_gfx_DrawSymbol, .-rhea_gfx_DrawSymbol
 2777 0026 00BF     		.section	.text.rhea_gfx_SetCursor,"ax",%progbits
 2778              		.align	2
 2779              		.global	rhea_gfx_SetCursor
 2780              		.thumb
 2781              		.thumb_func
 2782              		.type	rhea_gfx_SetCursor, %function
 2783              	rhea_gfx_SetCursor:
 2784              	.LFB17:
 291:rhea\gfx/gfx.c **** 
 292:rhea\gfx/gfx.c **** void rhea_gfx_SetCursor(rhea_gfx_coordinate x, rhea_gfx_coordinate y) {
 2785              		.loc 1 292 0
 2786              		.cfi_startproc
 2787              		@ args = 0, pretend = 0, frame = 8
 2788              		@ frame_needed = 1, uses_anonymous_args = 0
 2789              		@ link register save eliminated.
 2790 0000 80B4     		push	{r7}
 2791              		.cfi_def_cfa_offset 4
 2792              		.cfi_offset 7, -4
 2793 0002 83B0     		sub	sp, sp, #12
 2794              		.cfi_def_cfa_offset 16
 2795 0004 00AF     		add	r7, sp, #0
 2796              		.cfi_def_cfa_register 7
 2797 0006 0346     		mov	r3, r0
 2798 0008 0A46     		mov	r2, r1
 2799 000a FB80     		strh	r3, [r7, #6]	@ movhi
 2800 000c 1346     		mov	r3, r2	@ movhi
 2801 000e BB80     		strh	r3, [r7, #4]	@ movhi
 293:rhea\gfx/gfx.c **** 	rhea_gfx_cursorX = x;
 2802              		.loc 1 293 0
 2803 0010 054A     		ldr	r2, .L70
 2804 0012 FB88     		ldrh	r3, [r7, #6]	@ movhi
 2805 0014 1380     		strh	r3, [r2]	@ movhi
 294:rhea\gfx/gfx.c **** 	rhea_gfx_cursorY = y;
 2806              		.loc 1 294 0
 2807 0016 054A     		ldr	r2, .L70+4
 2808 0018 BB88     		ldrh	r3, [r7, #4]	@ movhi
 2809 001a 1380     		strh	r3, [r2]	@ movhi
 295:rhea\gfx/gfx.c **** }
 2810              		.loc 1 295 0
 2811 001c 00BF     		nop
 2812 001e 0C37     		adds	r7, r7, #12
 2813              		.cfi_def_cfa_offset 4
 2814 0020 BD46     		mov	sp, r7
ARM GAS  C:\Users\GYULAI~1\AppData\Local\Temp\ccilvZpi.s 			page 56


 2815              		.cfi_def_cfa_register 13
 2816              		@ sp needed
 2817 0022 80BC     		pop	{r7}
 2818              		.cfi_restore 7
 2819              		.cfi_def_cfa_offset 0
 2820 0024 7047     		bx	lr
 2821              	.L71:
 2822 0026 00BF     		.align	2
 2823              	.L70:
 2824 0028 0C000000 		.word	rhea_gfx_cursorX
 2825 002c 0E000000 		.word	rhea_gfx_cursorY
 2826              		.cfi_endproc
 2827              	.LFE17:
 2828              		.size	rhea_gfx_SetCursor, .-rhea_gfx_SetCursor
 2829              		.section	.text.rhea_gfx_PrintSymbolHelper,"ax",%progbits
 2830              		.align	2
 2831              		.global	rhea_gfx_PrintSymbolHelper
 2832              		.thumb
 2833              		.thumb_func
 2834              		.type	rhea_gfx_PrintSymbolHelper, %function
 2835              	rhea_gfx_PrintSymbolHelper:
 2836              	.LFB18:
 296:rhea\gfx/gfx.c **** 
 297:rhea\gfx/gfx.c **** void rhea_gfx_PrintSymbolHelper(rhea_gfx_symbol_id id) {
 2837              		.loc 1 297 0
 2838              		.cfi_startproc
 2839              		@ args = 0, pretend = 0, frame = 16
 2840              		@ frame_needed = 1, uses_anonymous_args = 0
 2841 0000 80B5     		push	{r7, lr}
 2842              		.cfi_def_cfa_offset 8
 2843              		.cfi_offset 7, -8
 2844              		.cfi_offset 14, -4
 2845 0002 84B0     		sub	sp, sp, #16
 2846              		.cfi_def_cfa_offset 24
 2847 0004 00AF     		add	r7, sp, #0
 2848              		.cfi_def_cfa_register 7
 2849 0006 0346     		mov	r3, r0
 2850 0008 FB80     		strh	r3, [r7, #6]	@ movhi
 298:rhea\gfx/gfx.c **** 
 299:rhea\gfx/gfx.c **** 	// Getting symbol to print
 300:rhea\gfx/gfx.c **** 	rhea_gfx_symbol symbol = rhea_gfx_localFont.fontDescriptors[id];
 2851              		.loc 1 300 0
 2852 000a 1C4B     		ldr	r3, .L74
 2853 000c 1A68     		ldr	r2, [r3]
 2854 000e FB88     		ldrh	r3, [r7, #6]
 2855 0010 DB00     		lsls	r3, r3, #3
 2856 0012 1A44     		add	r2, r2, r3
 2857 0014 07F10803 		add	r3, r7, #8
 2858 0018 92E80300 		ldmia	r2, {r0, r1}
 2859 001c 83E80300 		stmia	r3, {r0, r1}
 301:rhea\gfx/gfx.c **** 
 302:rhea\gfx/gfx.c **** 	// Checking display bounds
 303:rhea\gfx/gfx.c **** 	if (rhea_gfx_cursorX + symbol.width > RHEA_GFX_WIDTH) {
 2860              		.loc 1 303 0
 2861 0020 174B     		ldr	r3, .L74+4
 2862 0022 1B88     		ldrh	r3, [r3]
 2863 0024 1A46     		mov	r2, r3
ARM GAS  C:\Users\GYULAI~1\AppData\Local\Temp\ccilvZpi.s 			page 57


 2864 0026 3B7B     		ldrb	r3, [r7, #12]	@ zero_extendqisi2
 2865 0028 1344     		add	r3, r3, r2
 2866 002a 802B     		cmp	r3, #128
 2867 002c 0EDD     		ble	.L73
 304:rhea\gfx/gfx.c **** 		rhea_gfx_cursorX = 0;
 2868              		.loc 1 304 0
 2869 002e 144B     		ldr	r3, .L74+4
 2870 0030 0022     		movs	r2, #0
 2871 0032 1A80     		strh	r2, [r3]	@ movhi
 305:rhea\gfx/gfx.c **** 		rhea_gfx_cursorY += symbol.height + symbol.paddingVertical;
 2872              		.loc 1 305 0
 2873 0034 7B7B     		ldrb	r3, [r7, #13]	@ zero_extendqisi2
 2874 0036 9AB2     		uxth	r2, r3
 2875 0038 FB7B     		ldrb	r3, [r7, #15]	@ zero_extendqisi2
 2876 003a 9BB2     		uxth	r3, r3
 2877 003c 1344     		add	r3, r3, r2
 2878 003e 9AB2     		uxth	r2, r3
 2879 0040 104B     		ldr	r3, .L74+8
 2880 0042 1B88     		ldrh	r3, [r3]
 2881 0044 1344     		add	r3, r3, r2
 2882 0046 9AB2     		uxth	r2, r3
 2883 0048 0E4B     		ldr	r3, .L74+8
 2884 004a 1A80     		strh	r2, [r3]	@ movhi
 2885              	.L73:
 306:rhea\gfx/gfx.c **** 	}
 307:rhea\gfx/gfx.c **** 
 308:rhea\gfx/gfx.c **** 	// Printing symbol
 309:rhea\gfx/gfx.c **** 	rhea_gfx_DrawSymbolHelper(rhea_gfx_cursorX, rhea_gfx_cursorY, id);
 2886              		.loc 1 309 0
 2887 004c 0C4B     		ldr	r3, .L74+4
 2888 004e 1888     		ldrh	r0, [r3]
 2889 0050 0C4B     		ldr	r3, .L74+8
 2890 0052 1B88     		ldrh	r3, [r3]
 2891 0054 FA88     		ldrh	r2, [r7, #6]
 2892 0056 1946     		mov	r1, r3
 2893 0058 FFF7FEFF 		bl	rhea_gfx_DrawSymbolHelper
 310:rhea\gfx/gfx.c **** 
 311:rhea\gfx/gfx.c **** 	// Moving cursor
 312:rhea\gfx/gfx.c **** 	rhea_gfx_cursorX += symbol.width + symbol.paddingHorizontal;
 2894              		.loc 1 312 0
 2895 005c 3B7B     		ldrb	r3, [r7, #12]	@ zero_extendqisi2
 2896 005e 9AB2     		uxth	r2, r3
 2897 0060 BB7B     		ldrb	r3, [r7, #14]	@ zero_extendqisi2
 2898 0062 9BB2     		uxth	r3, r3
 2899 0064 1344     		add	r3, r3, r2
 2900 0066 9AB2     		uxth	r2, r3
 2901 0068 054B     		ldr	r3, .L74+4
 2902 006a 1B88     		ldrh	r3, [r3]
 2903 006c 1344     		add	r3, r3, r2
 2904 006e 9AB2     		uxth	r2, r3
 2905 0070 034B     		ldr	r3, .L74+4
 2906 0072 1A80     		strh	r2, [r3]	@ movhi
 313:rhea\gfx/gfx.c **** }
 2907              		.loc 1 313 0
 2908 0074 00BF     		nop
 2909 0076 1037     		adds	r7, r7, #16
 2910              		.cfi_def_cfa_offset 8
ARM GAS  C:\Users\GYULAI~1\AppData\Local\Temp\ccilvZpi.s 			page 58


 2911 0078 BD46     		mov	sp, r7
 2912              		.cfi_def_cfa_register 13
 2913              		@ sp needed
 2914 007a 80BD     		pop	{r7, pc}
 2915              	.L75:
 2916              		.align	2
 2917              	.L74:
 2918 007c 00000000 		.word	rhea_gfx_localFont
 2919 0080 0C000000 		.word	rhea_gfx_cursorX
 2920 0084 0E000000 		.word	rhea_gfx_cursorY
 2921              		.cfi_endproc
 2922              	.LFE18:
 2923              		.size	rhea_gfx_PrintSymbolHelper, .-rhea_gfx_PrintSymbolHelper
 2924              		.section	.text.rhea_gfx_PrintSymbol,"ax",%progbits
 2925              		.align	2
 2926              		.global	rhea_gfx_PrintSymbol
 2927              		.thumb
 2928              		.thumb_func
 2929              		.type	rhea_gfx_PrintSymbol, %function
 2930              	rhea_gfx_PrintSymbol:
 2931              	.LFB19:
 314:rhea\gfx/gfx.c **** 
 315:rhea\gfx/gfx.c **** void rhea_gfx_PrintSymbol(rhea_gfx_symbol_id id) {
 2932              		.loc 1 315 0
 2933              		.cfi_startproc
 2934              		@ args = 0, pretend = 0, frame = 8
 2935              		@ frame_needed = 1, uses_anonymous_args = 0
 2936 0000 80B5     		push	{r7, lr}
 2937              		.cfi_def_cfa_offset 8
 2938              		.cfi_offset 7, -8
 2939              		.cfi_offset 14, -4
 2940 0002 82B0     		sub	sp, sp, #8
 2941              		.cfi_def_cfa_offset 16
 2942 0004 00AF     		add	r7, sp, #0
 2943              		.cfi_def_cfa_register 7
 2944 0006 0346     		mov	r3, r0
 2945 0008 FB80     		strh	r3, [r7, #6]	@ movhi
 316:rhea\gfx/gfx.c ****  
 317:rhea\gfx/gfx.c ****     // Printing symbol to display buffer
 318:rhea\gfx/gfx.c ****     rhea_gfx_PrintSymbolHelper(id);
 2946              		.loc 1 318 0
 2947 000a FB88     		ldrh	r3, [r7, #6]
 2948 000c 1846     		mov	r0, r3
 2949 000e FFF7FEFF 		bl	rhea_gfx_PrintSymbolHelper
 319:rhea\gfx/gfx.c ****     
 320:rhea\gfx/gfx.c ****     // Refreshing display
 321:rhea\gfx/gfx.c ****     // rhea_gfx_Refresh();
 322:rhea\gfx/gfx.c **** }
 2950              		.loc 1 322 0
 2951 0012 00BF     		nop
 2952 0014 0837     		adds	r7, r7, #8
 2953              		.cfi_def_cfa_offset 8
 2954 0016 BD46     		mov	sp, r7
 2955              		.cfi_def_cfa_register 13
 2956              		@ sp needed
 2957 0018 80BD     		pop	{r7, pc}
 2958              		.cfi_endproc
ARM GAS  C:\Users\GYULAI~1\AppData\Local\Temp\ccilvZpi.s 			page 59


 2959              	.LFE19:
 2960              		.size	rhea_gfx_PrintSymbol, .-rhea_gfx_PrintSymbol
 2961 001a 00BF     		.section	.text.rhea_gfx_Print,"ax",%progbits
 2962              		.align	2
 2963              		.global	rhea_gfx_Print
 2964              		.thumb
 2965              		.thumb_func
 2966              		.type	rhea_gfx_Print, %function
 2967              	rhea_gfx_Print:
 2968              	.LFB20:
 323:rhea\gfx/gfx.c **** 
 324:rhea\gfx/gfx.c **** void rhea_gfx_Print(const char* str) {
 2969              		.loc 1 324 0
 2970              		.cfi_startproc
 2971              		@ args = 0, pretend = 0, frame = 8
 2972              		@ frame_needed = 1, uses_anonymous_args = 0
 2973 0000 80B5     		push	{r7, lr}
 2974              		.cfi_def_cfa_offset 8
 2975              		.cfi_offset 7, -8
 2976              		.cfi_offset 14, -4
 2977 0002 82B0     		sub	sp, sp, #8
 2978              		.cfi_def_cfa_offset 16
 2979 0004 00AF     		add	r7, sp, #0
 2980              		.cfi_def_cfa_register 7
 2981 0006 7860     		str	r0, [r7, #4]
 325:rhea\gfx/gfx.c **** 
 326:rhea\gfx/gfx.c **** 	while (*str != '\0') {
 2982              		.loc 1 326 0
 2983 0008 25E0     		b	.L78
 2984              	.L81:
 327:rhea\gfx/gfx.c **** 
 328:rhea\gfx/gfx.c **** 		// Handling newline character
 329:rhea\gfx/gfx.c **** 		if (*str == '\n') {
 2985              		.loc 1 329 0
 2986 000a 7B68     		ldr	r3, [r7, #4]
 2987 000c 1B78     		ldrb	r3, [r3]	@ zero_extendqisi2
 2988 000e 0A2B     		cmp	r3, #10
 2989 0010 0FD1     		bne	.L79
 330:rhea\gfx/gfx.c **** 			rhea_gfx_cursorX = 0;
 2990              		.loc 1 330 0
 2991 0012 154B     		ldr	r3, .L82
 2992 0014 0022     		movs	r2, #0
 2993 0016 1A80     		strh	r2, [r3]	@ movhi
 331:rhea\gfx/gfx.c **** 			rhea_gfx_cursorY += rhea_gfx_localFont.fontHeight;
 2994              		.loc 1 331 0
 2995 0018 144B     		ldr	r3, .L82+4
 2996 001a 1B7A     		ldrb	r3, [r3, #8]	@ zero_extendqisi2
 2997 001c 9AB2     		uxth	r2, r3
 2998 001e 144B     		ldr	r3, .L82+8
 2999 0020 1B88     		ldrh	r3, [r3]
 3000 0022 1344     		add	r3, r3, r2
 3001 0024 9AB2     		uxth	r2, r3
 3002 0026 124B     		ldr	r3, .L82+8
 3003 0028 1A80     		strh	r2, [r3]	@ movhi
 332:rhea\gfx/gfx.c **** 			str++;
 3004              		.loc 1 332 0
 3005 002a 7B68     		ldr	r3, [r7, #4]
ARM GAS  C:\Users\GYULAI~1\AppData\Local\Temp\ccilvZpi.s 			page 60


 3006 002c 0133     		adds	r3, r3, #1
 3007 002e 7B60     		str	r3, [r7, #4]
 333:rhea\gfx/gfx.c **** 			continue;
 3008              		.loc 1 333 0
 3009 0030 11E0     		b	.L78
 3010              	.L79:
 334:rhea\gfx/gfx.c **** 		}
 335:rhea\gfx/gfx.c **** 		// Handling unprintable characters
 336:rhea\gfx/gfx.c **** 		else if(*str < 32) {
 3011              		.loc 1 336 0
 3012 0032 7B68     		ldr	r3, [r7, #4]
 3013 0034 1B78     		ldrb	r3, [r3]	@ zero_extendqisi2
 3014 0036 1F2B     		cmp	r3, #31
 3015 0038 03D8     		bhi	.L80
 337:rhea\gfx/gfx.c **** 			str++;
 3016              		.loc 1 337 0
 3017 003a 7B68     		ldr	r3, [r7, #4]
 3018 003c 0133     		adds	r3, r3, #1
 3019 003e 7B60     		str	r3, [r7, #4]
 338:rhea\gfx/gfx.c **** 			continue;
 3020              		.loc 1 338 0
 3021 0040 09E0     		b	.L78
 3022              	.L80:
 339:rhea\gfx/gfx.c **** 		}
 340:rhea\gfx/gfx.c **** 
 341:rhea\gfx/gfx.c **** 		// Printing next character
 342:rhea\gfx/gfx.c **** 		rhea_gfx_PrintSymbolHelper(*str++ - 32);
 3023              		.loc 1 342 0
 3024 0042 7B68     		ldr	r3, [r7, #4]
 3025 0044 5A1C     		adds	r2, r3, #1
 3026 0046 7A60     		str	r2, [r7, #4]
 3027 0048 1B78     		ldrb	r3, [r3]	@ zero_extendqisi2
 3028 004a 9BB2     		uxth	r3, r3
 3029 004c 203B     		subs	r3, r3, #32
 3030 004e 9BB2     		uxth	r3, r3
 3031 0050 1846     		mov	r0, r3
 3032 0052 FFF7FEFF 		bl	rhea_gfx_PrintSymbolHelper
 3033              	.L78:
 326:rhea\gfx/gfx.c **** 
 3034              		.loc 1 326 0
 3035 0056 7B68     		ldr	r3, [r7, #4]
 3036 0058 1B78     		ldrb	r3, [r3]	@ zero_extendqisi2
 3037 005a 002B     		cmp	r3, #0
 3038 005c D5D1     		bne	.L81
 343:rhea\gfx/gfx.c **** 	}
 344:rhea\gfx/gfx.c ****     
 345:rhea\gfx/gfx.c ****     // Refreshing display
 346:rhea\gfx/gfx.c ****     // rhea_gfx_Refresh();
 347:rhea\gfx/gfx.c **** }
 3039              		.loc 1 347 0
 3040 005e 00BF     		nop
 3041 0060 0837     		adds	r7, r7, #8
 3042              		.cfi_def_cfa_offset 8
 3043 0062 BD46     		mov	sp, r7
 3044              		.cfi_def_cfa_register 13
 3045              		@ sp needed
 3046 0064 80BD     		pop	{r7, pc}
ARM GAS  C:\Users\GYULAI~1\AppData\Local\Temp\ccilvZpi.s 			page 61


 3047              	.L83:
 3048 0066 00BF     		.align	2
 3049              	.L82:
 3050 0068 0C000000 		.word	rhea_gfx_cursorX
 3051 006c 00000000 		.word	rhea_gfx_localFont
 3052 0070 0E000000 		.word	rhea_gfx_cursorY
 3053              		.cfi_endproc
 3054              	.LFE20:
 3055              		.size	rhea_gfx_Print, .-rhea_gfx_Print
 3056              		.text
 3057              	.Letext0:
 3058              		.file 2 "e:\\cypress\\psoc creator\\4.2\\psoc creator\\import\\gnu\\arm\\5.4.1\\arm-none-eabi\\inc
 3059              		.file 3 "e:\\cypress\\psoc creator\\4.2\\psoc creator\\import\\gnu\\arm\\5.4.1\\arm-none-eabi\\inc
 3060              		.file 4 "rhea\\gfx\\gfx.h"
 3061              		.file 5 "rhea\\gfx\\fonts/codefont_8x8.h"
 3062              		.section	.debug_info,"",%progbits
 3063              	.Ldebug_info0:
 3064 0000 15090000 		.4byte	0x915
 3065 0004 0400     		.2byte	0x4
 3066 0006 00000000 		.4byte	.Ldebug_abbrev0
 3067 000a 04       		.byte	0x4
 3068 000b 01       		.uleb128 0x1
 3069 000c 87000000 		.4byte	.LASF73
 3070 0010 0C       		.byte	0xc
 3071 0011 39000000 		.4byte	.LASF74
 3072 0015 A5030000 		.4byte	.LASF75
 3073 0019 00000000 		.4byte	.Ldebug_ranges0+0
 3074 001d 00000000 		.4byte	0
 3075 0021 00000000 		.4byte	.Ldebug_line0
 3076 0025 02       		.uleb128 0x2
 3077 0026 04       		.byte	0x4
 3078 0027 05       		.byte	0x5
 3079 0028 696E7400 		.ascii	"int\000"
 3080 002c 03       		.uleb128 0x3
 3081 002d 04       		.byte	0x4
 3082 002e 07       		.byte	0x7
 3083 002f 3A020000 		.4byte	.LASF0
 3084 0033 03       		.uleb128 0x3
 3085 0034 08       		.byte	0x8
 3086 0035 05       		.byte	0x5
 3087 0036 57010000 		.4byte	.LASF1
 3088 003a 03       		.uleb128 0x3
 3089 003b 08       		.byte	0x8
 3090 003c 04       		.byte	0x4
 3091 003d C3020000 		.4byte	.LASF2
 3092 0041 03       		.uleb128 0x3
 3093 0042 01       		.byte	0x1
 3094 0043 06       		.byte	0x6
 3095 0044 65010000 		.4byte	.LASF3
 3096 0048 04       		.uleb128 0x4
 3097 0049 48000000 		.4byte	.LASF5
 3098 004d 02       		.byte	0x2
 3099 004e 1D       		.byte	0x1d
 3100 004f 53000000 		.4byte	0x53
 3101 0053 03       		.uleb128 0x3
 3102 0054 01       		.byte	0x1
 3103 0055 08       		.byte	0x8
ARM GAS  C:\Users\GYULAI~1\AppData\Local\Temp\ccilvZpi.s 			page 62


 3104 0056 6A030000 		.4byte	.LASF4
 3105 005a 04       		.uleb128 0x4
 3106 005b 10020000 		.4byte	.LASF6
 3107 005f 02       		.byte	0x2
 3108 0060 29       		.byte	0x29
 3109 0061 65000000 		.4byte	0x65
 3110 0065 03       		.uleb128 0x3
 3111 0066 02       		.byte	0x2
 3112 0067 05       		.byte	0x5
 3113 0068 8B030000 		.4byte	.LASF7
 3114 006c 04       		.uleb128 0x4
 3115 006d 11040000 		.4byte	.LASF8
 3116 0071 02       		.byte	0x2
 3117 0072 2B       		.byte	0x2b
 3118 0073 77000000 		.4byte	0x77
 3119 0077 03       		.uleb128 0x3
 3120 0078 02       		.byte	0x2
 3121 0079 07       		.byte	0x7
 3122 007a 5F020000 		.4byte	.LASF9
 3123 007e 03       		.uleb128 0x3
 3124 007f 04       		.byte	0x4
 3125 0080 05       		.byte	0x5
 3126 0081 95010000 		.4byte	.LASF10
 3127 0085 04       		.uleb128 0x4
 3128 0086 D0010000 		.4byte	.LASF11
 3129 008a 02       		.byte	0x2
 3130 008b 41       		.byte	0x41
 3131 008c 90000000 		.4byte	0x90
 3132 0090 03       		.uleb128 0x3
 3133 0091 04       		.byte	0x4
 3134 0092 07       		.byte	0x7
 3135 0093 47020000 		.4byte	.LASF12
 3136 0097 03       		.uleb128 0x3
 3137 0098 08       		.byte	0x8
 3138 0099 07       		.byte	0x7
 3139 009a 15010000 		.4byte	.LASF13
 3140 009e 03       		.uleb128 0x3
 3141 009f 04       		.byte	0x4
 3142 00a0 07       		.byte	0x7
 3143 00a1 AB020000 		.4byte	.LASF14
 3144 00a5 03       		.uleb128 0x3
 3145 00a6 01       		.byte	0x1
 3146 00a7 08       		.byte	0x8
 3147 00a8 F8030000 		.4byte	.LASF15
 3148 00ac 05       		.uleb128 0x5
 3149 00ad 04       		.byte	0x4
 3150 00ae B2000000 		.4byte	0xb2
 3151 00b2 06       		.uleb128 0x6
 3152 00b3 A5000000 		.4byte	0xa5
 3153 00b7 03       		.uleb128 0x3
 3154 00b8 08       		.byte	0x8
 3155 00b9 04       		.byte	0x4
 3156 00ba BB010000 		.4byte	.LASF16
 3157 00be 03       		.uleb128 0x3
 3158 00bf 04       		.byte	0x4
 3159 00c0 04       		.byte	0x4
 3160 00c1 F6020000 		.4byte	.LASF17
ARM GAS  C:\Users\GYULAI~1\AppData\Local\Temp\ccilvZpi.s 			page 63


 3161 00c5 04       		.uleb128 0x4
 3162 00c6 AF040000 		.4byte	.LASF18
 3163 00ca 03       		.byte	0x3
 3164 00cb 18       		.byte	0x18
 3165 00cc 48000000 		.4byte	0x48
 3166 00d0 04       		.uleb128 0x4
 3167 00d1 4F010000 		.4byte	.LASF19
 3168 00d5 03       		.byte	0x3
 3169 00d6 20       		.byte	0x20
 3170 00d7 5A000000 		.4byte	0x5a
 3171 00db 04       		.uleb128 0x4
 3172 00dc B2010000 		.4byte	.LASF20
 3173 00e0 03       		.byte	0x3
 3174 00e1 24       		.byte	0x24
 3175 00e2 6C000000 		.4byte	0x6c
 3176 00e6 04       		.uleb128 0x4
 3177 00e7 D2030000 		.4byte	.LASF21
 3178 00eb 03       		.byte	0x3
 3179 00ec 30       		.byte	0x30
 3180 00ed 85000000 		.4byte	0x85
 3181 00f1 07       		.uleb128 0x7
 3182 00f2 9A040000 		.4byte	.LASF27
 3183 00f6 08       		.byte	0x8
 3184 00f7 04       		.byte	0x4
 3185 00f8 2D       		.byte	0x2d
 3186 00f9 3A010000 		.4byte	0x13a
 3187 00fd 08       		.uleb128 0x8
 3188 00fe 48040000 		.4byte	.LASF22
 3189 0102 04       		.byte	0x4
 3190 0103 2E       		.byte	0x2e
 3191 0104 E6000000 		.4byte	0xe6
 3192 0108 00       		.byte	0
 3193 0109 08       		.uleb128 0x8
 3194 010a 59020000 		.4byte	.LASF23
 3195 010e 04       		.byte	0x4
 3196 010f 2F       		.byte	0x2f
 3197 0110 C5000000 		.4byte	0xc5
 3198 0114 04       		.byte	0x4
 3199 0115 08       		.uleb128 0x8
 3200 0116 E8040000 		.4byte	.LASF24
 3201 011a 04       		.byte	0x4
 3202 011b 30       		.byte	0x30
 3203 011c C5000000 		.4byte	0xc5
 3204 0120 05       		.byte	0x5
 3205 0121 08       		.uleb128 0x8
 3206 0122 5B000000 		.4byte	.LASF25
 3207 0126 04       		.byte	0x4
 3208 0127 31       		.byte	0x31
 3209 0128 C5000000 		.4byte	0xc5
 3210 012c 06       		.byte	0x6
 3211 012d 08       		.uleb128 0x8
 3212 012e 95030000 		.4byte	.LASF26
 3213 0132 04       		.byte	0x4
 3214 0133 32       		.byte	0x32
 3215 0134 C5000000 		.4byte	0xc5
 3216 0138 07       		.byte	0x7
 3217 0139 00       		.byte	0
ARM GAS  C:\Users\GYULAI~1\AppData\Local\Temp\ccilvZpi.s 			page 64


 3218 013a 04       		.uleb128 0x4
 3219 013b 9A040000 		.4byte	.LASF27
 3220 013f 04       		.byte	0x4
 3221 0140 36       		.byte	0x36
 3222 0141 F1000000 		.4byte	0xf1
 3223 0145 07       		.uleb128 0x7
 3224 0146 B7040000 		.4byte	.LASF28
 3225 014a 0C       		.byte	0xc
 3226 014b 04       		.byte	0x4
 3227 014c 39       		.byte	0x39
 3228 014d 76010000 		.4byte	0x176
 3229 0151 08       		.uleb128 0x8
 3230 0152 5A030000 		.4byte	.LASF29
 3231 0156 04       		.byte	0x4
 3232 0157 3A       		.byte	0x3a
 3233 0158 76010000 		.4byte	0x176
 3234 015c 00       		.byte	0
 3235 015d 08       		.uleb128 0x8
 3236 015e 46010000 		.4byte	.LASF30
 3237 0162 04       		.byte	0x4
 3238 0163 3B       		.byte	0x3b
 3239 0164 7C010000 		.4byte	0x17c
 3240 0168 04       		.byte	0x4
 3241 0169 08       		.uleb128 0x8
 3242 016a 71010000 		.4byte	.LASF31
 3243 016e 04       		.byte	0x4
 3244 016f 3C       		.byte	0x3c
 3245 0170 C5000000 		.4byte	0xc5
 3246 0174 08       		.byte	0x8
 3247 0175 00       		.byte	0
 3248 0176 05       		.uleb128 0x5
 3249 0177 04       		.byte	0x4
 3250 0178 3A010000 		.4byte	0x13a
 3251 017c 05       		.uleb128 0x5
 3252 017d 04       		.byte	0x4
 3253 017e C5000000 		.4byte	0xc5
 3254 0182 04       		.uleb128 0x4
 3255 0183 B7040000 		.4byte	.LASF28
 3256 0187 04       		.byte	0x4
 3257 0188 40       		.byte	0x40
 3258 0189 45010000 		.4byte	0x145
 3259 018d 04       		.uleb128 0x4
 3260 018e DB030000 		.4byte	.LASF32
 3261 0192 04       		.byte	0x4
 3262 0193 43       		.byte	0x43
 3263 0194 C5000000 		.4byte	0xc5
 3264 0198 04       		.uleb128 0x4
 3265 0199 EF040000 		.4byte	.LASF33
 3266 019d 04       		.byte	0x4
 3267 019e 46       		.byte	0x46
 3268 019f C5000000 		.4byte	0xc5
 3269 01a3 04       		.uleb128 0x4
 3270 01a4 83020000 		.4byte	.LASF34
 3271 01a8 04       		.byte	0x4
 3272 01a9 49       		.byte	0x49
 3273 01aa DB000000 		.4byte	0xdb
 3274 01ae 04       		.uleb128 0x4
ARM GAS  C:\Users\GYULAI~1\AppData\Local\Temp\ccilvZpi.s 			page 65


 3275 01af CF020000 		.4byte	.LASF35
 3276 01b3 04       		.byte	0x4
 3277 01b4 4C       		.byte	0x4c
 3278 01b5 DB000000 		.4byte	0xdb
 3279 01b9 09       		.uleb128 0x9
 3280 01ba 9E010000 		.4byte	.LASF36
 3281 01be 01       		.byte	0x1
 3282 01bf 35       		.byte	0x35
 3283 01c0 00000000 		.4byte	.LFB0
 3284 01c4 34000000 		.4byte	.LFE0-.LFB0
 3285 01c8 01       		.uleb128 0x1
 3286 01c9 9C       		.byte	0x9c
 3287 01ca 09       		.uleb128 0x9
 3288 01cb B4020000 		.4byte	.LASF37
 3289 01cf 01       		.byte	0x1
 3290 01d0 46       		.byte	0x46
 3291 01d1 00000000 		.4byte	.LFB1
 3292 01d5 0C000000 		.4byte	.LFE1-.LFB1
 3293 01d9 01       		.uleb128 0x1
 3294 01da 9C       		.byte	0x9c
 3295 01db 09       		.uleb128 0x9
 3296 01dc 2B020000 		.4byte	.LASF38
 3297 01e0 01       		.byte	0x1
 3298 01e1 4C       		.byte	0x4c
 3299 01e2 00000000 		.4byte	.LFB2
 3300 01e6 0C000000 		.4byte	.LFE2-.LFB2
 3301 01ea 01       		.uleb128 0x1
 3302 01eb 9C       		.byte	0x9c
 3303 01ec 09       		.uleb128 0x9
 3304 01ed 1A020000 		.4byte	.LASF39
 3305 01f1 01       		.byte	0x1
 3306 01f2 52       		.byte	0x52
 3307 01f3 00000000 		.4byte	.LFB3
 3308 01f7 0C000000 		.4byte	.LFE3-.LFB3
 3309 01fb 01       		.uleb128 0x1
 3310 01fc 9C       		.byte	0x9c
 3311 01fd 0A       		.uleb128 0xa
 3312 01fe 12000000 		.4byte	.LASF40
 3313 0202 01       		.byte	0x1
 3314 0203 58       		.byte	0x58
 3315 0204 00000000 		.4byte	.LFB4
 3316 0208 28000000 		.4byte	.LFE4-.LFB4
 3317 020c 01       		.uleb128 0x1
 3318 020d 9C       		.byte	0x9c
 3319 020e 21020000 		.4byte	0x221
 3320 0212 0B       		.uleb128 0xb
 3321 0213 AA040000 		.4byte	.LASF42
 3322 0217 01       		.byte	0x1
 3323 0218 58       		.byte	0x58
 3324 0219 82010000 		.4byte	0x182
 3325 021d 02       		.uleb128 0x2
 3326 021e 91       		.byte	0x91
 3327 021f 6C       		.sleb128 -20
 3328 0220 00       		.byte	0
 3329 0221 0C       		.uleb128 0xc
 3330 0222 FD010000 		.4byte	.LASF41
 3331 0226 01       		.byte	0x1
ARM GAS  C:\Users\GYULAI~1\AppData\Local\Temp\ccilvZpi.s 			page 66


 3332 0227 5E       		.byte	0x5e
 3333 0228 00000000 		.4byte	.LFB5
 3334 022c 2A000000 		.4byte	.LFE5-.LFB5
 3335 0230 01       		.uleb128 0x1
 3336 0231 9C       		.byte	0x9c
 3337 0232 5D020000 		.4byte	0x25d
 3338 0236 0D       		.uleb128 0xd
 3339 0237 7800     		.ascii	"x\000"
 3340 0239 01       		.byte	0x1
 3341 023a 5E       		.byte	0x5e
 3342 023b AE010000 		.4byte	0x1ae
 3343 023f 02       		.uleb128 0x2
 3344 0240 91       		.byte	0x91
 3345 0241 76       		.sleb128 -10
 3346 0242 0D       		.uleb128 0xd
 3347 0243 7900     		.ascii	"y\000"
 3348 0245 01       		.byte	0x1
 3349 0246 5E       		.byte	0x5e
 3350 0247 AE010000 		.4byte	0x1ae
 3351 024b 02       		.uleb128 0x2
 3352 024c 91       		.byte	0x91
 3353 024d 74       		.sleb128 -12
 3354 024e 0B       		.uleb128 0xb
 3355 024f F2030000 		.4byte	.LASF43
 3356 0253 01       		.byte	0x1
 3357 0254 5E       		.byte	0x5e
 3358 0255 98010000 		.4byte	0x198
 3359 0259 02       		.uleb128 0x2
 3360 025a 91       		.byte	0x91
 3361 025b 73       		.sleb128 -13
 3362 025c 00       		.byte	0
 3363 025d 0C       		.uleb128 0xc
 3364 025e 68040000 		.4byte	.LASF44
 3365 0262 01       		.byte	0x1
 3366 0263 67       		.byte	0x67
 3367 0264 00000000 		.4byte	.LFB6
 3368 0268 BE000000 		.4byte	.LFE6-.LFB6
 3369 026c 01       		.uleb128 0x1
 3370 026d 9C       		.byte	0x9c
 3371 026e 0A030000 		.4byte	0x30a
 3372 0272 0D       		.uleb128 0xd
 3373 0273 783000   		.ascii	"x0\000"
 3374 0276 01       		.byte	0x1
 3375 0277 67       		.byte	0x67
 3376 0278 AE010000 		.4byte	0x1ae
 3377 027c 02       		.uleb128 0x2
 3378 027d 91       		.byte	0x91
 3379 027e 5E       		.sleb128 -34
 3380 027f 0D       		.uleb128 0xd
 3381 0280 793000   		.ascii	"y0\000"
 3382 0283 01       		.byte	0x1
 3383 0284 67       		.byte	0x67
 3384 0285 AE010000 		.4byte	0x1ae
 3385 0289 02       		.uleb128 0x2
 3386 028a 91       		.byte	0x91
 3387 028b 5C       		.sleb128 -36
 3388 028c 0D       		.uleb128 0xd
ARM GAS  C:\Users\GYULAI~1\AppData\Local\Temp\ccilvZpi.s 			page 67


 3389 028d 783100   		.ascii	"x1\000"
 3390 0290 01       		.byte	0x1
 3391 0291 67       		.byte	0x67
 3392 0292 AE010000 		.4byte	0x1ae
 3393 0296 02       		.uleb128 0x2
 3394 0297 91       		.byte	0x91
 3395 0298 5A       		.sleb128 -38
 3396 0299 0D       		.uleb128 0xd
 3397 029a 793100   		.ascii	"y1\000"
 3398 029d 01       		.byte	0x1
 3399 029e 67       		.byte	0x67
 3400 029f AE010000 		.4byte	0x1ae
 3401 02a3 02       		.uleb128 0x2
 3402 02a4 91       		.byte	0x91
 3403 02a5 58       		.sleb128 -40
 3404 02a6 0B       		.uleb128 0xb
 3405 02a7 F2030000 		.4byte	.LASF43
 3406 02ab 01       		.byte	0x1
 3407 02ac 67       		.byte	0x67
 3408 02ad 98010000 		.4byte	0x198
 3409 02b1 02       		.uleb128 0x2
 3410 02b2 91       		.byte	0x91
 3411 02b3 00       		.sleb128 0
 3412 02b4 0E       		.uleb128 0xe
 3413 02b5 647800   		.ascii	"dx\000"
 3414 02b8 01       		.byte	0x1
 3415 02b9 6A       		.byte	0x6a
 3416 02ba D0000000 		.4byte	0xd0
 3417 02be 02       		.uleb128 0x2
 3418 02bf 91       		.byte	0x91
 3419 02c0 64       		.sleb128 -28
 3420 02c1 0E       		.uleb128 0xe
 3421 02c2 647900   		.ascii	"dy\000"
 3422 02c5 01       		.byte	0x1
 3423 02c6 6B       		.byte	0x6b
 3424 02c7 D0000000 		.4byte	0xd0
 3425 02cb 02       		.uleb128 0x2
 3426 02cc 91       		.byte	0x91
 3427 02cd 6E       		.sleb128 -18
 3428 02ce 0E       		.uleb128 0xe
 3429 02cf 796900   		.ascii	"yi\000"
 3430 02d2 01       		.byte	0x1
 3431 02d3 6C       		.byte	0x6c
 3432 02d4 D0000000 		.4byte	0xd0
 3433 02d8 02       		.uleb128 0x2
 3434 02d9 91       		.byte	0x91
 3435 02da 6C       		.sleb128 -20
 3436 02db 0E       		.uleb128 0xe
 3437 02dc 4400     		.ascii	"D\000"
 3438 02de 01       		.byte	0x1
 3439 02df 73       		.byte	0x73
 3440 02e0 D0000000 		.4byte	0xd0
 3441 02e4 02       		.uleb128 0x2
 3442 02e5 91       		.byte	0x91
 3443 02e6 6A       		.sleb128 -22
 3444 02e7 0E       		.uleb128 0xe
 3445 02e8 7900     		.ascii	"y\000"
ARM GAS  C:\Users\GYULAI~1\AppData\Local\Temp\ccilvZpi.s 			page 68


 3446 02ea 01       		.byte	0x1
 3447 02eb 74       		.byte	0x74
 3448 02ec D0000000 		.4byte	0xd0
 3449 02f0 02       		.uleb128 0x2
 3450 02f1 91       		.byte	0x91
 3451 02f2 68       		.sleb128 -24
 3452 02f3 0F       		.uleb128 0xf
 3453 02f4 5E000000 		.4byte	.LBB2
 3454 02f8 58000000 		.4byte	.LBE2-.LBB2
 3455 02fc 0E       		.uleb128 0xe
 3456 02fd 7800     		.ascii	"x\000"
 3457 02ff 01       		.byte	0x1
 3458 0300 76       		.byte	0x76
 3459 0301 D0000000 		.4byte	0xd0
 3460 0305 02       		.uleb128 0x2
 3461 0306 91       		.byte	0x91
 3462 0307 66       		.sleb128 -26
 3463 0308 00       		.byte	0
 3464 0309 00       		.byte	0
 3465 030a 0C       		.uleb128 0xc
 3466 030b 23000000 		.4byte	.LASF45
 3467 030f 01       		.byte	0x1
 3468 0310 81       		.byte	0x81
 3469 0311 00000000 		.4byte	.LFB7
 3470 0315 BE000000 		.4byte	.LFE7-.LFB7
 3471 0319 01       		.uleb128 0x1
 3472 031a 9C       		.byte	0x9c
 3473 031b B7030000 		.4byte	0x3b7
 3474 031f 0D       		.uleb128 0xd
 3475 0320 783000   		.ascii	"x0\000"
 3476 0323 01       		.byte	0x1
 3477 0324 81       		.byte	0x81
 3478 0325 AE010000 		.4byte	0x1ae
 3479 0329 02       		.uleb128 0x2
 3480 032a 91       		.byte	0x91
 3481 032b 5E       		.sleb128 -34
 3482 032c 0D       		.uleb128 0xd
 3483 032d 793000   		.ascii	"y0\000"
 3484 0330 01       		.byte	0x1
 3485 0331 81       		.byte	0x81
 3486 0332 AE010000 		.4byte	0x1ae
 3487 0336 02       		.uleb128 0x2
 3488 0337 91       		.byte	0x91
 3489 0338 5C       		.sleb128 -36
 3490 0339 0D       		.uleb128 0xd
 3491 033a 783100   		.ascii	"x1\000"
 3492 033d 01       		.byte	0x1
 3493 033e 81       		.byte	0x81
 3494 033f AE010000 		.4byte	0x1ae
 3495 0343 02       		.uleb128 0x2
 3496 0344 91       		.byte	0x91
 3497 0345 5A       		.sleb128 -38
 3498 0346 0D       		.uleb128 0xd
 3499 0347 793100   		.ascii	"y1\000"
 3500 034a 01       		.byte	0x1
 3501 034b 81       		.byte	0x81
 3502 034c AE010000 		.4byte	0x1ae
ARM GAS  C:\Users\GYULAI~1\AppData\Local\Temp\ccilvZpi.s 			page 69


 3503 0350 02       		.uleb128 0x2
 3504 0351 91       		.byte	0x91
 3505 0352 58       		.sleb128 -40
 3506 0353 0B       		.uleb128 0xb
 3507 0354 F2030000 		.4byte	.LASF43
 3508 0358 01       		.byte	0x1
 3509 0359 81       		.byte	0x81
 3510 035a 98010000 		.4byte	0x198
 3511 035e 02       		.uleb128 0x2
 3512 035f 91       		.byte	0x91
 3513 0360 00       		.sleb128 0
 3514 0361 0E       		.uleb128 0xe
 3515 0362 647800   		.ascii	"dx\000"
 3516 0365 01       		.byte	0x1
 3517 0366 84       		.byte	0x84
 3518 0367 D0000000 		.4byte	0xd0
 3519 036b 02       		.uleb128 0x2
 3520 036c 91       		.byte	0x91
 3521 036d 6E       		.sleb128 -18
 3522 036e 0E       		.uleb128 0xe
 3523 036f 647900   		.ascii	"dy\000"
 3524 0372 01       		.byte	0x1
 3525 0373 85       		.byte	0x85
 3526 0374 D0000000 		.4byte	0xd0
 3527 0378 02       		.uleb128 0x2
 3528 0379 91       		.byte	0x91
 3529 037a 64       		.sleb128 -28
 3530 037b 0E       		.uleb128 0xe
 3531 037c 786900   		.ascii	"xi\000"
 3532 037f 01       		.byte	0x1
 3533 0380 86       		.byte	0x86
 3534 0381 D0000000 		.4byte	0xd0
 3535 0385 02       		.uleb128 0x2
 3536 0386 91       		.byte	0x91
 3537 0387 6C       		.sleb128 -20
 3538 0388 0E       		.uleb128 0xe
 3539 0389 4400     		.ascii	"D\000"
 3540 038b 01       		.byte	0x1
 3541 038c 8D       		.byte	0x8d
 3542 038d D0000000 		.4byte	0xd0
 3543 0391 02       		.uleb128 0x2
 3544 0392 91       		.byte	0x91
 3545 0393 6A       		.sleb128 -22
 3546 0394 0E       		.uleb128 0xe
 3547 0395 7800     		.ascii	"x\000"
 3548 0397 01       		.byte	0x1
 3549 0398 8E       		.byte	0x8e
 3550 0399 D0000000 		.4byte	0xd0
 3551 039d 02       		.uleb128 0x2
 3552 039e 91       		.byte	0x91
 3553 039f 68       		.sleb128 -24
 3554 03a0 0F       		.uleb128 0xf
 3555 03a1 5E000000 		.4byte	.LBB3
 3556 03a5 58000000 		.4byte	.LBE3-.LBB3
 3557 03a9 0E       		.uleb128 0xe
 3558 03aa 7900     		.ascii	"y\000"
 3559 03ac 01       		.byte	0x1
ARM GAS  C:\Users\GYULAI~1\AppData\Local\Temp\ccilvZpi.s 			page 70


 3560 03ad 90       		.byte	0x90
 3561 03ae D0000000 		.4byte	0xd0
 3562 03b2 02       		.uleb128 0x2
 3563 03b3 91       		.byte	0x91
 3564 03b4 66       		.sleb128 -26
 3565 03b5 00       		.byte	0
 3566 03b6 00       		.byte	0
 3567 03b7 0C       		.uleb128 0xc
 3568 03b8 00000000 		.4byte	.LASF46
 3569 03bc 01       		.byte	0x1
 3570 03bd 9B       		.byte	0x9b
 3571 03be 00000000 		.4byte	.LFB8
 3572 03c2 F8000000 		.4byte	.LFE8-.LFB8
 3573 03c6 01       		.uleb128 0x1
 3574 03c7 9C       		.byte	0x9c
 3575 03c8 0F040000 		.4byte	0x40f
 3576 03cc 0D       		.uleb128 0xd
 3577 03cd 783000   		.ascii	"x0\000"
 3578 03d0 01       		.byte	0x1
 3579 03d1 9B       		.byte	0x9b
 3580 03d2 AE010000 		.4byte	0x1ae
 3581 03d6 02       		.uleb128 0x2
 3582 03d7 91       		.byte	0x91
 3583 03d8 6E       		.sleb128 -18
 3584 03d9 0D       		.uleb128 0xd
 3585 03da 793000   		.ascii	"y0\000"
 3586 03dd 01       		.byte	0x1
 3587 03de 9B       		.byte	0x9b
 3588 03df AE010000 		.4byte	0x1ae
 3589 03e3 02       		.uleb128 0x2
 3590 03e4 91       		.byte	0x91
 3591 03e5 6C       		.sleb128 -20
 3592 03e6 0D       		.uleb128 0xd
 3593 03e7 783100   		.ascii	"x1\000"
 3594 03ea 01       		.byte	0x1
 3595 03eb 9B       		.byte	0x9b
 3596 03ec AE010000 		.4byte	0x1ae
 3597 03f0 02       		.uleb128 0x2
 3598 03f1 91       		.byte	0x91
 3599 03f2 6A       		.sleb128 -22
 3600 03f3 0D       		.uleb128 0xd
 3601 03f4 793100   		.ascii	"y1\000"
 3602 03f7 01       		.byte	0x1
 3603 03f8 9B       		.byte	0x9b
 3604 03f9 AE010000 		.4byte	0x1ae
 3605 03fd 02       		.uleb128 0x2
 3606 03fe 91       		.byte	0x91
 3607 03ff 68       		.sleb128 -24
 3608 0400 0B       		.uleb128 0xb
 3609 0401 F2030000 		.4byte	.LASF43
 3610 0405 01       		.byte	0x1
 3611 0406 9B       		.byte	0x9b
 3612 0407 98010000 		.4byte	0x198
 3613 040b 02       		.uleb128 0x2
 3614 040c 91       		.byte	0x91
 3615 040d 00       		.sleb128 0
 3616 040e 00       		.byte	0
ARM GAS  C:\Users\GYULAI~1\AppData\Local\Temp\ccilvZpi.s 			page 71


 3617 040f 0C       		.uleb128 0xc
 3618 0410 6D000000 		.4byte	.LASF47
 3619 0414 01       		.byte	0x1
 3620 0415 B3       		.byte	0xb3
 3621 0416 00000000 		.4byte	.LFB9
 3622 041a 4E000000 		.4byte	.LFE9-.LFB9
 3623 041e 01       		.uleb128 0x1
 3624 041f 9C       		.byte	0x9c
 3625 0420 6F040000 		.4byte	0x46f
 3626 0424 0D       		.uleb128 0xd
 3627 0425 7800     		.ascii	"x\000"
 3628 0427 01       		.byte	0x1
 3629 0428 B3       		.byte	0xb3
 3630 0429 AE010000 		.4byte	0x1ae
 3631 042d 02       		.uleb128 0x2
 3632 042e 91       		.byte	0x91
 3633 042f 66       		.sleb128 -26
 3634 0430 0D       		.uleb128 0xd
 3635 0431 7900     		.ascii	"y\000"
 3636 0433 01       		.byte	0x1
 3637 0434 B3       		.byte	0xb3
 3638 0435 AE010000 		.4byte	0x1ae
 3639 0439 02       		.uleb128 0x2
 3640 043a 91       		.byte	0x91
 3641 043b 64       		.sleb128 -28
 3642 043c 0B       		.uleb128 0xb
 3643 043d E8040000 		.4byte	.LASF24
 3644 0441 01       		.byte	0x1
 3645 0442 B3       		.byte	0xb3
 3646 0443 8D010000 		.4byte	0x18d
 3647 0447 02       		.uleb128 0x2
 3648 0448 91       		.byte	0x91
 3649 0449 63       		.sleb128 -29
 3650 044a 0B       		.uleb128 0xb
 3651 044b F2030000 		.4byte	.LASF43
 3652 044f 01       		.byte	0x1
 3653 0450 B3       		.byte	0xb3
 3654 0451 98010000 		.4byte	0x198
 3655 0455 02       		.uleb128 0x2
 3656 0456 91       		.byte	0x91
 3657 0457 62       		.sleb128 -30
 3658 0458 0F       		.uleb128 0xf
 3659 0459 1E000000 		.4byte	.LBB4
 3660 045d 28000000 		.4byte	.LBE4-.LBB4
 3661 0461 0E       		.uleb128 0xe
 3662 0462 6900     		.ascii	"i\000"
 3663 0464 01       		.byte	0x1
 3664 0465 B6       		.byte	0xb6
 3665 0466 8D010000 		.4byte	0x18d
 3666 046a 02       		.uleb128 0x2
 3667 046b 91       		.byte	0x91
 3668 046c 6F       		.sleb128 -17
 3669 046d 00       		.byte	0
 3670 046e 00       		.byte	0
 3671 046f 0C       		.uleb128 0xc
 3672 0470 3E030000 		.4byte	.LASF48
 3673 0474 01       		.byte	0x1
ARM GAS  C:\Users\GYULAI~1\AppData\Local\Temp\ccilvZpi.s 			page 72


 3674 0475 BC       		.byte	0xbc
 3675 0476 00000000 		.4byte	.LFB10
 3676 047a 4E000000 		.4byte	.LFE10-.LFB10
 3677 047e 01       		.uleb128 0x1
 3678 047f 9C       		.byte	0x9c
 3679 0480 CF040000 		.4byte	0x4cf
 3680 0484 0D       		.uleb128 0xd
 3681 0485 7800     		.ascii	"x\000"
 3682 0487 01       		.byte	0x1
 3683 0488 BC       		.byte	0xbc
 3684 0489 AE010000 		.4byte	0x1ae
 3685 048d 02       		.uleb128 0x2
 3686 048e 91       		.byte	0x91
 3687 048f 66       		.sleb128 -26
 3688 0490 0D       		.uleb128 0xd
 3689 0491 7900     		.ascii	"y\000"
 3690 0493 01       		.byte	0x1
 3691 0494 BC       		.byte	0xbc
 3692 0495 AE010000 		.4byte	0x1ae
 3693 0499 02       		.uleb128 0x2
 3694 049a 91       		.byte	0x91
 3695 049b 64       		.sleb128 -28
 3696 049c 0B       		.uleb128 0xb
 3697 049d EB030000 		.4byte	.LASF49
 3698 04a1 01       		.byte	0x1
 3699 04a2 BC       		.byte	0xbc
 3700 04a3 8D010000 		.4byte	0x18d
 3701 04a7 02       		.uleb128 0x2
 3702 04a8 91       		.byte	0x91
 3703 04a9 63       		.sleb128 -29
 3704 04aa 0B       		.uleb128 0xb
 3705 04ab F2030000 		.4byte	.LASF43
 3706 04af 01       		.byte	0x1
 3707 04b0 BC       		.byte	0xbc
 3708 04b1 98010000 		.4byte	0x198
 3709 04b5 02       		.uleb128 0x2
 3710 04b6 91       		.byte	0x91
 3711 04b7 62       		.sleb128 -30
 3712 04b8 0F       		.uleb128 0xf
 3713 04b9 1E000000 		.4byte	.LBB5
 3714 04bd 28000000 		.4byte	.LBE5-.LBB5
 3715 04c1 0E       		.uleb128 0xe
 3716 04c2 6900     		.ascii	"i\000"
 3717 04c4 01       		.byte	0x1
 3718 04c5 BF       		.byte	0xbf
 3719 04c6 8D010000 		.4byte	0x18d
 3720 04ca 02       		.uleb128 0x2
 3721 04cb 91       		.byte	0x91
 3722 04cc 6F       		.sleb128 -17
 3723 04cd 00       		.byte	0
 3724 04ce 00       		.byte	0
 3725 04cf 0C       		.uleb128 0xc
 3726 04d0 1C040000 		.4byte	.LASF50
 3727 04d4 01       		.byte	0x1
 3728 04d5 C5       		.byte	0xc5
 3729 04d6 00000000 		.4byte	.LFB11
 3730 04da A2000000 		.4byte	.LFE11-.LFB11
ARM GAS  C:\Users\GYULAI~1\AppData\Local\Temp\ccilvZpi.s 			page 73


 3731 04de 01       		.uleb128 0x1
 3732 04df 9C       		.byte	0x9c
 3733 04e0 5D050000 		.4byte	0x55d
 3734 04e4 0D       		.uleb128 0xd
 3735 04e5 7800     		.ascii	"x\000"
 3736 04e7 01       		.byte	0x1
 3737 04e8 C5       		.byte	0xc5
 3738 04e9 AE010000 		.4byte	0x1ae
 3739 04ed 02       		.uleb128 0x2
 3740 04ee 91       		.byte	0x91
 3741 04ef 66       		.sleb128 -26
 3742 04f0 0D       		.uleb128 0xd
 3743 04f1 7900     		.ascii	"y\000"
 3744 04f3 01       		.byte	0x1
 3745 04f4 C5       		.byte	0xc5
 3746 04f5 AE010000 		.4byte	0x1ae
 3747 04f9 02       		.uleb128 0x2
 3748 04fa 91       		.byte	0x91
 3749 04fb 64       		.sleb128 -28
 3750 04fc 0B       		.uleb128 0xb
 3751 04fd 72020000 		.4byte	.LASF51
 3752 0501 01       		.byte	0x1
 3753 0502 C5       		.byte	0xc5
 3754 0503 8D010000 		.4byte	0x18d
 3755 0507 02       		.uleb128 0x2
 3756 0508 91       		.byte	0x91
 3757 0509 63       		.sleb128 -29
 3758 050a 0B       		.uleb128 0xb
 3759 050b F2030000 		.4byte	.LASF43
 3760 050f 01       		.byte	0x1
 3761 0510 C5       		.byte	0xc5
 3762 0511 98010000 		.4byte	0x198
 3763 0515 02       		.uleb128 0x2
 3764 0516 91       		.byte	0x91
 3765 0517 62       		.sleb128 -30
 3766 0518 0F       		.uleb128 0xf
 3767 0519 1E000000 		.4byte	.LBB6
 3768 051d 7C000000 		.4byte	.LBE6-.LBB6
 3769 0521 0E       		.uleb128 0xe
 3770 0522 6900     		.ascii	"i\000"
 3771 0524 01       		.byte	0x1
 3772 0525 C8       		.byte	0xc8
 3773 0526 AE010000 		.4byte	0x1ae
 3774 052a 02       		.uleb128 0x2
 3775 052b 91       		.byte	0x91
 3776 052c 6E       		.sleb128 -18
 3777 052d 0F       		.uleb128 0xf
 3778 052e 24000000 		.4byte	.LBB7
 3779 0532 6A000000 		.4byte	.LBE7-.LBB7
 3780 0536 0E       		.uleb128 0xe
 3781 0537 6A00     		.ascii	"j\000"
 3782 0539 01       		.byte	0x1
 3783 053a C9       		.byte	0xc9
 3784 053b AE010000 		.4byte	0x1ae
 3785 053f 02       		.uleb128 0x2
 3786 0540 91       		.byte	0x91
 3787 0541 6C       		.sleb128 -20
ARM GAS  C:\Users\GYULAI~1\AppData\Local\Temp\ccilvZpi.s 			page 74


 3788 0542 0F       		.uleb128 0xf
 3789 0543 2A000000 		.4byte	.LBB8
 3790 0547 58000000 		.4byte	.LBE8-.LBB8
 3791 054b 10       		.uleb128 0x10
 3792 054c 30040000 		.4byte	.LASF52
 3793 0550 01       		.byte	0x1
 3794 0551 CA       		.byte	0xca
 3795 0552 8D010000 		.4byte	0x18d
 3796 0556 02       		.uleb128 0x2
 3797 0557 91       		.byte	0x91
 3798 0558 6B       		.sleb128 -21
 3799 0559 00       		.byte	0
 3800 055a 00       		.byte	0
 3801 055b 00       		.byte	0
 3802 055c 00       		.byte	0
 3803 055d 0C       		.uleb128 0xc
 3804 055e 2C010000 		.4byte	.LASF53
 3805 0562 01       		.byte	0x1
 3806 0563 D3       		.byte	0xd3
 3807 0564 00000000 		.4byte	.LFB12
 3808 0568 A2000000 		.4byte	.LFE12-.LFB12
 3809 056c 01       		.uleb128 0x1
 3810 056d 9C       		.byte	0x9c
 3811 056e EB050000 		.4byte	0x5eb
 3812 0572 0D       		.uleb128 0xd
 3813 0573 7800     		.ascii	"x\000"
 3814 0575 01       		.byte	0x1
 3815 0576 D3       		.byte	0xd3
 3816 0577 AE010000 		.4byte	0x1ae
 3817 057b 02       		.uleb128 0x2
 3818 057c 91       		.byte	0x91
 3819 057d 66       		.sleb128 -26
 3820 057e 0D       		.uleb128 0xd
 3821 057f 7900     		.ascii	"y\000"
 3822 0581 01       		.byte	0x1
 3823 0582 D3       		.byte	0xd3
 3824 0583 AE010000 		.4byte	0x1ae
 3825 0587 02       		.uleb128 0x2
 3826 0588 91       		.byte	0x91
 3827 0589 64       		.sleb128 -28
 3828 058a 0B       		.uleb128 0xb
 3829 058b 72020000 		.4byte	.LASF51
 3830 058f 01       		.byte	0x1
 3831 0590 D3       		.byte	0xd3
 3832 0591 8D010000 		.4byte	0x18d
 3833 0595 02       		.uleb128 0x2
 3834 0596 91       		.byte	0x91
 3835 0597 63       		.sleb128 -29
 3836 0598 0B       		.uleb128 0xb
 3837 0599 F2030000 		.4byte	.LASF43
 3838 059d 01       		.byte	0x1
 3839 059e D3       		.byte	0xd3
 3840 059f 98010000 		.4byte	0x198
 3841 05a3 02       		.uleb128 0x2
 3842 05a4 91       		.byte	0x91
 3843 05a5 62       		.sleb128 -30
 3844 05a6 0F       		.uleb128 0xf
ARM GAS  C:\Users\GYULAI~1\AppData\Local\Temp\ccilvZpi.s 			page 75


 3845 05a7 1E000000 		.4byte	.LBB9
 3846 05ab 7C000000 		.4byte	.LBE9-.LBB9
 3847 05af 0E       		.uleb128 0xe
 3848 05b0 6900     		.ascii	"i\000"
 3849 05b2 01       		.byte	0x1
 3850 05b3 D6       		.byte	0xd6
 3851 05b4 AE010000 		.4byte	0x1ae
 3852 05b8 02       		.uleb128 0x2
 3853 05b9 91       		.byte	0x91
 3854 05ba 6E       		.sleb128 -18
 3855 05bb 0F       		.uleb128 0xf
 3856 05bc 24000000 		.4byte	.LBB10
 3857 05c0 6A000000 		.4byte	.LBE10-.LBB10
 3858 05c4 0E       		.uleb128 0xe
 3859 05c5 6A00     		.ascii	"j\000"
 3860 05c7 01       		.byte	0x1
 3861 05c8 D7       		.byte	0xd7
 3862 05c9 AE010000 		.4byte	0x1ae
 3863 05cd 02       		.uleb128 0x2
 3864 05ce 91       		.byte	0x91
 3865 05cf 6C       		.sleb128 -20
 3866 05d0 0F       		.uleb128 0xf
 3867 05d1 2A000000 		.4byte	.LBB11
 3868 05d5 58000000 		.4byte	.LBE11-.LBB11
 3869 05d9 10       		.uleb128 0x10
 3870 05da 30040000 		.4byte	.LASF52
 3871 05de 01       		.byte	0x1
 3872 05df D8       		.byte	0xd8
 3873 05e0 8D010000 		.4byte	0x18d
 3874 05e4 02       		.uleb128 0x2
 3875 05e5 91       		.byte	0x91
 3876 05e6 6B       		.sleb128 -21
 3877 05e7 00       		.byte	0
 3878 05e8 00       		.byte	0
 3879 05e9 00       		.byte	0
 3880 05ea 00       		.byte	0
 3881 05eb 0C       		.uleb128 0xc
 3882 05ec 27030000 		.4byte	.LASF54
 3883 05f0 01       		.byte	0x1
 3884 05f1 E1       		.byte	0xe1
 3885 05f2 00000000 		.4byte	.LFB13
 3886 05f6 8C000000 		.4byte	.LFE13-.LFB13
 3887 05fa 01       		.uleb128 0x1
 3888 05fb 9C       		.byte	0x9c
 3889 05fc 6F060000 		.4byte	0x66f
 3890 0600 0D       		.uleb128 0xd
 3891 0601 7800     		.ascii	"x\000"
 3892 0603 01       		.byte	0x1
 3893 0604 E1       		.byte	0xe1
 3894 0605 AE010000 		.4byte	0x1ae
 3895 0609 02       		.uleb128 0x2
 3896 060a 91       		.byte	0x91
 3897 060b 66       		.sleb128 -26
 3898 060c 0D       		.uleb128 0xd
 3899 060d 7900     		.ascii	"y\000"
 3900 060f 01       		.byte	0x1
 3901 0610 E1       		.byte	0xe1
ARM GAS  C:\Users\GYULAI~1\AppData\Local\Temp\ccilvZpi.s 			page 76


 3902 0611 AE010000 		.4byte	0x1ae
 3903 0615 02       		.uleb128 0x2
 3904 0616 91       		.byte	0x91
 3905 0617 64       		.sleb128 -28
 3906 0618 0B       		.uleb128 0xb
 3907 0619 59020000 		.4byte	.LASF23
 3908 061d 01       		.byte	0x1
 3909 061e E1       		.byte	0xe1
 3910 061f 8D010000 		.4byte	0x18d
 3911 0623 02       		.uleb128 0x2
 3912 0624 91       		.byte	0x91
 3913 0625 63       		.sleb128 -29
 3914 0626 0B       		.uleb128 0xb
 3915 0627 E8040000 		.4byte	.LASF24
 3916 062b 01       		.byte	0x1
 3917 062c E1       		.byte	0xe1
 3918 062d 8D010000 		.4byte	0x18d
 3919 0631 02       		.uleb128 0x2
 3920 0632 91       		.byte	0x91
 3921 0633 62       		.sleb128 -30
 3922 0634 0B       		.uleb128 0xb
 3923 0635 F2030000 		.4byte	.LASF43
 3924 0639 01       		.byte	0x1
 3925 063a E1       		.byte	0xe1
 3926 063b 98010000 		.4byte	0x198
 3927 063f 02       		.uleb128 0x2
 3928 0640 91       		.byte	0x91
 3929 0641 00       		.sleb128 0
 3930 0642 0F       		.uleb128 0xf
 3931 0643 1E000000 		.4byte	.LBB12
 3932 0647 66000000 		.4byte	.LBE12-.LBB12
 3933 064b 0E       		.uleb128 0xe
 3934 064c 6900     		.ascii	"i\000"
 3935 064e 01       		.byte	0x1
 3936 064f E4       		.byte	0xe4
 3937 0650 8D010000 		.4byte	0x18d
 3938 0654 02       		.uleb128 0x2
 3939 0655 91       		.byte	0x91
 3940 0656 6F       		.sleb128 -17
 3941 0657 0F       		.uleb128 0xf
 3942 0658 24000000 		.4byte	.LBB13
 3943 065c 52000000 		.4byte	.LBE13-.LBB13
 3944 0660 0E       		.uleb128 0xe
 3945 0661 6A00     		.ascii	"j\000"
 3946 0663 01       		.byte	0x1
 3947 0664 E5       		.byte	0xe5
 3948 0665 8D010000 		.4byte	0x18d
 3949 0669 02       		.uleb128 0x2
 3950 066a 91       		.byte	0x91
 3951 066b 6E       		.sleb128 -18
 3952 066c 00       		.byte	0
 3953 066d 00       		.byte	0
 3954 066e 00       		.byte	0
 3955 066f 0C       		.uleb128 0xc
 3956 0670 7D040000 		.4byte	.LASF55
 3957 0674 01       		.byte	0x1
 3958 0675 F0       		.byte	0xf0
ARM GAS  C:\Users\GYULAI~1\AppData\Local\Temp\ccilvZpi.s 			page 77


 3959 0676 00000000 		.4byte	.LFB14
 3960 067a 6C000000 		.4byte	.LFE14-.LFB14
 3961 067e 01       		.uleb128 0x1
 3962 067f 9C       		.byte	0x9c
 3963 0680 F3060000 		.4byte	0x6f3
 3964 0684 0D       		.uleb128 0xd
 3965 0685 7800     		.ascii	"x\000"
 3966 0687 01       		.byte	0x1
 3967 0688 F0       		.byte	0xf0
 3968 0689 AE010000 		.4byte	0x1ae
 3969 068d 02       		.uleb128 0x2
 3970 068e 91       		.byte	0x91
 3971 068f 66       		.sleb128 -26
 3972 0690 0D       		.uleb128 0xd
 3973 0691 7900     		.ascii	"y\000"
 3974 0693 01       		.byte	0x1
 3975 0694 F0       		.byte	0xf0
 3976 0695 AE010000 		.4byte	0x1ae
 3977 0699 02       		.uleb128 0x2
 3978 069a 91       		.byte	0x91
 3979 069b 64       		.sleb128 -28
 3980 069c 0B       		.uleb128 0xb
 3981 069d 59020000 		.4byte	.LASF23
 3982 06a1 01       		.byte	0x1
 3983 06a2 F0       		.byte	0xf0
 3984 06a3 8D010000 		.4byte	0x18d
 3985 06a7 02       		.uleb128 0x2
 3986 06a8 91       		.byte	0x91
 3987 06a9 63       		.sleb128 -29
 3988 06aa 0B       		.uleb128 0xb
 3989 06ab E8040000 		.4byte	.LASF24
 3990 06af 01       		.byte	0x1
 3991 06b0 F0       		.byte	0xf0
 3992 06b1 8D010000 		.4byte	0x18d
 3993 06b5 02       		.uleb128 0x2
 3994 06b6 91       		.byte	0x91
 3995 06b7 62       		.sleb128 -30
 3996 06b8 0B       		.uleb128 0xb
 3997 06b9 F2030000 		.4byte	.LASF43
 3998 06bd 01       		.byte	0x1
 3999 06be F0       		.byte	0xf0
 4000 06bf 98010000 		.4byte	0x198
 4001 06c3 02       		.uleb128 0x2
 4002 06c4 91       		.byte	0x91
 4003 06c5 00       		.sleb128 0
 4004 06c6 0F       		.uleb128 0xf
 4005 06c7 1E000000 		.4byte	.LBB14
 4006 06cb 46000000 		.4byte	.LBE14-.LBB14
 4007 06cf 0E       		.uleb128 0xe
 4008 06d0 6900     		.ascii	"i\000"
 4009 06d2 01       		.byte	0x1
 4010 06d3 F3       		.byte	0xf3
 4011 06d4 8D010000 		.4byte	0x18d
 4012 06d8 02       		.uleb128 0x2
 4013 06d9 91       		.byte	0x91
 4014 06da 6F       		.sleb128 -17
 4015 06db 0F       		.uleb128 0xf
ARM GAS  C:\Users\GYULAI~1\AppData\Local\Temp\ccilvZpi.s 			page 78


 4016 06dc 24000000 		.4byte	.LBB15
 4017 06e0 32000000 		.4byte	.LBE15-.LBB15
 4018 06e4 0E       		.uleb128 0xe
 4019 06e5 6A00     		.ascii	"j\000"
 4020 06e7 01       		.byte	0x1
 4021 06e8 F4       		.byte	0xf4
 4022 06e9 8D010000 		.4byte	0x18d
 4023 06ed 02       		.uleb128 0x2
 4024 06ee 91       		.byte	0x91
 4025 06ef 6E       		.sleb128 -18
 4026 06f0 00       		.byte	0
 4027 06f1 00       		.byte	0
 4028 06f2 00       		.byte	0
 4029 06f3 0C       		.uleb128 0xc
 4030 06f4 CE040000 		.4byte	.LASF56
 4031 06f8 01       		.byte	0x1
 4032 06f9 FD       		.byte	0xfd
 4033 06fa 00000000 		.4byte	.LFB15
 4034 06fe DC000000 		.4byte	.LFE15-.LFB15
 4035 0702 01       		.uleb128 0x1
 4036 0703 9C       		.byte	0x9c
 4037 0704 B2070000 		.4byte	0x7b2
 4038 0708 0D       		.uleb128 0xd
 4039 0709 7800     		.ascii	"x\000"
 4040 070b 01       		.byte	0x1
 4041 070c FD       		.byte	0xfd
 4042 070d AE010000 		.4byte	0x1ae
 4043 0711 02       		.uleb128 0x2
 4044 0712 91       		.byte	0x91
 4045 0713 5E       		.sleb128 -34
 4046 0714 0D       		.uleb128 0xd
 4047 0715 7900     		.ascii	"y\000"
 4048 0717 01       		.byte	0x1
 4049 0718 FD       		.byte	0xfd
 4050 0719 AE010000 		.4byte	0x1ae
 4051 071d 02       		.uleb128 0x2
 4052 071e 91       		.byte	0x91
 4053 071f 5C       		.sleb128 -36
 4054 0720 0B       		.uleb128 0xb
 4055 0721 52000000 		.4byte	.LASF57
 4056 0725 01       		.byte	0x1
 4057 0726 FD       		.byte	0xfd
 4058 0727 A3010000 		.4byte	0x1a3
 4059 072b 02       		.uleb128 0x2
 4060 072c 91       		.byte	0x91
 4061 072d 5A       		.sleb128 -38
 4062 072e 11       		.uleb128 0x11
 4063 072f 7C010000 		.4byte	.LASF58
 4064 0733 01       		.byte	0x1
 4065 0734 0001     		.2byte	0x100
 4066 0736 3A010000 		.4byte	0x13a
 4067 073a 02       		.uleb128 0x2
 4068 073b 91       		.byte	0x91
 4069 073c 60       		.sleb128 -32
 4070 073d 11       		.uleb128 0x11
 4071 073e 17030000 		.4byte	.LASF59
 4072 0742 01       		.byte	0x1
ARM GAS  C:\Users\GYULAI~1\AppData\Local\Temp\ccilvZpi.s 			page 79


 4073 0743 0301     		.2byte	0x103
 4074 0745 AE010000 		.4byte	0x1ae
 4075 0749 02       		.uleb128 0x2
 4076 074a 91       		.byte	0x91
 4077 074b 72       		.sleb128 -14
 4078 074c 11       		.uleb128 0x11
 4079 074d C2010000 		.4byte	.LASF60
 4080 0751 01       		.byte	0x1
 4081 0752 0401     		.2byte	0x104
 4082 0754 AE010000 		.4byte	0x1ae
 4083 0758 02       		.uleb128 0x2
 4084 0759 91       		.byte	0x91
 4085 075a 70       		.sleb128 -16
 4086 075b 0F       		.uleb128 0xf
 4087 075c 4C000000 		.4byte	.LBB16
 4088 0760 82000000 		.4byte	.LBE16-.LBB16
 4089 0764 12       		.uleb128 0x12
 4090 0765 6A00     		.ascii	"j\000"
 4091 0767 01       		.byte	0x1
 4092 0768 0601     		.2byte	0x106
 4093 076a AE010000 		.4byte	0x1ae
 4094 076e 02       		.uleb128 0x2
 4095 076f 91       		.byte	0x91
 4096 0770 76       		.sleb128 -10
 4097 0771 0F       		.uleb128 0xf
 4098 0772 58000000 		.4byte	.LBB17
 4099 0776 68000000 		.4byte	.LBE17-.LBB17
 4100 077a 12       		.uleb128 0x12
 4101 077b 6900     		.ascii	"i\000"
 4102 077d 01       		.byte	0x1
 4103 077e 0701     		.2byte	0x107
 4104 0780 AE010000 		.4byte	0x1ae
 4105 0784 02       		.uleb128 0x2
 4106 0785 91       		.byte	0x91
 4107 0786 74       		.sleb128 -12
 4108 0787 0F       		.uleb128 0xf
 4109 0788 64000000 		.4byte	.LBB18
 4110 078c 4E000000 		.4byte	.LBE18-.LBB18
 4111 0790 11       		.uleb128 0x11
 4112 0791 79020000 		.4byte	.LASF61
 4113 0795 01       		.byte	0x1
 4114 0796 0A01     		.2byte	0x10a
 4115 0798 E6000000 		.4byte	0xe6
 4116 079c 02       		.uleb128 0x2
 4117 079d 91       		.byte	0x91
 4118 079e 6C       		.sleb128 -20
 4119 079f 11       		.uleb128 0x11
 4120 07a0 C5040000 		.4byte	.LASF62
 4121 07a4 01       		.byte	0x1
 4122 07a5 0B01     		.2byte	0x10b
 4123 07a7 C5000000 		.4byte	0xc5
 4124 07ab 02       		.uleb128 0x2
 4125 07ac 91       		.byte	0x91
 4126 07ad 6B       		.sleb128 -21
 4127 07ae 00       		.byte	0
 4128 07af 00       		.byte	0
 4129 07b0 00       		.byte	0
ARM GAS  C:\Users\GYULAI~1\AppData\Local\Temp\ccilvZpi.s 			page 80


 4130 07b1 00       		.byte	0
 4131 07b2 13       		.uleb128 0x13
 4132 07b3 FD030000 		.4byte	.LASF63
 4133 07b7 01       		.byte	0x1
 4134 07b8 1B01     		.2byte	0x11b
 4135 07ba 00000000 		.4byte	.LFB16
 4136 07be 26000000 		.4byte	.LFE16-.LFB16
 4137 07c2 01       		.uleb128 0x1
 4138 07c3 9C       		.byte	0x9c
 4139 07c4 F2070000 		.4byte	0x7f2
 4140 07c8 14       		.uleb128 0x14
 4141 07c9 7800     		.ascii	"x\000"
 4142 07cb 01       		.byte	0x1
 4143 07cc 1B01     		.2byte	0x11b
 4144 07ce AE010000 		.4byte	0x1ae
 4145 07d2 02       		.uleb128 0x2
 4146 07d3 91       		.byte	0x91
 4147 07d4 76       		.sleb128 -10
 4148 07d5 14       		.uleb128 0x14
 4149 07d6 7900     		.ascii	"y\000"
 4150 07d8 01       		.byte	0x1
 4151 07d9 1B01     		.2byte	0x11b
 4152 07db AE010000 		.4byte	0x1ae
 4153 07df 02       		.uleb128 0x2
 4154 07e0 91       		.byte	0x91
 4155 07e1 74       		.sleb128 -12
 4156 07e2 15       		.uleb128 0x15
 4157 07e3 52000000 		.4byte	.LASF57
 4158 07e7 01       		.byte	0x1
 4159 07e8 1B01     		.2byte	0x11b
 4160 07ea A3010000 		.4byte	0x1a3
 4161 07ee 02       		.uleb128 0x2
 4162 07ef 91       		.byte	0x91
 4163 07f0 72       		.sleb128 -14
 4164 07f1 00       		.byte	0
 4165 07f2 16       		.uleb128 0x16
 4166 07f3 E3020000 		.4byte	.LASF64
 4167 07f7 01       		.byte	0x1
 4168 07f8 2401     		.2byte	0x124
 4169 07fa 00000000 		.4byte	.LFB17
 4170 07fe 30000000 		.4byte	.LFE17-.LFB17
 4171 0802 01       		.uleb128 0x1
 4172 0803 9C       		.byte	0x9c
 4173 0804 23080000 		.4byte	0x823
 4174 0808 14       		.uleb128 0x14
 4175 0809 7800     		.ascii	"x\000"
 4176 080b 01       		.byte	0x1
 4177 080c 2401     		.2byte	0x124
 4178 080e AE010000 		.4byte	0x1ae
 4179 0812 02       		.uleb128 0x2
 4180 0813 91       		.byte	0x91
 4181 0814 76       		.sleb128 -10
 4182 0815 14       		.uleb128 0x14
 4183 0816 7900     		.ascii	"y\000"
 4184 0818 01       		.byte	0x1
 4185 0819 2401     		.2byte	0x124
 4186 081b AE010000 		.4byte	0x1ae
ARM GAS  C:\Users\GYULAI~1\AppData\Local\Temp\ccilvZpi.s 			page 81


 4187 081f 02       		.uleb128 0x2
 4188 0820 91       		.byte	0x91
 4189 0821 74       		.sleb128 -12
 4190 0822 00       		.byte	0
 4191 0823 13       		.uleb128 0x13
 4192 0824 FC020000 		.4byte	.LASF65
 4193 0828 01       		.byte	0x1
 4194 0829 2901     		.2byte	0x129
 4195 082b 00000000 		.4byte	.LFB18
 4196 082f 88000000 		.4byte	.LFE18-.LFB18
 4197 0833 01       		.uleb128 0x1
 4198 0834 9C       		.byte	0x9c
 4199 0835 57080000 		.4byte	0x857
 4200 0839 14       		.uleb128 0x14
 4201 083a 696400   		.ascii	"id\000"
 4202 083d 01       		.byte	0x1
 4203 083e 2901     		.2byte	0x129
 4204 0840 A3010000 		.4byte	0x1a3
 4205 0844 02       		.uleb128 0x2
 4206 0845 91       		.byte	0x91
 4207 0846 6E       		.sleb128 -18
 4208 0847 11       		.uleb128 0x11
 4209 0848 7C010000 		.4byte	.LASF58
 4210 084c 01       		.byte	0x1
 4211 084d 2C01     		.2byte	0x12c
 4212 084f 3A010000 		.4byte	0x13a
 4213 0853 02       		.uleb128 0x2
 4214 0854 91       		.byte	0x91
 4215 0855 70       		.sleb128 -16
 4216 0856 00       		.byte	0
 4217 0857 13       		.uleb128 0x13
 4218 0858 96020000 		.4byte	.LASF66
 4219 085c 01       		.byte	0x1
 4220 085d 3B01     		.2byte	0x13b
 4221 085f 00000000 		.4byte	.LFB19
 4222 0863 1A000000 		.4byte	.LFE19-.LFB19
 4223 0867 01       		.uleb128 0x1
 4224 0868 9C       		.byte	0x9c
 4225 0869 7C080000 		.4byte	0x87c
 4226 086d 14       		.uleb128 0x14
 4227 086e 696400   		.ascii	"id\000"
 4228 0871 01       		.byte	0x1
 4229 0872 3B01     		.2byte	0x13b
 4230 0874 A3010000 		.4byte	0x1a3
 4231 0878 02       		.uleb128 0x2
 4232 0879 91       		.byte	0x91
 4233 087a 76       		.sleb128 -10
 4234 087b 00       		.byte	0
 4235 087c 13       		.uleb128 0x13
 4236 087d 39040000 		.4byte	.LASF67
 4237 0881 01       		.byte	0x1
 4238 0882 4401     		.2byte	0x144
 4239 0884 00000000 		.4byte	.LFB20
 4240 0888 74000000 		.4byte	.LFE20-.LFB20
 4241 088c 01       		.uleb128 0x1
 4242 088d 9C       		.byte	0x9c
 4243 088e A2080000 		.4byte	0x8a2
ARM GAS  C:\Users\GYULAI~1\AppData\Local\Temp\ccilvZpi.s 			page 82


 4244 0892 14       		.uleb128 0x14
 4245 0893 73747200 		.ascii	"str\000"
 4246 0897 01       		.byte	0x1
 4247 0898 4401     		.2byte	0x144
 4248 089a AC000000 		.4byte	0xac
 4249 089e 02       		.uleb128 0x2
 4250 089f 91       		.byte	0x91
 4251 08a0 74       		.sleb128 -12
 4252 08a1 00       		.byte	0
 4253 08a2 10       		.uleb128 0x10
 4254 08a3 78030000 		.4byte	.LASF68
 4255 08a7 01       		.byte	0x1
 4256 08a8 2F       		.byte	0x2f
 4257 08a9 82010000 		.4byte	0x182
 4258 08ad 05       		.uleb128 0x5
 4259 08ae 03       		.byte	0x3
 4260 08af 00000000 		.4byte	rhea_gfx_localFont
 4261 08b3 10       		.uleb128 0x10
 4262 08b4 DB010000 		.4byte	.LASF69
 4263 08b8 01       		.byte	0x1
 4264 08b9 32       		.byte	0x32
 4265 08ba AE010000 		.4byte	0x1ae
 4266 08be 05       		.uleb128 0x5
 4267 08bf 03       		.byte	0x3
 4268 08c0 0C000000 		.4byte	rhea_gfx_cursorX
 4269 08c4 10       		.uleb128 0x10
 4270 08c5 EC010000 		.4byte	.LASF70
 4271 08c9 01       		.byte	0x1
 4272 08ca 33       		.byte	0x33
 4273 08cb AE010000 		.4byte	0x1ae
 4274 08cf 05       		.uleb128 0x5
 4275 08d0 03       		.byte	0x3
 4276 08d1 0E000000 		.4byte	rhea_gfx_cursorY
 4277 08d5 17       		.uleb128 0x17
 4278 08d6 C5000000 		.4byte	0xc5
 4279 08da E6080000 		.4byte	0x8e6
 4280 08de 18       		.uleb128 0x18
 4281 08df 9E000000 		.4byte	0x9e
 4282 08e3 1F03     		.2byte	0x31f
 4283 08e5 00       		.byte	0
 4284 08e6 19       		.uleb128 0x19
 4285 08e7 83010000 		.4byte	.LASF71
 4286 08eb 05       		.byte	0x5
 4287 08ec 33       		.byte	0x33
 4288 08ed D5080000 		.4byte	0x8d5
 4289 08f1 05       		.uleb128 0x5
 4290 08f2 03       		.byte	0x3
 4291 08f3 00000000 		.4byte	codefont_8x8_data
 4292 08f7 17       		.uleb128 0x17
 4293 08f8 3A010000 		.4byte	0x13a
 4294 08fc 07090000 		.4byte	0x907
 4295 0900 1A       		.uleb128 0x1a
 4296 0901 9E000000 		.4byte	0x9e
 4297 0905 63       		.byte	0x63
 4298 0906 00       		.byte	0
 4299 0907 19       		.uleb128 0x19
 4300 0908 4F040000 		.4byte	.LASF72
ARM GAS  C:\Users\GYULAI~1\AppData\Local\Temp\ccilvZpi.s 			page 83


 4301 090c 05       		.byte	0x5
 4302 090d FF       		.byte	0xff
 4303 090e F7080000 		.4byte	0x8f7
 4304 0912 05       		.uleb128 0x5
 4305 0913 03       		.byte	0x3
 4306 0914 00000000 		.4byte	codefont_8x8_descriptors
 4307 0918 00       		.byte	0
 4308              		.section	.debug_abbrev,"",%progbits
 4309              	.Ldebug_abbrev0:
 4310 0000 01       		.uleb128 0x1
 4311 0001 11       		.uleb128 0x11
 4312 0002 01       		.byte	0x1
 4313 0003 25       		.uleb128 0x25
 4314 0004 0E       		.uleb128 0xe
 4315 0005 13       		.uleb128 0x13
 4316 0006 0B       		.uleb128 0xb
 4317 0007 03       		.uleb128 0x3
 4318 0008 0E       		.uleb128 0xe
 4319 0009 1B       		.uleb128 0x1b
 4320 000a 0E       		.uleb128 0xe
 4321 000b 55       		.uleb128 0x55
 4322 000c 17       		.uleb128 0x17
 4323 000d 11       		.uleb128 0x11
 4324 000e 01       		.uleb128 0x1
 4325 000f 10       		.uleb128 0x10
 4326 0010 17       		.uleb128 0x17
 4327 0011 00       		.byte	0
 4328 0012 00       		.byte	0
 4329 0013 02       		.uleb128 0x2
 4330 0014 24       		.uleb128 0x24
 4331 0015 00       		.byte	0
 4332 0016 0B       		.uleb128 0xb
 4333 0017 0B       		.uleb128 0xb
 4334 0018 3E       		.uleb128 0x3e
 4335 0019 0B       		.uleb128 0xb
 4336 001a 03       		.uleb128 0x3
 4337 001b 08       		.uleb128 0x8
 4338 001c 00       		.byte	0
 4339 001d 00       		.byte	0
 4340 001e 03       		.uleb128 0x3
 4341 001f 24       		.uleb128 0x24
 4342 0020 00       		.byte	0
 4343 0021 0B       		.uleb128 0xb
 4344 0022 0B       		.uleb128 0xb
 4345 0023 3E       		.uleb128 0x3e
 4346 0024 0B       		.uleb128 0xb
 4347 0025 03       		.uleb128 0x3
 4348 0026 0E       		.uleb128 0xe
 4349 0027 00       		.byte	0
 4350 0028 00       		.byte	0
 4351 0029 04       		.uleb128 0x4
 4352 002a 16       		.uleb128 0x16
 4353 002b 00       		.byte	0
 4354 002c 03       		.uleb128 0x3
 4355 002d 0E       		.uleb128 0xe
 4356 002e 3A       		.uleb128 0x3a
 4357 002f 0B       		.uleb128 0xb
ARM GAS  C:\Users\GYULAI~1\AppData\Local\Temp\ccilvZpi.s 			page 84


 4358 0030 3B       		.uleb128 0x3b
 4359 0031 0B       		.uleb128 0xb
 4360 0032 49       		.uleb128 0x49
 4361 0033 13       		.uleb128 0x13
 4362 0034 00       		.byte	0
 4363 0035 00       		.byte	0
 4364 0036 05       		.uleb128 0x5
 4365 0037 0F       		.uleb128 0xf
 4366 0038 00       		.byte	0
 4367 0039 0B       		.uleb128 0xb
 4368 003a 0B       		.uleb128 0xb
 4369 003b 49       		.uleb128 0x49
 4370 003c 13       		.uleb128 0x13
 4371 003d 00       		.byte	0
 4372 003e 00       		.byte	0
 4373 003f 06       		.uleb128 0x6
 4374 0040 26       		.uleb128 0x26
 4375 0041 00       		.byte	0
 4376 0042 49       		.uleb128 0x49
 4377 0043 13       		.uleb128 0x13
 4378 0044 00       		.byte	0
 4379 0045 00       		.byte	0
 4380 0046 07       		.uleb128 0x7
 4381 0047 13       		.uleb128 0x13
 4382 0048 01       		.byte	0x1
 4383 0049 03       		.uleb128 0x3
 4384 004a 0E       		.uleb128 0xe
 4385 004b 0B       		.uleb128 0xb
 4386 004c 0B       		.uleb128 0xb
 4387 004d 3A       		.uleb128 0x3a
 4388 004e 0B       		.uleb128 0xb
 4389 004f 3B       		.uleb128 0x3b
 4390 0050 0B       		.uleb128 0xb
 4391 0051 01       		.uleb128 0x1
 4392 0052 13       		.uleb128 0x13
 4393 0053 00       		.byte	0
 4394 0054 00       		.byte	0
 4395 0055 08       		.uleb128 0x8
 4396 0056 0D       		.uleb128 0xd
 4397 0057 00       		.byte	0
 4398 0058 03       		.uleb128 0x3
 4399 0059 0E       		.uleb128 0xe
 4400 005a 3A       		.uleb128 0x3a
 4401 005b 0B       		.uleb128 0xb
 4402 005c 3B       		.uleb128 0x3b
 4403 005d 0B       		.uleb128 0xb
 4404 005e 49       		.uleb128 0x49
 4405 005f 13       		.uleb128 0x13
 4406 0060 38       		.uleb128 0x38
 4407 0061 0B       		.uleb128 0xb
 4408 0062 00       		.byte	0
 4409 0063 00       		.byte	0
 4410 0064 09       		.uleb128 0x9
 4411 0065 2E       		.uleb128 0x2e
 4412 0066 00       		.byte	0
 4413 0067 3F       		.uleb128 0x3f
 4414 0068 19       		.uleb128 0x19
ARM GAS  C:\Users\GYULAI~1\AppData\Local\Temp\ccilvZpi.s 			page 85


 4415 0069 03       		.uleb128 0x3
 4416 006a 0E       		.uleb128 0xe
 4417 006b 3A       		.uleb128 0x3a
 4418 006c 0B       		.uleb128 0xb
 4419 006d 3B       		.uleb128 0x3b
 4420 006e 0B       		.uleb128 0xb
 4421 006f 27       		.uleb128 0x27
 4422 0070 19       		.uleb128 0x19
 4423 0071 11       		.uleb128 0x11
 4424 0072 01       		.uleb128 0x1
 4425 0073 12       		.uleb128 0x12
 4426 0074 06       		.uleb128 0x6
 4427 0075 40       		.uleb128 0x40
 4428 0076 18       		.uleb128 0x18
 4429 0077 9642     		.uleb128 0x2116
 4430 0079 19       		.uleb128 0x19
 4431 007a 00       		.byte	0
 4432 007b 00       		.byte	0
 4433 007c 0A       		.uleb128 0xa
 4434 007d 2E       		.uleb128 0x2e
 4435 007e 01       		.byte	0x1
 4436 007f 3F       		.uleb128 0x3f
 4437 0080 19       		.uleb128 0x19
 4438 0081 03       		.uleb128 0x3
 4439 0082 0E       		.uleb128 0xe
 4440 0083 3A       		.uleb128 0x3a
 4441 0084 0B       		.uleb128 0xb
 4442 0085 3B       		.uleb128 0x3b
 4443 0086 0B       		.uleb128 0xb
 4444 0087 27       		.uleb128 0x27
 4445 0088 19       		.uleb128 0x19
 4446 0089 11       		.uleb128 0x11
 4447 008a 01       		.uleb128 0x1
 4448 008b 12       		.uleb128 0x12
 4449 008c 06       		.uleb128 0x6
 4450 008d 40       		.uleb128 0x40
 4451 008e 18       		.uleb128 0x18
 4452 008f 9742     		.uleb128 0x2117
 4453 0091 19       		.uleb128 0x19
 4454 0092 01       		.uleb128 0x1
 4455 0093 13       		.uleb128 0x13
 4456 0094 00       		.byte	0
 4457 0095 00       		.byte	0
 4458 0096 0B       		.uleb128 0xb
 4459 0097 05       		.uleb128 0x5
 4460 0098 00       		.byte	0
 4461 0099 03       		.uleb128 0x3
 4462 009a 0E       		.uleb128 0xe
 4463 009b 3A       		.uleb128 0x3a
 4464 009c 0B       		.uleb128 0xb
 4465 009d 3B       		.uleb128 0x3b
 4466 009e 0B       		.uleb128 0xb
 4467 009f 49       		.uleb128 0x49
 4468 00a0 13       		.uleb128 0x13
 4469 00a1 02       		.uleb128 0x2
 4470 00a2 18       		.uleb128 0x18
 4471 00a3 00       		.byte	0
ARM GAS  C:\Users\GYULAI~1\AppData\Local\Temp\ccilvZpi.s 			page 86


 4472 00a4 00       		.byte	0
 4473 00a5 0C       		.uleb128 0xc
 4474 00a6 2E       		.uleb128 0x2e
 4475 00a7 01       		.byte	0x1
 4476 00a8 3F       		.uleb128 0x3f
 4477 00a9 19       		.uleb128 0x19
 4478 00aa 03       		.uleb128 0x3
 4479 00ab 0E       		.uleb128 0xe
 4480 00ac 3A       		.uleb128 0x3a
 4481 00ad 0B       		.uleb128 0xb
 4482 00ae 3B       		.uleb128 0x3b
 4483 00af 0B       		.uleb128 0xb
 4484 00b0 27       		.uleb128 0x27
 4485 00b1 19       		.uleb128 0x19
 4486 00b2 11       		.uleb128 0x11
 4487 00b3 01       		.uleb128 0x1
 4488 00b4 12       		.uleb128 0x12
 4489 00b5 06       		.uleb128 0x6
 4490 00b6 40       		.uleb128 0x40
 4491 00b7 18       		.uleb128 0x18
 4492 00b8 9642     		.uleb128 0x2116
 4493 00ba 19       		.uleb128 0x19
 4494 00bb 01       		.uleb128 0x1
 4495 00bc 13       		.uleb128 0x13
 4496 00bd 00       		.byte	0
 4497 00be 00       		.byte	0
 4498 00bf 0D       		.uleb128 0xd
 4499 00c0 05       		.uleb128 0x5
 4500 00c1 00       		.byte	0
 4501 00c2 03       		.uleb128 0x3
 4502 00c3 08       		.uleb128 0x8
 4503 00c4 3A       		.uleb128 0x3a
 4504 00c5 0B       		.uleb128 0xb
 4505 00c6 3B       		.uleb128 0x3b
 4506 00c7 0B       		.uleb128 0xb
 4507 00c8 49       		.uleb128 0x49
 4508 00c9 13       		.uleb128 0x13
 4509 00ca 02       		.uleb128 0x2
 4510 00cb 18       		.uleb128 0x18
 4511 00cc 00       		.byte	0
 4512 00cd 00       		.byte	0
 4513 00ce 0E       		.uleb128 0xe
 4514 00cf 34       		.uleb128 0x34
 4515 00d0 00       		.byte	0
 4516 00d1 03       		.uleb128 0x3
 4517 00d2 08       		.uleb128 0x8
 4518 00d3 3A       		.uleb128 0x3a
 4519 00d4 0B       		.uleb128 0xb
 4520 00d5 3B       		.uleb128 0x3b
 4521 00d6 0B       		.uleb128 0xb
 4522 00d7 49       		.uleb128 0x49
 4523 00d8 13       		.uleb128 0x13
 4524 00d9 02       		.uleb128 0x2
 4525 00da 18       		.uleb128 0x18
 4526 00db 00       		.byte	0
 4527 00dc 00       		.byte	0
 4528 00dd 0F       		.uleb128 0xf
ARM GAS  C:\Users\GYULAI~1\AppData\Local\Temp\ccilvZpi.s 			page 87


 4529 00de 0B       		.uleb128 0xb
 4530 00df 01       		.byte	0x1
 4531 00e0 11       		.uleb128 0x11
 4532 00e1 01       		.uleb128 0x1
 4533 00e2 12       		.uleb128 0x12
 4534 00e3 06       		.uleb128 0x6
 4535 00e4 00       		.byte	0
 4536 00e5 00       		.byte	0
 4537 00e6 10       		.uleb128 0x10
 4538 00e7 34       		.uleb128 0x34
 4539 00e8 00       		.byte	0
 4540 00e9 03       		.uleb128 0x3
 4541 00ea 0E       		.uleb128 0xe
 4542 00eb 3A       		.uleb128 0x3a
 4543 00ec 0B       		.uleb128 0xb
 4544 00ed 3B       		.uleb128 0x3b
 4545 00ee 0B       		.uleb128 0xb
 4546 00ef 49       		.uleb128 0x49
 4547 00f0 13       		.uleb128 0x13
 4548 00f1 02       		.uleb128 0x2
 4549 00f2 18       		.uleb128 0x18
 4550 00f3 00       		.byte	0
 4551 00f4 00       		.byte	0
 4552 00f5 11       		.uleb128 0x11
 4553 00f6 34       		.uleb128 0x34
 4554 00f7 00       		.byte	0
 4555 00f8 03       		.uleb128 0x3
 4556 00f9 0E       		.uleb128 0xe
 4557 00fa 3A       		.uleb128 0x3a
 4558 00fb 0B       		.uleb128 0xb
 4559 00fc 3B       		.uleb128 0x3b
 4560 00fd 05       		.uleb128 0x5
 4561 00fe 49       		.uleb128 0x49
 4562 00ff 13       		.uleb128 0x13
 4563 0100 02       		.uleb128 0x2
 4564 0101 18       		.uleb128 0x18
 4565 0102 00       		.byte	0
 4566 0103 00       		.byte	0
 4567 0104 12       		.uleb128 0x12
 4568 0105 34       		.uleb128 0x34
 4569 0106 00       		.byte	0
 4570 0107 03       		.uleb128 0x3
 4571 0108 08       		.uleb128 0x8
 4572 0109 3A       		.uleb128 0x3a
 4573 010a 0B       		.uleb128 0xb
 4574 010b 3B       		.uleb128 0x3b
 4575 010c 05       		.uleb128 0x5
 4576 010d 49       		.uleb128 0x49
 4577 010e 13       		.uleb128 0x13
 4578 010f 02       		.uleb128 0x2
 4579 0110 18       		.uleb128 0x18
 4580 0111 00       		.byte	0
 4581 0112 00       		.byte	0
 4582 0113 13       		.uleb128 0x13
 4583 0114 2E       		.uleb128 0x2e
 4584 0115 01       		.byte	0x1
 4585 0116 3F       		.uleb128 0x3f
ARM GAS  C:\Users\GYULAI~1\AppData\Local\Temp\ccilvZpi.s 			page 88


 4586 0117 19       		.uleb128 0x19
 4587 0118 03       		.uleb128 0x3
 4588 0119 0E       		.uleb128 0xe
 4589 011a 3A       		.uleb128 0x3a
 4590 011b 0B       		.uleb128 0xb
 4591 011c 3B       		.uleb128 0x3b
 4592 011d 05       		.uleb128 0x5
 4593 011e 27       		.uleb128 0x27
 4594 011f 19       		.uleb128 0x19
 4595 0120 11       		.uleb128 0x11
 4596 0121 01       		.uleb128 0x1
 4597 0122 12       		.uleb128 0x12
 4598 0123 06       		.uleb128 0x6
 4599 0124 40       		.uleb128 0x40
 4600 0125 18       		.uleb128 0x18
 4601 0126 9642     		.uleb128 0x2116
 4602 0128 19       		.uleb128 0x19
 4603 0129 01       		.uleb128 0x1
 4604 012a 13       		.uleb128 0x13
 4605 012b 00       		.byte	0
 4606 012c 00       		.byte	0
 4607 012d 14       		.uleb128 0x14
 4608 012e 05       		.uleb128 0x5
 4609 012f 00       		.byte	0
 4610 0130 03       		.uleb128 0x3
 4611 0131 08       		.uleb128 0x8
 4612 0132 3A       		.uleb128 0x3a
 4613 0133 0B       		.uleb128 0xb
 4614 0134 3B       		.uleb128 0x3b
 4615 0135 05       		.uleb128 0x5
 4616 0136 49       		.uleb128 0x49
 4617 0137 13       		.uleb128 0x13
 4618 0138 02       		.uleb128 0x2
 4619 0139 18       		.uleb128 0x18
 4620 013a 00       		.byte	0
 4621 013b 00       		.byte	0
 4622 013c 15       		.uleb128 0x15
 4623 013d 05       		.uleb128 0x5
 4624 013e 00       		.byte	0
 4625 013f 03       		.uleb128 0x3
 4626 0140 0E       		.uleb128 0xe
 4627 0141 3A       		.uleb128 0x3a
 4628 0142 0B       		.uleb128 0xb
 4629 0143 3B       		.uleb128 0x3b
 4630 0144 05       		.uleb128 0x5
 4631 0145 49       		.uleb128 0x49
 4632 0146 13       		.uleb128 0x13
 4633 0147 02       		.uleb128 0x2
 4634 0148 18       		.uleb128 0x18
 4635 0149 00       		.byte	0
 4636 014a 00       		.byte	0
 4637 014b 16       		.uleb128 0x16
 4638 014c 2E       		.uleb128 0x2e
 4639 014d 01       		.byte	0x1
 4640 014e 3F       		.uleb128 0x3f
 4641 014f 19       		.uleb128 0x19
 4642 0150 03       		.uleb128 0x3
ARM GAS  C:\Users\GYULAI~1\AppData\Local\Temp\ccilvZpi.s 			page 89


 4643 0151 0E       		.uleb128 0xe
 4644 0152 3A       		.uleb128 0x3a
 4645 0153 0B       		.uleb128 0xb
 4646 0154 3B       		.uleb128 0x3b
 4647 0155 05       		.uleb128 0x5
 4648 0156 27       		.uleb128 0x27
 4649 0157 19       		.uleb128 0x19
 4650 0158 11       		.uleb128 0x11
 4651 0159 01       		.uleb128 0x1
 4652 015a 12       		.uleb128 0x12
 4653 015b 06       		.uleb128 0x6
 4654 015c 40       		.uleb128 0x40
 4655 015d 18       		.uleb128 0x18
 4656 015e 9742     		.uleb128 0x2117
 4657 0160 19       		.uleb128 0x19
 4658 0161 01       		.uleb128 0x1
 4659 0162 13       		.uleb128 0x13
 4660 0163 00       		.byte	0
 4661 0164 00       		.byte	0
 4662 0165 17       		.uleb128 0x17
 4663 0166 01       		.uleb128 0x1
 4664 0167 01       		.byte	0x1
 4665 0168 49       		.uleb128 0x49
 4666 0169 13       		.uleb128 0x13
 4667 016a 01       		.uleb128 0x1
 4668 016b 13       		.uleb128 0x13
 4669 016c 00       		.byte	0
 4670 016d 00       		.byte	0
 4671 016e 18       		.uleb128 0x18
 4672 016f 21       		.uleb128 0x21
 4673 0170 00       		.byte	0
 4674 0171 49       		.uleb128 0x49
 4675 0172 13       		.uleb128 0x13
 4676 0173 2F       		.uleb128 0x2f
 4677 0174 05       		.uleb128 0x5
 4678 0175 00       		.byte	0
 4679 0176 00       		.byte	0
 4680 0177 19       		.uleb128 0x19
 4681 0178 34       		.uleb128 0x34
 4682 0179 00       		.byte	0
 4683 017a 03       		.uleb128 0x3
 4684 017b 0E       		.uleb128 0xe
 4685 017c 3A       		.uleb128 0x3a
 4686 017d 0B       		.uleb128 0xb
 4687 017e 3B       		.uleb128 0x3b
 4688 017f 0B       		.uleb128 0xb
 4689 0180 49       		.uleb128 0x49
 4690 0181 13       		.uleb128 0x13
 4691 0182 3F       		.uleb128 0x3f
 4692 0183 19       		.uleb128 0x19
 4693 0184 02       		.uleb128 0x2
 4694 0185 18       		.uleb128 0x18
 4695 0186 00       		.byte	0
 4696 0187 00       		.byte	0
 4697 0188 1A       		.uleb128 0x1a
 4698 0189 21       		.uleb128 0x21
 4699 018a 00       		.byte	0
ARM GAS  C:\Users\GYULAI~1\AppData\Local\Temp\ccilvZpi.s 			page 90


 4700 018b 49       		.uleb128 0x49
 4701 018c 13       		.uleb128 0x13
 4702 018d 2F       		.uleb128 0x2f
 4703 018e 0B       		.uleb128 0xb
 4704 018f 00       		.byte	0
 4705 0190 00       		.byte	0
 4706 0191 00       		.byte	0
 4707              		.section	.debug_aranges,"",%progbits
 4708 0000 BC000000 		.4byte	0xbc
 4709 0004 0200     		.2byte	0x2
 4710 0006 00000000 		.4byte	.Ldebug_info0
 4711 000a 04       		.byte	0x4
 4712 000b 00       		.byte	0
 4713 000c 0000     		.2byte	0
 4714 000e 0000     		.2byte	0
 4715 0010 00000000 		.4byte	.LFB0
 4716 0014 34000000 		.4byte	.LFE0-.LFB0
 4717 0018 00000000 		.4byte	.LFB1
 4718 001c 0C000000 		.4byte	.LFE1-.LFB1
 4719 0020 00000000 		.4byte	.LFB2
 4720 0024 0C000000 		.4byte	.LFE2-.LFB2
 4721 0028 00000000 		.4byte	.LFB3
 4722 002c 0C000000 		.4byte	.LFE3-.LFB3
 4723 0030 00000000 		.4byte	.LFB4
 4724 0034 28000000 		.4byte	.LFE4-.LFB4
 4725 0038 00000000 		.4byte	.LFB5
 4726 003c 2A000000 		.4byte	.LFE5-.LFB5
 4727 0040 00000000 		.4byte	.LFB6
 4728 0044 BE000000 		.4byte	.LFE6-.LFB6
 4729 0048 00000000 		.4byte	.LFB7
 4730 004c BE000000 		.4byte	.LFE7-.LFB7
 4731 0050 00000000 		.4byte	.LFB8
 4732 0054 F8000000 		.4byte	.LFE8-.LFB8
 4733 0058 00000000 		.4byte	.LFB9
 4734 005c 4E000000 		.4byte	.LFE9-.LFB9
 4735 0060 00000000 		.4byte	.LFB10
 4736 0064 4E000000 		.4byte	.LFE10-.LFB10
 4737 0068 00000000 		.4byte	.LFB11
 4738 006c A2000000 		.4byte	.LFE11-.LFB11
 4739 0070 00000000 		.4byte	.LFB12
 4740 0074 A2000000 		.4byte	.LFE12-.LFB12
 4741 0078 00000000 		.4byte	.LFB13
 4742 007c 8C000000 		.4byte	.LFE13-.LFB13
 4743 0080 00000000 		.4byte	.LFB14
 4744 0084 6C000000 		.4byte	.LFE14-.LFB14
 4745 0088 00000000 		.4byte	.LFB15
 4746 008c DC000000 		.4byte	.LFE15-.LFB15
 4747 0090 00000000 		.4byte	.LFB16
 4748 0094 26000000 		.4byte	.LFE16-.LFB16
 4749 0098 00000000 		.4byte	.LFB17
 4750 009c 30000000 		.4byte	.LFE17-.LFB17
 4751 00a0 00000000 		.4byte	.LFB18
 4752 00a4 88000000 		.4byte	.LFE18-.LFB18
 4753 00a8 00000000 		.4byte	.LFB19
 4754 00ac 1A000000 		.4byte	.LFE19-.LFB19
 4755 00b0 00000000 		.4byte	.LFB20
 4756 00b4 74000000 		.4byte	.LFE20-.LFB20
ARM GAS  C:\Users\GYULAI~1\AppData\Local\Temp\ccilvZpi.s 			page 91


 4757 00b8 00000000 		.4byte	0
 4758 00bc 00000000 		.4byte	0
 4759              		.section	.debug_ranges,"",%progbits
 4760              	.Ldebug_ranges0:
 4761 0000 00000000 		.4byte	.LFB0
 4762 0004 34000000 		.4byte	.LFE0
 4763 0008 00000000 		.4byte	.LFB1
 4764 000c 0C000000 		.4byte	.LFE1
 4765 0010 00000000 		.4byte	.LFB2
 4766 0014 0C000000 		.4byte	.LFE2
 4767 0018 00000000 		.4byte	.LFB3
 4768 001c 0C000000 		.4byte	.LFE3
 4769 0020 00000000 		.4byte	.LFB4
 4770 0024 28000000 		.4byte	.LFE4
 4771 0028 00000000 		.4byte	.LFB5
 4772 002c 2A000000 		.4byte	.LFE5
 4773 0030 00000000 		.4byte	.LFB6
 4774 0034 BE000000 		.4byte	.LFE6
 4775 0038 00000000 		.4byte	.LFB7
 4776 003c BE000000 		.4byte	.LFE7
 4777 0040 00000000 		.4byte	.LFB8
 4778 0044 F8000000 		.4byte	.LFE8
 4779 0048 00000000 		.4byte	.LFB9
 4780 004c 4E000000 		.4byte	.LFE9
 4781 0050 00000000 		.4byte	.LFB10
 4782 0054 4E000000 		.4byte	.LFE10
 4783 0058 00000000 		.4byte	.LFB11
 4784 005c A2000000 		.4byte	.LFE11
 4785 0060 00000000 		.4byte	.LFB12
 4786 0064 A2000000 		.4byte	.LFE12
 4787 0068 00000000 		.4byte	.LFB13
 4788 006c 8C000000 		.4byte	.LFE13
 4789 0070 00000000 		.4byte	.LFB14
 4790 0074 6C000000 		.4byte	.LFE14
 4791 0078 00000000 		.4byte	.LFB15
 4792 007c DC000000 		.4byte	.LFE15
 4793 0080 00000000 		.4byte	.LFB16
 4794 0084 26000000 		.4byte	.LFE16
 4795 0088 00000000 		.4byte	.LFB17
 4796 008c 30000000 		.4byte	.LFE17
 4797 0090 00000000 		.4byte	.LFB18
 4798 0094 88000000 		.4byte	.LFE18
 4799 0098 00000000 		.4byte	.LFB19
 4800 009c 1A000000 		.4byte	.LFE19
 4801 00a0 00000000 		.4byte	.LFB20
 4802 00a4 74000000 		.4byte	.LFE20
 4803 00a8 00000000 		.4byte	0
 4804 00ac 00000000 		.4byte	0
 4805              		.section	.debug_line,"",%progbits
 4806              	.Ldebug_line0:
 4807 0000 EF030000 		.section	.debug_str,"MS",%progbits,1
 4807      02002401 
 4807      00000201 
 4807      FB0E0D00 
 4807      01010101 
 4808              	.LASF46:
 4809 0000 72686561 		.ascii	"rhea_gfx_DrawLine\000"
ARM GAS  C:\Users\GYULAI~1\AppData\Local\Temp\ccilvZpi.s 			page 92


 4809      5F676678 
 4809      5F447261 
 4809      774C696E 
 4809      6500
 4810              	.LASF40:
 4811 0012 72686561 		.ascii	"rhea_gfx_SetFont\000"
 4811      5F676678 
 4811      5F536574 
 4811      466F6E74 
 4811      00
 4812              	.LASF45:
 4813 0023 72686561 		.ascii	"rhea_gfx_DrawLineHigh\000"
 4813      5F676678 
 4813      5F447261 
 4813      774C696E 
 4813      65486967 
 4814              	.LASF74:
 4815 0039 72686561 		.ascii	"rhea\\gfx\\gfx.c\000"
 4815      5C676678 
 4815      5C676678 
 4815      2E6300
 4816              	.LASF5:
 4817 0048 5F5F7569 		.ascii	"__uint8_t\000"
 4817      6E74385F 
 4817      7400
 4818              	.LASF57:
 4819 0052 73796D62 		.ascii	"symbolID\000"
 4819      6F6C4944 
 4819      00
 4820              	.LASF25:
 4821 005b 70616464 		.ascii	"paddingHorizontal\000"
 4821      696E6748 
 4821      6F72697A 
 4821      6F6E7461 
 4821      6C00
 4822              	.LASF47:
 4823 006d 72686561 		.ascii	"rhea_gfx_DrawVerticalLine\000"
 4823      5F676678 
 4823      5F447261 
 4823      77566572 
 4823      74696361 
 4824              	.LASF73:
 4825 0087 474E5520 		.ascii	"GNU C11 5.4.1 20160609 (release) [ARM/embedded-5-br"
 4825      43313120 
 4825      352E342E 
 4825      31203230 
 4825      31363036 
 4826 00ba 616E6368 		.ascii	"anch revision 237715] -mcpu=cortex-m3 -mthumb -g -O"
 4826      20726576 
 4826      6973696F 
 4826      6E203233 
 4826      37373135 
 4827 00ed 30202D66 		.ascii	"0 -ffunction-sections -ffat-lto-objects\000"
 4827      66756E63 
 4827      74696F6E 
 4827      2D736563 
 4827      74696F6E 
ARM GAS  C:\Users\GYULAI~1\AppData\Local\Temp\ccilvZpi.s 			page 93


 4828              	.LASF13:
 4829 0115 6C6F6E67 		.ascii	"long long unsigned int\000"
 4829      206C6F6E 
 4829      6720756E 
 4829      7369676E 
 4829      65642069 
 4830              	.LASF53:
 4831 012c 72686561 		.ascii	"rhea_gfx_DrawFilledCircle\000"
 4831      5F676678 
 4831      5F447261 
 4831      7746696C 
 4831      6C656443 
 4832              	.LASF30:
 4833 0146 666F6E74 		.ascii	"fontData\000"
 4833      44617461 
 4833      00
 4834              	.LASF19:
 4835 014f 696E7431 		.ascii	"int16_t\000"
 4835      365F7400 
 4836              	.LASF1:
 4837 0157 6C6F6E67 		.ascii	"long long int\000"
 4837      206C6F6E 
 4837      6720696E 
 4837      7400
 4838              	.LASF3:
 4839 0165 7369676E 		.ascii	"signed char\000"
 4839      65642063 
 4839      68617200 
 4840              	.LASF31:
 4841 0171 666F6E74 		.ascii	"fontHeight\000"
 4841      48656967 
 4841      687400
 4842              	.LASF58:
 4843 017c 73796D62 		.ascii	"symbol\000"
 4843      6F6C00
 4844              	.LASF71:
 4845 0183 636F6465 		.ascii	"codefont_8x8_data\000"
 4845      666F6E74 
 4845      5F387838 
 4845      5F646174 
 4845      6100
 4846              	.LASF10:
 4847 0195 6C6F6E67 		.ascii	"long int\000"
 4847      20696E74 
 4847      00
 4848              	.LASF36:
 4849 019e 72686561 		.ascii	"rhea_gfx_Initialize\000"
 4849      5F676678 
 4849      5F496E69 
 4849      7469616C 
 4849      697A6500 
 4850              	.LASF20:
 4851 01b2 75696E74 		.ascii	"uint16_t\000"
 4851      31365F74 
 4851      00
 4852              	.LASF16:
 4853 01bb 646F7562 		.ascii	"double\000"
ARM GAS  C:\Users\GYULAI~1\AppData\Local\Temp\ccilvZpi.s 			page 94


 4853      6C6500
 4854              	.LASF60:
 4855 01c2 6C696D69 		.ascii	"limitVertical\000"
 4855      74566572 
 4855      74696361 
 4855      6C00
 4856              	.LASF11:
 4857 01d0 5F5F7569 		.ascii	"__uint32_t\000"
 4857      6E743332 
 4857      5F7400
 4858              	.LASF69:
 4859 01db 72686561 		.ascii	"rhea_gfx_cursorX\000"
 4859      5F676678 
 4859      5F637572 
 4859      736F7258 
 4859      00
 4860              	.LASF70:
 4861 01ec 72686561 		.ascii	"rhea_gfx_cursorY\000"
 4861      5F676678 
 4861      5F637572 
 4861      736F7259 
 4861      00
 4862              	.LASF41:
 4863 01fd 72686561 		.ascii	"rhea_gfx_DrawPixel\000"
 4863      5F676678 
 4863      5F447261 
 4863      77506978 
 4863      656C00
 4864              	.LASF6:
 4865 0210 5F5F696E 		.ascii	"__int16_t\000"
 4865      7431365F 
 4865      7400
 4866              	.LASF39:
 4867 021a 72686561 		.ascii	"rhea_gfx_Refresh\000"
 4867      5F676678 
 4867      5F526566 
 4867      72657368 
 4867      00
 4868              	.LASF38:
 4869 022b 72686561 		.ascii	"rhea_gfx_Clear\000"
 4869      5F676678 
 4869      5F436C65 
 4869      617200
 4870              	.LASF0:
 4871 023a 756E7369 		.ascii	"unsigned int\000"
 4871      676E6564 
 4871      20696E74 
 4871      00
 4872              	.LASF12:
 4873 0247 6C6F6E67 		.ascii	"long unsigned int\000"
 4873      20756E73 
 4873      69676E65 
 4873      6420696E 
 4873      7400
 4874              	.LASF23:
 4875 0259 77696474 		.ascii	"width\000"
 4875      6800
ARM GAS  C:\Users\GYULAI~1\AppData\Local\Temp\ccilvZpi.s 			page 95


 4876              	.LASF9:
 4877 025f 73686F72 		.ascii	"short unsigned int\000"
 4877      7420756E 
 4877      7369676E 
 4877      65642069 
 4877      6E7400
 4878              	.LASF51:
 4879 0272 72616469 		.ascii	"radius\000"
 4879      757300
 4880              	.LASF61:
 4881 0279 62797465 		.ascii	"byteIndex\000"
 4881      496E6465 
 4881      7800
 4882              	.LASF34:
 4883 0283 72686561 		.ascii	"rhea_gfx_symbol_id\000"
 4883      5F676678 
 4883      5F73796D 
 4883      626F6C5F 
 4883      696400
 4884              	.LASF66:
 4885 0296 72686561 		.ascii	"rhea_gfx_PrintSymbol\000"
 4885      5F676678 
 4885      5F507269 
 4885      6E745379 
 4885      6D626F6C 
 4886              	.LASF14:
 4887 02ab 73697A65 		.ascii	"sizetype\000"
 4887      74797065 
 4887      00
 4888              	.LASF37:
 4889 02b4 72686561 		.ascii	"rhea_gfx_Reset\000"
 4889      5F676678 
 4889      5F526573 
 4889      657400
 4890              	.LASF2:
 4891 02c3 6C6F6E67 		.ascii	"long double\000"
 4891      20646F75 
 4891      626C6500 
 4892              	.LASF35:
 4893 02cf 72686561 		.ascii	"rhea_gfx_coordinate\000"
 4893      5F676678 
 4893      5F636F6F 
 4893      7264696E 
 4893      61746500 
 4894              	.LASF64:
 4895 02e3 72686561 		.ascii	"rhea_gfx_SetCursor\000"
 4895      5F676678 
 4895      5F536574 
 4895      43757273 
 4895      6F7200
 4896              	.LASF17:
 4897 02f6 666C6F61 		.ascii	"float\000"
 4897      7400
 4898              	.LASF65:
 4899 02fc 72686561 		.ascii	"rhea_gfx_PrintSymbolHelper\000"
 4899      5F676678 
 4899      5F507269 
ARM GAS  C:\Users\GYULAI~1\AppData\Local\Temp\ccilvZpi.s 			page 96


 4899      6E745379 
 4899      6D626F6C 
 4900              	.LASF59:
 4901 0317 6C696D69 		.ascii	"limitHorizontal\000"
 4901      74486F72 
 4901      697A6F6E 
 4901      74616C00 
 4902              	.LASF54:
 4903 0327 72686561 		.ascii	"rhea_gfx_DrawRectangle\000"
 4903      5F676678 
 4903      5F447261 
 4903      77526563 
 4903      74616E67 
 4904              	.LASF48:
 4905 033e 72686561 		.ascii	"rhea_gfx_DrawHorizontalLine\000"
 4905      5F676678 
 4905      5F447261 
 4905      77486F72 
 4905      697A6F6E 
 4906              	.LASF29:
 4907 035a 666F6E74 		.ascii	"fontDescriptors\000"
 4907      44657363 
 4907      72697074 
 4907      6F727300 
 4908              	.LASF4:
 4909 036a 756E7369 		.ascii	"unsigned char\000"
 4909      676E6564 
 4909      20636861 
 4909      7200
 4910              	.LASF68:
 4911 0378 72686561 		.ascii	"rhea_gfx_localFont\000"
 4911      5F676678 
 4911      5F6C6F63 
 4911      616C466F 
 4911      6E7400
 4912              	.LASF7:
 4913 038b 73686F72 		.ascii	"short int\000"
 4913      7420696E 
 4913      7400
 4914              	.LASF26:
 4915 0395 70616464 		.ascii	"paddingVertical\000"
 4915      696E6756 
 4915      65727469 
 4915      63616C00 
 4916              	.LASF75:
 4917 03a5 453A5C43 		.ascii	"E:\\Cypress\\Projects\\RheaWorkspace\\Rhea.cydsn\000"
 4917      79707265 
 4917      73735C50 
 4917      726F6A65 
 4917      6374735C 
 4918              	.LASF21:
 4919 03d2 75696E74 		.ascii	"uint32_t\000"
 4919      33325F74 
 4919      00
 4920              	.LASF32:
 4921 03db 72686561 		.ascii	"rhea_gfx_size_t\000"
 4921      5F676678 
ARM GAS  C:\Users\GYULAI~1\AppData\Local\Temp\ccilvZpi.s 			page 97


 4921      5F73697A 
 4921      655F7400 
 4922              	.LASF49:
 4923 03eb 6C656E67 		.ascii	"length\000"
 4923      746800
 4924              	.LASF43:
 4925 03f2 636F6C6F 		.ascii	"color\000"
 4925      7200
 4926              	.LASF15:
 4927 03f8 63686172 		.ascii	"char\000"
 4927      00
 4928              	.LASF63:
 4929 03fd 72686561 		.ascii	"rhea_gfx_DrawSymbol\000"
 4929      5F676678 
 4929      5F447261 
 4929      7753796D 
 4929      626F6C00 
 4930              	.LASF8:
 4931 0411 5F5F7569 		.ascii	"__uint16_t\000"
 4931      6E743136 
 4931      5F7400
 4932              	.LASF50:
 4933 041c 72686561 		.ascii	"rhea_gfx_DrawCircle\000"
 4933      5F676678 
 4933      5F447261 
 4933      77436972 
 4933      636C6500 
 4934              	.LASF52:
 4935 0430 64697374 		.ascii	"distance\000"
 4935      616E6365 
 4935      00
 4936              	.LASF67:
 4937 0439 72686561 		.ascii	"rhea_gfx_Print\000"
 4937      5F676678 
 4937      5F507269 
 4937      6E7400
 4938              	.LASF22:
 4939 0448 6F666673 		.ascii	"offset\000"
 4939      657400
 4940              	.LASF72:
 4941 044f 636F6465 		.ascii	"codefont_8x8_descriptors\000"
 4941      666F6E74 
 4941      5F387838 
 4941      5F646573 
 4941      63726970 
 4942              	.LASF44:
 4943 0468 72686561 		.ascii	"rhea_gfx_DrawLineLow\000"
 4943      5F676678 
 4943      5F447261 
 4943      774C696E 
 4943      654C6F77 
 4944              	.LASF55:
 4945 047d 72686561 		.ascii	"rhea_gfx_DrawFilledRectangle\000"
 4945      5F676678 
 4945      5F447261 
 4945      7746696C 
 4945      6C656452 
ARM GAS  C:\Users\GYULAI~1\AppData\Local\Temp\ccilvZpi.s 			page 98


 4946              	.LASF27:
 4947 049a 72686561 		.ascii	"rhea_gfx_symbol\000"
 4947      5F676678 
 4947      5F73796D 
 4947      626F6C00 
 4948              	.LASF42:
 4949 04aa 666F6E74 		.ascii	"font\000"
 4949      00
 4950              	.LASF18:
 4951 04af 75696E74 		.ascii	"uint8_t\000"
 4951      385F7400 
 4952              	.LASF28:
 4953 04b7 72686561 		.ascii	"rhea_gfx_font\000"
 4953      5F676678 
 4953      5F666F6E 
 4953      7400
 4954              	.LASF62:
 4955 04c5 62697449 		.ascii	"bitIndex\000"
 4955      6E646578 
 4955      00
 4956              	.LASF56:
 4957 04ce 72686561 		.ascii	"rhea_gfx_DrawSymbolHelper\000"
 4957      5F676678 
 4957      5F447261 
 4957      7753796D 
 4957      626F6C48 
 4958              	.LASF24:
 4959 04e8 68656967 		.ascii	"height\000"
 4959      687400
 4960              	.LASF33:
 4961 04ef 72686561 		.ascii	"rhea_gfx_color\000"
 4961      5F676678 
 4961      5F636F6C 
 4961      6F7200
 4962              		.ident	"GCC: (GNU Tools for ARM Embedded Processors) 5.4.1 20160609 (release) [ARM/embedded-5-bran
