ARM GAS  C:\Users\GYULAI~1\AppData\Local\Temp\ccNYeuiP.s 			page 1


   1              		.syntax unified
   2              		.cpu cortex-m3
   3              		.fpu softvfp
   4              		.eabi_attribute 20, 1
   5              		.eabi_attribute 21, 1
   6              		.eabi_attribute 23, 3
   7              		.eabi_attribute 24, 1
   8              		.eabi_attribute 25, 1
   9              		.eabi_attribute 26, 1
  10              		.eabi_attribute 30, 1
  11              		.eabi_attribute 34, 1
  12              		.eabi_attribute 18, 4
  13              		.thumb
  14              		.syntax unified
  15              		.file	"gfx_impl.c"
  16              		.text
  17              	.Ltext0:
  18              		.cfi_sections	.debug_frame
  19              		.section	.text.rhea_gfx_initialize_impl,"ax",%progbits
  20              		.align	2
  21              		.global	rhea_gfx_initialize_impl
  22              		.thumb
  23              		.thumb_func
  24              		.type	rhea_gfx_initialize_impl, %function
  25              	rhea_gfx_initialize_impl:
  26              	.LFB0:
  27              		.file 1 "rhea\\gfx\\gfx_impl.c"
   1:rhea\gfx/gfx_impl.c **** /*********************************************************************************
   2:rhea\gfx/gfx_impl.c ****  * Copyright (c) 2020 Peter Gyulai
   3:rhea\gfx/gfx_impl.c ****  *
   4:rhea\gfx/gfx_impl.c ****  * Permission is hereby granted, free of charge, to any person obtaining a copy
   5:rhea\gfx/gfx_impl.c ****  * of this software and associated documentation files (the "Software"), to deal
   6:rhea\gfx/gfx_impl.c ****  * in the Software without restriction, including without limitation the rights
   7:rhea\gfx/gfx_impl.c ****  * to use, copy, modify, merge, publish, distribute, sublicense, and/or sell
   8:rhea\gfx/gfx_impl.c ****  * copies of the Software, and to permit persons to whom the Software is
   9:rhea\gfx/gfx_impl.c ****  * furnished to do so, subject to the following conditions:
  10:rhea\gfx/gfx_impl.c ****  *
  11:rhea\gfx/gfx_impl.c ****  * The above copyright notice and this permission notice shall be included in all
  12:rhea\gfx/gfx_impl.c ****  * copies or substantial portions of the Software.
  13:rhea\gfx/gfx_impl.c ****  *
  14:rhea\gfx/gfx_impl.c ****  * THE SOFTWARE IS PROVIDED "AS IS", WITHOUT WARRANTY OF ANY KIND,
  15:rhea\gfx/gfx_impl.c ****  * EXPRESS OR IMPLIED, INCLUDING BUT NOT LIMITED TO THE WARRANTIES OF
  16:rhea\gfx/gfx_impl.c ****  * MERCHANTABILITY, FITNESS FOR A PARTICULAR PURPOSE AND NONINFRINGEMENT.
  17:rhea\gfx/gfx_impl.c ****  * IN NO EVENT SHALL THE AUTHORS OR COPYRIGHT HOLDERS BE LIABLE FOR ANY CLAIM,
  18:rhea\gfx/gfx_impl.c ****  * DAMAGES OR OTHER LIABILITY, WHETHER IN AN ACTION OF CONTRACT, TORT OR
  19:rhea\gfx/gfx_impl.c ****  * OTHERWISE, ARISING FROM, OUT OF OR IN CONNECTION WITH THE SOFTWARE OR THE USE
  20:rhea\gfx/gfx_impl.c ****  * OR OTHER DEALINGS IN THE SOFTWARE.
  21:rhea\gfx/gfx_impl.c **** **********************************************************************************/
  22:rhea\gfx/gfx_impl.c **** 
  23:rhea\gfx/gfx_impl.c **** /**
  24:rhea\gfx/gfx_impl.c ****  * @file    gfx_impl.c
  25:rhea\gfx/gfx_impl.c ****  * @author  Peter Gyulai
  26:rhea\gfx/gfx_impl.c ****  * @version 1.0.0
  27:rhea\gfx/gfx_impl.c ****  * @date    2020.04.19
  28:rhea\gfx/gfx_impl.c ****  * @brief   Graphics driver implementation.
  29:rhea\gfx/gfx_impl.c ****  * @details
  30:rhea\gfx/gfx_impl.c ****  * This file contains the graphics driver implementation. Implement the driver 
ARM GAS  C:\Users\GYULAI~1\AppData\Local\Temp\ccNYeuiP.s 			page 2


  31:rhea\gfx/gfx_impl.c ****  * functionality here when porting to a new graphics target driver.
  32:rhea\gfx/gfx_impl.c ****  */
  33:rhea\gfx/gfx_impl.c **** 
  34:rhea\gfx/gfx_impl.c **** // Including necessary headers
  35:rhea\gfx/gfx_impl.c **** #include "gfx_config.h"
  36:rhea\gfx/gfx_impl.c **** #include "gfx_impl.h"
  37:rhea\gfx/gfx_impl.c **** #include "gfx.h"
  38:rhea\gfx/gfx_impl.c **** 
  39:rhea\gfx/gfx_impl.c **** // Implementation for SSD1306 graphics target
  40:rhea\gfx/gfx_impl.c **** #if defined(RHEA_GFX_TARGET_SSD1306)
  41:rhea\gfx/gfx_impl.c **** 
  42:rhea\gfx/gfx_impl.c ****     // Defining display resolution
  43:rhea\gfx/gfx_impl.c ****     #if     defined(RHEA_GFX_RESOLUTION_128X64) 
  44:rhea\gfx/gfx_impl.c ****         #define SSD1306_128X64
  45:rhea\gfx/gfx_impl.c ****     #elif   defined(RHEA_GFX_RESOLUTION_128X32) 
  46:rhea\gfx/gfx_impl.c ****         #define SSD1306_128X32
  47:rhea\gfx/gfx_impl.c ****     #elif   defined(RHEA_GFX_RESOLUTION_96X16)  
  48:rhea\gfx/gfx_impl.c ****         #define SSD1306_96X16
  49:rhea\gfx/gfx_impl.c ****     #endif
  50:rhea\gfx/gfx_impl.c **** 
  51:rhea\gfx/gfx_impl.c ****     // Including SSD1306 driver
  52:rhea\gfx/gfx_impl.c ****     #include "../drivers/SSD1306/SSD1306.h"
  53:rhea\gfx/gfx_impl.c **** 
  54:rhea\gfx/gfx_impl.c ****     // Including I2C driver
  55:rhea\gfx/gfx_impl.c ****     #include "../i2c/i2c.h"
  56:rhea\gfx/gfx_impl.c **** 
  57:rhea\gfx/gfx_impl.c ****     void rhea_gfx_initialize_impl(void) {
  28              		.loc 1 57 0
  29              		.cfi_startproc
  30              		@ args = 0, pretend = 0, frame = 16
  31              		@ frame_needed = 0, uses_anonymous_args = 0
  32 0000 00B5     		push	{lr}
  33              		.cfi_def_cfa_offset 4
  34              		.cfi_offset 14, -4
  35 0002 85B0     		sub	sp, sp, #20
  36              		.cfi_def_cfa_offset 24
  58:rhea\gfx/gfx_impl.c **** 
  59:rhea\gfx/gfx_impl.c ****         // Initializing I2C controller structure
  60:rhea\gfx/gfx_impl.c ****         SSD1306_I2CControllerStruct controller = {
  37              		.loc 1 60 0
  38 0004 054A     		ldr	r2, .L3
  39 0006 01AB     		add	r3, sp, #4
  40 0008 07CA     		ldmia	r2, {r0, r1, r2}
  41 000a 83E80700 		stmia	r3, {r0, r1, r2}
  61:rhea\gfx/gfx_impl.c ****             .MasterSendStart = rhea_i2c_MasterSendStart,
  62:rhea\gfx/gfx_impl.c ****             .MasterSendStop  = rhea_i2c_MasterSendStop,
  63:rhea\gfx/gfx_impl.c ****             .MasterWriteByte = rhea_i2c_MasterWriteByte
  64:rhea\gfx/gfx_impl.c ****         };
  65:rhea\gfx/gfx_impl.c **** 
  66:rhea\gfx/gfx_impl.c ****         // Installing I2C controller to the driver
  67:rhea\gfx/gfx_impl.c ****         SSD1306_SetI2CController(controller);
  42              		.loc 1 67 0
  43 000e FFF7FEFF 		bl	SSD1306_SetI2CController
  44              	.LVL0:
  68:rhea\gfx/gfx_impl.c **** 
  69:rhea\gfx/gfx_impl.c ****         // Initializing driver
  70:rhea\gfx/gfx_impl.c ****         SSD1306_Init();
ARM GAS  C:\Users\GYULAI~1\AppData\Local\Temp\ccNYeuiP.s 			page 3


  45              		.loc 1 70 0
  46 0012 FFF7FEFF 		bl	SSD1306_Init
  47              	.LVL1:
  71:rhea\gfx/gfx_impl.c ****     }
  48              		.loc 1 71 0
  49 0016 05B0     		add	sp, sp, #20
  50              		.cfi_def_cfa_offset 4
  51              		@ sp needed
  52 0018 5DF804FB 		ldr	pc, [sp], #4
  53              	.L4:
  54              		.align	2
  55              	.L3:
  56 001c 00000000 		.word	.LANCHOR0
  57              		.cfi_endproc
  58              	.LFE0:
  59              		.size	rhea_gfx_initialize_impl, .-rhea_gfx_initialize_impl
  60              		.section	.text.rhea_gfx_reset_impl,"ax",%progbits
  61              		.align	2
  62              		.global	rhea_gfx_reset_impl
  63              		.thumb
  64              		.thumb_func
  65              		.type	rhea_gfx_reset_impl, %function
  66              	rhea_gfx_reset_impl:
  67              	.LFB1:
  72:rhea\gfx/gfx_impl.c **** 
  73:rhea\gfx/gfx_impl.c ****     void rhea_gfx_reset_impl(void) {
  68              		.loc 1 73 0
  69              		.cfi_startproc
  70              		@ args = 0, pretend = 0, frame = 0
  71              		@ frame_needed = 0, uses_anonymous_args = 0
  72 0000 08B5     		push	{r3, lr}
  73              		.cfi_def_cfa_offset 8
  74              		.cfi_offset 3, -8
  75              		.cfi_offset 14, -4
  74:rhea\gfx/gfx_impl.c **** 
  75:rhea\gfx/gfx_impl.c ****         // Resetting driver
  76:rhea\gfx/gfx_impl.c ****         SSD1306_Reset();
  76              		.loc 1 76 0
  77 0002 FFF7FEFF 		bl	SSD1306_Reset
  78              	.LVL2:
  79 0006 08BD     		pop	{r3, pc}
  80              		.cfi_endproc
  81              	.LFE1:
  82              		.size	rhea_gfx_reset_impl, .-rhea_gfx_reset_impl
  83              		.section	.text.rhea_gfx_clear_impl,"ax",%progbits
  84              		.align	2
  85              		.global	rhea_gfx_clear_impl
  86              		.thumb
  87              		.thumb_func
  88              		.type	rhea_gfx_clear_impl, %function
  89              	rhea_gfx_clear_impl:
  90              	.LFB2:
  77:rhea\gfx/gfx_impl.c ****     }
  78:rhea\gfx/gfx_impl.c **** 
  79:rhea\gfx/gfx_impl.c ****     void rhea_gfx_clear_impl(void) {
  91              		.loc 1 79 0
  92              		.cfi_startproc
ARM GAS  C:\Users\GYULAI~1\AppData\Local\Temp\ccNYeuiP.s 			page 4


  93              		@ args = 0, pretend = 0, frame = 0
  94              		@ frame_needed = 0, uses_anonymous_args = 0
  95 0000 08B5     		push	{r3, lr}
  96              		.cfi_def_cfa_offset 8
  97              		.cfi_offset 3, -8
  98              		.cfi_offset 14, -4
  80:rhea\gfx/gfx_impl.c **** 
  81:rhea\gfx/gfx_impl.c ****         // Clearing driver
  82:rhea\gfx/gfx_impl.c ****         SSD1306_ClearDisplay();
  99              		.loc 1 82 0
 100 0002 FFF7FEFF 		bl	SSD1306_ClearDisplay
 101              	.LVL3:
  83:rhea\gfx/gfx_impl.c **** 
  84:rhea\gfx/gfx_impl.c ****         // Refreshing display
  85:rhea\gfx/gfx_impl.c ****         SSD1306_RefreshDisplay();
 102              		.loc 1 85 0
 103 0006 FFF7FEFF 		bl	SSD1306_RefreshDisplay
 104              	.LVL4:
 105 000a 08BD     		pop	{r3, pc}
 106              		.cfi_endproc
 107              	.LFE2:
 108              		.size	rhea_gfx_clear_impl, .-rhea_gfx_clear_impl
 109              		.section	.text.rhea_gfx_refresh_impl,"ax",%progbits
 110              		.align	2
 111              		.global	rhea_gfx_refresh_impl
 112              		.thumb
 113              		.thumb_func
 114              		.type	rhea_gfx_refresh_impl, %function
 115              	rhea_gfx_refresh_impl:
 116              	.LFB3:
  86:rhea\gfx/gfx_impl.c ****     }
  87:rhea\gfx/gfx_impl.c **** 
  88:rhea\gfx/gfx_impl.c ****     void rhea_gfx_refresh_impl(void) {
 117              		.loc 1 88 0
 118              		.cfi_startproc
 119              		@ args = 0, pretend = 0, frame = 0
 120              		@ frame_needed = 0, uses_anonymous_args = 0
 121 0000 08B5     		push	{r3, lr}
 122              		.cfi_def_cfa_offset 8
 123              		.cfi_offset 3, -8
 124              		.cfi_offset 14, -4
  89:rhea\gfx/gfx_impl.c **** 
  90:rhea\gfx/gfx_impl.c ****         // Refreshing display
  91:rhea\gfx/gfx_impl.c ****         SSD1306_RefreshDisplay();
 125              		.loc 1 91 0
 126 0002 FFF7FEFF 		bl	SSD1306_RefreshDisplay
 127              	.LVL5:
 128 0006 08BD     		pop	{r3, pc}
 129              		.cfi_endproc
 130              	.LFE3:
 131              		.size	rhea_gfx_refresh_impl, .-rhea_gfx_refresh_impl
 132              		.section	.text.rhea_gfx_writePixel_impl,"ax",%progbits
 133              		.align	2
 134              		.global	rhea_gfx_writePixel_impl
 135              		.thumb
 136              		.thumb_func
 137              		.type	rhea_gfx_writePixel_impl, %function
ARM GAS  C:\Users\GYULAI~1\AppData\Local\Temp\ccNYeuiP.s 			page 5


 138              	rhea_gfx_writePixel_impl:
 139              	.LFB4:
  92:rhea\gfx/gfx_impl.c ****     }
  93:rhea\gfx/gfx_impl.c **** 
  94:rhea\gfx/gfx_impl.c ****     void rhea_gfx_writePixel_impl(rhea_gfx_coordinate x, rhea_gfx_coordinate y, rhea_gfx_color colo
 140              		.loc 1 94 0
 141              		.cfi_startproc
 142              		@ args = 0, pretend = 0, frame = 0
 143              		@ frame_needed = 0, uses_anonymous_args = 0
 144              	.LVL6:
 145 0000 08B5     		push	{r3, lr}
 146              		.cfi_def_cfa_offset 8
 147              		.cfi_offset 3, -8
 148              		.cfi_offset 14, -4
  95:rhea\gfx/gfx_impl.c **** 
  96:rhea\gfx/gfx_impl.c ****         // Writing pixel to the display buffer
  97:rhea\gfx/gfx_impl.c ****         SSD1306_WritePixel(x, y, color);
 149              		.loc 1 97 0
 150 0002 C9B2     		uxtb	r1, r1
 151              	.LVL7:
 152 0004 C0B2     		uxtb	r0, r0
 153              	.LVL8:
 154 0006 FFF7FEFF 		bl	SSD1306_WritePixel
 155              	.LVL9:
 156 000a 08BD     		pop	{r3, pc}
 157              		.cfi_endproc
 158              	.LFE4:
 159              		.size	rhea_gfx_writePixel_impl, .-rhea_gfx_writePixel_impl
 160              		.section	.rodata
 161              		.align	2
 162              		.set	.LANCHOR0,. + 0
 163              	.LC0:
 164 0000 00000000 		.word	rhea_i2c_MasterSendStart
 165 0004 00000000 		.word	rhea_i2c_MasterSendStop
 166 0008 00000000 		.word	rhea_i2c_MasterWriteByte
 167              		.text
 168              	.Letext0:
 169              		.file 2 "e:\\cypress\\psoc creator\\4.2\\psoc creator\\import\\gnu\\arm\\5.4.1\\arm-none-eabi\\inc
 170              		.file 3 "e:\\cypress\\psoc creator\\4.2\\psoc creator\\import\\gnu\\arm\\5.4.1\\arm-none-eabi\\inc
 171              		.file 4 "rhea\\gfx\\gfx.h"
 172              		.file 5 "rhea\\gfx\\../drivers/SSD1306/SSD1306.h"