ARM GAS  C:\Users\GYULAI~1\AppData\Local\Temp\ccnZPj04.s 			page 1


   1              		.syntax unified
   2              		.cpu cortex-m3
   3              		.fpu softvfp
   4              		.eabi_attribute 20, 1
   5              		.eabi_attribute 21, 1
   6              		.eabi_attribute 23, 3
   7              		.eabi_attribute 24, 1
   8              		.eabi_attribute 25, 1
   9              		.eabi_attribute 26, 1
  10              		.eabi_attribute 30, 1
  11              		.eabi_attribute 34, 1
  12              		.eabi_attribute 18, 4
  13              		.thumb
  14              		.syntax unified
  15              		.file	"i2c_impl.c"
  16              		.text
  17              	.Ltext0:
  18              		.cfi_sections	.debug_frame
  19              		.section	.text.rhea_i2c_initialize_impl,"ax",%progbits
  20              		.align	2
  21              		.global	rhea_i2c_initialize_impl
  22              		.thumb
  23              		.thumb_func
  24              		.type	rhea_i2c_initialize_impl, %function
  25              	rhea_i2c_initialize_impl:
  26              	.LFB63:
  27              		.file 1 "rhea\\i2c\\i2c_impl.c"
   1:rhea\i2c/i2c_impl.c **** /*********************************************************************************
   2:rhea\i2c/i2c_impl.c ****  * Copyright (c) 2020 Peter Gyulai
   3:rhea\i2c/i2c_impl.c ****  *
   4:rhea\i2c/i2c_impl.c ****  * Permission is hereby granted, free of charge, to any person obtaining a copy
   5:rhea\i2c/i2c_impl.c ****  * of this software and associated documentation files (the "Software"), to deal
   6:rhea\i2c/i2c_impl.c ****  * in the Software without restriction, including without limitation the rights
   7:rhea\i2c/i2c_impl.c ****  * to use, copy, modify, merge, publish, distribute, sublicense, and/or sell
   8:rhea\i2c/i2c_impl.c ****  * copies of the Software, and to permit persons to whom the Software is
   9:rhea\i2c/i2c_impl.c ****  * furnished to do so, subject to the following conditions:
  10:rhea\i2c/i2c_impl.c ****  *
  11:rhea\i2c/i2c_impl.c ****  * The above copyright notice and this permission notice shall be included in all
  12:rhea\i2c/i2c_impl.c ****  * copies or substantial portions of the Software.
  13:rhea\i2c/i2c_impl.c ****  *
  14:rhea\i2c/i2c_impl.c ****  * THE SOFTWARE IS PROVIDED "AS IS", WITHOUT WARRANTY OF ANY KIND,
  15:rhea\i2c/i2c_impl.c ****  * EXPRESS OR IMPLIED, INCLUDING BUT NOT LIMITED TO THE WARRANTIES OF
  16:rhea\i2c/i2c_impl.c ****  * MERCHANTABILITY, FITNESS FOR A PARTICULAR PURPOSE AND NONINFRINGEMENT.
  17:rhea\i2c/i2c_impl.c ****  * IN NO EVENT SHALL THE AUTHORS OR COPYRIGHT HOLDERS BE LIABLE FOR ANY CLAIM,
  18:rhea\i2c/i2c_impl.c ****  * DAMAGES OR OTHER LIABILITY, WHETHER IN AN ACTION OF CONTRACT, TORT OR
  19:rhea\i2c/i2c_impl.c ****  * OTHERWISE, ARISING FROM, OUT OF OR IN CONNECTION WITH THE SOFTWARE OR THE USE
  20:rhea\i2c/i2c_impl.c ****  * OR OTHER DEALINGS IN THE SOFTWARE.
  21:rhea\i2c/i2c_impl.c **** **********************************************************************************/
  22:rhea\i2c/i2c_impl.c **** 
  23:rhea\i2c/i2c_impl.c **** /**
  24:rhea\i2c/i2c_impl.c ****  * @file    i2c_impl.c
  25:rhea\i2c/i2c_impl.c ****  * @author  Peter Gyulai
  26:rhea\i2c/i2c_impl.c ****  * @version 1.0.0
  27:rhea\i2c/i2c_impl.c ****  * @date    2020.04.19
  28:rhea\i2c/i2c_impl.c ****  * @brief   I2C driver implementation.
  29:rhea\i2c/i2c_impl.c ****  * @details
  30:rhea\i2c/i2c_impl.c ****  * This file contains the I2C driver implementation. Implement the driver 
ARM GAS  C:\Users\GYULAI~1\AppData\Local\Temp\ccnZPj04.s 			page 2


  31:rhea\i2c/i2c_impl.c ****  * functionality here when porting to a new target microcontroller.
  32:rhea\i2c/i2c_impl.c ****  */
  33:rhea\i2c/i2c_impl.c **** 
  34:rhea\i2c/i2c_impl.c **** // Including global configuration
  35:rhea\i2c/i2c_impl.c **** #include "../rhea_config.h"
  36:rhea\i2c/i2c_impl.c **** 
  37:rhea\i2c/i2c_impl.c **** // Including header for function declarations
  38:rhea\i2c/i2c_impl.c **** #include "i2c_impl.h"
  39:rhea\i2c/i2c_impl.c **** 
  40:rhea\i2c/i2c_impl.c **** // Implementation for PSoC5LP target
  41:rhea\i2c/i2c_impl.c **** #if defined(RHEA_TARGET_PSOC5LP)
  42:rhea\i2c/i2c_impl.c **** 
  43:rhea\i2c/i2c_impl.c ****     // Including generated source
  44:rhea\i2c/i2c_impl.c ****     #include "project.h"
  45:rhea\i2c/i2c_impl.c **** 
  46:rhea\i2c/i2c_impl.c ****     void rhea_i2c_initialize_impl(void) {
  28              		.loc 1 46 0
  29              		.cfi_startproc
  30              		@ args = 0, pretend = 0, frame = 0
  31              		@ frame_needed = 0, uses_anonymous_args = 0
  32 0000 08B5     		push	{r3, lr}
  33              		.cfi_def_cfa_offset 8
  34              		.cfi_offset 3, -8
  35              		.cfi_offset 14, -4
  47:rhea\i2c/i2c_impl.c **** 
  48:rhea\i2c/i2c_impl.c ****         // Invoking PSoC driver
  49:rhea\i2c/i2c_impl.c ****         I2C_Start();
  36              		.loc 1 49 0
  37 0002 FFF7FEFF 		bl	I2C_Start
  38              	.LVL0:
  39 0006 08BD     		pop	{r3, pc}
  40              		.cfi_endproc
  41              	.LFE63:
  42              		.size	rhea_i2c_initialize_impl, .-rhea_i2c_initialize_impl
  43              		.section	.text.rhea_i2c_masterSendStart_impl,"ax",%progbits
  44              		.align	2
  45              		.global	rhea_i2c_masterSendStart_impl
  46              		.thumb
  47              		.thumb_func
  48              		.type	rhea_i2c_masterSendStart_impl, %function
  49              	rhea_i2c_masterSendStart_impl:
  50              	.LFB64:
  50:rhea\i2c/i2c_impl.c ****     }
  51:rhea\i2c/i2c_impl.c **** 
  52:rhea\i2c/i2c_impl.c ****     void rhea_i2c_masterSendStart_impl(uint8_t address, uint8_t read) {
  51              		.loc 1 52 0
  52              		.cfi_startproc
  53              		@ args = 0, pretend = 0, frame = 0
  54              		@ frame_needed = 0, uses_anonymous_args = 0
  55              	.LVL1:
  56 0000 08B5     		push	{r3, lr}
  57              		.cfi_def_cfa_offset 8
  58              		.cfi_offset 3, -8
  59              		.cfi_offset 14, -4
  53:rhea\i2c/i2c_impl.c **** 
  54:rhea\i2c/i2c_impl.c ****         // Invoking PSoC driver
  55:rhea\i2c/i2c_impl.c ****         I2C_MasterSendStart(address, read);
ARM GAS  C:\Users\GYULAI~1\AppData\Local\Temp\ccnZPj04.s 			page 3


  60              		.loc 1 55 0
  61 0002 FFF7FEFF 		bl	I2C_MasterSendStart
  62              	.LVL2:
  63 0006 08BD     		pop	{r3, pc}
  64              		.cfi_endproc
  65              	.LFE64:
  66              		.size	rhea_i2c_masterSendStart_impl, .-rhea_i2c_masterSendStart_impl
  67              		.section	.text.rhea_i2c_masterSendStop_impl,"ax",%progbits
  68              		.align	2
  69              		.global	rhea_i2c_masterSendStop_impl
  70              		.thumb
  71              		.thumb_func
  72              		.type	rhea_i2c_masterSendStop_impl, %function
  73              	rhea_i2c_masterSendStop_impl:
  74              	.LFB65:
  56:rhea\i2c/i2c_impl.c ****     }
  57:rhea\i2c/i2c_impl.c **** 
  58:rhea\i2c/i2c_impl.c ****     void rhea_i2c_masterSendStop_impl(void) {
  75              		.loc 1 58 0
  76              		.cfi_startproc
  77              		@ args = 0, pretend = 0, frame = 0
  78              		@ frame_needed = 0, uses_anonymous_args = 0
  79 0000 08B5     		push	{r3, lr}
  80              		.cfi_def_cfa_offset 8
  81              		.cfi_offset 3, -8
  82              		.cfi_offset 14, -4
  59:rhea\i2c/i2c_impl.c **** 
  60:rhea\i2c/i2c_impl.c ****         // Invoking PSoC driver
  61:rhea\i2c/i2c_impl.c ****         I2C_MasterSendStop();
  83              		.loc 1 61 0
  84 0002 FFF7FEFF 		bl	I2C_MasterSendStop
  85              	.LVL3:
  86 0006 08BD     		pop	{r3, pc}
  87              		.cfi_endproc
  88              	.LFE65:
  89              		.size	rhea_i2c_masterSendStop_impl, .-rhea_i2c_masterSendStop_impl
  90              		.section	.text.rhea_i2c_masterReadByte_impl,"ax",%progbits
  91              		.align	2
  92              		.global	rhea_i2c_masterReadByte_impl
  93              		.thumb
  94              		.thumb_func
  95              		.type	rhea_i2c_masterReadByte_impl, %function
  96              	rhea_i2c_masterReadByte_impl:
  97              	.LFB66:
  62:rhea\i2c/i2c_impl.c ****     }
  63:rhea\i2c/i2c_impl.c **** 
  64:rhea\i2c/i2c_impl.c ****     uint8_t rhea_i2c_masterReadByte_impl(uint8_t ack) {
  98              		.loc 1 64 0
  99              		.cfi_startproc
 100              		@ args = 0, pretend = 0, frame = 0
 101              		@ frame_needed = 0, uses_anonymous_args = 0
 102              	.LVL4:
 103 0000 08B5     		push	{r3, lr}
 104              		.cfi_def_cfa_offset 8
 105              		.cfi_offset 3, -8
 106              		.cfi_offset 14, -4
  65:rhea\i2c/i2c_impl.c **** 
ARM GAS  C:\Users\GYULAI~1\AppData\Local\Temp\ccnZPj04.s 			page 4


  66:rhea\i2c/i2c_impl.c ****         // Invoking PSoC driver
  67:rhea\i2c/i2c_impl.c ****         return I2C_MasterReadByte(ack);
 107              		.loc 1 67 0
 108 0002 FFF7FEFF 		bl	I2C_MasterReadByte
 109              	.LVL5:
  68:rhea\i2c/i2c_impl.c ****     }
 110              		.loc 1 68 0
 111 0006 08BD     		pop	{r3, pc}
 112              		.cfi_endproc
 113              	.LFE66:
 114              		.size	rhea_i2c_masterReadByte_impl, .-rhea_i2c_masterReadByte_impl
 115              		.section	.text.rhea_i2c_masterWriteByte_impl,"ax",%progbits
 116              		.align	2
 117              		.global	rhea_i2c_masterWriteByte_impl
 118              		.thumb
 119              		.thumb_func
 120              		.type	rhea_i2c_masterWriteByte_impl, %function
 121              	rhea_i2c_masterWriteByte_impl:
 122              	.LFB67:
  69:rhea\i2c/i2c_impl.c **** 
  70:rhea\i2c/i2c_impl.c ****     void rhea_i2c_masterWriteByte_impl(uint8_t byte) {
 123              		.loc 1 70 0
 124              		.cfi_startproc
 125              		@ args = 0, pretend = 0, frame = 0
 126              		@ frame_needed = 0, uses_anonymous_args = 0
 127              	.LVL6:
 128 0000 08B5     		push	{r3, lr}
 129              		.cfi_def_cfa_offset 8
 130              		.cfi_offset 3, -8
 131              		.cfi_offset 14, -4
  71:rhea\i2c/i2c_impl.c **** 
  72:rhea\i2c/i2c_impl.c ****         // Invoking PSoC driver
  73:rhea\i2c/i2c_impl.c ****         I2C_MasterWriteByte(byte);
 132              		.loc 1 73 0
 133 0002 FFF7FEFF 		bl	I2C_MasterWriteByte
 134              	.LVL7:
 135 0006 08BD     		pop	{r3, pc}
 136              		.cfi_endproc
 137              	.LFE67:
 138              		.size	rhea_i2c_masterWriteByte_impl, .-rhea_i2c_masterWriteByte_impl
 139              		.text
 140              	.Letext0:
 141              		.file 2 "e:\\cypress\\psoc creator\\4.2\\psoc creator\\import\\gnu\\arm\\5.4.1\\arm-none-eabi\\inc
 142              		.file 3 "e:\\cypress\\psoc creator\\4.2\\psoc creator\\import\\gnu\\arm\\5.4.1\\arm-none-eabi\\inc
 143              		.file 4 "Generated_Source\\PSoC5/I2C.h"
 144              		.file 5 "Generated_Source\\PSoC5/core_cm3.h"