ARM GAS  C:\Users\GYULAI~1\AppData\Local\Temp\ccCZECcq.s 			page 1


   1              		.syntax unified
   2              		.cpu cortex-m3
   3              		.fpu softvfp
   4              		.eabi_attribute 20, 1
   5              		.eabi_attribute 21, 1
   6              		.eabi_attribute 23, 3
   7              		.eabi_attribute 24, 1
   8              		.eabi_attribute 25, 1
   9              		.eabi_attribute 26, 1
  10              		.eabi_attribute 30, 6
  11              		.eabi_attribute 34, 1
  12              		.eabi_attribute 18, 4
  13              		.thumb
  14              		.syntax unified
  15              		.file	"i2c_rhea.c"
  16              		.text
  17              	.Ltext0:
  18              		.cfi_sections	.debug_frame
  19              		.section	.text.rhea_i2c_Initialize,"ax",%progbits
  20              		.align	2
  21              		.global	rhea_i2c_Initialize
  22              		.thumb
  23              		.thumb_func
  24              		.type	rhea_i2c_Initialize, %function
  25              	rhea_i2c_Initialize:
  26              	.LFB0:
  27              		.file 1 "rhea\\i2c\\i2c_rhea.c"
   1:rhea\i2c/i2c_rhea.c **** /*********************************************************************************
   2:rhea\i2c/i2c_rhea.c ****  * Copyright (c) 2020 Peter Gyulai
   3:rhea\i2c/i2c_rhea.c ****  *
   4:rhea\i2c/i2c_rhea.c ****  * Permission is hereby granted, free of charge, to any person obtaining a copy
   5:rhea\i2c/i2c_rhea.c ****  * of this software and associated documentation files (the "Software"), to deal
   6:rhea\i2c/i2c_rhea.c ****  * in the Software without restriction, including without limitation the rights
   7:rhea\i2c/i2c_rhea.c ****  * to use, copy, modify, merge, publish, distribute, sublicense, and/or sell
   8:rhea\i2c/i2c_rhea.c ****  * copies of the Software, and to permit persons to whom the Software is
   9:rhea\i2c/i2c_rhea.c ****  * furnished to do so, subject to the following conditions:
  10:rhea\i2c/i2c_rhea.c ****  *
  11:rhea\i2c/i2c_rhea.c ****  * The above copyright notice and this permission notice shall be included in all
  12:rhea\i2c/i2c_rhea.c ****  * copies or substantial portions of the Software.
  13:rhea\i2c/i2c_rhea.c ****  *
  14:rhea\i2c/i2c_rhea.c ****  * THE SOFTWARE IS PROVIDED "AS IS", WITHOUT WARRANTY OF ANY KIND,
  15:rhea\i2c/i2c_rhea.c ****  * EXPRESS OR IMPLIED, INCLUDING BUT NOT LIMITED TO THE WARRANTIES OF
  16:rhea\i2c/i2c_rhea.c ****  * MERCHANTABILITY, FITNESS FOR A PARTICULAR PURPOSE AND NONINFRINGEMENT.
  17:rhea\i2c/i2c_rhea.c ****  * IN NO EVENT SHALL THE AUTHORS OR COPYRIGHT HOLDERS BE LIABLE FOR ANY CLAIM,
  18:rhea\i2c/i2c_rhea.c ****  * DAMAGES OR OTHER LIABILITY, WHETHER IN AN ACTION OF CONTRACT, TORT OR
  19:rhea\i2c/i2c_rhea.c ****  * OTHERWISE, ARISING FROM, OUT OF OR IN CONNECTION WITH THE SOFTWARE OR THE USE
  20:rhea\i2c/i2c_rhea.c ****  * OR OTHER DEALINGS IN THE SOFTWARE.
  21:rhea\i2c/i2c_rhea.c **** **********************************************************************************/
  22:rhea\i2c/i2c_rhea.c **** 
  23:rhea\i2c/i2c_rhea.c **** /**
  24:rhea\i2c/i2c_rhea.c ****  * @file    i2c.c
  25:rhea\i2c/i2c_rhea.c ****  * @author  Peter Gyulai
  26:rhea\i2c/i2c_rhea.c ****  * @version 1.0.0
  27:rhea\i2c/i2c_rhea.c ****  * @date    2020.04.19
  28:rhea\i2c/i2c_rhea.c ****  * @brief   Library implementation.
  29:rhea\i2c/i2c_rhea.c ****  * @details
  30:rhea\i2c/i2c_rhea.c ****  * This file contains the function definitions used by the Rhea I2C library.
ARM GAS  C:\Users\GYULAI~1\AppData\Local\Temp\ccCZECcq.s 			page 2


  31:rhea\i2c/i2c_rhea.c ****  */
  32:rhea\i2c/i2c_rhea.c **** 
  33:rhea\i2c/i2c_rhea.c **** // Doxygen documentation duplication suppression
  34:rhea\i2c/i2c_rhea.c **** #ifndef DOXYGEN_SHOULD_SKIP_THIS
  35:rhea\i2c/i2c_rhea.c **** 
  36:rhea\i2c/i2c_rhea.c **** // Project includes
  37:rhea\i2c/i2c_rhea.c **** #include "i2c.h"
  38:rhea\i2c/i2c_rhea.c **** #include "i2c_impl.h"
  39:rhea\i2c/i2c_rhea.c **** 
  40:rhea\i2c/i2c_rhea.c **** void rhea_i2c_Initialize(void) {
  28              		.loc 1 40 0
  29              		.cfi_startproc
  30              		@ args = 0, pretend = 0, frame = 0
  31              		@ frame_needed = 1, uses_anonymous_args = 0
  32 0000 80B5     		push	{r7, lr}
  33              		.cfi_def_cfa_offset 8
  34              		.cfi_offset 7, -8
  35              		.cfi_offset 14, -4
  36 0002 00AF     		add	r7, sp, #0
  37              		.cfi_def_cfa_register 7
  41:rhea\i2c/i2c_rhea.c **** 
  42:rhea\i2c/i2c_rhea.c **** 	// Invoking target driver
  43:rhea\i2c/i2c_rhea.c **** 	rhea_i2c_initialize_impl();
  38              		.loc 1 43 0
  39 0004 FFF7FEFF 		bl	rhea_i2c_initialize_impl
  44:rhea\i2c/i2c_rhea.c **** }
  40              		.loc 1 44 0
  41 0008 00BF     		nop
  42 000a 80BD     		pop	{r7, pc}
  43              		.cfi_endproc
  44              	.LFE0:
  45              		.size	rhea_i2c_Initialize, .-rhea_i2c_Initialize
  46              		.section	.text.rhea_i2c_MasterSendStart,"ax",%progbits
  47              		.align	2
  48              		.global	rhea_i2c_MasterSendStart
  49              		.thumb
  50              		.thumb_func
  51              		.type	rhea_i2c_MasterSendStart, %function
  52              	rhea_i2c_MasterSendStart:
  53              	.LFB1:
  45:rhea\i2c/i2c_rhea.c **** 
  46:rhea\i2c/i2c_rhea.c **** void rhea_i2c_MasterSendStart(uint8_t address, uint8_t read) {
  54              		.loc 1 46 0
  55              		.cfi_startproc
  56              		@ args = 0, pretend = 0, frame = 8
  57              		@ frame_needed = 1, uses_anonymous_args = 0
  58 0000 80B5     		push	{r7, lr}
  59              		.cfi_def_cfa_offset 8
  60              		.cfi_offset 7, -8
  61              		.cfi_offset 14, -4
  62 0002 82B0     		sub	sp, sp, #8
  63              		.cfi_def_cfa_offset 16
  64 0004 00AF     		add	r7, sp, #0
  65              		.cfi_def_cfa_register 7
  66 0006 0346     		mov	r3, r0
  67 0008 0A46     		mov	r2, r1
  68 000a FB71     		strb	r3, [r7, #7]
ARM GAS  C:\Users\GYULAI~1\AppData\Local\Temp\ccCZECcq.s 			page 3


  69 000c 1346     		mov	r3, r2
  70 000e BB71     		strb	r3, [r7, #6]
  47:rhea\i2c/i2c_rhea.c **** 
  48:rhea\i2c/i2c_rhea.c **** 	// Invoking target driver
  49:rhea\i2c/i2c_rhea.c **** 	rhea_i2c_masterSendStart_impl(address, read);
  71              		.loc 1 49 0
  72 0010 BA79     		ldrb	r2, [r7, #6]	@ zero_extendqisi2
  73 0012 FB79     		ldrb	r3, [r7, #7]	@ zero_extendqisi2
  74 0014 1146     		mov	r1, r2
  75 0016 1846     		mov	r0, r3
  76 0018 FFF7FEFF 		bl	rhea_i2c_masterSendStart_impl
  50:rhea\i2c/i2c_rhea.c **** }
  77              		.loc 1 50 0
  78 001c 00BF     		nop
  79 001e 0837     		adds	r7, r7, #8
  80              		.cfi_def_cfa_offset 8
  81 0020 BD46     		mov	sp, r7
  82              		.cfi_def_cfa_register 13
  83              		@ sp needed
  84 0022 80BD     		pop	{r7, pc}
  85              		.cfi_endproc
  86              	.LFE1:
  87              		.size	rhea_i2c_MasterSendStart, .-rhea_i2c_MasterSendStart
  88              		.section	.text.rhea_i2c_MasterSendStop,"ax",%progbits
  89              		.align	2
  90              		.global	rhea_i2c_MasterSendStop
  91              		.thumb
  92              		.thumb_func
  93              		.type	rhea_i2c_MasterSendStop, %function
  94              	rhea_i2c_MasterSendStop:
  95              	.LFB2:
  51:rhea\i2c/i2c_rhea.c **** 
  52:rhea\i2c/i2c_rhea.c **** 
  53:rhea\i2c/i2c_rhea.c **** void rhea_i2c_MasterSendStop(void) {
  96              		.loc 1 53 0
  97              		.cfi_startproc
  98              		@ args = 0, pretend = 0, frame = 0
  99              		@ frame_needed = 1, uses_anonymous_args = 0
 100 0000 80B5     		push	{r7, lr}
 101              		.cfi_def_cfa_offset 8
 102              		.cfi_offset 7, -8
 103              		.cfi_offset 14, -4
 104 0002 00AF     		add	r7, sp, #0
 105              		.cfi_def_cfa_register 7
  54:rhea\i2c/i2c_rhea.c **** 
  55:rhea\i2c/i2c_rhea.c **** 	// Invoking target driver
  56:rhea\i2c/i2c_rhea.c **** 	rhea_i2c_masterSendStop_impl();
 106              		.loc 1 56 0
 107 0004 FFF7FEFF 		bl	rhea_i2c_masterSendStop_impl
  57:rhea\i2c/i2c_rhea.c **** }
 108              		.loc 1 57 0
 109 0008 00BF     		nop
 110 000a 80BD     		pop	{r7, pc}
 111              		.cfi_endproc
 112              	.LFE2:
 113              		.size	rhea_i2c_MasterSendStop, .-rhea_i2c_MasterSendStop
 114              		.section	.text.rhea_i2c_MasterReadByte,"ax",%progbits
ARM GAS  C:\Users\GYULAI~1\AppData\Local\Temp\ccCZECcq.s 			page 4


 115              		.align	2
 116              		.global	rhea_i2c_MasterReadByte
 117              		.thumb
 118              		.thumb_func
 119              		.type	rhea_i2c_MasterReadByte, %function
 120              	rhea_i2c_MasterReadByte:
 121              	.LFB3:
  58:rhea\i2c/i2c_rhea.c **** 
  59:rhea\i2c/i2c_rhea.c **** 
  60:rhea\i2c/i2c_rhea.c **** uint8_t rhea_i2c_MasterReadByte(uint8_t ack) {
 122              		.loc 1 60 0
 123              		.cfi_startproc
 124              		@ args = 0, pretend = 0, frame = 8
 125              		@ frame_needed = 1, uses_anonymous_args = 0
 126 0000 80B5     		push	{r7, lr}
 127              		.cfi_def_cfa_offset 8
 128              		.cfi_offset 7, -8
 129              		.cfi_offset 14, -4
 130 0002 82B0     		sub	sp, sp, #8
 131              		.cfi_def_cfa_offset 16
 132 0004 00AF     		add	r7, sp, #0
 133              		.cfi_def_cfa_register 7
 134 0006 0346     		mov	r3, r0
 135 0008 FB71     		strb	r3, [r7, #7]
  61:rhea\i2c/i2c_rhea.c **** 
  62:rhea\i2c/i2c_rhea.c **** 	// Invoking target driver
  63:rhea\i2c/i2c_rhea.c **** 	return rhea_i2c_masterReadByte_impl(ack);
 136              		.loc 1 63 0
 137 000a FB79     		ldrb	r3, [r7, #7]	@ zero_extendqisi2
 138 000c 1846     		mov	r0, r3
 139 000e FFF7FEFF 		bl	rhea_i2c_masterReadByte_impl
 140 0012 0346     		mov	r3, r0
  64:rhea\i2c/i2c_rhea.c **** }
 141              		.loc 1 64 0
 142 0014 1846     		mov	r0, r3
 143 0016 0837     		adds	r7, r7, #8
 144              		.cfi_def_cfa_offset 8
 145 0018 BD46     		mov	sp, r7
 146              		.cfi_def_cfa_register 13
 147              		@ sp needed
 148 001a 80BD     		pop	{r7, pc}
 149              		.cfi_endproc
 150              	.LFE3:
 151              		.size	rhea_i2c_MasterReadByte, .-rhea_i2c_MasterReadByte
 152              		.section	.text.rhea_i2c_MasterWriteByte,"ax",%progbits
 153              		.align	2
 154              		.global	rhea_i2c_MasterWriteByte
 155              		.thumb
 156              		.thumb_func
 157              		.type	rhea_i2c_MasterWriteByte, %function
 158              	rhea_i2c_MasterWriteByte:
 159              	.LFB4:
  65:rhea\i2c/i2c_rhea.c **** 
  66:rhea\i2c/i2c_rhea.c **** void rhea_i2c_MasterWriteByte(uint8_t byte) {
 160              		.loc 1 66 0
 161              		.cfi_startproc
 162              		@ args = 0, pretend = 0, frame = 8
ARM GAS  C:\Users\GYULAI~1\AppData\Local\Temp\ccCZECcq.s 			page 5


 163              		@ frame_needed = 1, uses_anonymous_args = 0
 164 0000 80B5     		push	{r7, lr}
 165              		.cfi_def_cfa_offset 8
 166              		.cfi_offset 7, -8
 167              		.cfi_offset 14, -4
 168 0002 82B0     		sub	sp, sp, #8
 169              		.cfi_def_cfa_offset 16
 170 0004 00AF     		add	r7, sp, #0
 171              		.cfi_def_cfa_register 7
 172 0006 0346     		mov	r3, r0
 173 0008 FB71     		strb	r3, [r7, #7]
  67:rhea\i2c/i2c_rhea.c **** 
  68:rhea\i2c/i2c_rhea.c **** 	// Invoking target driver
  69:rhea\i2c/i2c_rhea.c **** 	rhea_i2c_masterWriteByte_impl(byte);
 174              		.loc 1 69 0
 175 000a FB79     		ldrb	r3, [r7, #7]	@ zero_extendqisi2
 176 000c 1846     		mov	r0, r3
 177 000e FFF7FEFF 		bl	rhea_i2c_masterWriteByte_impl
  70:rhea\i2c/i2c_rhea.c **** }
 178              		.loc 1 70 0
 179 0012 00BF     		nop
 180 0014 0837     		adds	r7, r7, #8
 181              		.cfi_def_cfa_offset 8
 182 0016 BD46     		mov	sp, r7
 183              		.cfi_def_cfa_register 13
 184              		@ sp needed
 185 0018 80BD     		pop	{r7, pc}
 186              		.cfi_endproc
 187              	.LFE4:
 188              		.size	rhea_i2c_MasterWriteByte, .-rhea_i2c_MasterWriteByte
 189 001a 00BF     		.text
 190              	.Letext0:
 191              		.file 2 "e:\\cypress\\psoc creator\\4.2\\psoc creator\\import\\gnu\\arm\\5.4.1\\arm-none-eabi\\inc
 192              		.file 3 "e:\\cypress\\psoc creator\\4.2\\psoc creator\\import\\gnu\\arm\\5.4.1\\arm-none-eabi\\inc