ARM GAS  C:\Users\GYULAI~1\AppData\Local\Temp\ccu5ArUF.s 			page 1


   1              		.syntax unified
   2              		.cpu cortex-m3
   3              		.fpu softvfp
   4              		.eabi_attribute 20, 1
   5              		.eabi_attribute 21, 1
   6              		.eabi_attribute 23, 3
   7              		.eabi_attribute 24, 1
   8              		.eabi_attribute 25, 1
   9              		.eabi_attribute 26, 1
  10              		.eabi_attribute 30, 6
  11              		.eabi_attribute 34, 1
  12              		.eabi_attribute 18, 4
  13              		.thumb
  14              		.syntax unified
  15              		.file	"main.c"
  16              		.text
  17              	.Ltext0:
  18              		.cfi_sections	.debug_frame
  19              		.section	.rodata
  20              		.align	2
  21              		.type	rhea_rtc_datetimeFormatGeneral, %object
  22              		.size	rhea_rtc_datetimeFormatGeneral, 20
  23              	rhea_rtc_datetimeFormatGeneral:
  24 0000 59595959 		.ascii	"YYYY/MM/dd hh:mm:ss\000"
  24      2F4D4D2F 
  24      64642068 
  24      683A6D6D 
  24      3A737300 
  25              		.align	2
  26              		.type	rhea_rtc_datetimeFormatGeneralUS, %object
  27              		.size	rhea_rtc_datetimeFormatGeneralUS, 22
  28              	rhea_rtc_datetimeFormatGeneralUS:
  29 0014 64642F4D 		.ascii	"dd/MM/YYYY hh:mm:ss t\000"
  29      4D2F5959 
  29      59592068 
  29      683A6D6D 
  29      3A737320 
  30 002a 0000     		.align	2
  31              		.type	rhea_rtc_datetimeFormatFull, %object
  32              		.size	rhea_rtc_datetimeFormatFull, 22
  33              	rhea_rtc_datetimeFormatFull:
  34 002c 772C204D 		.ascii	"w, MMMM d, YYYY h:m:s\000"
  34      4D4D4D20 
  34      642C2059 
  34      59595920 
  34      683A6D3A 
  35 0042 0000     		.align	2
  36              	.LC0:
  37 0044 48656C6C 		.ascii	"Hello\012Bello\012\000"
  37      6F0A4265 
  37      6C6C6F0A 
  37      00
  38              		.section	.text.test_graphics,"ax",%progbits
  39              		.align	2
  40              		.global	test_graphics
  41              		.thumb
  42              		.thumb_func
ARM GAS  C:\Users\GYULAI~1\AppData\Local\Temp\ccu5ArUF.s 			page 2


  43              		.type	test_graphics, %function
  44              	test_graphics:
  45              	.LFB64:
  46              		.file 1 "application\\main.c"
   1:application/main.c **** #include "project.h"
   2:application/main.c **** 
   3:application/main.c **** // Including Rhea libraries
   4:application/main.c **** #include "rhea/i2c/i2c.h"
   5:application/main.c **** #include "rhea/gfx/gfx.h"
   6:application/main.c **** #include "rhea/rtc/rtc.h"
   7:application/main.c **** #include "rhea/uart/uart.h"
   8:application/main.c **** #include "rhea/sensor/sensor.h"
   9:application/main.c **** 
  10:application/main.c **** // Including application headers
  11:application/main.c **** #include "command/command.h"
  12:application/main.c **** #include "input/input.h"
  13:application/main.c **** #include "menu/menu.h"
  14:application/main.c **** 
  15:application/main.c **** // Including standard headers
  16:application/main.c **** #include <stdio.h>
  17:application/main.c **** 
  18:application/main.c **** 
  19:application/main.c **** // Test function for graphics display
  20:application/main.c **** void test_graphics(void) {
  47              		.loc 1 20 0
  48              		.cfi_startproc
  49              		@ args = 0, pretend = 0, frame = 0
  50              		@ frame_needed = 1, uses_anonymous_args = 0
  51 0000 80B5     		push	{r7, lr}
  52              		.cfi_def_cfa_offset 8
  53              		.cfi_offset 7, -8
  54              		.cfi_offset 14, -4
  55 0002 00AF     		add	r7, sp, #0
  56              		.cfi_def_cfa_register 7
  21:application/main.c ****     rhea_gfx_Clear();
  57              		.loc 1 21 0
  58 0004 FFF7FEFF 		bl	rhea_gfx_Clear
  22:application/main.c ****     rhea_gfx_Print("Hello\nBello\n");
  59              		.loc 1 22 0
  60 0008 0948     		ldr	r0, .L2
  61 000a FFF7FEFF 		bl	rhea_gfx_Print
  23:application/main.c ****     rhea_gfx_PrintSymbol(95);
  62              		.loc 1 23 0
  63 000e 5F20     		movs	r0, #95
  64 0010 FFF7FEFF 		bl	rhea_gfx_PrintSymbol
  24:application/main.c ****     rhea_gfx_PrintSymbol(96);
  65              		.loc 1 24 0
  66 0014 6020     		movs	r0, #96
  67 0016 FFF7FEFF 		bl	rhea_gfx_PrintSymbol
  25:application/main.c ****     rhea_gfx_PrintSymbol(97);
  68              		.loc 1 25 0
  69 001a 6120     		movs	r0, #97
  70 001c FFF7FEFF 		bl	rhea_gfx_PrintSymbol
  26:application/main.c ****     rhea_gfx_PrintSymbol(98);
  71              		.loc 1 26 0
  72 0020 6220     		movs	r0, #98
  73 0022 FFF7FEFF 		bl	rhea_gfx_PrintSymbol
ARM GAS  C:\Users\GYULAI~1\AppData\Local\Temp\ccu5ArUF.s 			page 3


  27:application/main.c ****     rhea_gfx_PrintSymbol(99);
  74              		.loc 1 27 0
  75 0026 6320     		movs	r0, #99
  76 0028 FFF7FEFF 		bl	rhea_gfx_PrintSymbol
  28:application/main.c **** }
  77              		.loc 1 28 0
  78 002c 00BF     		nop
  79 002e 80BD     		pop	{r7, pc}
  80              	.L3:
  81              		.align	2
  82              	.L2:
  83 0030 44000000 		.word	.LC0
  84              		.cfi_endproc
  85              	.LFE64:
  86              		.size	test_graphics, .-test_graphics
  87              		.section	.rodata
  88 0051 000000   		.align	2
  89              	.LC1:
  90 0054 74656D70 		.ascii	"temperature\000"
  90      65726174 
  90      75726500 
  91              		.align	2
  92              	.LC2:
  93 0060 424D4532 		.ascii	"BME280\000"
  93      383000
  94 0067 00       		.align	2
  95              	.LC3:
  96 0068 70726573 		.ascii	"pressure\000"
  96      73757265 
  96      00
  97 0071 000000   		.align	2
  98              	.LC4:
  99 0074 68756D69 		.ascii	"humidity\000"
  99      64697479 
  99      00
 100              		.global	__aeabi_d2iz
 101 007d 000000   		.align	2
 102              	.LC5:
 103 0080 543A2025 		.ascii	"T: %d \000"
 103      642000
 104 0087 00       		.align	2
 105              	.LC6:
 106 0088 0A00     		.ascii	"\012\000"
 107 008a 0000     		.align	2
 108              	.LC7:
 109 008c 503A2025 		.ascii	"P: %d \000"
 109      642000
 110 0093 00       		.align	2
 111              	.LC8:
 112 0094 483A2025 		.ascii	"H: %d %%\012\000"
 112      64202525 
 112      0A00
 113              		.section	.text.test_sensor,"ax",%progbits
 114              		.align	2
 115              		.global	test_sensor
 116              		.thumb
 117              		.thumb_func
ARM GAS  C:\Users\GYULAI~1\AppData\Local\Temp\ccu5ArUF.s 			page 4


 118              		.type	test_sensor, %function
 119              	test_sensor:
 120              	.LFB65:
  29:application/main.c **** 
  30:application/main.c **** void test_sensor(void) {
 121              		.loc 1 30 0
 122              		.cfi_startproc
 123              		@ args = 0, pretend = 0, frame = 64
 124              		@ frame_needed = 1, uses_anonymous_args = 0
 125 0000 90B5     		push	{r4, r7, lr}
 126              		.cfi_def_cfa_offset 12
 127              		.cfi_offset 4, -12
 128              		.cfi_offset 7, -8
 129              		.cfi_offset 14, -4
 130 0002 91B0     		sub	sp, sp, #68
 131              		.cfi_def_cfa_offset 80
 132 0004 00AF     		add	r7, sp, #0
 133              		.cfi_def_cfa_register 7
  31:application/main.c ****         rhea_sensor_SetMeasurementPeriod("BME280", "temperature", 250);
 134              		.loc 1 31 0
 135 0006 4FF0FA02 		mov	r2, #250
 136 000a 4FF00003 		mov	r3, #0
 137 000e 3749     		ldr	r1, .L5
 138 0010 3748     		ldr	r0, .L5+4
 139 0012 FFF7FEFF 		bl	rhea_sensor_SetMeasurementPeriod
  32:application/main.c ****         rhea_sensor_SetMeasurementPeriod("BME280", "pressure", 250);
 140              		.loc 1 32 0
 141 0016 4FF0FA02 		mov	r2, #250
 142 001a 4FF00003 		mov	r3, #0
 143 001e 3549     		ldr	r1, .L5+8
 144 0020 3348     		ldr	r0, .L5+4
 145 0022 FFF7FEFF 		bl	rhea_sensor_SetMeasurementPeriod
  33:application/main.c ****         rhea_sensor_SetMeasurementPeriod("BME280", "humidity", 250);
 146              		.loc 1 33 0
 147 0026 4FF0FA02 		mov	r2, #250
 148 002a 4FF00003 		mov	r3, #0
 149 002e 3249     		ldr	r1, .L5+12
 150 0030 2F48     		ldr	r0, .L5+4
 151 0032 FFF7FEFF 		bl	rhea_sensor_SetMeasurementPeriod
  34:application/main.c ****         
  35:application/main.c ****         CyDelay(250);
 152              		.loc 1 35 0
 153 0036 FA20     		movs	r0, #250
 154 0038 FFF7FEFF 		bl	CyDelay
  36:application/main.c **** 
  37:application/main.c ****         int temperatureInt = (int) rhea_sensor_GetMeasurement("BME280", "temperature");;
 155              		.loc 1 37 0
 156 003c 2B49     		ldr	r1, .L5
 157 003e 2C48     		ldr	r0, .L5+4
 158 0040 FFF7FEFF 		bl	rhea_sensor_GetMeasurement
 159 0044 0346     		mov	r3, r0
 160 0046 0C46     		mov	r4, r1
 161 0048 1846     		mov	r0, r3
 162 004a 2146     		mov	r1, r4
 163 004c FFF7FEFF 		bl	__aeabi_d2iz
 164 0050 0346     		mov	r3, r0
 165 0052 FB63     		str	r3, [r7, #60]
ARM GAS  C:\Users\GYULAI~1\AppData\Local\Temp\ccu5ArUF.s 			page 5


  38:application/main.c ****         int pressureInt = (int) rhea_sensor_GetMeasurement("BME280", "pressure");
 166              		.loc 1 38 0
 167 0054 2749     		ldr	r1, .L5+8
 168 0056 2648     		ldr	r0, .L5+4
 169 0058 FFF7FEFF 		bl	rhea_sensor_GetMeasurement
 170 005c 0346     		mov	r3, r0
 171 005e 0C46     		mov	r4, r1
 172 0060 1846     		mov	r0, r3
 173 0062 2146     		mov	r1, r4
 174 0064 FFF7FEFF 		bl	__aeabi_d2iz
 175 0068 0346     		mov	r3, r0
 176 006a BB63     		str	r3, [r7, #56]
  39:application/main.c ****         int humidityInt = (int) rhea_sensor_GetMeasurement("BME280", "humidity");
 177              		.loc 1 39 0
 178 006c 2249     		ldr	r1, .L5+12
 179 006e 2048     		ldr	r0, .L5+4
 180 0070 FFF7FEFF 		bl	rhea_sensor_GetMeasurement
 181 0074 0346     		mov	r3, r0
 182 0076 0C46     		mov	r4, r1
 183 0078 1846     		mov	r0, r3
 184 007a 2146     		mov	r1, r4
 185 007c FFF7FEFF 		bl	__aeabi_d2iz
 186 0080 0346     		mov	r3, r0
 187 0082 7B63     		str	r3, [r7, #52]
  40:application/main.c ****         
  41:application/main.c ****         char buffer[50];
  42:application/main.c ****         sprintf(buffer, "T: %d ", temperatureInt);
 188              		.loc 1 42 0
 189 0084 3B46     		mov	r3, r7
 190 0086 FA6B     		ldr	r2, [r7, #60]
 191 0088 1C49     		ldr	r1, .L5+16
 192 008a 1846     		mov	r0, r3
 193 008c FFF7FEFF 		bl	sprintf
  43:application/main.c ****         rhea_gfx_SetCursor(0,0);
 194              		.loc 1 43 0
 195 0090 0021     		movs	r1, #0
 196 0092 0020     		movs	r0, #0
 197 0094 FFF7FEFF 		bl	rhea_gfx_SetCursor
  44:application/main.c ****         rhea_gfx_Print(buffer); rhea_gfx_PrintSymbol(95); rhea_gfx_Print("\n");
 198              		.loc 1 44 0
 199 0098 3B46     		mov	r3, r7
 200 009a 1846     		mov	r0, r3
 201 009c FFF7FEFF 		bl	rhea_gfx_Print
 202 00a0 5F20     		movs	r0, #95
 203 00a2 FFF7FEFF 		bl	rhea_gfx_PrintSymbol
 204 00a6 1648     		ldr	r0, .L5+20
 205 00a8 FFF7FEFF 		bl	rhea_gfx_Print
  45:application/main.c ****         
  46:application/main.c ****         sprintf(buffer, "P: %d ", pressureInt); 
 206              		.loc 1 46 0
 207 00ac 3B46     		mov	r3, r7
 208 00ae BA6B     		ldr	r2, [r7, #56]
 209 00b0 1449     		ldr	r1, .L5+24
 210 00b2 1846     		mov	r0, r3
 211 00b4 FFF7FEFF 		bl	sprintf
  47:application/main.c ****         rhea_gfx_Print(buffer); rhea_gfx_PrintSymbol(98); rhea_gfx_Print("\n");
 212              		.loc 1 47 0
ARM GAS  C:\Users\GYULAI~1\AppData\Local\Temp\ccu5ArUF.s 			page 6


 213 00b8 3B46     		mov	r3, r7
 214 00ba 1846     		mov	r0, r3
 215 00bc FFF7FEFF 		bl	rhea_gfx_Print
 216 00c0 6220     		movs	r0, #98
 217 00c2 FFF7FEFF 		bl	rhea_gfx_PrintSymbol
 218 00c6 0E48     		ldr	r0, .L5+20
 219 00c8 FFF7FEFF 		bl	rhea_gfx_Print
  48:application/main.c ****         
  49:application/main.c ****         sprintf(buffer, "H: %d %%\n", humidityInt);
 220              		.loc 1 49 0
 221 00cc 3B46     		mov	r3, r7
 222 00ce 7A6B     		ldr	r2, [r7, #52]
 223 00d0 0D49     		ldr	r1, .L5+28
 224 00d2 1846     		mov	r0, r3
 225 00d4 FFF7FEFF 		bl	sprintf
  50:application/main.c ****         rhea_gfx_Print(buffer);
 226              		.loc 1 50 0
 227 00d8 3B46     		mov	r3, r7
 228 00da 1846     		mov	r0, r3
 229 00dc FFF7FEFF 		bl	rhea_gfx_Print
  51:application/main.c ****         
  52:application/main.c ****         rhea_gfx_Refresh();
 230              		.loc 1 52 0
 231 00e0 FFF7FEFF 		bl	rhea_gfx_Refresh
  53:application/main.c **** }
 232              		.loc 1 53 0
 233 00e4 00BF     		nop
 234 00e6 4437     		adds	r7, r7, #68
 235              		.cfi_def_cfa_offset 12
 236 00e8 BD46     		mov	sp, r7
 237              		.cfi_def_cfa_register 13
 238              		@ sp needed
 239 00ea 90BD     		pop	{r4, r7, pc}
 240              	.L6:
 241              		.align	2
 242              	.L5:
 243 00ec 54000000 		.word	.LC1
 244 00f0 60000000 		.word	.LC2
 245 00f4 68000000 		.word	.LC3
 246 00f8 74000000 		.word	.LC4
 247 00fc 80000000 		.word	.LC5
 248 0100 88000000 		.word	.LC6
 249 0104 8C000000 		.word	.LC7
 250 0108 94000000 		.word	.LC8
 251              		.cfi_endproc
 252              	.LFE65:
 253              		.size	test_sensor, .-test_sensor
 254              		.section	.text.main,"ax",%progbits
 255              		.align	2
 256              		.global	main
 257              		.thumb
 258              		.thumb_func
 259              		.type	main, %function
 260              	main:
 261              	.LFB66:
  54:application/main.c **** 
  55:application/main.c **** int main(void)
ARM GAS  C:\Users\GYULAI~1\AppData\Local\Temp\ccu5ArUF.s 			page 7


  56:application/main.c **** { 
 262              		.loc 1 56 0
 263              		.cfi_startproc
 264              		@ args = 0, pretend = 0, frame = 0
 265              		@ frame_needed = 1, uses_anonymous_args = 0
 266 0000 80B5     		push	{r7, lr}
 267              		.cfi_def_cfa_offset 8
 268              		.cfi_offset 7, -8
 269              		.cfi_offset 14, -4
 270 0002 00AF     		add	r7, sp, #0
 271              		.cfi_def_cfa_register 7
  57:application/main.c ****     // Enabling global interrupts
  58:application/main.c ****     CyGlobalIntEnable;
 272              		.loc 1 58 0
 273              		.syntax unified
 274              	@ 58 "application\main.c" 1
 275 0004 62B6     		CPSIE   i
 276              	@ 0 "" 2
  59:application/main.c ****     
  60:application/main.c ****     // Initializing Rhea libraries
  61:application/main.c ****     rhea_i2c_Initialize();
 277              		.loc 1 61 0
 278              		.thumb
 279              		.syntax unified
 280 0006 FFF7FEFF 		bl	rhea_i2c_Initialize
  62:application/main.c ****     rhea_gfx_Initialize();
 281              		.loc 1 62 0
 282 000a FFF7FEFF 		bl	rhea_gfx_Initialize
  63:application/main.c ****     //rhea_rtc_Initialize();
  64:application/main.c ****     rhea_uart_Initialize();
 283              		.loc 1 64 0
 284 000e FFF7FEFF 		bl	rhea_uart_Initialize
  65:application/main.c ****     rhea_sensor_Initialize();
 285              		.loc 1 65 0
 286 0012 FFF7FEFF 		bl	rhea_sensor_Initialize
  66:application/main.c **** 
  67:application/main.c ****     // Initializing application
  68:application/main.c ****     InitializeInputButtonInterrupts();
 287              		.loc 1 68 0
 288 0016 FFF7FEFF 		bl	InitializeInputButtonInterrupts
  69:application/main.c ****     InitializeSerialCommandLine();
 289              		.loc 1 69 0
 290 001a FFF7FEFF 		bl	InitializeSerialCommandLine
  70:application/main.c ****     InitializeMainMenu();
 291              		.loc 1 70 0
 292 001e FFF7FEFF 		bl	InitializeMainMenu
 293              	.L8:
  71:application/main.c ****         
  72:application/main.c ****    
  73:application/main.c ****     
  74:application/main.c ****     // Executing application logic
  75:application/main.c ****     for(;;)
  76:application/main.c ****     {     
  77:application/main.c ****         //test_sensor();
  78:application/main.c ****         
  79:application/main.c ****         //rhea_gfx_Clear();
  80:application/main.c ****         //rhea_gfx_SetCursor(0,0);
ARM GAS  C:\Users\GYULAI~1\AppData\Local\Temp\ccu5ArUF.s 			page 8


  81:application/main.c ****         //rhea_gfx_Print("RIGHT:"); rhea_gfx_Print(BTN_RIGHT_Read() ? "ON\n" : "OFF\n");
  82:application/main.c ****         //rhea_gfx_Print("LEFT:"); rhea_gfx_Print(BTN_LEFT_Read() ? "ON\n" : "OFF\n");
  83:application/main.c ****         //rhea_gfx_Print("ENTER:"); rhea_gfx_Print(BTN_ENTER_Read() ? "ON\n" : "OFF\n");
  84:application/main.c ****         //rhea_gfx_Refresh();
  85:application/main.c ****         
  86:application/main.c ****         // Handling UART command line 
  87:application/main.c ****         ProcessCommandLine();
 294              		.loc 1 87 0 discriminator 1
 295 0022 FFF7FEFF 		bl	ProcessCommandLine
  88:application/main.c ****         
  89:application/main.c ****         // Handling RTC alarms
  90:application/main.c ****         // rhea_rtc_HandleAlarms();
  91:application/main.c ****         
  92:application/main.c ****         // Processing user input 
  93:application/main.c ****         StepMainMenuStateMachine(&button_enter_pressed, 
 296              		.loc 1 93 0 discriminator 1
 297 0026 034A     		ldr	r2, .L9
 298 0028 0349     		ldr	r1, .L9+4
 299 002a 0448     		ldr	r0, .L9+8
 300 002c FFF7FEFF 		bl	StepMainMenuStateMachine
  94:application/main.c ****                                  &button_right_pressed, 
  95:application/main.c ****                                  &button_left_pressed);
  96:application/main.c ****     }
 301              		.loc 1 96 0 discriminator 1
 302 0030 F7E7     		b	.L8
 303              	.L10:
 304 0032 00BF     		.align	2
 305              	.L9:
 306 0034 00000000 		.word	button_left_pressed
 307 0038 00000000 		.word	button_right_pressed
 308 003c 00000000 		.word	button_enter_pressed
 309              		.cfi_endproc
 310              	.LFE66:
 311              		.size	main, .-main
 312              		.text
 313              	.Letext0:
 314              		.file 2 "e:\\cypress\\psoc creator\\4.2\\psoc creator\\import\\gnu\\arm\\5.4.1\\arm-none-eabi\\inc
 315              		.file 3 "e:\\cypress\\psoc creator\\4.2\\psoc creator\\import\\gnu\\arm\\5.4.1\\arm-none-eabi\\inc
 316              		.file 4 "./rhea/rtc/datetime/datetime.h"
 317              		.file 5 "Generated_Source\\PSoC5/core_cm3.h"
 318              		.file 6 "application\\input/input.h"
 319              		.section	.debug_info,"",%progbits
 320              	.Ldebug_info0:
 321 0000 DA010000 		.4byte	0x1da
 322 0004 0400     		.2byte	0x4
 323 0006 00000000 		.4byte	.Ldebug_abbrev0
 324 000a 04       		.byte	0x4
 325 000b 01       		.uleb128 0x1
 326 000c 0A000000 		.4byte	.LASF29
 327 0010 0C       		.byte	0xc
 328 0011 E4000000 		.4byte	.LASF30
 329 0015 B7000000 		.4byte	.LASF31
 330 0019 00000000 		.4byte	.Ldebug_ranges0+0
 331 001d 00000000 		.4byte	0
 332 0021 00000000 		.4byte	.Ldebug_line0
 333 0025 02       		.uleb128 0x2
 334 0026 01       		.byte	0x1
ARM GAS  C:\Users\GYULAI~1\AppData\Local\Temp\ccu5ArUF.s 			page 9


 335 0027 06       		.byte	0x6
 336 0028 48020000 		.4byte	.LASF0
 337 002c 03       		.uleb128 0x3
 338 002d 00000000 		.4byte	.LASF4
 339 0031 02       		.byte	0x2
 340 0032 1D       		.byte	0x1d
 341 0033 37000000 		.4byte	0x37
 342 0037 02       		.uleb128 0x2
 343 0038 01       		.byte	0x1
 344 0039 08       		.byte	0x8
 345 003a FD000000 		.4byte	.LASF1
 346 003e 02       		.uleb128 0x2
 347 003f 02       		.byte	0x2
 348 0040 05       		.byte	0x5
 349 0041 F2010000 		.4byte	.LASF2
 350 0045 02       		.uleb128 0x2
 351 0046 02       		.byte	0x2
 352 0047 07       		.byte	0x7
 353 0048 1D010000 		.4byte	.LASF3
 354 004c 03       		.uleb128 0x3
 355 004d 98000000 		.4byte	.LASF5
 356 0051 02       		.byte	0x2
 357 0052 3F       		.byte	0x3f
 358 0053 57000000 		.4byte	0x57
 359 0057 02       		.uleb128 0x2
 360 0058 04       		.byte	0x4
 361 0059 05       		.byte	0x5
 362 005a A2000000 		.4byte	.LASF6
 363 005e 02       		.uleb128 0x2
 364 005f 04       		.byte	0x4
 365 0060 07       		.byte	0x7
 366 0061 0B010000 		.4byte	.LASF7
 367 0065 02       		.uleb128 0x2
 368 0066 08       		.byte	0x8
 369 0067 05       		.byte	0x5
 370 0068 DF010000 		.4byte	.LASF8
 371 006c 02       		.uleb128 0x2
 372 006d 08       		.byte	0x8
 373 006e 07       		.byte	0x7
 374 006f 97010000 		.4byte	.LASF9
 375 0073 04       		.uleb128 0x4
 376 0074 04       		.byte	0x4
 377 0075 05       		.byte	0x5
 378 0076 696E7400 		.ascii	"int\000"
 379 007a 02       		.uleb128 0x2
 380 007b 04       		.byte	0x4
 381 007c 07       		.byte	0x7
 382 007d 8A010000 		.4byte	.LASF10
 383 0081 03       		.uleb128 0x3
 384 0082 AE010000 		.4byte	.LASF11
 385 0086 03       		.byte	0x3
 386 0087 18       		.byte	0x18
 387 0088 2C000000 		.4byte	0x2c
 388 008c 03       		.uleb128 0x3
 389 008d C2010000 		.4byte	.LASF12
 390 0091 03       		.byte	0x3
 391 0092 2C       		.byte	0x2c
ARM GAS  C:\Users\GYULAI~1\AppData\Local\Temp\ccu5ArUF.s 			page 10


 392 0093 4C000000 		.4byte	0x4c
 393 0097 02       		.uleb128 0x2
 394 0098 04       		.byte	0x4
 395 0099 04       		.byte	0x4
 396 009a F7000000 		.4byte	.LASF13
 397 009e 02       		.uleb128 0x2
 398 009f 08       		.byte	0x8
 399 00a0 04       		.byte	0x4
 400 00a1 5C010000 		.4byte	.LASF14
 401 00a5 02       		.uleb128 0x2
 402 00a6 01       		.byte	0x1
 403 00a7 08       		.byte	0x8
 404 00a8 ED010000 		.4byte	.LASF15
 405 00ac 02       		.uleb128 0x2
 406 00ad 08       		.byte	0x8
 407 00ae 04       		.byte	0x4
 408 00af 3C020000 		.4byte	.LASF16
 409 00b3 02       		.uleb128 0x2
 410 00b4 04       		.byte	0x4
 411 00b5 07       		.byte	0x7
 412 00b6 CA010000 		.4byte	.LASF17
 413 00ba 05       		.uleb128 0x5
 414 00bb A5000000 		.4byte	0xa5
 415 00bf 06       		.uleb128 0x6
 416 00c0 81000000 		.4byte	0x81
 417 00c4 07       		.uleb128 0x7
 418 00c5 63010000 		.4byte	.LASF32
 419 00c9 01       		.byte	0x1
 420 00ca 14       		.byte	0x14
 421 00cb 00000000 		.4byte	.LFB64
 422 00cf 34000000 		.4byte	.LFE64-.LFB64
 423 00d3 01       		.uleb128 0x1
 424 00d4 9C       		.byte	0x9c
 425 00d5 08       		.uleb128 0x8
 426 00d6 AB000000 		.4byte	.LASF33
 427 00da 01       		.byte	0x1
 428 00db 1E       		.byte	0x1e
 429 00dc 00000000 		.4byte	.LFB65
 430 00e0 0C010000 		.4byte	.LFE65-.LFB65
 431 00e4 01       		.uleb128 0x1
 432 00e5 9C       		.byte	0x9c
 433 00e6 24010000 		.4byte	0x124
 434 00ea 09       		.uleb128 0x9
 435 00eb 2D020000 		.4byte	.LASF18
 436 00ef 01       		.byte	0x1
 437 00f0 25       		.byte	0x25
 438 00f1 73000000 		.4byte	0x73
 439 00f5 02       		.uleb128 0x2
 440 00f6 91       		.byte	0x91
 441 00f7 6C       		.sleb128 -20
 442 00f8 09       		.uleb128 0x9
 443 00f9 D3010000 		.4byte	.LASF19
 444 00fd 01       		.byte	0x1
 445 00fe 26       		.byte	0x26
 446 00ff 73000000 		.4byte	0x73
 447 0103 02       		.uleb128 0x2
 448 0104 91       		.byte	0x91
ARM GAS  C:\Users\GYULAI~1\AppData\Local\Temp\ccu5ArUF.s 			page 11


 449 0105 68       		.sleb128 -24
 450 0106 09       		.uleb128 0x9
 451 0107 B6010000 		.4byte	.LASF20
 452 010b 01       		.byte	0x1
 453 010c 27       		.byte	0x27
 454 010d 73000000 		.4byte	0x73
 455 0111 02       		.uleb128 0x2
 456 0112 91       		.byte	0x91
 457 0113 64       		.sleb128 -28
 458 0114 09       		.uleb128 0x9
 459 0115 FC010000 		.4byte	.LASF21
 460 0119 01       		.byte	0x1
 461 011a 29       		.byte	0x29
 462 011b 24010000 		.4byte	0x124
 463 011f 03       		.uleb128 0x3
 464 0120 91       		.byte	0x91
 465 0121 B07F     		.sleb128 -80
 466 0123 00       		.byte	0
 467 0124 0A       		.uleb128 0xa
 468 0125 A5000000 		.4byte	0xa5
 469 0129 34010000 		.4byte	0x134
 470 012d 0B       		.uleb128 0xb
 471 012e B3000000 		.4byte	0xb3
 472 0132 31       		.byte	0x31
 473 0133 00       		.byte	0
 474 0134 0C       		.uleb128 0xc
 475 0135 71010000 		.4byte	.LASF34
 476 0139 01       		.byte	0x1
 477 013a 37       		.byte	0x37
 478 013b 73000000 		.4byte	0x73
 479 013f 00000000 		.4byte	.LFB66
 480 0143 40000000 		.4byte	.LFE66-.LFB66
 481 0147 01       		.uleb128 0x1
 482 0148 9C       		.byte	0x9c
 483 0149 0A       		.uleb128 0xa
 484 014a BA000000 		.4byte	0xba
 485 014e 59010000 		.4byte	0x159
 486 0152 0B       		.uleb128 0xb
 487 0153 B3000000 		.4byte	0xb3
 488 0157 13       		.byte	0x13
 489 0158 00       		.byte	0
 490 0159 09       		.uleb128 0x9
 491 015a 3D010000 		.4byte	.LASF22
 492 015e 04       		.byte	0x4
 493 015f 48       		.byte	0x48
 494 0160 6A010000 		.4byte	0x16a
 495 0164 05       		.uleb128 0x5
 496 0165 03       		.byte	0x3
 497 0166 00000000 		.4byte	rhea_rtc_datetimeFormatGeneral
 498 016a 05       		.uleb128 0x5
 499 016b 49010000 		.4byte	0x149
 500 016f 0A       		.uleb128 0xa
 501 0170 BA000000 		.4byte	0xba
 502 0174 7F010000 		.4byte	0x17f
 503 0178 0B       		.uleb128 0xb
 504 0179 B3000000 		.4byte	0xb3
 505 017d 15       		.byte	0x15
ARM GAS  C:\Users\GYULAI~1\AppData\Local\Temp\ccu5ArUF.s 			page 12


 506 017e 00       		.byte	0
 507 017f 09       		.uleb128 0x9
 508 0180 70020000 		.4byte	.LASF23
 509 0184 04       		.byte	0x4
 510 0185 4A       		.byte	0x4a
 511 0186 90010000 		.4byte	0x190
 512 018a 05       		.uleb128 0x5
 513 018b 03       		.byte	0x3
 514 018c 14000000 		.4byte	rhea_rtc_datetimeFormatGeneralUS
 515 0190 05       		.uleb128 0x5
 516 0191 6F010000 		.4byte	0x16f
 517 0195 09       		.uleb128 0x9
 518 0196 54020000 		.4byte	.LASF24
 519 019a 04       		.byte	0x4
 520 019b 4C       		.byte	0x4c
 521 019c A6010000 		.4byte	0x1a6
 522 01a0 05       		.uleb128 0x5
 523 01a1 03       		.byte	0x3
 524 01a2 2C000000 		.4byte	rhea_rtc_datetimeFormatFull
 525 01a6 05       		.uleb128 0x5
 526 01a7 6F010000 		.4byte	0x16f
 527 01ab 0D       		.uleb128 0xd
 528 01ac 30010000 		.4byte	.LASF25
 529 01b0 05       		.byte	0x5
 530 01b1 1207     		.2byte	0x712
 531 01b3 B7010000 		.4byte	0x1b7
 532 01b7 06       		.uleb128 0x6
 533 01b8 8C000000 		.4byte	0x8c
 534 01bc 0E       		.uleb128 0xe
 535 01bd 03020000 		.4byte	.LASF26
 536 01c1 06       		.byte	0x6
 537 01c2 2B       		.byte	0x2b
 538 01c3 BF000000 		.4byte	0xbf
 539 01c7 0E       		.uleb128 0xe
 540 01c8 18020000 		.4byte	.LASF27
 541 01cc 06       		.byte	0x6
 542 01cd 2C       		.byte	0x2c
 543 01ce BF000000 		.4byte	0xbf
 544 01d2 0E       		.uleb128 0xe
 545 01d3 76010000 		.4byte	.LASF28
 546 01d7 06       		.byte	0x6
 547 01d8 2D       		.byte	0x2d
 548 01d9 BF000000 		.4byte	0xbf
 549 01dd 00       		.byte	0
 550              		.section	.debug_abbrev,"",%progbits
 551              	.Ldebug_abbrev0:
 552 0000 01       		.uleb128 0x1
 553 0001 11       		.uleb128 0x11
 554 0002 01       		.byte	0x1
 555 0003 25       		.uleb128 0x25
 556 0004 0E       		.uleb128 0xe
 557 0005 13       		.uleb128 0x13
 558 0006 0B       		.uleb128 0xb
 559 0007 03       		.uleb128 0x3
 560 0008 0E       		.uleb128 0xe
 561 0009 1B       		.uleb128 0x1b
 562 000a 0E       		.uleb128 0xe
ARM GAS  C:\Users\GYULAI~1\AppData\Local\Temp\ccu5ArUF.s 			page 13


 563 000b 55       		.uleb128 0x55
 564 000c 17       		.uleb128 0x17
 565 000d 11       		.uleb128 0x11
 566 000e 01       		.uleb128 0x1
 567 000f 10       		.uleb128 0x10
 568 0010 17       		.uleb128 0x17
 569 0011 00       		.byte	0
 570 0012 00       		.byte	0
 571 0013 02       		.uleb128 0x2
 572 0014 24       		.uleb128 0x24
 573 0015 00       		.byte	0
 574 0016 0B       		.uleb128 0xb
 575 0017 0B       		.uleb128 0xb
 576 0018 3E       		.uleb128 0x3e
 577 0019 0B       		.uleb128 0xb
 578 001a 03       		.uleb128 0x3
 579 001b 0E       		.uleb128 0xe
 580 001c 00       		.byte	0
 581 001d 00       		.byte	0
 582 001e 03       		.uleb128 0x3
 583 001f 16       		.uleb128 0x16
 584 0020 00       		.byte	0
 585 0021 03       		.uleb128 0x3
 586 0022 0E       		.uleb128 0xe
 587 0023 3A       		.uleb128 0x3a
 588 0024 0B       		.uleb128 0xb
 589 0025 3B       		.uleb128 0x3b
 590 0026 0B       		.uleb128 0xb
 591 0027 49       		.uleb128 0x49
 592 0028 13       		.uleb128 0x13
 593 0029 00       		.byte	0
 594 002a 00       		.byte	0
 595 002b 04       		.uleb128 0x4
 596 002c 24       		.uleb128 0x24
 597 002d 00       		.byte	0
 598 002e 0B       		.uleb128 0xb
 599 002f 0B       		.uleb128 0xb
 600 0030 3E       		.uleb128 0x3e
 601 0031 0B       		.uleb128 0xb
 602 0032 03       		.uleb128 0x3
 603 0033 08       		.uleb128 0x8
 604 0034 00       		.byte	0
 605 0035 00       		.byte	0
 606 0036 05       		.uleb128 0x5
 607 0037 26       		.uleb128 0x26
 608 0038 00       		.byte	0
 609 0039 49       		.uleb128 0x49
 610 003a 13       		.uleb128 0x13
 611 003b 00       		.byte	0
 612 003c 00       		.byte	0
 613 003d 06       		.uleb128 0x6
 614 003e 35       		.uleb128 0x35
 615 003f 00       		.byte	0
 616 0040 49       		.uleb128 0x49
 617 0041 13       		.uleb128 0x13
 618 0042 00       		.byte	0
 619 0043 00       		.byte	0
ARM GAS  C:\Users\GYULAI~1\AppData\Local\Temp\ccu5ArUF.s 			page 14


 620 0044 07       		.uleb128 0x7
 621 0045 2E       		.uleb128 0x2e
 622 0046 00       		.byte	0
 623 0047 3F       		.uleb128 0x3f
 624 0048 19       		.uleb128 0x19
 625 0049 03       		.uleb128 0x3
 626 004a 0E       		.uleb128 0xe
 627 004b 3A       		.uleb128 0x3a
 628 004c 0B       		.uleb128 0xb
 629 004d 3B       		.uleb128 0x3b
 630 004e 0B       		.uleb128 0xb
 631 004f 27       		.uleb128 0x27
 632 0050 19       		.uleb128 0x19
 633 0051 11       		.uleb128 0x11
 634 0052 01       		.uleb128 0x1
 635 0053 12       		.uleb128 0x12
 636 0054 06       		.uleb128 0x6
 637 0055 40       		.uleb128 0x40
 638 0056 18       		.uleb128 0x18
 639 0057 9642     		.uleb128 0x2116
 640 0059 19       		.uleb128 0x19
 641 005a 00       		.byte	0
 642 005b 00       		.byte	0
 643 005c 08       		.uleb128 0x8
 644 005d 2E       		.uleb128 0x2e
 645 005e 01       		.byte	0x1
 646 005f 3F       		.uleb128 0x3f
 647 0060 19       		.uleb128 0x19
 648 0061 03       		.uleb128 0x3
 649 0062 0E       		.uleb128 0xe
 650 0063 3A       		.uleb128 0x3a
 651 0064 0B       		.uleb128 0xb
 652 0065 3B       		.uleb128 0x3b
 653 0066 0B       		.uleb128 0xb
 654 0067 27       		.uleb128 0x27
 655 0068 19       		.uleb128 0x19
 656 0069 11       		.uleb128 0x11
 657 006a 01       		.uleb128 0x1
 658 006b 12       		.uleb128 0x12
 659 006c 06       		.uleb128 0x6
 660 006d 40       		.uleb128 0x40
 661 006e 18       		.uleb128 0x18
 662 006f 9642     		.uleb128 0x2116
 663 0071 19       		.uleb128 0x19
 664 0072 01       		.uleb128 0x1
 665 0073 13       		.uleb128 0x13
 666 0074 00       		.byte	0
 667 0075 00       		.byte	0
 668 0076 09       		.uleb128 0x9
 669 0077 34       		.uleb128 0x34
 670 0078 00       		.byte	0
 671 0079 03       		.uleb128 0x3
 672 007a 0E       		.uleb128 0xe
 673 007b 3A       		.uleb128 0x3a
 674 007c 0B       		.uleb128 0xb
 675 007d 3B       		.uleb128 0x3b
 676 007e 0B       		.uleb128 0xb
ARM GAS  C:\Users\GYULAI~1\AppData\Local\Temp\ccu5ArUF.s 			page 15


 677 007f 49       		.uleb128 0x49
 678 0080 13       		.uleb128 0x13
 679 0081 02       		.uleb128 0x2
 680 0082 18       		.uleb128 0x18
 681 0083 00       		.byte	0
 682 0084 00       		.byte	0
 683 0085 0A       		.uleb128 0xa
 684 0086 01       		.uleb128 0x1
 685 0087 01       		.byte	0x1
 686 0088 49       		.uleb128 0x49
 687 0089 13       		.uleb128 0x13
 688 008a 01       		.uleb128 0x1
 689 008b 13       		.uleb128 0x13
 690 008c 00       		.byte	0
 691 008d 00       		.byte	0
 692 008e 0B       		.uleb128 0xb
 693 008f 21       		.uleb128 0x21
 694 0090 00       		.byte	0
 695 0091 49       		.uleb128 0x49
 696 0092 13       		.uleb128 0x13
 697 0093 2F       		.uleb128 0x2f
 698 0094 0B       		.uleb128 0xb
 699 0095 00       		.byte	0
 700 0096 00       		.byte	0
 701 0097 0C       		.uleb128 0xc
 702 0098 2E       		.uleb128 0x2e
 703 0099 00       		.byte	0
 704 009a 3F       		.uleb128 0x3f
 705 009b 19       		.uleb128 0x19
 706 009c 03       		.uleb128 0x3
 707 009d 0E       		.uleb128 0xe
 708 009e 3A       		.uleb128 0x3a
 709 009f 0B       		.uleb128 0xb
 710 00a0 3B       		.uleb128 0x3b
 711 00a1 0B       		.uleb128 0xb
 712 00a2 27       		.uleb128 0x27
 713 00a3 19       		.uleb128 0x19
 714 00a4 49       		.uleb128 0x49
 715 00a5 13       		.uleb128 0x13
 716 00a6 11       		.uleb128 0x11
 717 00a7 01       		.uleb128 0x1
 718 00a8 12       		.uleb128 0x12
 719 00a9 06       		.uleb128 0x6
 720 00aa 40       		.uleb128 0x40
 721 00ab 18       		.uleb128 0x18
 722 00ac 9642     		.uleb128 0x2116
 723 00ae 19       		.uleb128 0x19
 724 00af 00       		.byte	0
 725 00b0 00       		.byte	0
 726 00b1 0D       		.uleb128 0xd
 727 00b2 34       		.uleb128 0x34
 728 00b3 00       		.byte	0
 729 00b4 03       		.uleb128 0x3
 730 00b5 0E       		.uleb128 0xe
 731 00b6 3A       		.uleb128 0x3a
 732 00b7 0B       		.uleb128 0xb
 733 00b8 3B       		.uleb128 0x3b
ARM GAS  C:\Users\GYULAI~1\AppData\Local\Temp\ccu5ArUF.s 			page 16


 734 00b9 05       		.uleb128 0x5
 735 00ba 49       		.uleb128 0x49
 736 00bb 13       		.uleb128 0x13
 737 00bc 3F       		.uleb128 0x3f
 738 00bd 19       		.uleb128 0x19
 739 00be 3C       		.uleb128 0x3c
 740 00bf 19       		.uleb128 0x19
 741 00c0 00       		.byte	0
 742 00c1 00       		.byte	0
 743 00c2 0E       		.uleb128 0xe
 744 00c3 34       		.uleb128 0x34
 745 00c4 00       		.byte	0
 746 00c5 03       		.uleb128 0x3
 747 00c6 0E       		.uleb128 0xe
 748 00c7 3A       		.uleb128 0x3a
 749 00c8 0B       		.uleb128 0xb
 750 00c9 3B       		.uleb128 0x3b
 751 00ca 0B       		.uleb128 0xb
 752 00cb 49       		.uleb128 0x49
 753 00cc 13       		.uleb128 0x13
 754 00cd 3F       		.uleb128 0x3f
 755 00ce 19       		.uleb128 0x19
 756 00cf 3C       		.uleb128 0x3c
 757 00d0 19       		.uleb128 0x19
 758 00d1 00       		.byte	0
 759 00d2 00       		.byte	0
 760 00d3 00       		.byte	0
 761              		.section	.debug_aranges,"",%progbits
 762 0000 2C000000 		.4byte	0x2c
 763 0004 0200     		.2byte	0x2
 764 0006 00000000 		.4byte	.Ldebug_info0
 765 000a 04       		.byte	0x4
 766 000b 00       		.byte	0
 767 000c 0000     		.2byte	0
 768 000e 0000     		.2byte	0
 769 0010 00000000 		.4byte	.LFB64
 770 0014 34000000 		.4byte	.LFE64-.LFB64
 771 0018 00000000 		.4byte	.LFB65
 772 001c 0C010000 		.4byte	.LFE65-.LFB65
 773 0020 00000000 		.4byte	.LFB66
 774 0024 40000000 		.4byte	.LFE66-.LFB66
 775 0028 00000000 		.4byte	0
 776 002c 00000000 		.4byte	0
 777              		.section	.debug_ranges,"",%progbits
 778              	.Ldebug_ranges0:
 779 0000 00000000 		.4byte	.LFB64
 780 0004 34000000 		.4byte	.LFE64
 781 0008 00000000 		.4byte	.LFB65
 782 000c 0C010000 		.4byte	.LFE65
 783 0010 00000000 		.4byte	.LFB66
 784 0014 40000000 		.4byte	.LFE66
 785 0018 00000000 		.4byte	0
 786 001c 00000000 		.4byte	0
 787              		.section	.debug_line,"",%progbits
 788              	.Ldebug_line0:
 789 0000 C6010000 		.section	.debug_str,"MS",%progbits,1
 789      02006201 
ARM GAS  C:\Users\GYULAI~1\AppData\Local\Temp\ccu5ArUF.s 			page 17


 789      00000201 
 789      FB0E0D00 
 789      01010101 
 790              	.LASF4:
 791 0000 5F5F7569 		.ascii	"__uint8_t\000"
 791      6E74385F 
 791      7400
 792              	.LASF29:
 793 000a 474E5520 		.ascii	"GNU C11 5.4.1 20160609 (release) [ARM/embedded-5-br"
 793      43313120 
 793      352E342E 
 793      31203230 
 793      31363036 
 794 003d 616E6368 		.ascii	"anch revision 237715] -mcpu=cortex-m3 -mthumb -g -O"
 794      20726576 
 794      6973696F 
 794      6E203233 
 794      37373135 
 795 0070 30202D66 		.ascii	"0 -ffunction-sections -ffat-lto-objects\000"
 795      66756E63 
 795      74696F6E 
 795      2D736563 
 795      74696F6E 
 796              	.LASF5:
 797 0098 5F5F696E 		.ascii	"__int32_t\000"
 797      7433325F 
 797      7400
 798              	.LASF6:
 799 00a2 6C6F6E67 		.ascii	"long int\000"
 799      20696E74 
 799      00
 800              	.LASF33:
 801 00ab 74657374 		.ascii	"test_sensor\000"
 801      5F73656E 
 801      736F7200 
 802              	.LASF31:
 803 00b7 453A5C43 		.ascii	"E:\\Cypress\\Projects\\RheaWorkspace\\Rhea.cydsn\000"
 803      79707265 
 803      73735C50 
 803      726F6A65 
 803      6374735C 
 804              	.LASF30:
 805 00e4 6170706C 		.ascii	"application\\main.c\000"
 805      69636174 
 805      696F6E5C 
 805      6D61696E 
 805      2E6300
 806              	.LASF13:
 807 00f7 666C6F61 		.ascii	"float\000"
 807      7400
 808              	.LASF1:
 809 00fd 756E7369 		.ascii	"unsigned char\000"
 809      676E6564 
 809      20636861 
 809      7200
 810              	.LASF7:
 811 010b 6C6F6E67 		.ascii	"long unsigned int\000"
ARM GAS  C:\Users\GYULAI~1\AppData\Local\Temp\ccu5ArUF.s 			page 18


 811      20756E73 
 811      69676E65 
 811      6420696E 
 811      7400
 812              	.LASF3:
 813 011d 73686F72 		.ascii	"short unsigned int\000"
 813      7420756E 
 813      7369676E 
 813      65642069 
 813      6E7400
 814              	.LASF25:
 815 0130 49544D5F 		.ascii	"ITM_RxBuffer\000"
 815      52784275 
 815      66666572 
 815      00
 816              	.LASF22:
 817 013d 72686561 		.ascii	"rhea_rtc_datetimeFormatGeneral\000"
 817      5F727463 
 817      5F646174 
 817      6574696D 
 817      65466F72 
 818              	.LASF14:
 819 015c 646F7562 		.ascii	"double\000"
 819      6C6500
 820              	.LASF32:
 821 0163 74657374 		.ascii	"test_graphics\000"
 821      5F677261 
 821      70686963 
 821      7300
 822              	.LASF34:
 823 0171 6D61696E 		.ascii	"main\000"
 823      00
 824              	.LASF28:
 825 0176 62757474 		.ascii	"button_left_pressed\000"
 825      6F6E5F6C 
 825      6566745F 
 825      70726573 
 825      73656400 
 826              	.LASF10:
 827 018a 756E7369 		.ascii	"unsigned int\000"
 827      676E6564 
 827      20696E74 
 827      00
 828              	.LASF9:
 829 0197 6C6F6E67 		.ascii	"long long unsigned int\000"
 829      206C6F6E 
 829      6720756E 
 829      7369676E 
 829      65642069 
 830              	.LASF11:
 831 01ae 75696E74 		.ascii	"uint8_t\000"
 831      385F7400 
 832              	.LASF20:
 833 01b6 68756D69 		.ascii	"humidityInt\000"
 833      64697479 
 833      496E7400 
 834              	.LASF12:
ARM GAS  C:\Users\GYULAI~1\AppData\Local\Temp\ccu5ArUF.s 			page 19


 835 01c2 696E7433 		.ascii	"int32_t\000"
 835      325F7400 
 836              	.LASF17:
 837 01ca 73697A65 		.ascii	"sizetype\000"
 837      74797065 
 837      00
 838              	.LASF19:
 839 01d3 70726573 		.ascii	"pressureInt\000"
 839      73757265 
 839      496E7400 
 840              	.LASF8:
 841 01df 6C6F6E67 		.ascii	"long long int\000"
 841      206C6F6E 
 841      6720696E 
 841      7400
 842              	.LASF15:
 843 01ed 63686172 		.ascii	"char\000"
 843      00
 844              	.LASF2:
 845 01f2 73686F72 		.ascii	"short int\000"
 845      7420696E 
 845      7400
 846              	.LASF21:
 847 01fc 62756666 		.ascii	"buffer\000"
 847      657200
 848              	.LASF26:
 849 0203 62757474 		.ascii	"button_enter_pressed\000"
 849      6F6E5F65 
 849      6E746572 
 849      5F707265 
 849      73736564 
 850              	.LASF27:
 851 0218 62757474 		.ascii	"button_right_pressed\000"
 851      6F6E5F72 
 851      69676874 
 851      5F707265 
 851      73736564 
 852              	.LASF18:
 853 022d 74656D70 		.ascii	"temperatureInt\000"
 853      65726174 
 853      75726549 
 853      6E7400
 854              	.LASF16:
 855 023c 6C6F6E67 		.ascii	"long double\000"
 855      20646F75 
 855      626C6500 
 856              	.LASF0:
 857 0248 7369676E 		.ascii	"signed char\000"
 857      65642063 
 857      68617200 
 858              	.LASF24:
 859 0254 72686561 		.ascii	"rhea_rtc_datetimeFormatFull\000"
 859      5F727463 
 859      5F646174 
 859      6574696D 
 859      65466F72 
 860              	.LASF23:
ARM GAS  C:\Users\GYULAI~1\AppData\Local\Temp\ccu5ArUF.s 			page 20


 861 0270 72686561 		.ascii	"rhea_rtc_datetimeFormatGeneralUS\000"
 861      5F727463 
 861      5F646174 
 861      6574696D 
 861      65466F72 
 862              		.ident	"GCC: (GNU Tools for ARM Embedded Processors) 5.4.1 20160609 (release) [ARM/embedded-5-bran
