ARM GAS  C:\Users\GYULAI~1\AppData\Local\Temp\ccXaVm7p.s 			page 1


   1              		.syntax unified
   2              		.cpu cortex-m3
   3              		.fpu softvfp
   4              		.eabi_attribute 20, 1
   5              		.eabi_attribute 21, 1
   6              		.eabi_attribute 23, 3
   7              		.eabi_attribute 24, 1
   8              		.eabi_attribute 25, 1
   9              		.eabi_attribute 26, 1
  10              		.eabi_attribute 30, 6
  11              		.eabi_attribute 34, 1
  12              		.eabi_attribute 18, 4
  13              		.thumb
  14              		.syntax unified
  15              		.file	"main.c"
  16              		.text
  17              	.Ltext0:
  18              		.cfi_sections	.debug_frame
  19              		.section	.rodata
  20              		.align	2
  21              		.type	rhea_rtc_datetimeFormatGeneral, %object
  22              		.size	rhea_rtc_datetimeFormatGeneral, 20
  23              	rhea_rtc_datetimeFormatGeneral:
  24 0000 59595959 		.ascii	"YYYY/MM/dd hh:mm:ss\000"
  24      2F4D4D2F 
  24      64642068 
  24      683A6D6D 
  24      3A737300 
  25              		.align	2
  26              		.type	rhea_rtc_datetimeFormatGeneralUS, %object
  27              		.size	rhea_rtc_datetimeFormatGeneralUS, 22
  28              	rhea_rtc_datetimeFormatGeneralUS:
  29 0014 64642F4D 		.ascii	"dd/MM/YYYY hh:mm:ss t\000"
  29      4D2F5959 
  29      59592068 
  29      683A6D6D 
  29      3A737320 
  30 002a 0000     		.align	2
  31              		.type	rhea_rtc_datetimeFormatFull, %object
  32              		.size	rhea_rtc_datetimeFormatFull, 22
  33              	rhea_rtc_datetimeFormatFull:
  34 002c 772C204D 		.ascii	"w, MMMM d, YYYY h:m:s\000"
  34      4D4D4D20 
  34      642C2059 
  34      59595920 
  34      683A6D3A 
  35 0042 0000     		.align	2
  36              	.LC0:
  37 0044 48656C6C 		.ascii	"Hello\012Bello\012\000"
  37      6F0A4265 
  37      6C6C6F0A 
  37      00
  38              		.section	.text.test_graphics,"ax",%progbits
  39              		.align	2
  40              		.global	test_graphics
  41              		.thumb
  42              		.thumb_func
ARM GAS  C:\Users\GYULAI~1\AppData\Local\Temp\ccXaVm7p.s 			page 2


  43              		.type	test_graphics, %function
  44              	test_graphics:
  45              	.LFB64:
  46              		.file 1 "application\\main.c"
   1:application/main.c **** #include "project.h"
   2:application/main.c **** 
   3:application/main.c **** // Including Rhea libraries
   4:application/main.c **** #include "rhea/i2c/i2c.h"
   5:application/main.c **** #include "rhea/gfx/gfx.h"
   6:application/main.c **** #include "rhea/rtc/rtc.h"
   7:application/main.c **** #include "rhea/uart/uart.h"
   8:application/main.c **** #include "rhea/sensor/sensor.h"
   9:application/main.c **** 
  10:application/main.c **** // Including application headers
  11:application/main.c **** #include "command/command.h"
  12:application/main.c **** #include "input/input.h"
  13:application/main.c **** #include "menu/menu.h"
  14:application/main.c **** 
  15:application/main.c **** // Including standard headers
  16:application/main.c **** #include <stdio.h>
  17:application/main.c **** 
  18:application/main.c **** 
  19:application/main.c **** // Test function for graphics display
  20:application/main.c **** void test_graphics(void) {
  47              		.loc 1 20 0
  48              		.cfi_startproc
  49              		@ args = 0, pretend = 0, frame = 0
  50              		@ frame_needed = 1, uses_anonymous_args = 0
  51 0000 80B5     		push	{r7, lr}
  52              		.cfi_def_cfa_offset 8
  53              		.cfi_offset 7, -8
  54              		.cfi_offset 14, -4
  55 0002 00AF     		add	r7, sp, #0
  56              		.cfi_def_cfa_register 7
  21:application/main.c ****     rhea_gfx_Clear();
  57              		.loc 1 21 0
  58 0004 FFF7FEFF 		bl	rhea_gfx_Clear
  22:application/main.c ****     rhea_gfx_Print("Hello\nBello\n");
  59              		.loc 1 22 0
  60 0008 0948     		ldr	r0, .L2
  61 000a FFF7FEFF 		bl	rhea_gfx_Print
  23:application/main.c ****     rhea_gfx_PrintSymbol(95);
  62              		.loc 1 23 0
  63 000e 5F20     		movs	r0, #95
  64 0010 FFF7FEFF 		bl	rhea_gfx_PrintSymbol
  24:application/main.c ****     rhea_gfx_PrintSymbol(96);
  65              		.loc 1 24 0
  66 0014 6020     		movs	r0, #96
  67 0016 FFF7FEFF 		bl	rhea_gfx_PrintSymbol
  25:application/main.c ****     rhea_gfx_PrintSymbol(97);
  68              		.loc 1 25 0
  69 001a 6120     		movs	r0, #97
  70 001c FFF7FEFF 		bl	rhea_gfx_PrintSymbol
  26:application/main.c ****     rhea_gfx_PrintSymbol(98);
  71              		.loc 1 26 0
  72 0020 6220     		movs	r0, #98
  73 0022 FFF7FEFF 		bl	rhea_gfx_PrintSymbol
ARM GAS  C:\Users\GYULAI~1\AppData\Local\Temp\ccXaVm7p.s 			page 3


  27:application/main.c ****     rhea_gfx_PrintSymbol(99);
  74              		.loc 1 27 0
  75 0026 6320     		movs	r0, #99
  76 0028 FFF7FEFF 		bl	rhea_gfx_PrintSymbol
  28:application/main.c **** }
  77              		.loc 1 28 0
  78 002c 00BF     		nop
  79 002e 80BD     		pop	{r7, pc}
  80              	.L3:
  81              		.align	2
  82              	.L2:
  83 0030 44000000 		.word	.LC0
  84              		.cfi_endproc
  85              	.LFE64:
  86              		.size	test_graphics, .-test_graphics
  87              		.section	.rodata
  88 0051 000000   		.align	2
  89              	.LC1:
  90 0054 74656D70 		.ascii	"temperature\000"
  90      65726174 
  90      75726500 
  91              		.align	2
  92              	.LC2:
  93 0060 424D4532 		.ascii	"BME280\000"
  93      383000
  94 0067 00       		.align	2
  95              	.LC3:
  96 0068 70726573 		.ascii	"pressure\000"
  96      73757265 
  96      00
  97 0071 000000   		.align	2
  98              	.LC4:
  99 0074 68756D69 		.ascii	"humidity\000"
  99      64697479 
  99      00
 100              		.global	__aeabi_d2iz
 101 007d 000000   		.align	2
 102              	.LC5:
 103 0080 543A2025 		.ascii	"T: %d \000"
 103      642000
 104 0087 00       		.align	2
 105              	.LC6:
 106 0088 0A00     		.ascii	"\012\000"
 107 008a 0000     		.align	2
 108              	.LC7:
 109 008c 503A2025 		.ascii	"P: %d \000"
 109      642000
 110 0093 00       		.align	2
 111              	.LC8:
 112 0094 483A2025 		.ascii	"H: %d %%\012\000"
 112      64202525 
 112      0A00
 113              		.section	.text.test_sensor,"ax",%progbits
 114              		.align	2
 115              		.global	test_sensor
 116              		.thumb
 117              		.thumb_func
ARM GAS  C:\Users\GYULAI~1\AppData\Local\Temp\ccXaVm7p.s 			page 4


 118              		.type	test_sensor, %function
 119              	test_sensor:
 120              	.LFB65:
  29:application/main.c **** 
  30:application/main.c **** void test_sensor(void) {
 121              		.loc 1 30 0
 122              		.cfi_startproc
 123              		@ args = 0, pretend = 0, frame = 64
 124              		@ frame_needed = 1, uses_anonymous_args = 0
 125 0000 90B5     		push	{r4, r7, lr}
 126              		.cfi_def_cfa_offset 12
 127              		.cfi_offset 4, -12
 128              		.cfi_offset 7, -8
 129              		.cfi_offset 14, -4
 130 0002 91B0     		sub	sp, sp, #68
 131              		.cfi_def_cfa_offset 80
 132 0004 00AF     		add	r7, sp, #0
 133              		.cfi_def_cfa_register 7
  31:application/main.c ****         rhea_sensor_SetMeasurementPeriod("BME280", "temperature", 250);
 134              		.loc 1 31 0
 135 0006 4FF0FA02 		mov	r2, #250
 136 000a 4FF00003 		mov	r3, #0
 137 000e 3749     		ldr	r1, .L5
 138 0010 3748     		ldr	r0, .L5+4
 139 0012 FFF7FEFF 		bl	rhea_sensor_SetMeasurementPeriod
  32:application/main.c ****         rhea_sensor_SetMeasurementPeriod("BME280", "pressure", 250);
 140              		.loc 1 32 0
 141 0016 4FF0FA02 		mov	r2, #250
 142 001a 4FF00003 		mov	r3, #0
 143 001e 3549     		ldr	r1, .L5+8
 144 0020 3348     		ldr	r0, .L5+4
 145 0022 FFF7FEFF 		bl	rhea_sensor_SetMeasurementPeriod
  33:application/main.c ****         rhea_sensor_SetMeasurementPeriod("BME280", "humidity", 250);
 146              		.loc 1 33 0
 147 0026 4FF0FA02 		mov	r2, #250
 148 002a 4FF00003 		mov	r3, #0
 149 002e 3249     		ldr	r1, .L5+12
 150 0030 2F48     		ldr	r0, .L5+4
 151 0032 FFF7FEFF 		bl	rhea_sensor_SetMeasurementPeriod
  34:application/main.c ****         
  35:application/main.c ****         CyDelay(250);
 152              		.loc 1 35 0
 153 0036 FA20     		movs	r0, #250
 154 0038 FFF7FEFF 		bl	CyDelay
  36:application/main.c **** 
  37:application/main.c ****         int temperatureInt = (int) rhea_sensor_GetMeasurement("BME280", "temperature");;
 155              		.loc 1 37 0
 156 003c 2B49     		ldr	r1, .L5
 157 003e 2C48     		ldr	r0, .L5+4
 158 0040 FFF7FEFF 		bl	rhea_sensor_GetMeasurement
 159 0044 0346     		mov	r3, r0
 160 0046 0C46     		mov	r4, r1
 161 0048 1846     		mov	r0, r3
 162 004a 2146     		mov	r1, r4
 163 004c FFF7FEFF 		bl	__aeabi_d2iz
 164 0050 0346     		mov	r3, r0
 165 0052 FB63     		str	r3, [r7, #60]
ARM GAS  C:\Users\GYULAI~1\AppData\Local\Temp\ccXaVm7p.s 			page 5


  38:application/main.c ****         int pressureInt = (int) rhea_sensor_GetMeasurement("BME280", "pressure");
 166              		.loc 1 38 0
 167 0054 2749     		ldr	r1, .L5+8
 168 0056 2648     		ldr	r0, .L5+4
 169 0058 FFF7FEFF 		bl	rhea_sensor_GetMeasurement
 170 005c 0346     		mov	r3, r0
 171 005e 0C46     		mov	r4, r1
 172 0060 1846     		mov	r0, r3
 173 0062 2146     		mov	r1, r4
 174 0064 FFF7FEFF 		bl	__aeabi_d2iz
 175 0068 0346     		mov	r3, r0
 176 006a BB63     		str	r3, [r7, #56]
  39:application/main.c ****         int humidityInt = (int) rhea_sensor_GetMeasurement("BME280", "humidity");
 177              		.loc 1 39 0
 178 006c 2249     		ldr	r1, .L5+12
 179 006e 2048     		ldr	r0, .L5+4
 180 0070 FFF7FEFF 		bl	rhea_sensor_GetMeasurement
 181 0074 0346     		mov	r3, r0
 182 0076 0C46     		mov	r4, r1
 183 0078 1846     		mov	r0, r3
 184 007a 2146     		mov	r1, r4
 185 007c FFF7FEFF 		bl	__aeabi_d2iz
 186 0080 0346     		mov	r3, r0
 187 0082 7B63     		str	r3, [r7, #52]
  40:application/main.c ****         
  41:application/main.c ****         char buffer[50];
  42:application/main.c ****         sprintf(buffer, "T: %d ", temperatureInt);
 188              		.loc 1 42 0
 189 0084 3B46     		mov	r3, r7
 190 0086 FA6B     		ldr	r2, [r7, #60]
 191 0088 1C49     		ldr	r1, .L5+16
 192 008a 1846     		mov	r0, r3
 193 008c FFF7FEFF 		bl	sprintf
  43:application/main.c ****         rhea_gfx_SetCursor(0,0);
 194              		.loc 1 43 0
 195 0090 0021     		movs	r1, #0
 196 0092 0020     		movs	r0, #0
 197 0094 FFF7FEFF 		bl	rhea_gfx_SetCursor
  44:application/main.c ****         rhea_gfx_Print(buffer); rhea_gfx_PrintSymbol(95); rhea_gfx_Print("\n");
 198              		.loc 1 44 0
 199 0098 3B46     		mov	r3, r7
 200 009a 1846     		mov	r0, r3
 201 009c FFF7FEFF 		bl	rhea_gfx_Print
 202 00a0 5F20     		movs	r0, #95
 203 00a2 FFF7FEFF 		bl	rhea_gfx_PrintSymbol
 204 00a6 1648     		ldr	r0, .L5+20
 205 00a8 FFF7FEFF 		bl	rhea_gfx_Print
  45:application/main.c ****         
  46:application/main.c ****         sprintf(buffer, "P: %d ", pressureInt); 
 206              		.loc 1 46 0
 207 00ac 3B46     		mov	r3, r7
 208 00ae BA6B     		ldr	r2, [r7, #56]
 209 00b0 1449     		ldr	r1, .L5+24
 210 00b2 1846     		mov	r0, r3
 211 00b4 FFF7FEFF 		bl	sprintf
  47:application/main.c ****         rhea_gfx_Print(buffer); rhea_gfx_PrintSymbol(98); rhea_gfx_Print("\n");
 212              		.loc 1 47 0
ARM GAS  C:\Users\GYULAI~1\AppData\Local\Temp\ccXaVm7p.s 			page 6


 213 00b8 3B46     		mov	r3, r7
 214 00ba 1846     		mov	r0, r3
 215 00bc FFF7FEFF 		bl	rhea_gfx_Print
 216 00c0 6220     		movs	r0, #98
 217 00c2 FFF7FEFF 		bl	rhea_gfx_PrintSymbol
 218 00c6 0E48     		ldr	r0, .L5+20
 219 00c8 FFF7FEFF 		bl	rhea_gfx_Print
  48:application/main.c ****         
  49:application/main.c ****         sprintf(buffer, "H: %d %%\n", humidityInt);
 220              		.loc 1 49 0
 221 00cc 3B46     		mov	r3, r7
 222 00ce 7A6B     		ldr	r2, [r7, #52]
 223 00d0 0D49     		ldr	r1, .L5+28
 224 00d2 1846     		mov	r0, r3
 225 00d4 FFF7FEFF 		bl	sprintf
  50:application/main.c ****         rhea_gfx_Print(buffer);
 226              		.loc 1 50 0
 227 00d8 3B46     		mov	r3, r7
 228 00da 1846     		mov	r0, r3
 229 00dc FFF7FEFF 		bl	rhea_gfx_Print
  51:application/main.c ****         
  52:application/main.c ****         rhea_gfx_Refresh();
 230              		.loc 1 52 0
 231 00e0 FFF7FEFF 		bl	rhea_gfx_Refresh
  53:application/main.c **** }
 232              		.loc 1 53 0
 233 00e4 00BF     		nop
 234 00e6 4437     		adds	r7, r7, #68
 235              		.cfi_def_cfa_offset 12
 236 00e8 BD46     		mov	sp, r7
 237              		.cfi_def_cfa_register 13
 238              		@ sp needed
 239 00ea 90BD     		pop	{r4, r7, pc}
 240              	.L6:
 241              		.align	2
 242              	.L5:
 243 00ec 54000000 		.word	.LC1
 244 00f0 60000000 		.word	.LC2
 245 00f4 68000000 		.word	.LC3
 246 00f8 74000000 		.word	.LC4
 247 00fc 80000000 		.word	.LC5
 248 0100 88000000 		.word	.LC6
 249 0104 8C000000 		.word	.LC7
 250 0108 94000000 		.word	.LC8
 251              		.cfi_endproc
 252              	.LFE65:
 253              		.size	test_sensor, .-test_sensor
 254              		.section	.text.main,"ax",%progbits
 255              		.align	2
 256              		.global	main
 257              		.thumb
 258              		.thumb_func
 259              		.type	main, %function
 260              	main:
 261              	.LFB66:
  54:application/main.c **** 
  55:application/main.c **** int main(void)
ARM GAS  C:\Users\GYULAI~1\AppData\Local\Temp\ccXaVm7p.s 			page 7


  56:application/main.c **** { 
 262              		.loc 1 56 0
 263              		.cfi_startproc
 264              		@ args = 0, pretend = 0, frame = 0
 265              		@ frame_needed = 1, uses_anonymous_args = 0
 266 0000 80B5     		push	{r7, lr}
 267              		.cfi_def_cfa_offset 8
 268              		.cfi_offset 7, -8
 269              		.cfi_offset 14, -4
 270 0002 00AF     		add	r7, sp, #0
 271              		.cfi_def_cfa_register 7
  57:application/main.c ****     // Enabling global interrupts
  58:application/main.c ****     CyGlobalIntEnable;
 272              		.loc 1 58 0
 273              		.syntax unified
 274              	@ 58 "application\main.c" 1
 275 0004 62B6     		CPSIE   i
 276              	@ 0 "" 2
  59:application/main.c ****     
  60:application/main.c ****     // Initializing Rhea libraries
  61:application/main.c ****     rhea_i2c_Initialize();
 277              		.loc 1 61 0
 278              		.thumb
 279              		.syntax unified
 280 0006 FFF7FEFF 		bl	rhea_i2c_Initialize
  62:application/main.c ****     rhea_gfx_Initialize();
 281              		.loc 1 62 0
 282 000a FFF7FEFF 		bl	rhea_gfx_Initialize
  63:application/main.c ****     //rhea_rtc_Initialize();
  64:application/main.c ****     rhea_uart_Initialize();
 283              		.loc 1 64 0
 284 000e FFF7FEFF 		bl	rhea_uart_Initialize
  65:application/main.c ****     rhea_sensor_Initialize();
 285              		.loc 1 65 0
 286 0012 FFF7FEFF 		bl	rhea_sensor_Initialize
  66:application/main.c **** 
  67:application/main.c ****     // Initializing application
  68:application/main.c ****     InitializeInputButtonInterrupts();
 287              		.loc 1 68 0
 288 0016 FFF7FEFF 		bl	InitializeInputButtonInterrupts
  69:application/main.c ****     //InitializeSerialCommandLine();
  70:application/main.c ****     InitializeMainMenu();
 289              		.loc 1 70 0
 290 001a FFF7FEFF 		bl	InitializeMainMenu
 291              	.L8:
  71:application/main.c ****         
  72:application/main.c ****     // Executing application logic
  73:application/main.c ****     for(;;)
  74:application/main.c ****     {     
  75:application/main.c ****         //test_sensor();
  76:application/main.c ****         
  77:application/main.c ****         //rhea_gfx_Clear();
  78:application/main.c ****         //rhea_gfx_SetCursor(0,0);
  79:application/main.c ****         //rhea_gfx_Print("RIGHT:"); rhea_gfx_Print(BTN_RIGHT_Read() ? "ON\n" : "OFF\n");
  80:application/main.c ****         //rhea_gfx_Print("LEFT:"); rhea_gfx_Print(BTN_LEFT_Read() ? "ON\n" : "OFF\n");
  81:application/main.c ****         //rhea_gfx_Print("ENTER:"); rhea_gfx_Print(BTN_ENTER_Read() ? "ON\n" : "OFF\n");
  82:application/main.c ****         //rhea_gfx_Refresh();
ARM GAS  C:\Users\GYULAI~1\AppData\Local\Temp\ccXaVm7p.s 			page 8


  83:application/main.c ****         
  84:application/main.c ****         // Handling UART command line 
  85:application/main.c ****         //ProcessCommandLine();
  86:application/main.c ****         
  87:application/main.c ****         // Handling RTC alarms
  88:application/main.c ****         // rhea_rtc_HandleAlarms();
  89:application/main.c ****         
  90:application/main.c ****         // Processing user input 
  91:application/main.c ****         StepMainMenuStateMachine(&button_enter_pressed, 
 292              		.loc 1 91 0 discriminator 1
 293 001e 034A     		ldr	r2, .L9
 294 0020 0349     		ldr	r1, .L9+4
 295 0022 0448     		ldr	r0, .L9+8
 296 0024 FFF7FEFF 		bl	StepMainMenuStateMachine
  92:application/main.c ****                                  &button_right_pressed, 
  93:application/main.c ****                                  &button_left_pressed);
  94:application/main.c ****     }
 297              		.loc 1 94 0 discriminator 1
 298 0028 F9E7     		b	.L8
 299              	.L10:
 300 002a 00BF     		.align	2
 301              	.L9:
 302 002c 00000000 		.word	button_left_pressed
 303 0030 00000000 		.word	button_right_pressed
 304 0034 00000000 		.word	button_enter_pressed
 305              		.cfi_endproc
 306              	.LFE66:
 307              		.size	main, .-main
 308              		.text
 309              	.Letext0:
 310              		.file 2 "e:\\cypress\\psoc creator\\4.2\\psoc creator\\import\\gnu\\arm\\5.4.1\\arm-none-eabi\\inc
 311              		.file 3 "e:\\cypress\\psoc creator\\4.2\\psoc creator\\import\\gnu\\arm\\5.4.1\\arm-none-eabi\\inc
 312              		.file 4 "./rhea/rtc/datetime/datetime.h"
 313              		.file 5 "Generated_Source\\PSoC5/core_cm3.h"
 314              		.file 6 "application\\input/input.h"