ARM GAS  C:\Users\GYULAI~1\AppData\Local\Temp\ccG7iLma.s 			page 1


   1              		.syntax unified
   2              		.cpu cortex-m3
   3              		.fpu softvfp
   4              		.eabi_attribute 20, 1
   5              		.eabi_attribute 21, 1
   6              		.eabi_attribute 23, 3
   7              		.eabi_attribute 24, 1
   8              		.eabi_attribute 25, 1
   9              		.eabi_attribute 26, 1
  10              		.eabi_attribute 30, 1
  11              		.eabi_attribute 34, 1
  12              		.eabi_attribute 18, 4
  13              		.thumb
  14              		.syntax unified
  15              		.file	"MCP7940N.c"
  16              		.text
  17              	.Ltext0:
  18              		.cfi_sections	.debug_frame
  19              		.section	.text.MCP7940N_I2CReader,"ax",%progbits
  20              		.align	2
  21              		.global	MCP7940N_I2CReader
  22              		.thumb
  23              		.thumb_func
  24              		.type	MCP7940N_I2CReader, %function
  25              	MCP7940N_I2CReader:
  26              	.LFB0:
  27              		.file 1 "rhea\\drivers\\MCP7940N\\MCP7940N.c"
   1:rhea\drivers\MCP7940N/MCP7940N.c **** /*********************************************************************************
   2:rhea\drivers\MCP7940N/MCP7940N.c ****  * Copyright (c) 2020 Peter Gyulai
   3:rhea\drivers\MCP7940N/MCP7940N.c ****  *
   4:rhea\drivers\MCP7940N/MCP7940N.c ****  * Permission is hereby granted, free of charge, to any person obtaining a copy
   5:rhea\drivers\MCP7940N/MCP7940N.c ****  * of this software and associated documentation files (the "Software"), to deal
   6:rhea\drivers\MCP7940N/MCP7940N.c ****  * in the Software without restriction, including without limitation the rights
   7:rhea\drivers\MCP7940N/MCP7940N.c ****  * to use, copy, modify, merge, publish, distribute, sublicense, and/or sell
   8:rhea\drivers\MCP7940N/MCP7940N.c ****  * copies of the Software, and to permit persons to whom the Software is
   9:rhea\drivers\MCP7940N/MCP7940N.c ****  * furnished to do so, subject to the following conditions:
  10:rhea\drivers\MCP7940N/MCP7940N.c ****  *
  11:rhea\drivers\MCP7940N/MCP7940N.c ****  * The above copyright notice and this permission notice shall be included in all
  12:rhea\drivers\MCP7940N/MCP7940N.c ****  * copies or substantial portions of the Software.
  13:rhea\drivers\MCP7940N/MCP7940N.c ****  *
  14:rhea\drivers\MCP7940N/MCP7940N.c ****  * THE SOFTWARE IS PROVIDED "AS IS", WITHOUT WARRANTY OF ANY KIND,
  15:rhea\drivers\MCP7940N/MCP7940N.c ****  * EXPRESS OR IMPLIED, INCLUDING BUT NOT LIMITED TO THE WARRANTIES OF
  16:rhea\drivers\MCP7940N/MCP7940N.c ****  * MERCHANTABILITY, FITNESS FOR A PARTICULAR PURPOSE AND NONINFRINGEMENT.
  17:rhea\drivers\MCP7940N/MCP7940N.c ****  * IN NO EVENT SHALL THE AUTHORS OR COPYRIGHT HOLDERS BE LIABLE FOR ANY CLAIM,
  18:rhea\drivers\MCP7940N/MCP7940N.c ****  * DAMAGES OR OTHER LIABILITY, WHETHER IN AN ACTION OF CONTRACT, TORT OR
  19:rhea\drivers\MCP7940N/MCP7940N.c ****  * OTHERWISE, ARISING FROM, OUT OF OR IN CONNECTION WITH THE SOFTWARE OR THE USE
  20:rhea\drivers\MCP7940N/MCP7940N.c ****  * OR OTHER DEALINGS IN THE SOFTWARE.
  21:rhea\drivers\MCP7940N/MCP7940N.c **** **********************************************************************************/
  22:rhea\drivers\MCP7940N/MCP7940N.c **** 
  23:rhea\drivers\MCP7940N/MCP7940N.c **** /**
  24:rhea\drivers\MCP7940N/MCP7940N.c ****  * @file    MCP7940N.c
  25:rhea\drivers\MCP7940N/MCP7940N.c ****  * @author  Peter Gyulai
  26:rhea\drivers\MCP7940N/MCP7940N.c ****  * @version 1.1.1
  27:rhea\drivers\MCP7940N/MCP7940N.c ****  * @date    2020.04.16
  28:rhea\drivers\MCP7940N/MCP7940N.c ****  * @brief   Library implementation.
  29:rhea\drivers\MCP7940N/MCP7940N.c ****  * @details
  30:rhea\drivers\MCP7940N/MCP7940N.c ****  * This file contains the function definitions and static variable definitions used
ARM GAS  C:\Users\GYULAI~1\AppData\Local\Temp\ccG7iLma.s 			page 2


  31:rhea\drivers\MCP7940N/MCP7940N.c ****  * by the MCP7940N driver library.
  32:rhea\drivers\MCP7940N/MCP7940N.c ****  */
  33:rhea\drivers\MCP7940N/MCP7940N.c **** 
  34:rhea\drivers\MCP7940N/MCP7940N.c **** // Doxygen documentation duplication suppression
  35:rhea\drivers\MCP7940N/MCP7940N.c **** #ifndef DOXYGEN_SHOULD_SKIP_THIS
  36:rhea\drivers\MCP7940N/MCP7940N.c **** 
  37:rhea\drivers\MCP7940N/MCP7940N.c **** // Standard includes
  38:rhea\drivers\MCP7940N/MCP7940N.c **** #include <stdlib.h>
  39:rhea\drivers\MCP7940N/MCP7940N.c **** 
  40:rhea\drivers\MCP7940N/MCP7940N.c **** // Project includes
  41:rhea\drivers\MCP7940N/MCP7940N.c **** #include "MCP7940N.h"
  42:rhea\drivers\MCP7940N/MCP7940N.c **** 
  43:rhea\drivers\MCP7940N/MCP7940N.c **** 
  44:rhea\drivers\MCP7940N/MCP7940N.c **** // Static instance holding a local copy of the MCP7940N's registers
  45:rhea\drivers\MCP7940N/MCP7940N.c **** static MCP7940N_RegisterStruct MCP7940N_RegistersLocal;
  46:rhea\drivers\MCP7940N/MCP7940N.c **** 
  47:rhea\drivers\MCP7940N/MCP7940N.c **** // Structure holding function pointers to I2C handlers
  48:rhea\drivers\MCP7940N/MCP7940N.c **** static MCP7940N_I2CControllerStruct MCP7940N_I2CController;
  49:rhea\drivers\MCP7940N/MCP7940N.c **** 
  50:rhea\drivers\MCP7940N/MCP7940N.c **** void MCP7940N_I2CReader(uint8_t address, uint8_t deviceAddress, unsigned char * buffer, uint8_t byt
  28              		.loc 1 50 0
  29              		.cfi_startproc
  30              		@ args = 0, pretend = 0, frame = 0
  31              		@ frame_needed = 0, uses_anonymous_args = 0
  32              	.LVL0:
  33 0000 2DE9F041 		push	{r4, r5, r6, r7, r8, lr}
  34              		.cfi_def_cfa_offset 24
  35              		.cfi_offset 4, -24
  36              		.cfi_offset 5, -20
  37              		.cfi_offset 6, -16
  38              		.cfi_offset 7, -12
  39              		.cfi_offset 8, -8
  40              		.cfi_offset 14, -4
  41 0004 0746     		mov	r7, r0
  42 0006 8846     		mov	r8, r1
  43 0008 1646     		mov	r6, r2
  44 000a 1D46     		mov	r5, r3
  51:rhea\drivers\MCP7940N/MCP7940N.c ****     
  52:rhea\drivers\MCP7940N/MCP7940N.c ****     // Selecting the device for write
  53:rhea\drivers\MCP7940N/MCP7940N.c ****     MCP7940N_I2CController.MasterSendStart(address, 0);
  45              		.loc 1 53 0
  46 000c 0F4C     		ldr	r4, .L5
  47 000e 2368     		ldr	r3, [r4]
  48              	.LVL1:
  49 0010 0021     		movs	r1, #0
  50              	.LVL2:
  51 0012 9847     		blx	r3
  52              	.LVL3:
  54:rhea\drivers\MCP7940N/MCP7940N.c ****     
  55:rhea\drivers\MCP7940N/MCP7940N.c ****     // Writing first device address to read
  56:rhea\drivers\MCP7940N/MCP7940N.c ****     MCP7940N_I2CController.MasterWriteByte(deviceAddress);
  53              		.loc 1 56 0
  54 0014 A368     		ldr	r3, [r4, #8]
  55 0016 4046     		mov	r0, r8
  56 0018 9847     		blx	r3
  57              	.LVL4:
  57:rhea\drivers\MCP7940N/MCP7940N.c ****     
ARM GAS  C:\Users\GYULAI~1\AppData\Local\Temp\ccG7iLma.s 			page 3


  58:rhea\drivers\MCP7940N/MCP7940N.c ****     // Selecting the device for read
  59:rhea\drivers\MCP7940N/MCP7940N.c ****     MCP7940N_I2CController.MasterSendStart(address, 1);
  58              		.loc 1 59 0
  59 001a 2368     		ldr	r3, [r4]
  60 001c 0121     		movs	r1, #1
  61 001e 3846     		mov	r0, r7
  62 0020 9847     		blx	r3
  63              	.LVL5:
  64              	.LBB2:
  60:rhea\drivers\MCP7940N/MCP7940N.c ****     
  61:rhea\drivers\MCP7940N/MCP7940N.c ****     // Reading bytes from the device
  62:rhea\drivers\MCP7940N/MCP7940N.c ****     for(uint8_t i = 0; i < byteCount; i++) {
  65              		.loc 1 62 0
  66 0022 0024     		movs	r4, #0
  67 0024 0AE0     		b	.L2
  68              	.LVL6:
  69              	.L3:
  63:rhea\drivers\MCP7940N/MCP7940N.c ****         buffer[i] = MCP7940N_I2CController.MasterReadByte(i < byteCount - 1 ? 1 : 0);   
  70              		.loc 1 63 0 discriminator 3
  71 0026 094B     		ldr	r3, .L5
  72 0028 DB68     		ldr	r3, [r3, #12]
  73 002a 681E     		subs	r0, r5, #1
  74 002c 8442     		cmp	r4, r0
  75 002e ACBF     		ite	ge
  76 0030 0020     		movge	r0, #0
  77 0032 0120     		movlt	r0, #1
  78 0034 9847     		blx	r3
  79              	.LVL7:
  80 0036 3055     		strb	r0, [r6, r4]
  62:rhea\drivers\MCP7940N/MCP7940N.c ****         buffer[i] = MCP7940N_I2CController.MasterReadByte(i < byteCount - 1 ? 1 : 0);   
  81              		.loc 1 62 0 discriminator 3
  82 0038 0134     		adds	r4, r4, #1
  83              	.LVL8:
  84 003a E4B2     		uxtb	r4, r4
  85              	.LVL9:
  86              	.L2:
  62:rhea\drivers\MCP7940N/MCP7940N.c ****         buffer[i] = MCP7940N_I2CController.MasterReadByte(i < byteCount - 1 ? 1 : 0);   
  87              		.loc 1 62 0 is_stmt 0 discriminator 1
  88 003c AC42     		cmp	r4, r5
  89 003e F2D3     		bcc	.L3
  90              	.LBE2:
  64:rhea\drivers\MCP7940N/MCP7940N.c ****     }
  65:rhea\drivers\MCP7940N/MCP7940N.c ****     
  66:rhea\drivers\MCP7940N/MCP7940N.c ****     // Sending STOP 
  67:rhea\drivers\MCP7940N/MCP7940N.c ****     MCP7940N_I2CController.MasterSendStop();
  91              		.loc 1 67 0 is_stmt 1
  92 0040 024B     		ldr	r3, .L5
  93 0042 5B68     		ldr	r3, [r3, #4]
  94 0044 9847     		blx	r3
  95              	.LVL10:
  96 0046 BDE8F081 		pop	{r4, r5, r6, r7, r8, pc}
  97              	.LVL11:
  98              	.L6:
  99 004a 00BF     		.align	2
 100              	.L5:
 101 004c 00000000 		.word	.LANCHOR0
 102              		.cfi_endproc
ARM GAS  C:\Users\GYULAI~1\AppData\Local\Temp\ccG7iLma.s 			page 4


 103              	.LFE0:
 104              		.size	MCP7940N_I2CReader, .-MCP7940N_I2CReader
 105              		.section	.text.MCP7940N_I2CWriter,"ax",%progbits
 106              		.align	2
 107              		.global	MCP7940N_I2CWriter
 108              		.thumb
 109              		.thumb_func
 110              		.type	MCP7940N_I2CWriter, %function
 111              	MCP7940N_I2CWriter:
 112              	.LFB1:
  68:rhea\drivers\MCP7940N/MCP7940N.c **** }
  69:rhea\drivers\MCP7940N/MCP7940N.c **** 
  70:rhea\drivers\MCP7940N/MCP7940N.c **** void MCP7940N_I2CWriter(uint8_t address, uint8_t deviceAddress, const unsigned char * buffer, uint8
 113              		.loc 1 70 0
 114              		.cfi_startproc
 115              		@ args = 0, pretend = 0, frame = 0
 116              		@ frame_needed = 0, uses_anonymous_args = 0
 117              	.LVL12:
 118 0000 F8B5     		push	{r3, r4, r5, r6, r7, lr}
 119              		.cfi_def_cfa_offset 24
 120              		.cfi_offset 3, -24
 121              		.cfi_offset 4, -20
 122              		.cfi_offset 5, -16
 123              		.cfi_offset 6, -12
 124              		.cfi_offset 7, -8
 125              		.cfi_offset 14, -4
 126 0002 0F46     		mov	r7, r1
 127 0004 1646     		mov	r6, r2
 128 0006 1D46     		mov	r5, r3
  71:rhea\drivers\MCP7940N/MCP7940N.c ****     
  72:rhea\drivers\MCP7940N/MCP7940N.c ****     // Selecting the device for write
  73:rhea\drivers\MCP7940N/MCP7940N.c ****     MCP7940N_I2CController.MasterSendStart(address, 0);
 129              		.loc 1 73 0
 130 0008 0A4C     		ldr	r4, .L11
 131 000a 2368     		ldr	r3, [r4]
 132              	.LVL13:
 133 000c 0021     		movs	r1, #0
 134              	.LVL14:
 135 000e 9847     		blx	r3
 136              	.LVL15:
  74:rhea\drivers\MCP7940N/MCP7940N.c ****     
  75:rhea\drivers\MCP7940N/MCP7940N.c ****     // Writing first device address to read
  76:rhea\drivers\MCP7940N/MCP7940N.c ****     MCP7940N_I2CController.MasterWriteByte(deviceAddress);
 137              		.loc 1 76 0
 138 0010 A368     		ldr	r3, [r4, #8]
 139 0012 3846     		mov	r0, r7
 140 0014 9847     		blx	r3
 141              	.LVL16:
 142              	.LBB3:
  77:rhea\drivers\MCP7940N/MCP7940N.c ****     
  78:rhea\drivers\MCP7940N/MCP7940N.c ****     // Writing bytes to the device
  79:rhea\drivers\MCP7940N/MCP7940N.c ****     for(uint8_t i = 0; i < byteCount; i++) {
 143              		.loc 1 79 0
 144 0016 0024     		movs	r4, #0
 145 0018 05E0     		b	.L8
 146              	.LVL17:
 147              	.L9:
ARM GAS  C:\Users\GYULAI~1\AppData\Local\Temp\ccG7iLma.s 			page 5


  80:rhea\drivers\MCP7940N/MCP7940N.c ****                 
  81:rhea\drivers\MCP7940N/MCP7940N.c ****         // Sending byte to write
  82:rhea\drivers\MCP7940N/MCP7940N.c ****         MCP7940N_I2CController.MasterWriteByte(buffer[i]);
 148              		.loc 1 82 0 discriminator 3
 149 001a 064B     		ldr	r3, .L11
 150 001c 9B68     		ldr	r3, [r3, #8]
 151 001e 305D     		ldrb	r0, [r6, r4]	@ zero_extendqisi2
 152 0020 9847     		blx	r3
 153              	.LVL18:
  79:rhea\drivers\MCP7940N/MCP7940N.c ****                 
 154              		.loc 1 79 0 discriminator 3
 155 0022 0134     		adds	r4, r4, #1
 156              	.LVL19:
 157 0024 E4B2     		uxtb	r4, r4
 158              	.LVL20:
 159              	.L8:
  79:rhea\drivers\MCP7940N/MCP7940N.c ****                 
 160              		.loc 1 79 0 is_stmt 0 discriminator 1
 161 0026 AC42     		cmp	r4, r5
 162 0028 F7D3     		bcc	.L9
 163              	.LBE3:
  83:rhea\drivers\MCP7940N/MCP7940N.c ****     }
  84:rhea\drivers\MCP7940N/MCP7940N.c ****     
  85:rhea\drivers\MCP7940N/MCP7940N.c ****     // Sending STOP 
  86:rhea\drivers\MCP7940N/MCP7940N.c ****     MCP7940N_I2CController.MasterSendStop();
 164              		.loc 1 86 0 is_stmt 1
 165 002a 024B     		ldr	r3, .L11
 166 002c 5B68     		ldr	r3, [r3, #4]
 167 002e 9847     		blx	r3
 168              	.LVL21:
 169 0030 F8BD     		pop	{r3, r4, r5, r6, r7, pc}
 170              	.LVL22:
 171              	.L12:
 172 0032 00BF     		.align	2
 173              	.L11:
 174 0034 00000000 		.word	.LANCHOR0
 175              		.cfi_endproc
 176              	.LFE1:
 177              		.size	MCP7940N_I2CWriter, .-MCP7940N_I2CWriter
 178              		.section	.text.MCP7940N_SetI2CController,"ax",%progbits
 179              		.align	2
 180              		.global	MCP7940N_SetI2CController
 181              		.thumb
 182              		.thumb_func
 183              		.type	MCP7940N_SetI2CController, %function
 184              	MCP7940N_SetI2CController:
 185              	.LFB2:
  87:rhea\drivers\MCP7940N/MCP7940N.c **** }
  88:rhea\drivers\MCP7940N/MCP7940N.c **** 
  89:rhea\drivers\MCP7940N/MCP7940N.c **** void MCP7940N_SetI2CController(MCP7940N_I2CControllerStruct controller) {
 186              		.loc 1 89 0
 187              		.cfi_startproc
 188              		@ args = 0, pretend = 0, frame = 16
 189              		@ frame_needed = 0, uses_anonymous_args = 0
 190              		@ link register save eliminated.
 191 0000 30B4     		push	{r4, r5}
 192              		.cfi_def_cfa_offset 8
ARM GAS  C:\Users\GYULAI~1\AppData\Local\Temp\ccG7iLma.s 			page 6


 193              		.cfi_offset 4, -8
 194              		.cfi_offset 5, -4
 195 0002 84B0     		sub	sp, sp, #16
 196              		.cfi_def_cfa_offset 24
 197 0004 8DE80F00 		stmia	sp, {r0, r1, r2, r3}
  90:rhea\drivers\MCP7940N/MCP7940N.c ****     MCP7940N_I2CController = controller;
 198              		.loc 1 90 0
 199 0008 034D     		ldr	r5, .L15
 200 000a 9DE80F00 		ldmia	sp, {r0, r1, r2, r3}
 201 000e 85E80F00 		stmia	r5, {r0, r1, r2, r3}
  91:rhea\drivers\MCP7940N/MCP7940N.c **** }
 202              		.loc 1 91 0
 203 0012 04B0     		add	sp, sp, #16
 204              		.cfi_def_cfa_offset 8
 205              		@ sp needed
 206 0014 30BC     		pop	{r4, r5}
 207              		.cfi_restore 5
 208              		.cfi_restore 4
 209              		.cfi_def_cfa_offset 0
 210 0016 7047     		bx	lr
 211              	.L16:
 212              		.align	2
 213              	.L15:
 214 0018 00000000 		.word	.LANCHOR0
 215              		.cfi_endproc
 216              	.LFE2:
 217              		.size	MCP7940N_SetI2CController, .-MCP7940N_SetI2CController
 218              		.section	.text.MCP7940N_ReadRegisters,"ax",%progbits
 219              		.align	2
 220              		.global	MCP7940N_ReadRegisters
 221              		.thumb
 222              		.thumb_func
 223              		.type	MCP7940N_ReadRegisters, %function
 224              	MCP7940N_ReadRegisters:
 225              	.LFB3:
  92:rhea\drivers\MCP7940N/MCP7940N.c **** 
  93:rhea\drivers\MCP7940N/MCP7940N.c **** void MCP7940N_ReadRegisters(void) {
 226              		.loc 1 93 0
 227              		.cfi_startproc
 228              		@ args = 0, pretend = 0, frame = 0
 229              		@ frame_needed = 0, uses_anonymous_args = 0
 230 0000 08B5     		push	{r3, lr}
 231              		.cfi_def_cfa_offset 8
 232              		.cfi_offset 3, -8
 233              		.cfi_offset 14, -4
  94:rhea\drivers\MCP7940N/MCP7940N.c **** 
  95:rhea\drivers\MCP7940N/MCP7940N.c ****     // Reading all registers from the MCP7940N to the local copy
  96:rhea\drivers\MCP7940N/MCP7940N.c ****     MCP7940N_I2CReader(MCP7940N_I2C_ADDR, MCP7940N_REGISTERS_START, (uint8_t*) &MCP7940N_RegistersL
 234              		.loc 1 96 0
 235 0002 2023     		movs	r3, #32
 236 0004 024A     		ldr	r2, .L19
 237 0006 0021     		movs	r1, #0
 238 0008 DE20     		movs	r0, #222
 239 000a FFF7FEFF 		bl	MCP7940N_I2CReader
 240              	.LVL23:
 241 000e 08BD     		pop	{r3, pc}
 242              	.L20:
ARM GAS  C:\Users\GYULAI~1\AppData\Local\Temp\ccG7iLma.s 			page 7


 243              		.align	2
 244              	.L19:
 245 0010 10000000 		.word	.LANCHOR0+16
 246              		.cfi_endproc
 247              	.LFE3:
 248              		.size	MCP7940N_ReadRegisters, .-MCP7940N_ReadRegisters
 249              		.section	.text.MCP7940N_GetLocalRegisters,"ax",%progbits
 250              		.align	2
 251              		.global	MCP7940N_GetLocalRegisters
 252              		.thumb
 253              		.thumb_func
 254              		.type	MCP7940N_GetLocalRegisters, %function
 255              	MCP7940N_GetLocalRegisters:
 256              	.LFB5:
  97:rhea\drivers\MCP7940N/MCP7940N.c ****                        MCP7940N_REGISTER_COUNT);
  98:rhea\drivers\MCP7940N/MCP7940N.c **** }
  99:rhea\drivers\MCP7940N/MCP7940N.c **** 
 100:rhea\drivers\MCP7940N/MCP7940N.c **** void MCP7940N_WriteRegisters(void) {
 101:rhea\drivers\MCP7940N/MCP7940N.c ****     
 102:rhea\drivers\MCP7940N/MCP7940N.c ****     // Oscillator status
 103:rhea\drivers\MCP7940N/MCP7940N.c ****     uint8_t externalStatus = MCP7940N_IsExternalOscillatorEnabled(); 
 104:rhea\drivers\MCP7940N/MCP7940N.c ****     uint8_t internalStatus = MCP7940N_IsOscillatorEnabled();
 105:rhea\drivers\MCP7940N/MCP7940N.c ****         
 106:rhea\drivers\MCP7940N/MCP7940N.c ****     // Disabling oscillator
 107:rhea\drivers\MCP7940N/MCP7940N.c ****     if(externalStatus)      MCP7940N_DisableExternalOscillator();
 108:rhea\drivers\MCP7940N/MCP7940N.c ****     else if(internalStatus) MCP7940N_DisableOscillator();
 109:rhea\drivers\MCP7940N/MCP7940N.c ****     
 110:rhea\drivers\MCP7940N/MCP7940N.c ****     // Waiting for oscillator to stop
 111:rhea\drivers\MCP7940N/MCP7940N.c ****     while(MCP7940N_IsOscillatorRunning());
 112:rhea\drivers\MCP7940N/MCP7940N.c ****     
 113:rhea\drivers\MCP7940N/MCP7940N.c ****     // Updating all registers of the MCP7940N from the local copy
 114:rhea\drivers\MCP7940N/MCP7940N.c ****     MCP7940N_I2CWriter(MCP7940N_I2C_ADDR, MCP7940N_REGISTERS_START, (uint8_t*) &MCP7940N_RegistersL
 115:rhea\drivers\MCP7940N/MCP7940N.c ****                        MCP7940N_REGISTER_COUNT);
 116:rhea\drivers\MCP7940N/MCP7940N.c **** 
 117:rhea\drivers\MCP7940N/MCP7940N.c ****     // Enabling oscillator
 118:rhea\drivers\MCP7940N/MCP7940N.c ****     if(externalStatus)      MCP7940N_EnableExternalOscillator();
 119:rhea\drivers\MCP7940N/MCP7940N.c ****     else if(internalStatus) MCP7940N_EnableOscillator();
 120:rhea\drivers\MCP7940N/MCP7940N.c **** }
 121:rhea\drivers\MCP7940N/MCP7940N.c **** 
 122:rhea\drivers\MCP7940N/MCP7940N.c **** MCP7940N_RegisterStruct* MCP7940N_GetLocalRegisters(void) {
 257              		.loc 1 122 0
 258              		.cfi_startproc
 259              		@ args = 0, pretend = 0, frame = 0
 260              		@ frame_needed = 0, uses_anonymous_args = 0
 261              		@ link register save eliminated.
 123:rhea\drivers\MCP7940N/MCP7940N.c **** 
 124:rhea\drivers\MCP7940N/MCP7940N.c ****     // Returning address of the local copy
 125:rhea\drivers\MCP7940N/MCP7940N.c ****     return &MCP7940N_RegistersLocal;
 126:rhea\drivers\MCP7940N/MCP7940N.c **** }
 262              		.loc 1 126 0
 263 0000 0048     		ldr	r0, .L22
 264 0002 7047     		bx	lr
 265              	.L23:
 266              		.align	2
 267              	.L22:
 268 0004 10000000 		.word	.LANCHOR0+16
 269              		.cfi_endproc
ARM GAS  C:\Users\GYULAI~1\AppData\Local\Temp\ccG7iLma.s 			page 8


 270              	.LFE5:
 271              		.size	MCP7940N_GetLocalRegisters, .-MCP7940N_GetLocalRegisters
 272              		.section	.text.MCP7940N_GetSeconds,"ax",%progbits
 273              		.align	2
 274              		.global	MCP7940N_GetSeconds
 275              		.thumb
 276              		.thumb_func
 277              		.type	MCP7940N_GetSeconds, %function
 278              	MCP7940N_GetSeconds:
 279              	.LFB7:
 127:rhea\drivers\MCP7940N/MCP7940N.c **** 
 128:rhea\drivers\MCP7940N/MCP7940N.c **** MCP7940N_Datetime MCP7940N_GetDatetime(void) {
 129:rhea\drivers\MCP7940N/MCP7940N.c ****     
 130:rhea\drivers\MCP7940N/MCP7940N.c ****     // Reading timekeeping registers
 131:rhea\drivers\MCP7940N/MCP7940N.c ****     MCP7940N_I2CReader(MCP7940N_I2C_ADDR, MCP7940N_RTCSEC, (uint8_t*) &MCP7940N_RegistersLocal.RTCS
 132:rhea\drivers\MCP7940N/MCP7940N.c ****                        MCP7940N_RTCYEAR - MCP7940N_RTCSEC + 1);
 133:rhea\drivers\MCP7940N/MCP7940N.c ****     
 134:rhea\drivers\MCP7940N/MCP7940N.c ****     // Creating structure to store the datetime
 135:rhea\drivers\MCP7940N/MCP7940N.c ****     MCP7940N_Datetime result;
 136:rhea\drivers\MCP7940N/MCP7940N.c ****     
 137:rhea\drivers\MCP7940N/MCP7940N.c ****     // Populating datetime structure
 138:rhea\drivers\MCP7940N/MCP7940N.c ****     result.year = MCP7940N_GetYears();
 139:rhea\drivers\MCP7940N/MCP7940N.c ****     result.month = MCP7940N_GetMonths();
 140:rhea\drivers\MCP7940N/MCP7940N.c ****     result.date = MCP7940N_GetDate();
 141:rhea\drivers\MCP7940N/MCP7940N.c ****     result.weekday = MCP7940N_GetWeekday();
 142:rhea\drivers\MCP7940N/MCP7940N.c ****     result.hour = MCP7940N_GetHours();
 143:rhea\drivers\MCP7940N/MCP7940N.c ****     result.minute = MCP7940N_GetMinutes();
 144:rhea\drivers\MCP7940N/MCP7940N.c ****     result.second = MCP7940N_GetSeconds();
 145:rhea\drivers\MCP7940N/MCP7940N.c ****     
 146:rhea\drivers\MCP7940N/MCP7940N.c ****     return result;
 147:rhea\drivers\MCP7940N/MCP7940N.c **** }
 148:rhea\drivers\MCP7940N/MCP7940N.c **** 
 149:rhea\drivers\MCP7940N/MCP7940N.c **** uint8_t MCP7940N_GetSeconds(void) {
 280              		.loc 1 149 0
 281              		.cfi_startproc
 282              		@ args = 0, pretend = 0, frame = 0
 283              		@ frame_needed = 0, uses_anonymous_args = 0
 284              		@ link register save eliminated.
 150:rhea\drivers\MCP7940N/MCP7940N.c ****     
 151:rhea\drivers\MCP7940N/MCP7940N.c ****     // Reading RTCSEC register
 152:rhea\drivers\MCP7940N/MCP7940N.c ****     uint8_t registerValue = MCP7940N_RegistersLocal.RTCSEC;
 285              		.loc 1 152 0
 286 0000 054B     		ldr	r3, .L25
 287 0002 1B7C     		ldrb	r3, [r3, #16]	@ zero_extendqisi2
 288              	.LVL24:
 153:rhea\drivers\MCP7940N/MCP7940N.c ****     
 154:rhea\drivers\MCP7940N/MCP7940N.c ****     // Decoding BCD
 155:rhea\drivers\MCP7940N/MCP7940N.c ****     uint8_t ones = registerValue & MCP7940N_RTCSEC_SECONE;
 289              		.loc 1 155 0
 290 0004 03F00F00 		and	r0, r3, #15
 291              	.LVL25:
 156:rhea\drivers\MCP7940N/MCP7940N.c ****     uint8_t tens = registerValue & MCP7940N_RTCSEC_SECTEN;
 157:rhea\drivers\MCP7940N/MCP7940N.c ****     tens = tens >> 4;
 292              		.loc 1 157 0
 293 0008 C3F30213 		ubfx	r3, r3, #4, #3
 294              	.LVL26:
 158:rhea\drivers\MCP7940N/MCP7940N.c ****     
ARM GAS  C:\Users\GYULAI~1\AppData\Local\Temp\ccG7iLma.s 			page 9


 159:rhea\drivers\MCP7940N/MCP7940N.c ****     // Returning result
 160:rhea\drivers\MCP7940N/MCP7940N.c ****     return tens * 10 + ones;
 295              		.loc 1 160 0
 296 000c 03EB8303 		add	r3, r3, r3, lsl #2
 297              	.LVL27:
 298 0010 5A00     		lsls	r2, r3, #1
 299 0012 1044     		add	r0, r0, r2
 300              	.LVL28:
 161:rhea\drivers\MCP7940N/MCP7940N.c **** }
 301              		.loc 1 161 0
 302 0014 C0B2     		uxtb	r0, r0
 303 0016 7047     		bx	lr
 304              	.L26:
 305              		.align	2
 306              	.L25:
 307 0018 00000000 		.word	.LANCHOR0
 308              		.cfi_endproc
 309              	.LFE7:
 310              		.size	MCP7940N_GetSeconds, .-MCP7940N_GetSeconds
 311              		.section	.text.MCP7940N_GetMinutes,"ax",%progbits
 312              		.align	2
 313              		.global	MCP7940N_GetMinutes
 314              		.thumb
 315              		.thumb_func
 316              		.type	MCP7940N_GetMinutes, %function
 317              	MCP7940N_GetMinutes:
 318              	.LFB8:
 162:rhea\drivers\MCP7940N/MCP7940N.c **** 
 163:rhea\drivers\MCP7940N/MCP7940N.c **** uint8_t MCP7940N_GetMinutes(void) {
 319              		.loc 1 163 0
 320              		.cfi_startproc
 321              		@ args = 0, pretend = 0, frame = 0
 322              		@ frame_needed = 0, uses_anonymous_args = 0
 323              		@ link register save eliminated.
 164:rhea\drivers\MCP7940N/MCP7940N.c ****     
 165:rhea\drivers\MCP7940N/MCP7940N.c ****     // Reading RTCMIN register
 166:rhea\drivers\MCP7940N/MCP7940N.c ****     uint8_t registerValue = MCP7940N_RegistersLocal.RTCMIN;
 324              		.loc 1 166 0
 325 0000 054B     		ldr	r3, .L28
 326 0002 5B7C     		ldrb	r3, [r3, #17]	@ zero_extendqisi2
 327              	.LVL29:
 167:rhea\drivers\MCP7940N/MCP7940N.c ****     
 168:rhea\drivers\MCP7940N/MCP7940N.c ****     // Decoding BCD
 169:rhea\drivers\MCP7940N/MCP7940N.c ****     uint8_t ones = registerValue & MCP7940N_RTCMIN_MINONE;
 328              		.loc 1 169 0
 329 0004 03F00F00 		and	r0, r3, #15
 330              	.LVL30:
 170:rhea\drivers\MCP7940N/MCP7940N.c ****     uint8_t tens = registerValue & MCP7940N_RTCMIN_MINTEN;
 171:rhea\drivers\MCP7940N/MCP7940N.c ****     tens = tens >> 4;
 331              		.loc 1 171 0
 332 0008 C3F30213 		ubfx	r3, r3, #4, #3
 333              	.LVL31:
 172:rhea\drivers\MCP7940N/MCP7940N.c ****     
 173:rhea\drivers\MCP7940N/MCP7940N.c ****     // Returning result
 174:rhea\drivers\MCP7940N/MCP7940N.c ****     return tens * 10 + ones;
 334              		.loc 1 174 0
 335 000c 03EB8303 		add	r3, r3, r3, lsl #2
ARM GAS  C:\Users\GYULAI~1\AppData\Local\Temp\ccG7iLma.s 			page 10


 336              	.LVL32:
 337 0010 5A00     		lsls	r2, r3, #1
 338 0012 1044     		add	r0, r0, r2
 339              	.LVL33:
 175:rhea\drivers\MCP7940N/MCP7940N.c **** }
 340              		.loc 1 175 0
 341 0014 C0B2     		uxtb	r0, r0
 342 0016 7047     		bx	lr
 343              	.L29:
 344              		.align	2
 345              	.L28:
 346 0018 00000000 		.word	.LANCHOR0
 347              		.cfi_endproc
 348              	.LFE8:
 349              		.size	MCP7940N_GetMinutes, .-MCP7940N_GetMinutes
 350              		.section	.text.MCP7940N_GetHours,"ax",%progbits
 351              		.align	2
 352              		.global	MCP7940N_GetHours
 353              		.thumb
 354              		.thumb_func
 355              		.type	MCP7940N_GetHours, %function
 356              	MCP7940N_GetHours:
 357              	.LFB9:
 176:rhea\drivers\MCP7940N/MCP7940N.c **** 
 177:rhea\drivers\MCP7940N/MCP7940N.c **** uint8_t MCP7940N_GetHours(void) {
 358              		.loc 1 177 0
 359              		.cfi_startproc
 360              		@ args = 0, pretend = 0, frame = 0
 361              		@ frame_needed = 0, uses_anonymous_args = 0
 362              		@ link register save eliminated.
 178:rhea\drivers\MCP7940N/MCP7940N.c ****     
 179:rhea\drivers\MCP7940N/MCP7940N.c ****     // Reading RTCHOUR register
 180:rhea\drivers\MCP7940N/MCP7940N.c ****     uint8_t registerValue = MCP7940N_RegistersLocal.RTCHOUR;
 363              		.loc 1 180 0
 364 0000 054B     		ldr	r3, .L31
 365 0002 9B7C     		ldrb	r3, [r3, #18]	@ zero_extendqisi2
 366              	.LVL34:
 181:rhea\drivers\MCP7940N/MCP7940N.c ****     
 182:rhea\drivers\MCP7940N/MCP7940N.c ****     // Decoding BCD
 183:rhea\drivers\MCP7940N/MCP7940N.c ****     uint8_t ones = registerValue & MCP7940N_RTCHOUR_HRONE;
 367              		.loc 1 183 0
 368 0004 03F00F00 		and	r0, r3, #15
 369              	.LVL35:
 184:rhea\drivers\MCP7940N/MCP7940N.c ****     uint8_t tens = registerValue & MCP7940N_RTCHOUR_HRTEN;
 185:rhea\drivers\MCP7940N/MCP7940N.c ****     tens = tens >> 4;
 370              		.loc 1 185 0
 371 0008 C3F30113 		ubfx	r3, r3, #4, #2
 372              	.LVL36:
 186:rhea\drivers\MCP7940N/MCP7940N.c ****     
 187:rhea\drivers\MCP7940N/MCP7940N.c ****     // Returning result
 188:rhea\drivers\MCP7940N/MCP7940N.c ****     return tens * 10 + ones;
 373              		.loc 1 188 0
 374 000c 03EB8303 		add	r3, r3, r3, lsl #2
 375              	.LVL37:
 376 0010 5A00     		lsls	r2, r3, #1
 377 0012 1044     		add	r0, r0, r2
 378              	.LVL38:
ARM GAS  C:\Users\GYULAI~1\AppData\Local\Temp\ccG7iLma.s 			page 11


 189:rhea\drivers\MCP7940N/MCP7940N.c **** }
 379              		.loc 1 189 0
 380 0014 C0B2     		uxtb	r0, r0
 381 0016 7047     		bx	lr
 382              	.L32:
 383              		.align	2
 384              	.L31:
 385 0018 00000000 		.word	.LANCHOR0
 386              		.cfi_endproc
 387              	.LFE9:
 388              		.size	MCP7940N_GetHours, .-MCP7940N_GetHours
 389              		.section	.text.MCP7940N_GetDate,"ax",%progbits
 390              		.align	2
 391              		.global	MCP7940N_GetDate
 392              		.thumb
 393              		.thumb_func
 394              		.type	MCP7940N_GetDate, %function
 395              	MCP7940N_GetDate:
 396              	.LFB10:
 190:rhea\drivers\MCP7940N/MCP7940N.c **** 
 191:rhea\drivers\MCP7940N/MCP7940N.c **** uint8_t MCP7940N_GetDate(void) {
 397              		.loc 1 191 0
 398              		.cfi_startproc
 399              		@ args = 0, pretend = 0, frame = 0
 400              		@ frame_needed = 0, uses_anonymous_args = 0
 401              		@ link register save eliminated.
 192:rhea\drivers\MCP7940N/MCP7940N.c ****     
 193:rhea\drivers\MCP7940N/MCP7940N.c ****     // Reading RTCDATE register
 194:rhea\drivers\MCP7940N/MCP7940N.c ****     uint8_t registerValue = MCP7940N_RegistersLocal.RTCDATE;
 402              		.loc 1 194 0
 403 0000 054B     		ldr	r3, .L34
 404 0002 1B7D     		ldrb	r3, [r3, #20]	@ zero_extendqisi2
 405              	.LVL39:
 195:rhea\drivers\MCP7940N/MCP7940N.c ****     
 196:rhea\drivers\MCP7940N/MCP7940N.c ****     // Decoding BCD
 197:rhea\drivers\MCP7940N/MCP7940N.c ****     uint8_t ones = registerValue & MCP7940N_RTCDATE_DATEONE;
 406              		.loc 1 197 0
 407 0004 03F00F00 		and	r0, r3, #15
 408              	.LVL40:
 198:rhea\drivers\MCP7940N/MCP7940N.c ****     uint8_t tens = registerValue & MCP7940N_RTCDATE_DATETEN;
 199:rhea\drivers\MCP7940N/MCP7940N.c ****     tens = tens >> 4;
 409              		.loc 1 199 0
 410 0008 C3F30113 		ubfx	r3, r3, #4, #2
 411              	.LVL41:
 200:rhea\drivers\MCP7940N/MCP7940N.c ****     
 201:rhea\drivers\MCP7940N/MCP7940N.c ****     // Returning result
 202:rhea\drivers\MCP7940N/MCP7940N.c ****     return tens * 10 + ones;
 412              		.loc 1 202 0
 413 000c 03EB8303 		add	r3, r3, r3, lsl #2
 414              	.LVL42:
 415 0010 5A00     		lsls	r2, r3, #1
 416 0012 1044     		add	r0, r0, r2
 417              	.LVL43:
 203:rhea\drivers\MCP7940N/MCP7940N.c **** }
 418              		.loc 1 203 0
 419 0014 C0B2     		uxtb	r0, r0
 420 0016 7047     		bx	lr
ARM GAS  C:\Users\GYULAI~1\AppData\Local\Temp\ccG7iLma.s 			page 12


 421              	.L35:
 422              		.align	2
 423              	.L34:
 424 0018 00000000 		.word	.LANCHOR0
 425              		.cfi_endproc
 426              	.LFE10:
 427              		.size	MCP7940N_GetDate, .-MCP7940N_GetDate
 428              		.section	.text.MCP7940N_GetWeekday,"ax",%progbits
 429              		.align	2
 430              		.global	MCP7940N_GetWeekday
 431              		.thumb
 432              		.thumb_func
 433              		.type	MCP7940N_GetWeekday, %function
 434              	MCP7940N_GetWeekday:
 435              	.LFB11:
 204:rhea\drivers\MCP7940N/MCP7940N.c **** 
 205:rhea\drivers\MCP7940N/MCP7940N.c **** uint8_t MCP7940N_GetWeekday(void) {
 436              		.loc 1 205 0
 437              		.cfi_startproc
 438              		@ args = 0, pretend = 0, frame = 0
 439              		@ frame_needed = 0, uses_anonymous_args = 0
 440              		@ link register save eliminated.
 206:rhea\drivers\MCP7940N/MCP7940N.c ****     
 207:rhea\drivers\MCP7940N/MCP7940N.c ****     // Reading RTCWKDAY register
 208:rhea\drivers\MCP7940N/MCP7940N.c ****     uint8_t registerValue = MCP7940N_RegistersLocal.RTCWKDAY;
 441              		.loc 1 208 0
 442 0000 024B     		ldr	r3, .L37
 443 0002 D87C     		ldrb	r0, [r3, #19]	@ zero_extendqisi2
 444              	.LVL44:
 209:rhea\drivers\MCP7940N/MCP7940N.c ****     
 210:rhea\drivers\MCP7940N/MCP7940N.c ****     // Returning result
 211:rhea\drivers\MCP7940N/MCP7940N.c ****     return registerValue & MCP7940N_RTCWKDAY_WKDAY;
 212:rhea\drivers\MCP7940N/MCP7940N.c **** }
 445              		.loc 1 212 0
 446 0004 00F00700 		and	r0, r0, #7
 447              	.LVL45:
 448 0008 7047     		bx	lr
 449              	.L38:
 450 000a 00BF     		.align	2
 451              	.L37:
 452 000c 00000000 		.word	.LANCHOR0
 453              		.cfi_endproc
 454              	.LFE11:
 455              		.size	MCP7940N_GetWeekday, .-MCP7940N_GetWeekday
 456              		.section	.text.MCP7940N_GetMonths,"ax",%progbits
 457              		.align	2
 458              		.global	MCP7940N_GetMonths
 459              		.thumb
 460              		.thumb_func
 461              		.type	MCP7940N_GetMonths, %function
 462              	MCP7940N_GetMonths:
 463              	.LFB12:
 213:rhea\drivers\MCP7940N/MCP7940N.c **** 
 214:rhea\drivers\MCP7940N/MCP7940N.c **** uint8_t MCP7940N_GetMonths(void) {
 464              		.loc 1 214 0
 465              		.cfi_startproc
 466              		@ args = 0, pretend = 0, frame = 0
ARM GAS  C:\Users\GYULAI~1\AppData\Local\Temp\ccG7iLma.s 			page 13


 467              		@ frame_needed = 0, uses_anonymous_args = 0
 468              		@ link register save eliminated.
 215:rhea\drivers\MCP7940N/MCP7940N.c ****     
 216:rhea\drivers\MCP7940N/MCP7940N.c ****     // Reading RTCMTH register
 217:rhea\drivers\MCP7940N/MCP7940N.c ****     uint8_t registerValue = MCP7940N_RegistersLocal.RTCMTH;
 469              		.loc 1 217 0
 470 0000 054B     		ldr	r3, .L40
 471 0002 5B7D     		ldrb	r3, [r3, #21]	@ zero_extendqisi2
 472              	.LVL46:
 218:rhea\drivers\MCP7940N/MCP7940N.c ****     
 219:rhea\drivers\MCP7940N/MCP7940N.c ****     // Decoding BCD
 220:rhea\drivers\MCP7940N/MCP7940N.c ****     uint8_t ones = registerValue & MCP7940N_RTCMTH_MTHONE;
 473              		.loc 1 220 0
 474 0004 03F00F00 		and	r0, r3, #15
 475              	.LVL47:
 221:rhea\drivers\MCP7940N/MCP7940N.c ****     uint8_t tens = registerValue & MCP7940N_RTCMTH_MTHTEN;
 222:rhea\drivers\MCP7940N/MCP7940N.c ****     tens = tens >> 4;
 476              		.loc 1 222 0
 477 0008 C3F30013 		ubfx	r3, r3, #4, #1
 478              	.LVL48:
 223:rhea\drivers\MCP7940N/MCP7940N.c ****     
 224:rhea\drivers\MCP7940N/MCP7940N.c ****     // Returning result
 225:rhea\drivers\MCP7940N/MCP7940N.c ****     return tens * 10 + ones;
 479              		.loc 1 225 0
 480 000c 9900     		lsls	r1, r3, #2
 481 000e 0B44     		add	r3, r3, r1
 482              	.LVL49:
 483 0010 5A00     		lsls	r2, r3, #1
 484 0012 1044     		add	r0, r0, r2
 485              	.LVL50:
 226:rhea\drivers\MCP7940N/MCP7940N.c **** }
 486              		.loc 1 226 0
 487 0014 C0B2     		uxtb	r0, r0
 488 0016 7047     		bx	lr
 489              	.L41:
 490              		.align	2
 491              	.L40:
 492 0018 00000000 		.word	.LANCHOR0
 493              		.cfi_endproc
 494              	.LFE12:
 495              		.size	MCP7940N_GetMonths, .-MCP7940N_GetMonths
 496              		.section	.text.MCP7940N_GetYears,"ax",%progbits
 497              		.align	2
 498              		.global	MCP7940N_GetYears
 499              		.thumb
 500              		.thumb_func
 501              		.type	MCP7940N_GetYears, %function
 502              	MCP7940N_GetYears:
 503              	.LFB13:
 227:rhea\drivers\MCP7940N/MCP7940N.c **** 
 228:rhea\drivers\MCP7940N/MCP7940N.c **** uint16_t MCP7940N_GetYears(void) {
 504              		.loc 1 228 0
 505              		.cfi_startproc
 506              		@ args = 0, pretend = 0, frame = 0
 507              		@ frame_needed = 0, uses_anonymous_args = 0
 508              		@ link register save eliminated.
 229:rhea\drivers\MCP7940N/MCP7940N.c ****     
ARM GAS  C:\Users\GYULAI~1\AppData\Local\Temp\ccG7iLma.s 			page 14


 230:rhea\drivers\MCP7940N/MCP7940N.c ****     // Reading RTCYEAR register
 231:rhea\drivers\MCP7940N/MCP7940N.c ****     uint8_t registerValue = MCP7940N_RegistersLocal.RTCYEAR;
 509              		.loc 1 231 0
 510 0000 064B     		ldr	r3, .L43
 511 0002 9B7D     		ldrb	r3, [r3, #22]	@ zero_extendqisi2
 512              	.LVL51:
 232:rhea\drivers\MCP7940N/MCP7940N.c ****     
 233:rhea\drivers\MCP7940N/MCP7940N.c ****     // Decoding BCD
 234:rhea\drivers\MCP7940N/MCP7940N.c ****     uint8_t ones = registerValue & MCP7940N_RTCYEAR_YRONE;
 513              		.loc 1 234 0
 514 0004 03F00F02 		and	r2, r3, #15
 515              	.LVL52:
 235:rhea\drivers\MCP7940N/MCP7940N.c ****     uint8_t tens = registerValue & MCP7940N_RTCYEAR_YRTEN;
 236:rhea\drivers\MCP7940N/MCP7940N.c ****     tens = tens >> 4;
 237:rhea\drivers\MCP7940N/MCP7940N.c ****     
 238:rhea\drivers\MCP7940N/MCP7940N.c ****     // Returning result
 239:rhea\drivers\MCP7940N/MCP7940N.c ****     return 2000 + tens * 10 + ones;
 516              		.loc 1 239 0
 517 0008 1B09     		lsrs	r3, r3, #4
 518              	.LVL53:
 519 000a 03EB8303 		add	r3, r3, r3, lsl #2
 520 000e 5800     		lsls	r0, r3, #1
 521 0010 1044     		add	r0, r0, r2
 522 0012 00F5FA60 		add	r0, r0, #2000
 240:rhea\drivers\MCP7940N/MCP7940N.c **** }
 523              		.loc 1 240 0
 524 0016 80B2     		uxth	r0, r0
 525 0018 7047     		bx	lr
 526              	.L44:
 527 001a 00BF     		.align	2
 528              	.L43:
 529 001c 00000000 		.word	.LANCHOR0
 530              		.cfi_endproc
 531              	.LFE13:
 532              		.size	MCP7940N_GetYears, .-MCP7940N_GetYears
 533              		.section	.text.MCP7940N_GetDatetime,"ax",%progbits
 534              		.align	2
 535              		.global	MCP7940N_GetDatetime
 536              		.thumb
 537              		.thumb_func
 538              		.type	MCP7940N_GetDatetime, %function
 539              	MCP7940N_GetDatetime:
 540              	.LFB6:
 128:rhea\drivers\MCP7940N/MCP7940N.c ****     
 541              		.loc 1 128 0
 542              		.cfi_startproc
 543              		@ args = 0, pretend = 0, frame = 0
 544              		@ frame_needed = 0, uses_anonymous_args = 0
 545              	.LVL54:
 546 0000 10B5     		push	{r4, lr}
 547              		.cfi_def_cfa_offset 8
 548              		.cfi_offset 4, -8
 549              		.cfi_offset 14, -4
 550 0002 0446     		mov	r4, r0
 131:rhea\drivers\MCP7940N/MCP7940N.c ****                        MCP7940N_RTCYEAR - MCP7940N_RTCSEC + 1);
 551              		.loc 1 131 0
 552 0004 0723     		movs	r3, #7
ARM GAS  C:\Users\GYULAI~1\AppData\Local\Temp\ccG7iLma.s 			page 15


 553 0006 0E4A     		ldr	r2, .L47
 554 0008 0021     		movs	r1, #0
 555 000a DE20     		movs	r0, #222
 556              	.LVL55:
 557 000c FFF7FEFF 		bl	MCP7940N_I2CReader
 558              	.LVL56:
 138:rhea\drivers\MCP7940N/MCP7940N.c ****     result.month = MCP7940N_GetMonths();
 559              		.loc 1 138 0
 560 0010 FFF7FEFF 		bl	MCP7940N_GetYears
 561              	.LVL57:
 562 0014 2080     		strh	r0, [r4]	@ movhi
 139:rhea\drivers\MCP7940N/MCP7940N.c ****     result.date = MCP7940N_GetDate();
 563              		.loc 1 139 0
 564 0016 FFF7FEFF 		bl	MCP7940N_GetMonths
 565              	.LVL58:
 566 001a A070     		strb	r0, [r4, #2]
 140:rhea\drivers\MCP7940N/MCP7940N.c ****     result.weekday = MCP7940N_GetWeekday();
 567              		.loc 1 140 0
 568 001c FFF7FEFF 		bl	MCP7940N_GetDate
 569              	.LVL59:
 570 0020 E070     		strb	r0, [r4, #3]
 141:rhea\drivers\MCP7940N/MCP7940N.c ****     result.hour = MCP7940N_GetHours();
 571              		.loc 1 141 0
 572 0022 FFF7FEFF 		bl	MCP7940N_GetWeekday
 573              	.LVL60:
 574 0026 2071     		strb	r0, [r4, #4]
 142:rhea\drivers\MCP7940N/MCP7940N.c ****     result.minute = MCP7940N_GetMinutes();
 575              		.loc 1 142 0
 576 0028 FFF7FEFF 		bl	MCP7940N_GetHours
 577              	.LVL61:
 578 002c 6071     		strb	r0, [r4, #5]
 143:rhea\drivers\MCP7940N/MCP7940N.c ****     result.second = MCP7940N_GetSeconds();
 579              		.loc 1 143 0
 580 002e FFF7FEFF 		bl	MCP7940N_GetMinutes
 581              	.LVL62:
 582 0032 A071     		strb	r0, [r4, #6]
 144:rhea\drivers\MCP7940N/MCP7940N.c ****     
 583              		.loc 1 144 0
 584 0034 FFF7FEFF 		bl	MCP7940N_GetSeconds
 585              	.LVL63:
 586 0038 E071     		strb	r0, [r4, #7]
 147:rhea\drivers\MCP7940N/MCP7940N.c **** 
 587              		.loc 1 147 0
 588 003a 2046     		mov	r0, r4
 589 003c 10BD     		pop	{r4, pc}
 590              	.LVL64:
 591              	.L48:
 592 003e 00BF     		.align	2
 593              	.L47:
 594 0040 10000000 		.word	.LANCHOR0+16
 595              		.cfi_endproc
 596              	.LFE6:
 597              		.size	MCP7940N_GetDatetime, .-MCP7940N_GetDatetime
 598              		.section	.text.MCP7940N_SetSeconds,"ax",%progbits
 599              		.align	2
 600              		.global	MCP7940N_SetSeconds
 601              		.thumb
ARM GAS  C:\Users\GYULAI~1\AppData\Local\Temp\ccG7iLma.s 			page 16


 602              		.thumb_func
 603              		.type	MCP7940N_SetSeconds, %function
 604              	MCP7940N_SetSeconds:
 605              	.LFB15:
 241:rhea\drivers\MCP7940N/MCP7940N.c **** 
 242:rhea\drivers\MCP7940N/MCP7940N.c **** void MCP7940N_SetDatetime(MCP7940N_Datetime datetime) {
 243:rhea\drivers\MCP7940N/MCP7940N.c ****     
 244:rhea\drivers\MCP7940N/MCP7940N.c ****     // Oscillator status
 245:rhea\drivers\MCP7940N/MCP7940N.c ****     uint8_t externalStatus = MCP7940N_IsExternalOscillatorEnabled();
 246:rhea\drivers\MCP7940N/MCP7940N.c ****     uint8_t internalStatus = MCP7940N_IsOscillatorEnabled();
 247:rhea\drivers\MCP7940N/MCP7940N.c ****     
 248:rhea\drivers\MCP7940N/MCP7940N.c ****     // Disabling oscillator sources
 249:rhea\drivers\MCP7940N/MCP7940N.c ****     if(externalStatus)      MCP7940N_DisableExternalOscillator();
 250:rhea\drivers\MCP7940N/MCP7940N.c ****     else if(internalStatus) MCP7940N_DisableOscillator();
 251:rhea\drivers\MCP7940N/MCP7940N.c ****     
 252:rhea\drivers\MCP7940N/MCP7940N.c ****     // Waiting for oscillator to stop
 253:rhea\drivers\MCP7940N/MCP7940N.c ****     while(MCP7940N_IsOscillatorRunning());
 254:rhea\drivers\MCP7940N/MCP7940N.c ****     
 255:rhea\drivers\MCP7940N/MCP7940N.c ****     // Reading current datetime and configuration
 256:rhea\drivers\MCP7940N/MCP7940N.c ****     MCP7940N_I2CReader(MCP7940N_I2C_ADDR, MCP7940N_RTCSEC, (uint8_t*) &MCP7940N_RegistersLocal.RTCS
 257:rhea\drivers\MCP7940N/MCP7940N.c ****                        MCP7940N_RTCYEAR - MCP7940N_RTCSEC + 1);
 258:rhea\drivers\MCP7940N/MCP7940N.c ****     
 259:rhea\drivers\MCP7940N/MCP7940N.c ****     // Writing new datetime to local registers
 260:rhea\drivers\MCP7940N/MCP7940N.c ****     MCP7940N_SetYears(datetime.year);
 261:rhea\drivers\MCP7940N/MCP7940N.c ****     MCP7940N_SetMonths(datetime.month);
 262:rhea\drivers\MCP7940N/MCP7940N.c ****     MCP7940N_SetDate(datetime.date);
 263:rhea\drivers\MCP7940N/MCP7940N.c ****     MCP7940N_SetWeekday(datetime.weekday);
 264:rhea\drivers\MCP7940N/MCP7940N.c ****     MCP7940N_SetHours(datetime.hour);
 265:rhea\drivers\MCP7940N/MCP7940N.c ****     MCP7940N_SetMinutes(datetime.minute);
 266:rhea\drivers\MCP7940N/MCP7940N.c ****     MCP7940N_SetSeconds(datetime.second);
 267:rhea\drivers\MCP7940N/MCP7940N.c ****     
 268:rhea\drivers\MCP7940N/MCP7940N.c ****     // Updating timekeeping registers of the MCP7940N from the local copy
 269:rhea\drivers\MCP7940N/MCP7940N.c ****     MCP7940N_I2CWriter(MCP7940N_I2C_ADDR, MCP7940N_RTCSEC, (uint8_t*) &MCP7940N_RegistersLocal.RTCS
 270:rhea\drivers\MCP7940N/MCP7940N.c ****                        MCP7940N_RTCYEAR - MCP7940N_RTCSEC + 1);
 271:rhea\drivers\MCP7940N/MCP7940N.c **** 
 272:rhea\drivers\MCP7940N/MCP7940N.c ****     // Enabling oscillator sources
 273:rhea\drivers\MCP7940N/MCP7940N.c ****     if(externalStatus)      MCP7940N_EnableExternalOscillator();
 274:rhea\drivers\MCP7940N/MCP7940N.c ****     else if(internalStatus) MCP7940N_EnableOscillator();
 275:rhea\drivers\MCP7940N/MCP7940N.c **** }
 276:rhea\drivers\MCP7940N/MCP7940N.c **** 
 277:rhea\drivers\MCP7940N/MCP7940N.c **** void MCP7940N_SetSeconds(uint8_t seconds) {
 606              		.loc 1 277 0
 607              		.cfi_startproc
 608              		@ args = 0, pretend = 0, frame = 0
 609              		@ frame_needed = 0, uses_anonymous_args = 0
 610              		@ link register save eliminated.
 611              	.LVL65:
 278:rhea\drivers\MCP7940N/MCP7940N.c ****     
 279:rhea\drivers\MCP7940N/MCP7940N.c ****     // Encoding BCD
 280:rhea\drivers\MCP7940N/MCP7940N.c ****     uint8_t ones = seconds % 10;
 612              		.loc 1 280 0
 613 0000 094B     		ldr	r3, .L50
 614 0002 A3FB0023 		umull	r2, r3, r3, r0
 615 0006 DB08     		lsrs	r3, r3, #3
 616 0008 03EB8302 		add	r2, r3, r3, lsl #2
 617 000c A0EB4200 		sub	r0, r0, r2, lsl #1
 618              	.LVL66:
ARM GAS  C:\Users\GYULAI~1\AppData\Local\Temp\ccG7iLma.s 			page 17


 619 0010 C0B2     		uxtb	r0, r0
 620              	.LVL67:
 281:rhea\drivers\MCP7940N/MCP7940N.c ****     uint8_t tens = seconds / 10;
 282:rhea\drivers\MCP7940N/MCP7940N.c ****     uint8_t registerValue = ones | tens << 4 ;
 621              		.loc 1 282 0
 622 0012 40EA0310 		orr	r0, r0, r3, lsl #4
 623              	.LVL68:
 624 0016 C0B2     		uxtb	r0, r0
 625              	.LVL69:
 283:rhea\drivers\MCP7940N/MCP7940N.c ****     
 284:rhea\drivers\MCP7940N/MCP7940N.c ****     // Clearing seconds bits of RTCSEC register
 285:rhea\drivers\MCP7940N/MCP7940N.c ****     MCP7940N_RegistersLocal.RTCSEC &= ~(MCP7940N_RTCSEC_SECONE | MCP7940N_RTCSEC_SECTEN);
 626              		.loc 1 285 0
 627 0018 044A     		ldr	r2, .L50+4
 628 001a 137C     		ldrb	r3, [r2, #16]	@ zero_extendqisi2
 629              	.LVL70:
 630 001c 03F08003 		and	r3, r3, #128
 286:rhea\drivers\MCP7940N/MCP7940N.c ****     
 287:rhea\drivers\MCP7940N/MCP7940N.c ****     // Writing seconds bits of RTCSEC register
 288:rhea\drivers\MCP7940N/MCP7940N.c ****     MCP7940N_RegistersLocal.RTCSEC |= registerValue;
 631              		.loc 1 288 0
 632 0020 1843     		orrs	r0, r0, r3
 633              	.LVL71:
 634 0022 1074     		strb	r0, [r2, #16]
 635 0024 7047     		bx	lr
 636              	.L51:
 637 0026 00BF     		.align	2
 638              	.L50:
 639 0028 CDCCCCCC 		.word	-858993459
 640 002c 00000000 		.word	.LANCHOR0
 641              		.cfi_endproc
 642              	.LFE15:
 643              		.size	MCP7940N_SetSeconds, .-MCP7940N_SetSeconds
 644              		.section	.text.MCP7940N_SetMinutes,"ax",%progbits
 645              		.align	2
 646              		.global	MCP7940N_SetMinutes
 647              		.thumb
 648              		.thumb_func
 649              		.type	MCP7940N_SetMinutes, %function
 650              	MCP7940N_SetMinutes:
 651              	.LFB16:
 289:rhea\drivers\MCP7940N/MCP7940N.c **** }
 290:rhea\drivers\MCP7940N/MCP7940N.c **** 
 291:rhea\drivers\MCP7940N/MCP7940N.c **** void MCP7940N_SetMinutes(uint8_t minutes) {
 652              		.loc 1 291 0
 653              		.cfi_startproc
 654              		@ args = 0, pretend = 0, frame = 0
 655              		@ frame_needed = 0, uses_anonymous_args = 0
 656              		@ link register save eliminated.
 657              	.LVL72:
 292:rhea\drivers\MCP7940N/MCP7940N.c ****     
 293:rhea\drivers\MCP7940N/MCP7940N.c ****     // Encoding BCD
 294:rhea\drivers\MCP7940N/MCP7940N.c ****     uint8_t ones = minutes % 10;
 658              		.loc 1 294 0
 659 0000 064B     		ldr	r3, .L53
 660 0002 A3FB0023 		umull	r2, r3, r3, r0
 661 0006 DB08     		lsrs	r3, r3, #3
ARM GAS  C:\Users\GYULAI~1\AppData\Local\Temp\ccG7iLma.s 			page 18


 662 0008 03EB8301 		add	r1, r3, r3, lsl #2
 663 000c 4A00     		lsls	r2, r1, #1
 664 000e 801A     		subs	r0, r0, r2
 665              	.LVL73:
 666 0010 C0B2     		uxtb	r0, r0
 667              	.LVL74:
 295:rhea\drivers\MCP7940N/MCP7940N.c ****     uint8_t tens = minutes / 10;
 296:rhea\drivers\MCP7940N/MCP7940N.c ****     uint8_t registerValue = ones | tens << 4;
 668              		.loc 1 296 0
 669 0012 40EA0310 		orr	r0, r0, r3, lsl #4
 670              	.LVL75:
 297:rhea\drivers\MCP7940N/MCP7940N.c ****     
 298:rhea\drivers\MCP7940N/MCP7940N.c ****     // Writing RTCMIN register
 299:rhea\drivers\MCP7940N/MCP7940N.c ****     MCP7940N_RegistersLocal.RTCMIN = registerValue;
 671              		.loc 1 299 0
 672 0016 024B     		ldr	r3, .L53+4
 673              	.LVL76:
 674 0018 5874     		strb	r0, [r3, #17]
 675 001a 7047     		bx	lr
 676              	.L54:
 677              		.align	2
 678              	.L53:
 679 001c CDCCCCCC 		.word	-858993459
 680 0020 00000000 		.word	.LANCHOR0
 681              		.cfi_endproc
 682              	.LFE16:
 683              		.size	MCP7940N_SetMinutes, .-MCP7940N_SetMinutes
 684              		.section	.text.MCP7940N_SetHours,"ax",%progbits
 685              		.align	2
 686              		.global	MCP7940N_SetHours
 687              		.thumb
 688              		.thumb_func
 689              		.type	MCP7940N_SetHours, %function
 690              	MCP7940N_SetHours:
 691              	.LFB17:
 300:rhea\drivers\MCP7940N/MCP7940N.c **** }
 301:rhea\drivers\MCP7940N/MCP7940N.c **** 
 302:rhea\drivers\MCP7940N/MCP7940N.c **** void MCP7940N_SetHours(uint8_t hours) {
 692              		.loc 1 302 0
 693              		.cfi_startproc
 694              		@ args = 0, pretend = 0, frame = 0
 695              		@ frame_needed = 0, uses_anonymous_args = 0
 696              		@ link register save eliminated.
 697              	.LVL77:
 303:rhea\drivers\MCP7940N/MCP7940N.c ****     
 304:rhea\drivers\MCP7940N/MCP7940N.c ****     // Encoding BCD
 305:rhea\drivers\MCP7940N/MCP7940N.c ****     uint8_t ones = hours % 10;
 698              		.loc 1 305 0
 699 0000 094B     		ldr	r3, .L56
 700 0002 A3FB0023 		umull	r2, r3, r3, r0
 701 0006 DB08     		lsrs	r3, r3, #3
 702 0008 03EB8302 		add	r2, r3, r3, lsl #2
 703 000c A0EB4200 		sub	r0, r0, r2, lsl #1
 704              	.LVL78:
 705 0010 C0B2     		uxtb	r0, r0
 706              	.LVL79:
 306:rhea\drivers\MCP7940N/MCP7940N.c ****     uint8_t tens = hours / 10;
ARM GAS  C:\Users\GYULAI~1\AppData\Local\Temp\ccG7iLma.s 			page 19


 307:rhea\drivers\MCP7940N/MCP7940N.c ****     uint8_t registerValue = ones | tens << 4;
 707              		.loc 1 307 0
 708 0012 40EA0310 		orr	r0, r0, r3, lsl #4
 709              	.LVL80:
 710 0016 C0B2     		uxtb	r0, r0
 711              	.LVL81:
 308:rhea\drivers\MCP7940N/MCP7940N.c ****     
 309:rhea\drivers\MCP7940N/MCP7940N.c ****     // Clearing hour bits of RTCHOUR register
 310:rhea\drivers\MCP7940N/MCP7940N.c ****     MCP7940N_RegistersLocal.RTCHOUR &= ~(MCP7940N_RTCHOUR_HRONE | MCP7940N_RTCHOUR_HRTEN);
 712              		.loc 1 310 0
 713 0018 044A     		ldr	r2, .L56+4
 714 001a 937C     		ldrb	r3, [r2, #18]	@ zero_extendqisi2
 715              	.LVL82:
 716 001c 03F0C003 		and	r3, r3, #192
 311:rhea\drivers\MCP7940N/MCP7940N.c ****                                             
 312:rhea\drivers\MCP7940N/MCP7940N.c ****     // Writing hour bits of RTCHOUR register
 313:rhea\drivers\MCP7940N/MCP7940N.c ****     MCP7940N_RegistersLocal.RTCHOUR |= registerValue;
 717              		.loc 1 313 0
 718 0020 1843     		orrs	r0, r0, r3
 719              	.LVL83:
 720 0022 9074     		strb	r0, [r2, #18]
 721 0024 7047     		bx	lr
 722              	.L57:
 723 0026 00BF     		.align	2
 724              	.L56:
 725 0028 CDCCCCCC 		.word	-858993459
 726 002c 00000000 		.word	.LANCHOR0
 727              		.cfi_endproc
 728              	.LFE17:
 729              		.size	MCP7940N_SetHours, .-MCP7940N_SetHours
 730              		.section	.text.MCP7940N_SetDate,"ax",%progbits
 731              		.align	2
 732              		.global	MCP7940N_SetDate
 733              		.thumb
 734              		.thumb_func
 735              		.type	MCP7940N_SetDate, %function
 736              	MCP7940N_SetDate:
 737              	.LFB18:
 314:rhea\drivers\MCP7940N/MCP7940N.c **** }
 315:rhea\drivers\MCP7940N/MCP7940N.c **** 
 316:rhea\drivers\MCP7940N/MCP7940N.c **** void MCP7940N_SetDate(uint16_t date) {
 738              		.loc 1 316 0
 739              		.cfi_startproc
 740              		@ args = 0, pretend = 0, frame = 0
 741              		@ frame_needed = 0, uses_anonymous_args = 0
 742              		@ link register save eliminated.
 743              	.LVL84:
 317:rhea\drivers\MCP7940N/MCP7940N.c ****     
 318:rhea\drivers\MCP7940N/MCP7940N.c ****     // Encoding BCD
 319:rhea\drivers\MCP7940N/MCP7940N.c ****     uint8_t ones = date % 10;
 744              		.loc 1 319 0
 745 0000 074B     		ldr	r3, .L59
 746 0002 A3FB0023 		umull	r2, r3, r3, r0
 747 0006 DB08     		lsrs	r3, r3, #3
 748 0008 03EB8301 		add	r1, r3, r3, lsl #2
 749 000c 4A00     		lsls	r2, r1, #1
 750 000e 801A     		subs	r0, r0, r2
ARM GAS  C:\Users\GYULAI~1\AppData\Local\Temp\ccG7iLma.s 			page 20


 751              	.LVL85:
 752 0010 80B2     		uxth	r0, r0
 753              	.LVL86:
 320:rhea\drivers\MCP7940N/MCP7940N.c ****     uint8_t tens = date / 10;
 754              		.loc 1 320 0
 755 0012 DBB2     		uxtb	r3, r3
 756              	.LVL87:
 321:rhea\drivers\MCP7940N/MCP7940N.c ****     uint8_t registerValue = ones | tens << 4;
 757              		.loc 1 321 0
 758 0014 40EA0313 		orr	r3, r0, r3, lsl #4
 759              	.LVL88:
 322:rhea\drivers\MCP7940N/MCP7940N.c ****     
 323:rhea\drivers\MCP7940N/MCP7940N.c ****     // Writing RTCDATE register
 324:rhea\drivers\MCP7940N/MCP7940N.c ****     MCP7940N_RegistersLocal.RTCDATE = registerValue;
 760              		.loc 1 324 0
 761 0018 024A     		ldr	r2, .L59+4
 762 001a 1375     		strb	r3, [r2, #20]
 763 001c 7047     		bx	lr
 764              	.L60:
 765 001e 00BF     		.align	2
 766              	.L59:
 767 0020 CDCCCCCC 		.word	-858993459
 768 0024 00000000 		.word	.LANCHOR0
 769              		.cfi_endproc
 770              	.LFE18:
 771              		.size	MCP7940N_SetDate, .-MCP7940N_SetDate
 772              		.section	.text.MCP7940N_SetWeekday,"ax",%progbits
 773              		.align	2
 774              		.global	MCP7940N_SetWeekday
 775              		.thumb
 776              		.thumb_func
 777              		.type	MCP7940N_SetWeekday, %function
 778              	MCP7940N_SetWeekday:
 779              	.LFB19:
 325:rhea\drivers\MCP7940N/MCP7940N.c **** }
 326:rhea\drivers\MCP7940N/MCP7940N.c **** 
 327:rhea\drivers\MCP7940N/MCP7940N.c **** void MCP7940N_SetWeekday(uint8_t weekday) {
 780              		.loc 1 327 0
 781              		.cfi_startproc
 782              		@ args = 0, pretend = 0, frame = 0
 783              		@ frame_needed = 0, uses_anonymous_args = 0
 784              		@ link register save eliminated.
 785              	.LVL89:
 328:rhea\drivers\MCP7940N/MCP7940N.c ****     
 329:rhea\drivers\MCP7940N/MCP7940N.c ****     // Clearing weekday bits of RTCWKDAY register
 330:rhea\drivers\MCP7940N/MCP7940N.c ****     MCP7940N_RegistersLocal.RTCWKDAY &= ~MCP7940N_RTCWKDAY_WKDAY;
 786              		.loc 1 330 0
 787 0000 034A     		ldr	r2, .L62
 788 0002 D37C     		ldrb	r3, [r2, #19]	@ zero_extendqisi2
 789 0004 03F0F803 		and	r3, r3, #248
 331:rhea\drivers\MCP7940N/MCP7940N.c ****     
 332:rhea\drivers\MCP7940N/MCP7940N.c ****     // Writing weekday bits of RTCWKDAY register
 333:rhea\drivers\MCP7940N/MCP7940N.c ****     MCP7940N_RegistersLocal.RTCWKDAY |= weekday;
 790              		.loc 1 333 0
 791 0008 1843     		orrs	r0, r0, r3
 792              	.LVL90:
 793 000a D074     		strb	r0, [r2, #19]
ARM GAS  C:\Users\GYULAI~1\AppData\Local\Temp\ccG7iLma.s 			page 21


 794 000c 7047     		bx	lr
 795              	.L63:
 796 000e 00BF     		.align	2
 797              	.L62:
 798 0010 00000000 		.word	.LANCHOR0
 799              		.cfi_endproc
 800              	.LFE19:
 801              		.size	MCP7940N_SetWeekday, .-MCP7940N_SetWeekday
 802              		.section	.text.MCP7940N_SetMonths,"ax",%progbits
 803              		.align	2
 804              		.global	MCP7940N_SetMonths
 805              		.thumb
 806              		.thumb_func
 807              		.type	MCP7940N_SetMonths, %function
 808              	MCP7940N_SetMonths:
 809              	.LFB20:
 334:rhea\drivers\MCP7940N/MCP7940N.c **** }
 335:rhea\drivers\MCP7940N/MCP7940N.c **** 
 336:rhea\drivers\MCP7940N/MCP7940N.c **** void MCP7940N_SetMonths(uint8_t months) {
 810              		.loc 1 336 0
 811              		.cfi_startproc
 812              		@ args = 0, pretend = 0, frame = 0
 813              		@ frame_needed = 0, uses_anonymous_args = 0
 814              		@ link register save eliminated.
 815              	.LVL91:
 337:rhea\drivers\MCP7940N/MCP7940N.c ****     
 338:rhea\drivers\MCP7940N/MCP7940N.c ****     // Encoding BCD
 339:rhea\drivers\MCP7940N/MCP7940N.c ****     uint8_t ones = months % 10;
 816              		.loc 1 339 0
 817 0000 064B     		ldr	r3, .L65
 818 0002 A3FB0023 		umull	r2, r3, r3, r0
 819 0006 DB08     		lsrs	r3, r3, #3
 820 0008 03EB8301 		add	r1, r3, r3, lsl #2
 821 000c 4A00     		lsls	r2, r1, #1
 822 000e 801A     		subs	r0, r0, r2
 823              	.LVL92:
 824 0010 C0B2     		uxtb	r0, r0
 825              	.LVL93:
 340:rhea\drivers\MCP7940N/MCP7940N.c ****     uint8_t tens = months / 10;
 341:rhea\drivers\MCP7940N/MCP7940N.c ****     uint8_t registerValue = ones | tens << 4;
 826              		.loc 1 341 0
 827 0012 40EA0310 		orr	r0, r0, r3, lsl #4
 828              	.LVL94:
 342:rhea\drivers\MCP7940N/MCP7940N.c ****     
 343:rhea\drivers\MCP7940N/MCP7940N.c ****     // Writing RTCMTH register
 344:rhea\drivers\MCP7940N/MCP7940N.c ****     MCP7940N_RegistersLocal.RTCMTH = registerValue;
 829              		.loc 1 344 0
 830 0016 024B     		ldr	r3, .L65+4
 831              	.LVL95:
 832 0018 5875     		strb	r0, [r3, #21]
 833 001a 7047     		bx	lr
 834              	.L66:
 835              		.align	2
 836              	.L65:
 837 001c CDCCCCCC 		.word	-858993459
 838 0020 00000000 		.word	.LANCHOR0
 839              		.cfi_endproc
ARM GAS  C:\Users\GYULAI~1\AppData\Local\Temp\ccG7iLma.s 			page 22


 840              	.LFE20:
 841              		.size	MCP7940N_SetMonths, .-MCP7940N_SetMonths
 842              		.section	.text.MCP7940N_SetYears,"ax",%progbits
 843              		.align	2
 844              		.global	MCP7940N_SetYears
 845              		.thumb
 846              		.thumb_func
 847              		.type	MCP7940N_SetYears, %function
 848              	MCP7940N_SetYears:
 849              	.LFB21:
 345:rhea\drivers\MCP7940N/MCP7940N.c **** }
 346:rhea\drivers\MCP7940N/MCP7940N.c **** 
 347:rhea\drivers\MCP7940N/MCP7940N.c **** void MCP7940N_SetYears(uint16_t years) {
 850              		.loc 1 347 0
 851              		.cfi_startproc
 852              		@ args = 0, pretend = 0, frame = 0
 853              		@ frame_needed = 0, uses_anonymous_args = 0
 854              		@ link register save eliminated.
 855              	.LVL96:
 348:rhea\drivers\MCP7940N/MCP7940N.c ****     
 349:rhea\drivers\MCP7940N/MCP7940N.c ****     // Encoding BCD
 350:rhea\drivers\MCP7940N/MCP7940N.c ****     years = years - 2000;
 856              		.loc 1 350 0
 857 0000 A0F5FA60 		sub	r0, r0, #2000
 858              	.LVL97:
 859 0004 80B2     		uxth	r0, r0
 860              	.LVL98:
 351:rhea\drivers\MCP7940N/MCP7940N.c ****     uint8_t ones = years % 10;
 861              		.loc 1 351 0
 862 0006 074B     		ldr	r3, .L68
 863 0008 A3FB0023 		umull	r2, r3, r3, r0
 864 000c DB08     		lsrs	r3, r3, #3
 865 000e 03EB8301 		add	r1, r3, r3, lsl #2
 866 0012 4A00     		lsls	r2, r1, #1
 867 0014 801A     		subs	r0, r0, r2
 868              	.LVL99:
 869 0016 80B2     		uxth	r0, r0
 870              	.LVL100:
 352:rhea\drivers\MCP7940N/MCP7940N.c ****     uint8_t tens = years / 10;
 871              		.loc 1 352 0
 872 0018 DBB2     		uxtb	r3, r3
 873              	.LVL101:
 353:rhea\drivers\MCP7940N/MCP7940N.c ****     uint8_t registerValue = ones | tens << 4;
 874              		.loc 1 353 0
 875 001a 40EA0310 		orr	r0, r0, r3, lsl #4
 876              	.LVL102:
 354:rhea\drivers\MCP7940N/MCP7940N.c ****     
 355:rhea\drivers\MCP7940N/MCP7940N.c ****     // Writing RTCYEAR register
 356:rhea\drivers\MCP7940N/MCP7940N.c ****     MCP7940N_RegistersLocal.RTCYEAR = registerValue;
 877              		.loc 1 356 0
 878 001e 024B     		ldr	r3, .L68+4
 879              	.LVL103:
 880 0020 9875     		strb	r0, [r3, #22]
 881 0022 7047     		bx	lr
 882              	.L69:
 883              		.align	2
 884              	.L68:
ARM GAS  C:\Users\GYULAI~1\AppData\Local\Temp\ccG7iLma.s 			page 23


 885 0024 CDCCCCCC 		.word	-858993459
 886 0028 00000000 		.word	.LANCHOR0
 887              		.cfi_endproc
 888              	.LFE21:
 889              		.size	MCP7940N_SetYears, .-MCP7940N_SetYears
 890              		.section	.text.MCP7940N_IsOscillatorEnabled,"ax",%progbits
 891              		.align	2
 892              		.global	MCP7940N_IsOscillatorEnabled
 893              		.thumb
 894              		.thumb_func
 895              		.type	MCP7940N_IsOscillatorEnabled, %function
 896              	MCP7940N_IsOscillatorEnabled:
 897              	.LFB22:
 357:rhea\drivers\MCP7940N/MCP7940N.c **** }
 358:rhea\drivers\MCP7940N/MCP7940N.c **** 
 359:rhea\drivers\MCP7940N/MCP7940N.c **** uint8_t MCP7940N_IsOscillatorEnabled(void) {
 898              		.loc 1 359 0
 899              		.cfi_startproc
 900              		@ args = 0, pretend = 0, frame = 0
 901              		@ frame_needed = 0, uses_anonymous_args = 0
 902 0000 10B5     		push	{r4, lr}
 903              		.cfi_def_cfa_offset 8
 904              		.cfi_offset 4, -8
 905              		.cfi_offset 14, -4
 360:rhea\drivers\MCP7940N/MCP7940N.c ****     
 361:rhea\drivers\MCP7940N/MCP7940N.c ****     // Reading current content of RTCSEC register
 362:rhea\drivers\MCP7940N/MCP7940N.c ****     MCP7940N_I2CReader(MCP7940N_I2C_ADDR, MCP7940N_RTCSEC, (uint8_t*) &MCP7940N_RegistersLocal.RTCS
 906              		.loc 1 362 0
 907 0002 064C     		ldr	r4, .L72
 908 0004 0123     		movs	r3, #1
 909 0006 04F11002 		add	r2, r4, #16
 910 000a 0021     		movs	r1, #0
 911 000c DE20     		movs	r0, #222
 912 000e FFF7FEFF 		bl	MCP7940N_I2CReader
 913              	.LVL104:
 363:rhea\drivers\MCP7940N/MCP7940N.c ****     
 364:rhea\drivers\MCP7940N/MCP7940N.c ****     // Returning whether ST flag is set
 365:rhea\drivers\MCP7940N/MCP7940N.c ****     return MCP7940N_RegistersLocal.RTCSEC & MCP7940N_RTCSEC_ST; 
 914              		.loc 1 365 0
 915 0012 207C     		ldrb	r0, [r4, #16]	@ zero_extendqisi2
 366:rhea\drivers\MCP7940N/MCP7940N.c **** }
 916              		.loc 1 366 0
 917 0014 00F08000 		and	r0, r0, #128
 918 0018 10BD     		pop	{r4, pc}
 919              	.L73:
 920 001a 00BF     		.align	2
 921              	.L72:
 922 001c 00000000 		.word	.LANCHOR0
 923              		.cfi_endproc
 924              	.LFE22:
 925              		.size	MCP7940N_IsOscillatorEnabled, .-MCP7940N_IsOscillatorEnabled
 926              		.section	.text.MCP7940N_EnableOscillator,"ax",%progbits
 927              		.align	2
 928              		.global	MCP7940N_EnableOscillator
 929              		.thumb
 930              		.thumb_func
 931              		.type	MCP7940N_EnableOscillator, %function
ARM GAS  C:\Users\GYULAI~1\AppData\Local\Temp\ccG7iLma.s 			page 24


 932              	MCP7940N_EnableOscillator:
 933              	.LFB23:
 367:rhea\drivers\MCP7940N/MCP7940N.c **** 
 368:rhea\drivers\MCP7940N/MCP7940N.c **** void MCP7940N_EnableOscillator(void) {
 934              		.loc 1 368 0
 935              		.cfi_startproc
 936              		@ args = 0, pretend = 0, frame = 0
 937              		@ frame_needed = 0, uses_anonymous_args = 0
 938 0000 38B5     		push	{r3, r4, r5, lr}
 939              		.cfi_def_cfa_offset 16
 940              		.cfi_offset 3, -16
 941              		.cfi_offset 4, -12
 942              		.cfi_offset 5, -8
 943              		.cfi_offset 14, -4
 369:rhea\drivers\MCP7940N/MCP7940N.c ****     
 370:rhea\drivers\MCP7940N/MCP7940N.c ****     // Reading current content of RTCSEC register
 371:rhea\drivers\MCP7940N/MCP7940N.c ****     MCP7940N_I2CReader(MCP7940N_I2C_ADDR, MCP7940N_RTCSEC, (uint8_t*) &MCP7940N_RegistersLocal.RTCS
 944              		.loc 1 371 0
 945 0002 0A4C     		ldr	r4, .L76
 946 0004 04F11005 		add	r5, r4, #16
 947 0008 0123     		movs	r3, #1
 948 000a 2A46     		mov	r2, r5
 949 000c 0021     		movs	r1, #0
 950 000e DE20     		movs	r0, #222
 951 0010 FFF7FEFF 		bl	MCP7940N_I2CReader
 952              	.LVL105:
 372:rhea\drivers\MCP7940N/MCP7940N.c ****     
 373:rhea\drivers\MCP7940N/MCP7940N.c ****     // Setting ST flag of RTCSEC register
 374:rhea\drivers\MCP7940N/MCP7940N.c ****     MCP7940N_RegistersLocal.RTCSEC |= MCP7940N_RTCSEC_ST;
 953              		.loc 1 374 0
 954 0014 237C     		ldrb	r3, [r4, #16]	@ zero_extendqisi2
 955 0016 63F07F03 		orn	r3, r3, #127
 956 001a 2374     		strb	r3, [r4, #16]
 375:rhea\drivers\MCP7940N/MCP7940N.c ****     
 376:rhea\drivers\MCP7940N/MCP7940N.c ****     // Writing changes to hardware
 377:rhea\drivers\MCP7940N/MCP7940N.c ****     MCP7940N_I2CWriter(MCP7940N_I2C_ADDR, MCP7940N_RTCSEC, (uint8_t*) &MCP7940N_RegistersLocal.RTCS
 957              		.loc 1 377 0
 958 001c 0123     		movs	r3, #1
 959 001e 2A46     		mov	r2, r5
 960 0020 0021     		movs	r1, #0
 961 0022 DE20     		movs	r0, #222
 962 0024 FFF7FEFF 		bl	MCP7940N_I2CWriter
 963              	.LVL106:
 964 0028 38BD     		pop	{r3, r4, r5, pc}
 965              	.L77:
 966 002a 00BF     		.align	2
 967              	.L76:
 968 002c 00000000 		.word	.LANCHOR0
 969              		.cfi_endproc
 970              	.LFE23:
 971              		.size	MCP7940N_EnableOscillator, .-MCP7940N_EnableOscillator
 972              		.section	.text.MCP7940N_DisableOscillator,"ax",%progbits
 973              		.align	2
 974              		.global	MCP7940N_DisableOscillator
 975              		.thumb
 976              		.thumb_func
 977              		.type	MCP7940N_DisableOscillator, %function
ARM GAS  C:\Users\GYULAI~1\AppData\Local\Temp\ccG7iLma.s 			page 25


 978              	MCP7940N_DisableOscillator:
 979              	.LFB24:
 378:rhea\drivers\MCP7940N/MCP7940N.c **** }
 379:rhea\drivers\MCP7940N/MCP7940N.c **** 
 380:rhea\drivers\MCP7940N/MCP7940N.c **** void MCP7940N_DisableOscillator(void) {
 980              		.loc 1 380 0
 981              		.cfi_startproc
 982              		@ args = 0, pretend = 0, frame = 0
 983              		@ frame_needed = 0, uses_anonymous_args = 0
 984 0000 38B5     		push	{r3, r4, r5, lr}
 985              		.cfi_def_cfa_offset 16
 986              		.cfi_offset 3, -16
 987              		.cfi_offset 4, -12
 988              		.cfi_offset 5, -8
 989              		.cfi_offset 14, -4
 381:rhea\drivers\MCP7940N/MCP7940N.c ****     
 382:rhea\drivers\MCP7940N/MCP7940N.c ****     // Reading current content of RTCSEC register
 383:rhea\drivers\MCP7940N/MCP7940N.c ****     MCP7940N_I2CReader(MCP7940N_I2C_ADDR, MCP7940N_RTCSEC, (uint8_t*) &MCP7940N_RegistersLocal.RTCS
 990              		.loc 1 383 0
 991 0002 0A4C     		ldr	r4, .L80
 992 0004 04F11005 		add	r5, r4, #16
 993 0008 0123     		movs	r3, #1
 994 000a 2A46     		mov	r2, r5
 995 000c 0021     		movs	r1, #0
 996 000e DE20     		movs	r0, #222
 997 0010 FFF7FEFF 		bl	MCP7940N_I2CReader
 998              	.LVL107:
 384:rhea\drivers\MCP7940N/MCP7940N.c ****     
 385:rhea\drivers\MCP7940N/MCP7940N.c ****     // Clearing ST flag of RTCSEC register
 386:rhea\drivers\MCP7940N/MCP7940N.c ****     MCP7940N_RegistersLocal.RTCSEC &= ~MCP7940N_RTCSEC_ST;
 999              		.loc 1 386 0
 1000 0014 237C     		ldrb	r3, [r4, #16]	@ zero_extendqisi2
 1001 0016 03F07F03 		and	r3, r3, #127
 1002 001a 2374     		strb	r3, [r4, #16]
 387:rhea\drivers\MCP7940N/MCP7940N.c ****     
 388:rhea\drivers\MCP7940N/MCP7940N.c ****     // Writing changes to hardware
 389:rhea\drivers\MCP7940N/MCP7940N.c ****     MCP7940N_I2CWriter(MCP7940N_I2C_ADDR, MCP7940N_RTCSEC, (uint8_t*) &MCP7940N_RegistersLocal.RTCS
 1003              		.loc 1 389 0
 1004 001c 0123     		movs	r3, #1
 1005 001e 2A46     		mov	r2, r5
 1006 0020 0021     		movs	r1, #0
 1007 0022 DE20     		movs	r0, #222
 1008 0024 FFF7FEFF 		bl	MCP7940N_I2CWriter
 1009              	.LVL108:
 1010 0028 38BD     		pop	{r3, r4, r5, pc}
 1011              	.L81:
 1012 002a 00BF     		.align	2
 1013              	.L80:
 1014 002c 00000000 		.word	.LANCHOR0
 1015              		.cfi_endproc
 1016              	.LFE24:
 1017              		.size	MCP7940N_DisableOscillator, .-MCP7940N_DisableOscillator
 1018              		.section	.text.MCP7940N_IsOscillatorRunning,"ax",%progbits
 1019              		.align	2
 1020              		.global	MCP7940N_IsOscillatorRunning
 1021              		.thumb
 1022              		.thumb_func
ARM GAS  C:\Users\GYULAI~1\AppData\Local\Temp\ccG7iLma.s 			page 26


 1023              		.type	MCP7940N_IsOscillatorRunning, %function
 1024              	MCP7940N_IsOscillatorRunning:
 1025              	.LFB25:
 390:rhea\drivers\MCP7940N/MCP7940N.c **** }
 391:rhea\drivers\MCP7940N/MCP7940N.c **** 
 392:rhea\drivers\MCP7940N/MCP7940N.c **** uint8_t MCP7940N_IsOscillatorRunning(void) {
 1026              		.loc 1 392 0
 1027              		.cfi_startproc
 1028              		@ args = 0, pretend = 0, frame = 0
 1029              		@ frame_needed = 0, uses_anonymous_args = 0
 1030 0000 10B5     		push	{r4, lr}
 1031              		.cfi_def_cfa_offset 8
 1032              		.cfi_offset 4, -8
 1033              		.cfi_offset 14, -4
 393:rhea\drivers\MCP7940N/MCP7940N.c ****     
 394:rhea\drivers\MCP7940N/MCP7940N.c ****     // Reading RTCWKDAY register
 395:rhea\drivers\MCP7940N/MCP7940N.c ****     MCP7940N_I2CReader(MCP7940N_I2C_ADDR, MCP7940N_RTCWKDAY, (uint8_t*) &MCP7940N_RegistersLocal.RT
 1034              		.loc 1 395 0
 1035 0002 064C     		ldr	r4, .L84
 1036 0004 0123     		movs	r3, #1
 1037 0006 04F11302 		add	r2, r4, #19
 1038 000a 0321     		movs	r1, #3
 1039 000c DE20     		movs	r0, #222
 1040 000e FFF7FEFF 		bl	MCP7940N_I2CReader
 1041              	.LVL109:
 396:rhea\drivers\MCP7940N/MCP7940N.c ****     
 397:rhea\drivers\MCP7940N/MCP7940N.c ****     // Returning whether OSCRUN bit is set
 398:rhea\drivers\MCP7940N/MCP7940N.c ****     return MCP7940N_RegistersLocal.RTCWKDAY & MCP7940N_RTCWKDAY_OSCRUN;    
 1042              		.loc 1 398 0
 1043 0012 E07C     		ldrb	r0, [r4, #19]	@ zero_extendqisi2
 399:rhea\drivers\MCP7940N/MCP7940N.c **** }
 1044              		.loc 1 399 0
 1045 0014 00F02000 		and	r0, r0, #32
 1046 0018 10BD     		pop	{r4, pc}
 1047              	.L85:
 1048 001a 00BF     		.align	2
 1049              	.L84:
 1050 001c 00000000 		.word	.LANCHOR0
 1051              		.cfi_endproc
 1052              	.LFE25:
 1053              		.size	MCP7940N_IsOscillatorRunning, .-MCP7940N_IsOscillatorRunning
 1054              		.section	.text.MCP7940N_IsBatteryEnabled,"ax",%progbits
 1055              		.align	2
 1056              		.global	MCP7940N_IsBatteryEnabled
 1057              		.thumb
 1058              		.thumb_func
 1059              		.type	MCP7940N_IsBatteryEnabled, %function
 1060              	MCP7940N_IsBatteryEnabled:
 1061              	.LFB28:
 400:rhea\drivers\MCP7940N/MCP7940N.c **** 
 401:rhea\drivers\MCP7940N/MCP7940N.c **** void MCP7940N_EnableBattery(void) {
 402:rhea\drivers\MCP7940N/MCP7940N.c ****     
 403:rhea\drivers\MCP7940N/MCP7940N.c ****     // Oscillator status
 404:rhea\drivers\MCP7940N/MCP7940N.c ****     uint8_t externalStatus = MCP7940N_IsExternalOscillatorEnabled();
 405:rhea\drivers\MCP7940N/MCP7940N.c ****     uint8_t internalStatus = MCP7940N_IsOscillatorEnabled();
 406:rhea\drivers\MCP7940N/MCP7940N.c ****     
 407:rhea\drivers\MCP7940N/MCP7940N.c ****     // Disabling oscillator sources
ARM GAS  C:\Users\GYULAI~1\AppData\Local\Temp\ccG7iLma.s 			page 27


 408:rhea\drivers\MCP7940N/MCP7940N.c ****     if(externalStatus)      MCP7940N_DisableExternalOscillator();
 409:rhea\drivers\MCP7940N/MCP7940N.c ****     else if(internalStatus) MCP7940N_DisableOscillator();
 410:rhea\drivers\MCP7940N/MCP7940N.c ****     
 411:rhea\drivers\MCP7940N/MCP7940N.c ****     // Waiting for oscillator to stop
 412:rhea\drivers\MCP7940N/MCP7940N.c ****     while(MCP7940N_IsOscillatorRunning());
 413:rhea\drivers\MCP7940N/MCP7940N.c ****     
 414:rhea\drivers\MCP7940N/MCP7940N.c ****     // Reading current content of RTCWKDAY register
 415:rhea\drivers\MCP7940N/MCP7940N.c ****     MCP7940N_I2CReader(MCP7940N_I2C_ADDR, MCP7940N_RTCWKDAY, (uint8_t*) &MCP7940N_RegistersLocal.RT
 416:rhea\drivers\MCP7940N/MCP7940N.c **** 
 417:rhea\drivers\MCP7940N/MCP7940N.c ****     // Setting VBATEN flag of RTCWKDAY register
 418:rhea\drivers\MCP7940N/MCP7940N.c ****     MCP7940N_RegistersLocal.RTCWKDAY |= MCP7940N_RTCWKDAY_VBATEN;
 419:rhea\drivers\MCP7940N/MCP7940N.c ****     
 420:rhea\drivers\MCP7940N/MCP7940N.c ****     // Writing changes to hardware
 421:rhea\drivers\MCP7940N/MCP7940N.c ****     MCP7940N_I2CWriter(MCP7940N_I2C_ADDR, MCP7940N_RTCWKDAY, (uint8_t*) &MCP7940N_RegistersLocal.RT
 422:rhea\drivers\MCP7940N/MCP7940N.c **** 
 423:rhea\drivers\MCP7940N/MCP7940N.c ****     // Enabling oscillator sources
 424:rhea\drivers\MCP7940N/MCP7940N.c ****     if(externalStatus)      MCP7940N_EnableExternalOscillator();
 425:rhea\drivers\MCP7940N/MCP7940N.c ****     else if(internalStatus) MCP7940N_EnableOscillator();
 426:rhea\drivers\MCP7940N/MCP7940N.c **** }
 427:rhea\drivers\MCP7940N/MCP7940N.c **** 
 428:rhea\drivers\MCP7940N/MCP7940N.c **** void MCP7940N_DisableBattery(void) {
 429:rhea\drivers\MCP7940N/MCP7940N.c ****     
 430:rhea\drivers\MCP7940N/MCP7940N.c ****     // Oscillator status
 431:rhea\drivers\MCP7940N/MCP7940N.c ****     uint8_t externalStatus = MCP7940N_IsExternalOscillatorEnabled();
 432:rhea\drivers\MCP7940N/MCP7940N.c ****     uint8_t internalStatus = MCP7940N_IsOscillatorEnabled();
 433:rhea\drivers\MCP7940N/MCP7940N.c ****     
 434:rhea\drivers\MCP7940N/MCP7940N.c ****     // Disabling oscillator sources
 435:rhea\drivers\MCP7940N/MCP7940N.c ****     if(externalStatus)      MCP7940N_DisableExternalOscillator();
 436:rhea\drivers\MCP7940N/MCP7940N.c ****     else if(internalStatus) MCP7940N_DisableOscillator();
 437:rhea\drivers\MCP7940N/MCP7940N.c ****     
 438:rhea\drivers\MCP7940N/MCP7940N.c ****     // Waiting for oscillator to stop
 439:rhea\drivers\MCP7940N/MCP7940N.c ****     while(MCP7940N_IsOscillatorRunning());
 440:rhea\drivers\MCP7940N/MCP7940N.c ****     
 441:rhea\drivers\MCP7940N/MCP7940N.c ****     // Reading current content of RTCWKDAY register
 442:rhea\drivers\MCP7940N/MCP7940N.c ****     MCP7940N_I2CReader(MCP7940N_I2C_ADDR, MCP7940N_RTCWKDAY, (uint8_t*) &MCP7940N_RegistersLocal.RT
 443:rhea\drivers\MCP7940N/MCP7940N.c ****     
 444:rhea\drivers\MCP7940N/MCP7940N.c ****     // Clearing VBATEN flag of RTCWKDAY register
 445:rhea\drivers\MCP7940N/MCP7940N.c ****     MCP7940N_RegistersLocal.RTCWKDAY &= ~MCP7940N_RTCWKDAY_VBATEN;
 446:rhea\drivers\MCP7940N/MCP7940N.c ****     
 447:rhea\drivers\MCP7940N/MCP7940N.c ****     // Writing changes to hardware
 448:rhea\drivers\MCP7940N/MCP7940N.c ****     MCP7940N_I2CWriter(MCP7940N_I2C_ADDR, MCP7940N_RTCWKDAY, (uint8_t*) &MCP7940N_RegistersLocal.RT
 449:rhea\drivers\MCP7940N/MCP7940N.c **** 
 450:rhea\drivers\MCP7940N/MCP7940N.c ****     // Enabling oscillator sources
 451:rhea\drivers\MCP7940N/MCP7940N.c ****     if(externalStatus)      MCP7940N_EnableExternalOscillator();
 452:rhea\drivers\MCP7940N/MCP7940N.c ****     else if(internalStatus) MCP7940N_EnableOscillator();
 453:rhea\drivers\MCP7940N/MCP7940N.c **** }
 454:rhea\drivers\MCP7940N/MCP7940N.c **** 
 455:rhea\drivers\MCP7940N/MCP7940N.c **** uint8_t MCP7940N_IsBatteryEnabled(void) {
 1062              		.loc 1 455 0
 1063              		.cfi_startproc
 1064              		@ args = 0, pretend = 0, frame = 0
 1065              		@ frame_needed = 0, uses_anonymous_args = 0
 1066 0000 10B5     		push	{r4, lr}
 1067              		.cfi_def_cfa_offset 8
 1068              		.cfi_offset 4, -8
 1069              		.cfi_offset 14, -4
 456:rhea\drivers\MCP7940N/MCP7940N.c ****     
ARM GAS  C:\Users\GYULAI~1\AppData\Local\Temp\ccG7iLma.s 			page 28


 457:rhea\drivers\MCP7940N/MCP7940N.c ****     // Reading RTCWKDAY register
 458:rhea\drivers\MCP7940N/MCP7940N.c ****     MCP7940N_I2CReader(MCP7940N_I2C_ADDR, MCP7940N_RTCWKDAY, (uint8_t*) &MCP7940N_RegistersLocal.RT
 1070              		.loc 1 458 0
 1071 0002 064C     		ldr	r4, .L88
 1072 0004 0123     		movs	r3, #1
 1073 0006 04F11302 		add	r2, r4, #19
 1074 000a 0321     		movs	r1, #3
 1075 000c DE20     		movs	r0, #222
 1076 000e FFF7FEFF 		bl	MCP7940N_I2CReader
 1077              	.LVL110:
 459:rhea\drivers\MCP7940N/MCP7940N.c ****     
 460:rhea\drivers\MCP7940N/MCP7940N.c ****     // Returning whether VBATEN bit is set
 461:rhea\drivers\MCP7940N/MCP7940N.c ****     return MCP7940N_RegistersLocal.RTCWKDAY & MCP7940N_RTCWKDAY_VBATEN;
 1078              		.loc 1 461 0
 1079 0012 E07C     		ldrb	r0, [r4, #19]	@ zero_extendqisi2
 462:rhea\drivers\MCP7940N/MCP7940N.c **** }
 1080              		.loc 1 462 0
 1081 0014 00F00800 		and	r0, r0, #8
 1082 0018 10BD     		pop	{r4, pc}
 1083              	.L89:
 1084 001a 00BF     		.align	2
 1085              	.L88:
 1086 001c 00000000 		.word	.LANCHOR0
 1087              		.cfi_endproc
 1088              	.LFE28:
 1089              		.size	MCP7940N_IsBatteryEnabled, .-MCP7940N_IsBatteryEnabled
 1090              		.section	.text.MCP7940N_HasPowerFailed,"ax",%progbits
 1091              		.align	2
 1092              		.global	MCP7940N_HasPowerFailed
 1093              		.thumb
 1094              		.thumb_func
 1095              		.type	MCP7940N_HasPowerFailed, %function
 1096              	MCP7940N_HasPowerFailed:
 1097              	.LFB29:
 463:rhea\drivers\MCP7940N/MCP7940N.c **** 
 464:rhea\drivers\MCP7940N/MCP7940N.c **** uint8_t MCP7940N_HasPowerFailed(void) {
 1098              		.loc 1 464 0
 1099              		.cfi_startproc
 1100              		@ args = 0, pretend = 0, frame = 0
 1101              		@ frame_needed = 0, uses_anonymous_args = 0
 1102 0000 10B5     		push	{r4, lr}
 1103              		.cfi_def_cfa_offset 8
 1104              		.cfi_offset 4, -8
 1105              		.cfi_offset 14, -4
 465:rhea\drivers\MCP7940N/MCP7940N.c ****     
 466:rhea\drivers\MCP7940N/MCP7940N.c ****     // Reading RTCWKDAY register
 467:rhea\drivers\MCP7940N/MCP7940N.c ****     MCP7940N_I2CReader(MCP7940N_I2C_ADDR, MCP7940N_RTCWKDAY, (uint8_t*) &MCP7940N_RegistersLocal.RT
 1106              		.loc 1 467 0
 1107 0002 064C     		ldr	r4, .L92
 1108 0004 0123     		movs	r3, #1
 1109 0006 04F11302 		add	r2, r4, #19
 1110 000a 0321     		movs	r1, #3
 1111 000c DE20     		movs	r0, #222
 1112 000e FFF7FEFF 		bl	MCP7940N_I2CReader
 1113              	.LVL111:
 468:rhea\drivers\MCP7940N/MCP7940N.c ****     
 469:rhea\drivers\MCP7940N/MCP7940N.c ****     // Returning whether PWRFAIL bit is set
ARM GAS  C:\Users\GYULAI~1\AppData\Local\Temp\ccG7iLma.s 			page 29


 470:rhea\drivers\MCP7940N/MCP7940N.c ****     return MCP7940N_RegistersLocal.RTCWKDAY & MCP7940N_RTCWKDAY_PWRFAIL;
 1114              		.loc 1 470 0
 1115 0012 E07C     		ldrb	r0, [r4, #19]	@ zero_extendqisi2
 471:rhea\drivers\MCP7940N/MCP7940N.c **** }
 1116              		.loc 1 471 0
 1117 0014 00F01000 		and	r0, r0, #16
 1118 0018 10BD     		pop	{r4, pc}
 1119              	.L93:
 1120 001a 00BF     		.align	2
 1121              	.L92:
 1122 001c 00000000 		.word	.LANCHOR0
 1123              		.cfi_endproc
 1124              	.LFE29:
 1125              		.size	MCP7940N_HasPowerFailed, .-MCP7940N_HasPowerFailed
 1126              		.section	.text.MCP7940N_IsLeapYear,"ax",%progbits
 1127              		.align	2
 1128              		.global	MCP7940N_IsLeapYear
 1129              		.thumb
 1130              		.thumb_func
 1131              		.type	MCP7940N_IsLeapYear, %function
 1132              	MCP7940N_IsLeapYear:
 1133              	.LFB31:
 472:rhea\drivers\MCP7940N/MCP7940N.c **** 
 473:rhea\drivers\MCP7940N/MCP7940N.c **** void MCP7940N_ClearPowerFailed(void) {
 474:rhea\drivers\MCP7940N/MCP7940N.c ****     
 475:rhea\drivers\MCP7940N/MCP7940N.c ****     // Oscillator status
 476:rhea\drivers\MCP7940N/MCP7940N.c ****     uint8_t externalStatus = MCP7940N_IsExternalOscillatorEnabled();
 477:rhea\drivers\MCP7940N/MCP7940N.c ****     uint8_t internalStatus = MCP7940N_IsOscillatorEnabled();
 478:rhea\drivers\MCP7940N/MCP7940N.c ****     
 479:rhea\drivers\MCP7940N/MCP7940N.c ****     // Disabling oscillator sources
 480:rhea\drivers\MCP7940N/MCP7940N.c ****     if(externalStatus)      MCP7940N_DisableExternalOscillator();
 481:rhea\drivers\MCP7940N/MCP7940N.c ****     else if(internalStatus) MCP7940N_DisableOscillator();
 482:rhea\drivers\MCP7940N/MCP7940N.c ****     
 483:rhea\drivers\MCP7940N/MCP7940N.c ****     // Waiting for oscillator to stop
 484:rhea\drivers\MCP7940N/MCP7940N.c ****     while(MCP7940N_IsOscillatorRunning());
 485:rhea\drivers\MCP7940N/MCP7940N.c ****     
 486:rhea\drivers\MCP7940N/MCP7940N.c ****     // Reading current content of RTCWKDAY register
 487:rhea\drivers\MCP7940N/MCP7940N.c ****     MCP7940N_I2CReader(MCP7940N_I2C_ADDR, MCP7940N_RTCWKDAY, (uint8_t*) &MCP7940N_RegistersLocal.RT
 488:rhea\drivers\MCP7940N/MCP7940N.c ****     
 489:rhea\drivers\MCP7940N/MCP7940N.c ****     // Clearing PWRFAIL flag of RTCWKDAY register
 490:rhea\drivers\MCP7940N/MCP7940N.c ****     MCP7940N_RegistersLocal.RTCWKDAY &= ~MCP7940N_RTCWKDAY_PWRFAIL;
 491:rhea\drivers\MCP7940N/MCP7940N.c ****     
 492:rhea\drivers\MCP7940N/MCP7940N.c ****     // Writing changes to hardware
 493:rhea\drivers\MCP7940N/MCP7940N.c ****     MCP7940N_I2CWriter(MCP7940N_I2C_ADDR, MCP7940N_RTCWKDAY, (uint8_t*) &MCP7940N_RegistersLocal.RT
 494:rhea\drivers\MCP7940N/MCP7940N.c **** 
 495:rhea\drivers\MCP7940N/MCP7940N.c ****     // Enabling oscillator sources
 496:rhea\drivers\MCP7940N/MCP7940N.c ****     if(externalStatus)      MCP7940N_EnableExternalOscillator();
 497:rhea\drivers\MCP7940N/MCP7940N.c ****     else if(internalStatus) MCP7940N_EnableOscillator();
 498:rhea\drivers\MCP7940N/MCP7940N.c **** }
 499:rhea\drivers\MCP7940N/MCP7940N.c **** 
 500:rhea\drivers\MCP7940N/MCP7940N.c **** uint8_t MCP7940N_IsLeapYear(void) {
 1134              		.loc 1 500 0
 1135              		.cfi_startproc
 1136              		@ args = 0, pretend = 0, frame = 0
 1137              		@ frame_needed = 0, uses_anonymous_args = 0
 1138 0000 10B5     		push	{r4, lr}
 1139              		.cfi_def_cfa_offset 8
ARM GAS  C:\Users\GYULAI~1\AppData\Local\Temp\ccG7iLma.s 			page 30


 1140              		.cfi_offset 4, -8
 1141              		.cfi_offset 14, -4
 501:rhea\drivers\MCP7940N/MCP7940N.c ****     
 502:rhea\drivers\MCP7940N/MCP7940N.c ****     // Reading RTCMTH register
 503:rhea\drivers\MCP7940N/MCP7940N.c ****     MCP7940N_I2CReader(MCP7940N_I2C_ADDR, MCP7940N_RTCWKDAY, (uint8_t*) &MCP7940N_RegistersLocal.RT
 1142              		.loc 1 503 0
 1143 0002 064C     		ldr	r4, .L96
 1144 0004 0123     		movs	r3, #1
 1145 0006 04F11302 		add	r2, r4, #19
 1146 000a 0321     		movs	r1, #3
 1147 000c DE20     		movs	r0, #222
 1148 000e FFF7FEFF 		bl	MCP7940N_I2CReader
 1149              	.LVL112:
 504:rhea\drivers\MCP7940N/MCP7940N.c ****     
 505:rhea\drivers\MCP7940N/MCP7940N.c ****     // Returning whether LPYR bit is set
 506:rhea\drivers\MCP7940N/MCP7940N.c ****     return MCP7940N_RegistersLocal.RTCMTH & MCP7940N_RTCMTH_LPYR;
 1150              		.loc 1 506 0
 1151 0012 607D     		ldrb	r0, [r4, #21]	@ zero_extendqisi2
 507:rhea\drivers\MCP7940N/MCP7940N.c **** }
 1152              		.loc 1 507 0
 1153 0014 00F02000 		and	r0, r0, #32
 1154 0018 10BD     		pop	{r4, pc}
 1155              	.L97:
 1156 001a 00BF     		.align	2
 1157              	.L96:
 1158 001c 00000000 		.word	.LANCHOR0
 1159              		.cfi_endproc
 1160              	.LFE31:
 1161              		.size	MCP7940N_IsLeapYear, .-MCP7940N_IsLeapYear
 1162              		.section	.text.MCP7940N_SetMFPMode,"ax",%progbits
 1163              		.align	2
 1164              		.global	MCP7940N_SetMFPMode
 1165              		.thumb
 1166              		.thumb_func
 1167              		.type	MCP7940N_SetMFPMode, %function
 1168              	MCP7940N_SetMFPMode:
 1169              	.LFB32:
 508:rhea\drivers\MCP7940N/MCP7940N.c **** 
 509:rhea\drivers\MCP7940N/MCP7940N.c **** void MCP7940N_SetMFPMode(uint8_t mode) {
 1170              		.loc 1 509 0
 1171              		.cfi_startproc
 1172              		@ args = 0, pretend = 0, frame = 0
 1173              		@ frame_needed = 0, uses_anonymous_args = 0
 1174              	.LVL113:
 1175 0000 08B5     		push	{r3, lr}
 1176              		.cfi_def_cfa_offset 8
 1177              		.cfi_offset 3, -8
 1178              		.cfi_offset 14, -4
 510:rhea\drivers\MCP7940N/MCP7940N.c ****        
 511:rhea\drivers\MCP7940N/MCP7940N.c ****     // Writing MFP mode bits to CONTROL register
 512:rhea\drivers\MCP7940N/MCP7940N.c ****     switch(mode) {
 1179              		.loc 1 512 0
 1180 0002 8F28     		cmp	r0, #143
 1181 0004 10D0     		beq	.L100
 1182 0006 BF28     		cmp	r0, #191
 1183 0008 02D0     		beq	.L101
 1184 000a 4028     		cmp	r0, #64
ARM GAS  C:\Users\GYULAI~1\AppData\Local\Temp\ccG7iLma.s 			page 31


 1185 000c 12D1     		bne	.L104
 1186 000e 05E0     		b	.L102
 1187              	.L101:
 513:rhea\drivers\MCP7940N/MCP7940N.c ****     case MCP7940N_MFP_ALARM:  MCP7940N_RegistersLocal.CONTROL &= MCP7940N_MFP_ALARM; return;
 1188              		.loc 1 513 0
 1189 0010 0C4A     		ldr	r2, .L106
 1190 0012 D37D     		ldrb	r3, [r2, #23]	@ zero_extendqisi2
 1191 0014 23F04003 		bic	r3, r3, #64
 1192 0018 D375     		strb	r3, [r2, #23]
 1193 001a 08BD     		pop	{r3, pc}
 1194              	.L102:
 514:rhea\drivers\MCP7940N/MCP7940N.c ****     case MCP7940N_MFP_SQUARE: MCP7940N_RegistersLocal.CONTROL |= MCP7940N_MFP_SQUARE; return;
 1195              		.loc 1 514 0
 1196 001c 094A     		ldr	r2, .L106
 1197 001e D37D     		ldrb	r3, [r2, #23]	@ zero_extendqisi2
 1198 0020 43F04003 		orr	r3, r3, #64
 1199 0024 D375     		strb	r3, [r2, #23]
 1200 0026 08BD     		pop	{r3, pc}
 1201              	.L100:
 515:rhea\drivers\MCP7940N/MCP7940N.c ****     case MCP7940N_MFP_GPIO:   MCP7940N_RegistersLocal.CONTROL &= MCP7940N_MFP_GPIO;  return;
 1202              		.loc 1 515 0
 1203 0028 064A     		ldr	r2, .L106
 1204 002a D37D     		ldrb	r3, [r2, #23]	@ zero_extendqisi2
 1205 002c 23F07003 		bic	r3, r3, #112
 1206 0030 D375     		strb	r3, [r2, #23]
 1207 0032 08BD     		pop	{r3, pc}
 1208              	.L104:
 516:rhea\drivers\MCP7940N/MCP7940N.c ****     };
 517:rhea\drivers\MCP7940N/MCP7940N.c ****     
 518:rhea\drivers\MCP7940N/MCP7940N.c ****     // Writing changes to hardware
 519:rhea\drivers\MCP7940N/MCP7940N.c ****     MCP7940N_I2CWriter(MCP7940N_I2C_ADDR, MCP7940N_CONTROL, (uint8_t*) &MCP7940N_RegistersLocal.CON
 1209              		.loc 1 519 0
 1210 0034 0123     		movs	r3, #1
 1211 0036 044A     		ldr	r2, .L106+4
 1212 0038 0721     		movs	r1, #7
 1213 003a DE20     		movs	r0, #222
 1214              	.LVL114:
 1215 003c FFF7FEFF 		bl	MCP7940N_I2CWriter
 1216              	.LVL115:
 1217 0040 08BD     		pop	{r3, pc}
 1218              	.L107:
 1219 0042 00BF     		.align	2
 1220              	.L106:
 1221 0044 00000000 		.word	.LANCHOR0
 1222 0048 17000000 		.word	.LANCHOR0+23
 1223              		.cfi_endproc
 1224              	.LFE32:
 1225              		.size	MCP7940N_SetMFPMode, .-MCP7940N_SetMFPMode
 1226              		.section	.text.MCP7940N_GetMFPMode,"ax",%progbits
 1227              		.align	2
 1228              		.global	MCP7940N_GetMFPMode
 1229              		.thumb
 1230              		.thumb_func
 1231              		.type	MCP7940N_GetMFPMode, %function
 1232              	MCP7940N_GetMFPMode:
 1233              	.LFB33:
 520:rhea\drivers\MCP7940N/MCP7940N.c **** }
ARM GAS  C:\Users\GYULAI~1\AppData\Local\Temp\ccG7iLma.s 			page 32


 521:rhea\drivers\MCP7940N/MCP7940N.c **** 
 522:rhea\drivers\MCP7940N/MCP7940N.c **** uint8_t MCP7940N_GetMFPMode() {
 1234              		.loc 1 522 0
 1235              		.cfi_startproc
 1236              		@ args = 0, pretend = 0, frame = 0
 1237              		@ frame_needed = 0, uses_anonymous_args = 0
 1238              		@ link register save eliminated.
 523:rhea\drivers\MCP7940N/MCP7940N.c ****     
 524:rhea\drivers\MCP7940N/MCP7940N.c ****     // Reading CONTROL register
 525:rhea\drivers\MCP7940N/MCP7940N.c ****     uint8_t registerValue = MCP7940N_RegistersLocal.CONTROL;
 1239              		.loc 1 525 0
 1240 0000 0D4B     		ldr	r3, .L114
 1241 0002 DB7D     		ldrb	r3, [r3, #23]	@ zero_extendqisi2
 1242              	.LVL116:
 526:rhea\drivers\MCP7940N/MCP7940N.c ****     
 527:rhea\drivers\MCP7940N/MCP7940N.c ****     // Returning current mode based on the masked register values
 528:rhea\drivers\MCP7940N/MCP7940N.c ****     switch(registerValue & (MCP7940N_CONTROL_SQWEN | MCP7940N_CONTROL_ALM0EN | MCP7940N_CONTROL_ALM
 1243              		.loc 1 528 0
 1244 0004 03F07003 		and	r3, r3, #112
 1245              	.LVL117:
 1246 0008 402B     		cmp	r3, #64
 1247 000a 12D0     		beq	.L113
 1248 000c 06D8     		bhi	.L111
 1249 000e 202B     		cmp	r3, #32
 1250 0010 0BD0     		beq	.L112
 1251 0012 302B     		cmp	r3, #48
 1252 0014 09D0     		beq	.L112
 1253 0016 102B     		cmp	r3, #16
 1254 0018 09D1     		bne	.L109
 1255 001a 06E0     		b	.L112
 1256              	.L111:
 1257 001c 602B     		cmp	r3, #96
 1258 001e 08D0     		beq	.L113
 1259 0020 702B     		cmp	r3, #112
 1260 0022 06D0     		beq	.L113
 1261 0024 502B     		cmp	r3, #80
 1262 0026 02D1     		bne	.L109
 1263 0028 03E0     		b	.L113
 1264              	.L112:
 529:rhea\drivers\MCP7940N/MCP7940N.c ****     case MCP7940N_CONTROL_ALM0EN: 
 530:rhea\drivers\MCP7940N/MCP7940N.c ****     case MCP7940N_CONTROL_ALM1EN:
 531:rhea\drivers\MCP7940N/MCP7940N.c ****     case MCP7940N_CONTROL_ALM0EN | MCP7940N_CONTROL_ALM1EN: 
 532:rhea\drivers\MCP7940N/MCP7940N.c ****          return MCP7940N_MFP_ALARM;
 1265              		.loc 1 532 0
 1266 002a BF20     		movs	r0, #191
 1267 002c 7047     		bx	lr
 1268              	.L109:
 533:rhea\drivers\MCP7940N/MCP7940N.c ****     
 534:rhea\drivers\MCP7940N/MCP7940N.c ****     case MCP7940N_CONTROL_SQWEN:
 535:rhea\drivers\MCP7940N/MCP7940N.c ****     case MCP7940N_CONTROL_SQWEN | MCP7940N_CONTROL_ALM0EN:
 536:rhea\drivers\MCP7940N/MCP7940N.c ****     case MCP7940N_CONTROL_SQWEN | MCP7940N_CONTROL_ALM1EN:
 537:rhea\drivers\MCP7940N/MCP7940N.c ****     case MCP7940N_CONTROL_SQWEN | MCP7940N_CONTROL_ALM0EN | MCP7940N_CONTROL_ALM1EN: 
 538:rhea\drivers\MCP7940N/MCP7940N.c ****          return MCP7940N_MFP_SQUARE;
 539:rhea\drivers\MCP7940N/MCP7940N.c ****     
 540:rhea\drivers\MCP7940N/MCP7940N.c ****     default: return MCP7940N_MFP_GPIO;
 1269              		.loc 1 540 0
 1270 002e 8F20     		movs	r0, #143
ARM GAS  C:\Users\GYULAI~1\AppData\Local\Temp\ccG7iLma.s 			page 33


 1271 0030 7047     		bx	lr
 1272              	.L113:
 538:rhea\drivers\MCP7940N/MCP7940N.c ****     
 1273              		.loc 1 538 0
 1274 0032 4020     		movs	r0, #64
 541:rhea\drivers\MCP7940N/MCP7940N.c ****     };
 542:rhea\drivers\MCP7940N/MCP7940N.c **** }
 1275              		.loc 1 542 0
 1276 0034 7047     		bx	lr
 1277              	.L115:
 1278 0036 00BF     		.align	2
 1279              	.L114:
 1280 0038 00000000 		.word	.LANCHOR0
 1281              		.cfi_endproc
 1282              	.LFE33:
 1283              		.size	MCP7940N_GetMFPMode, .-MCP7940N_GetMFPMode
 1284              		.section	.text.MCP7940N_SetGPIO,"ax",%progbits
 1285              		.align	2
 1286              		.global	MCP7940N_SetGPIO
 1287              		.thumb
 1288              		.thumb_func
 1289              		.type	MCP7940N_SetGPIO, %function
 1290              	MCP7940N_SetGPIO:
 1291              	.LFB34:
 543:rhea\drivers\MCP7940N/MCP7940N.c **** 
 544:rhea\drivers\MCP7940N/MCP7940N.c **** void MCP7940N_SetGPIO(uint8_t value) {
 1292              		.loc 1 544 0
 1293              		.cfi_startproc
 1294              		@ args = 0, pretend = 0, frame = 0
 1295              		@ frame_needed = 0, uses_anonymous_args = 0
 1296              	.LVL118:
 1297 0000 08B5     		push	{r3, lr}
 1298              		.cfi_def_cfa_offset 8
 1299              		.cfi_offset 3, -8
 1300              		.cfi_offset 14, -4
 545:rhea\drivers\MCP7940N/MCP7940N.c **** 
 546:rhea\drivers\MCP7940N/MCP7940N.c ****     // Writing CONTROL register
 547:rhea\drivers\MCP7940N/MCP7940N.c ****     MCP7940N_RegistersLocal.CONTROL &= ~MCP7940N_CONTROL_OUT;
 1301              		.loc 1 547 0
 1302 0002 064A     		ldr	r2, .L118
 1303 0004 D37D     		ldrb	r3, [r2, #23]	@ zero_extendqisi2
 1304 0006 03F07F03 		and	r3, r3, #127
 548:rhea\drivers\MCP7940N/MCP7940N.c ****     MCP7940N_RegistersLocal.CONTROL |=  value;
 1305              		.loc 1 548 0
 1306 000a 1843     		orrs	r0, r0, r3
 1307              	.LVL119:
 1308 000c 02F8170F 		strb	r0, [r2, #23]!
 549:rhea\drivers\MCP7940N/MCP7940N.c ****     
 550:rhea\drivers\MCP7940N/MCP7940N.c ****     // Writing changes to hardware
 551:rhea\drivers\MCP7940N/MCP7940N.c ****     MCP7940N_I2CWriter(MCP7940N_I2C_ADDR, MCP7940N_CONTROL, (uint8_t*) &MCP7940N_RegistersLocal.CON
 1309              		.loc 1 551 0
 1310 0010 0123     		movs	r3, #1
 1311 0012 0721     		movs	r1, #7
 1312 0014 DE20     		movs	r0, #222
 1313 0016 FFF7FEFF 		bl	MCP7940N_I2CWriter
 1314              	.LVL120:
 1315 001a 08BD     		pop	{r3, pc}
ARM GAS  C:\Users\GYULAI~1\AppData\Local\Temp\ccG7iLma.s 			page 34


 1316              	.L119:
 1317              		.align	2
 1318              	.L118:
 1319 001c 00000000 		.word	.LANCHOR0
 1320              		.cfi_endproc
 1321              	.LFE34:
 1322              		.size	MCP7940N_SetGPIO, .-MCP7940N_SetGPIO
 1323              		.section	.text.MCP7940N_EnableCoarseTrimming,"ax",%progbits
 1324              		.align	2
 1325              		.global	MCP7940N_EnableCoarseTrimming
 1326              		.thumb
 1327              		.thumb_func
 1328              		.type	MCP7940N_EnableCoarseTrimming, %function
 1329              	MCP7940N_EnableCoarseTrimming:
 1330              	.LFB35:
 552:rhea\drivers\MCP7940N/MCP7940N.c **** }
 553:rhea\drivers\MCP7940N/MCP7940N.c **** 
 554:rhea\drivers\MCP7940N/MCP7940N.c **** void MCP7940N_EnableCoarseTrimming(void) {
 1331              		.loc 1 554 0
 1332              		.cfi_startproc
 1333              		@ args = 0, pretend = 0, frame = 0
 1334              		@ frame_needed = 0, uses_anonymous_args = 0
 1335 0000 08B5     		push	{r3, lr}
 1336              		.cfi_def_cfa_offset 8
 1337              		.cfi_offset 3, -8
 1338              		.cfi_offset 14, -4
 555:rhea\drivers\MCP7940N/MCP7940N.c **** 
 556:rhea\drivers\MCP7940N/MCP7940N.c ****     // Setting CRSTRIM bit of CONTROL register
 557:rhea\drivers\MCP7940N/MCP7940N.c ****     MCP7940N_RegistersLocal.CONTROL |= MCP7940N_CONTROL_CRSTRIM;
 1339              		.loc 1 557 0
 1340 0002 064A     		ldr	r2, .L122
 1341 0004 D37D     		ldrb	r3, [r2, #23]	@ zero_extendqisi2
 1342 0006 43F00403 		orr	r3, r3, #4
 1343 000a 02F8173F 		strb	r3, [r2, #23]!
 558:rhea\drivers\MCP7940N/MCP7940N.c ****     
 559:rhea\drivers\MCP7940N/MCP7940N.c ****     // Writing changes to hardware
 560:rhea\drivers\MCP7940N/MCP7940N.c ****     MCP7940N_I2CWriter(MCP7940N_I2C_ADDR, MCP7940N_CONTROL, (uint8_t*) &MCP7940N_RegistersLocal.CON
 1344              		.loc 1 560 0
 1345 000e 0123     		movs	r3, #1
 1346 0010 0721     		movs	r1, #7
 1347 0012 DE20     		movs	r0, #222
 1348 0014 FFF7FEFF 		bl	MCP7940N_I2CWriter
 1349              	.LVL121:
 1350 0018 08BD     		pop	{r3, pc}
 1351              	.L123:
 1352 001a 00BF     		.align	2
 1353              	.L122:
 1354 001c 00000000 		.word	.LANCHOR0
 1355              		.cfi_endproc
 1356              	.LFE35:
 1357              		.size	MCP7940N_EnableCoarseTrimming, .-MCP7940N_EnableCoarseTrimming
 1358              		.section	.text.MCP7940N_DisableCoarseTrimming,"ax",%progbits
 1359              		.align	2
 1360              		.global	MCP7940N_DisableCoarseTrimming
 1361              		.thumb
 1362              		.thumb_func
 1363              		.type	MCP7940N_DisableCoarseTrimming, %function
ARM GAS  C:\Users\GYULAI~1\AppData\Local\Temp\ccG7iLma.s 			page 35


 1364              	MCP7940N_DisableCoarseTrimming:
 1365              	.LFB36:
 561:rhea\drivers\MCP7940N/MCP7940N.c **** }
 562:rhea\drivers\MCP7940N/MCP7940N.c **** 
 563:rhea\drivers\MCP7940N/MCP7940N.c **** void MCP7940N_DisableCoarseTrimming(void) {
 1366              		.loc 1 563 0
 1367              		.cfi_startproc
 1368              		@ args = 0, pretend = 0, frame = 0
 1369              		@ frame_needed = 0, uses_anonymous_args = 0
 1370 0000 08B5     		push	{r3, lr}
 1371              		.cfi_def_cfa_offset 8
 1372              		.cfi_offset 3, -8
 1373              		.cfi_offset 14, -4
 564:rhea\drivers\MCP7940N/MCP7940N.c **** 
 565:rhea\drivers\MCP7940N/MCP7940N.c ****     // Clearing CRSTRIM bit of CONTROL register
 566:rhea\drivers\MCP7940N/MCP7940N.c ****     MCP7940N_RegistersLocal.CONTROL &= ~MCP7940N_CONTROL_CRSTRIM;
 1374              		.loc 1 566 0
 1375 0002 064A     		ldr	r2, .L126
 1376 0004 D37D     		ldrb	r3, [r2, #23]	@ zero_extendqisi2
 1377 0006 23F00403 		bic	r3, r3, #4
 1378 000a 02F8173F 		strb	r3, [r2, #23]!
 567:rhea\drivers\MCP7940N/MCP7940N.c ****     
 568:rhea\drivers\MCP7940N/MCP7940N.c ****     // Writing changes to hardware
 569:rhea\drivers\MCP7940N/MCP7940N.c ****     MCP7940N_I2CWriter(MCP7940N_I2C_ADDR, MCP7940N_CONTROL, (uint8_t*) &MCP7940N_RegistersLocal.CON
 1379              		.loc 1 569 0
 1380 000e 0123     		movs	r3, #1
 1381 0010 0721     		movs	r1, #7
 1382 0012 DE20     		movs	r0, #222
 1383 0014 FFF7FEFF 		bl	MCP7940N_I2CWriter
 1384              	.LVL122:
 1385 0018 08BD     		pop	{r3, pc}
 1386              	.L127:
 1387 001a 00BF     		.align	2
 1388              	.L126:
 1389 001c 00000000 		.word	.LANCHOR0
 1390              		.cfi_endproc
 1391              	.LFE36:
 1392              		.size	MCP7940N_DisableCoarseTrimming, .-MCP7940N_DisableCoarseTrimming
 1393              		.section	.text.MCP7940N_IsCoarseTrimmingEnabled,"ax",%progbits
 1394              		.align	2
 1395              		.global	MCP7940N_IsCoarseTrimmingEnabled
 1396              		.thumb
 1397              		.thumb_func
 1398              		.type	MCP7940N_IsCoarseTrimmingEnabled, %function
 1399              	MCP7940N_IsCoarseTrimmingEnabled:
 1400              	.LFB37:
 570:rhea\drivers\MCP7940N/MCP7940N.c **** }
 571:rhea\drivers\MCP7940N/MCP7940N.c **** 
 572:rhea\drivers\MCP7940N/MCP7940N.c **** uint8_t MCP7940N_IsCoarseTrimmingEnabled(void) {
 1401              		.loc 1 572 0
 1402              		.cfi_startproc
 1403              		@ args = 0, pretend = 0, frame = 0
 1404              		@ frame_needed = 0, uses_anonymous_args = 0
 1405              		@ link register save eliminated.
 573:rhea\drivers\MCP7940N/MCP7940N.c **** 
 574:rhea\drivers\MCP7940N/MCP7940N.c ****     // Returning whether CRSTRIM bit is set
 575:rhea\drivers\MCP7940N/MCP7940N.c ****     return MCP7940N_RegistersLocal.CONTROL & MCP7940N_CONTROL_CRSTRIM;
ARM GAS  C:\Users\GYULAI~1\AppData\Local\Temp\ccG7iLma.s 			page 36


 1406              		.loc 1 575 0
 1407 0000 024B     		ldr	r3, .L129
 1408 0002 D87D     		ldrb	r0, [r3, #23]	@ zero_extendqisi2
 576:rhea\drivers\MCP7940N/MCP7940N.c **** }
 1409              		.loc 1 576 0
 1410 0004 00F00400 		and	r0, r0, #4
 1411 0008 7047     		bx	lr
 1412              	.L130:
 1413 000a 00BF     		.align	2
 1414              	.L129:
 1415 000c 00000000 		.word	.LANCHOR0
 1416              		.cfi_endproc
 1417              	.LFE37:
 1418              		.size	MCP7940N_IsCoarseTrimmingEnabled, .-MCP7940N_IsCoarseTrimmingEnabled
 1419              		.section	.text.MCP7940N_SetTrimmingValue,"ax",%progbits
 1420              		.align	2
 1421              		.global	MCP7940N_SetTrimmingValue
 1422              		.thumb
 1423              		.thumb_func
 1424              		.type	MCP7940N_SetTrimmingValue, %function
 1425              	MCP7940N_SetTrimmingValue:
 1426              	.LFB38:
 577:rhea\drivers\MCP7940N/MCP7940N.c **** 
 578:rhea\drivers\MCP7940N/MCP7940N.c **** void MCP7940N_SetTrimmingValue(int8_t value) {
 1427              		.loc 1 578 0
 1428              		.cfi_startproc
 1429              		@ args = 0, pretend = 0, frame = 0
 1430              		@ frame_needed = 0, uses_anonymous_args = 0
 1431              	.LVL123:
 1432 0000 08B5     		push	{r3, lr}
 1433              		.cfi_def_cfa_offset 8
 1434              		.cfi_offset 3, -8
 1435              		.cfi_offset 14, -4
 579:rhea\drivers\MCP7940N/MCP7940N.c ****     
 580:rhea\drivers\MCP7940N/MCP7940N.c ****     // Setting sign flag of OSCTRIM register
 581:rhea\drivers\MCP7940N/MCP7940N.c ****     if(value > 0) MCP7940N_RegistersLocal.OSCTRIM |=  MCP7940N_OSCTRIM_SIGN;
 1436              		.loc 1 581 0
 1437 0002 0028     		cmp	r0, #0
 1438              	.LVL124:
 1439 0004 05DD     		ble	.L132
 1440              		.loc 1 581 0 is_stmt 0 discriminator 1
 1441 0006 0D4A     		ldr	r2, .L135
 1442 0008 137E     		ldrb	r3, [r2, #24]	@ zero_extendqisi2
 1443 000a 63F07F03 		orn	r3, r3, #127
 1444 000e 1376     		strb	r3, [r2, #24]
 1445 0010 04E0     		b	.L133
 1446              	.L132:
 582:rhea\drivers\MCP7940N/MCP7940N.c ****     else          MCP7940N_RegistersLocal.OSCTRIM &= ~MCP7940N_OSCTRIM_SIGN;
 1447              		.loc 1 582 0 is_stmt 1
 1448 0012 0A4A     		ldr	r2, .L135
 1449 0014 137E     		ldrb	r3, [r2, #24]	@ zero_extendqisi2
 1450 0016 03F07F03 		and	r3, r3, #127
 1451 001a 1376     		strb	r3, [r2, #24]
 1452              	.L133:
 583:rhea\drivers\MCP7940N/MCP7940N.c ****     
 584:rhea\drivers\MCP7940N/MCP7940N.c ****     // Setting trimming bits of OSCTRIM register
 585:rhea\drivers\MCP7940N/MCP7940N.c ****     MCP7940N_RegistersLocal.OSCTRIM &= ~MCP7940N_OSCTRIM_TRIMVAL;
ARM GAS  C:\Users\GYULAI~1\AppData\Local\Temp\ccG7iLma.s 			page 37


 1453              		.loc 1 585 0
 1454 001c 074A     		ldr	r2, .L135
 1455 001e 137E     		ldrb	r3, [r2, #24]	@ zero_extendqisi2
 1456 0020 03F08003 		and	r3, r3, #128
 586:rhea\drivers\MCP7940N/MCP7940N.c ****     MCP7940N_RegistersLocal.OSCTRIM |= (uint8_t) abs(value);
 1457              		.loc 1 586 0
 1458 0024 0028     		cmp	r0, #0
 1459 0026 B8BF     		it	lt
 1460 0028 4042     		rsblt	r0, r0, #0
 1461 002a 1843     		orrs	r0, r0, r3
 1462 002c 1076     		strb	r0, [r2, #24]
 587:rhea\drivers\MCP7940N/MCP7940N.c ****     
 588:rhea\drivers\MCP7940N/MCP7940N.c ****     // Writing changes to hardware
 589:rhea\drivers\MCP7940N/MCP7940N.c ****     MCP7940N_I2CWriter(MCP7940N_I2C_ADDR, MCP7940N_CONTROL, (uint8_t*) &MCP7940N_RegistersLocal.CON
 1463              		.loc 1 589 0
 1464 002e 0123     		movs	r3, #1
 1465 0030 1732     		adds	r2, r2, #23
 1466 0032 0721     		movs	r1, #7
 1467 0034 DE20     		movs	r0, #222
 1468 0036 FFF7FEFF 		bl	MCP7940N_I2CWriter
 1469              	.LVL125:
 1470 003a 08BD     		pop	{r3, pc}
 1471              	.L136:
 1472              		.align	2
 1473              	.L135:
 1474 003c 00000000 		.word	.LANCHOR0
 1475              		.cfi_endproc
 1476              	.LFE38:
 1477              		.size	MCP7940N_SetTrimmingValue, .-MCP7940N_SetTrimmingValue
 1478              		.section	.text.MCP7940N_GetTrimmingValue,"ax",%progbits
 1479              		.align	2
 1480              		.global	MCP7940N_GetTrimmingValue
 1481              		.thumb
 1482              		.thumb_func
 1483              		.type	MCP7940N_GetTrimmingValue, %function
 1484              	MCP7940N_GetTrimmingValue:
 1485              	.LFB39:
 590:rhea\drivers\MCP7940N/MCP7940N.c **** }
 591:rhea\drivers\MCP7940N/MCP7940N.c **** 
 592:rhea\drivers\MCP7940N/MCP7940N.c **** int8_t MCP7940N_GetTrimmingValue(void) {
 1486              		.loc 1 592 0
 1487              		.cfi_startproc
 1488              		@ args = 0, pretend = 0, frame = 0
 1489              		@ frame_needed = 0, uses_anonymous_args = 0
 1490              		@ link register save eliminated.
 593:rhea\drivers\MCP7940N/MCP7940N.c ****     
 594:rhea\drivers\MCP7940N/MCP7940N.c ****     // Reading OSCTRIM register
 595:rhea\drivers\MCP7940N/MCP7940N.c ****     uint8_t registerValue = MCP7940N_RegistersLocal.OSCTRIM & MCP7940N_OSCTRIM_TRIMVAL;
 1491              		.loc 1 595 0
 1492 0000 054B     		ldr	r3, .L140
 1493 0002 1B7E     		ldrb	r3, [r3, #24]	@ zero_extendqisi2
 1494 0004 03F07F00 		and	r0, r3, #127
 1495              	.LVL126:
 596:rhea\drivers\MCP7940N/MCP7940N.c ****     
 597:rhea\drivers\MCP7940N/MCP7940N.c ****     // Returning trimming value
 598:rhea\drivers\MCP7940N/MCP7940N.c ****     return MCP7940N_RegistersLocal.OSCTRIM & MCP7940N_OSCTRIM_SIGN ? registerValue : -registerValue
 1496              		.loc 1 598 0
ARM GAS  C:\Users\GYULAI~1\AppData\Local\Temp\ccG7iLma.s 			page 38


 1497 0008 13F0800F 		tst	r3, #128
 1498 000c 02D1     		bne	.L138
 1499              		.loc 1 598 0 is_stmt 0 discriminator 1
 1500 000e 4042     		negs	r0, r0
 1501              	.LVL127:
 1502 0010 40B2     		sxtb	r0, r0
 1503              	.LVL128:
 1504 0012 7047     		bx	lr
 1505              	.LVL129:
 1506              	.L138:
 1507              		.loc 1 598 0 discriminator 2
 1508 0014 40B2     		sxtb	r0, r0
 599:rhea\drivers\MCP7940N/MCP7940N.c **** }
 1509              		.loc 1 599 0 is_stmt 1 discriminator 2
 1510 0016 7047     		bx	lr
 1511              	.L141:
 1512              		.align	2
 1513              	.L140:
 1514 0018 00000000 		.word	.LANCHOR0
 1515              		.cfi_endproc
 1516              	.LFE39:
 1517              		.size	MCP7940N_GetTrimmingValue, .-MCP7940N_GetTrimmingValue
 1518              		.section	.text.MCP7940N_GetSquarewaveFrequency,"ax",%progbits
 1519              		.align	2
 1520              		.global	MCP7940N_GetSquarewaveFrequency
 1521              		.thumb
 1522              		.thumb_func
 1523              		.type	MCP7940N_GetSquarewaveFrequency, %function
 1524              	MCP7940N_GetSquarewaveFrequency:
 1525              	.LFB40:
 600:rhea\drivers\MCP7940N/MCP7940N.c **** 
 601:rhea\drivers\MCP7940N/MCP7940N.c **** uint8_t MCP7940N_GetSquarewaveFrequency(void) {
 1526              		.loc 1 601 0
 1527              		.cfi_startproc
 1528              		@ args = 0, pretend = 0, frame = 0
 1529              		@ frame_needed = 0, uses_anonymous_args = 0
 1530              		@ link register save eliminated.
 602:rhea\drivers\MCP7940N/MCP7940N.c **** 
 603:rhea\drivers\MCP7940N/MCP7940N.c ****     // Returning SQWFS bits of CONTROL register
 604:rhea\drivers\MCP7940N/MCP7940N.c ****     return MCP7940N_RegistersLocal.CONTROL & MCP7940N_CONTROL_SQWFS;
 1531              		.loc 1 604 0
 1532 0000 024B     		ldr	r3, .L143
 1533 0002 D87D     		ldrb	r0, [r3, #23]	@ zero_extendqisi2
 605:rhea\drivers\MCP7940N/MCP7940N.c **** }
 1534              		.loc 1 605 0
 1535 0004 00F00300 		and	r0, r0, #3
 1536 0008 7047     		bx	lr
 1537              	.L144:
 1538 000a 00BF     		.align	2
 1539              	.L143:
 1540 000c 00000000 		.word	.LANCHOR0
 1541              		.cfi_endproc
 1542              	.LFE40:
 1543              		.size	MCP7940N_GetSquarewaveFrequency, .-MCP7940N_GetSquarewaveFrequency
 1544              		.section	.text.MCP7940N_SetSquarewaveFrequency,"ax",%progbits
 1545              		.align	2
 1546              		.global	MCP7940N_SetSquarewaveFrequency
ARM GAS  C:\Users\GYULAI~1\AppData\Local\Temp\ccG7iLma.s 			page 39


 1547              		.thumb
 1548              		.thumb_func
 1549              		.type	MCP7940N_SetSquarewaveFrequency, %function
 1550              	MCP7940N_SetSquarewaveFrequency:
 1551              	.LFB41:
 606:rhea\drivers\MCP7940N/MCP7940N.c **** 
 607:rhea\drivers\MCP7940N/MCP7940N.c **** void MCP7940N_SetSquarewaveFrequency(uint8_t frequency) {
 1552              		.loc 1 607 0
 1553              		.cfi_startproc
 1554              		@ args = 0, pretend = 0, frame = 0
 1555              		@ frame_needed = 0, uses_anonymous_args = 0
 1556              	.LVL130:
 1557 0000 08B5     		push	{r3, lr}
 1558              		.cfi_def_cfa_offset 8
 1559              		.cfi_offset 3, -8
 1560              		.cfi_offset 14, -4
 608:rhea\drivers\MCP7940N/MCP7940N.c ****     
 609:rhea\drivers\MCP7940N/MCP7940N.c ****     // Clearing frequency bits of CONTROL register
 610:rhea\drivers\MCP7940N/MCP7940N.c ****     MCP7940N_RegistersLocal.CONTROL &= ~MCP7940N_CONTROL_SQWFS;
 1561              		.loc 1 610 0
 1562 0002 064A     		ldr	r2, .L147
 1563 0004 D37D     		ldrb	r3, [r2, #23]	@ zero_extendqisi2
 1564 0006 03F0FC03 		and	r3, r3, #252
 611:rhea\drivers\MCP7940N/MCP7940N.c ****     
 612:rhea\drivers\MCP7940N/MCP7940N.c ****     // Setting frequency bits of CONTROL register
 613:rhea\drivers\MCP7940N/MCP7940N.c ****     MCP7940N_RegistersLocal.CONTROL |= frequency;
 1565              		.loc 1 613 0
 1566 000a 1843     		orrs	r0, r0, r3
 1567              	.LVL131:
 1568 000c 02F8170F 		strb	r0, [r2, #23]!
 614:rhea\drivers\MCP7940N/MCP7940N.c ****     
 615:rhea\drivers\MCP7940N/MCP7940N.c ****     // Writing changes to hardware
 616:rhea\drivers\MCP7940N/MCP7940N.c ****     MCP7940N_I2CWriter(MCP7940N_I2C_ADDR, MCP7940N_CONTROL, (uint8_t*) &MCP7940N_RegistersLocal.CON
 1569              		.loc 1 616 0
 1570 0010 0123     		movs	r3, #1
 1571 0012 0721     		movs	r1, #7
 1572 0014 DE20     		movs	r0, #222
 1573 0016 FFF7FEFF 		bl	MCP7940N_I2CWriter
 1574              	.LVL132:
 1575 001a 08BD     		pop	{r3, pc}
 1576              	.L148:
 1577              		.align	2
 1578              	.L147:
 1579 001c 00000000 		.word	.LANCHOR0
 1580              		.cfi_endproc
 1581              	.LFE41:
 1582              		.size	MCP7940N_SetSquarewaveFrequency, .-MCP7940N_SetSquarewaveFrequency
 1583              		.section	.text.MCP7940N_EnableExternalOscillator,"ax",%progbits
 1584              		.align	2
 1585              		.global	MCP7940N_EnableExternalOscillator
 1586              		.thumb
 1587              		.thumb_func
 1588              		.type	MCP7940N_EnableExternalOscillator, %function
 1589              	MCP7940N_EnableExternalOscillator:
 1590              	.LFB42:
 617:rhea\drivers\MCP7940N/MCP7940N.c **** }
 618:rhea\drivers\MCP7940N/MCP7940N.c **** 
ARM GAS  C:\Users\GYULAI~1\AppData\Local\Temp\ccG7iLma.s 			page 40


 619:rhea\drivers\MCP7940N/MCP7940N.c **** void MCP7940N_EnableExternalOscillator(void) {
 1591              		.loc 1 619 0
 1592              		.cfi_startproc
 1593              		@ args = 0, pretend = 0, frame = 0
 1594              		@ frame_needed = 0, uses_anonymous_args = 0
 1595 0000 08B5     		push	{r3, lr}
 1596              		.cfi_def_cfa_offset 8
 1597              		.cfi_offset 3, -8
 1598              		.cfi_offset 14, -4
 620:rhea\drivers\MCP7940N/MCP7940N.c **** 
 621:rhea\drivers\MCP7940N/MCP7940N.c ****     // Setting EXTOSC bit of CONTROL register
 622:rhea\drivers\MCP7940N/MCP7940N.c ****     MCP7940N_RegistersLocal.CONTROL |= MCP7940N_CONTROL_EXTOSC;
 1599              		.loc 1 622 0
 1600 0002 064A     		ldr	r2, .L151
 1601 0004 D37D     		ldrb	r3, [r2, #23]	@ zero_extendqisi2
 1602 0006 43F00803 		orr	r3, r3, #8
 1603 000a 02F8173F 		strb	r3, [r2, #23]!
 623:rhea\drivers\MCP7940N/MCP7940N.c ****     
 624:rhea\drivers\MCP7940N/MCP7940N.c ****     // Writing changes to hardware
 625:rhea\drivers\MCP7940N/MCP7940N.c ****     MCP7940N_I2CWriter(MCP7940N_I2C_ADDR, MCP7940N_CONTROL, (uint8_t*) &MCP7940N_RegistersLocal.CON
 1604              		.loc 1 625 0
 1605 000e 0123     		movs	r3, #1
 1606 0010 0721     		movs	r1, #7
 1607 0012 DE20     		movs	r0, #222
 1608 0014 FFF7FEFF 		bl	MCP7940N_I2CWriter
 1609              	.LVL133:
 1610 0018 08BD     		pop	{r3, pc}
 1611              	.L152:
 1612 001a 00BF     		.align	2
 1613              	.L151:
 1614 001c 00000000 		.word	.LANCHOR0
 1615              		.cfi_endproc
 1616              	.LFE42:
 1617              		.size	MCP7940N_EnableExternalOscillator, .-MCP7940N_EnableExternalOscillator
 1618              		.section	.text.MCP7940N_DisableExternalOscillator,"ax",%progbits
 1619              		.align	2
 1620              		.global	MCP7940N_DisableExternalOscillator
 1621              		.thumb
 1622              		.thumb_func
 1623              		.type	MCP7940N_DisableExternalOscillator, %function
 1624              	MCP7940N_DisableExternalOscillator:
 1625              	.LFB43:
 626:rhea\drivers\MCP7940N/MCP7940N.c **** }
 627:rhea\drivers\MCP7940N/MCP7940N.c **** 
 628:rhea\drivers\MCP7940N/MCP7940N.c **** void MCP7940N_DisableExternalOscillator(void) {
 1626              		.loc 1 628 0
 1627              		.cfi_startproc
 1628              		@ args = 0, pretend = 0, frame = 0
 1629              		@ frame_needed = 0, uses_anonymous_args = 0
 1630 0000 08B5     		push	{r3, lr}
 1631              		.cfi_def_cfa_offset 8
 1632              		.cfi_offset 3, -8
 1633              		.cfi_offset 14, -4
 629:rhea\drivers\MCP7940N/MCP7940N.c **** 
 630:rhea\drivers\MCP7940N/MCP7940N.c ****     // Clearing EXTOSC bit of CONTROL register
 631:rhea\drivers\MCP7940N/MCP7940N.c ****     MCP7940N_RegistersLocal.CONTROL &= ~MCP7940N_CONTROL_EXTOSC;
 1634              		.loc 1 631 0
ARM GAS  C:\Users\GYULAI~1\AppData\Local\Temp\ccG7iLma.s 			page 41


 1635 0002 064A     		ldr	r2, .L155
 1636 0004 D37D     		ldrb	r3, [r2, #23]	@ zero_extendqisi2
 1637 0006 23F00803 		bic	r3, r3, #8
 1638 000a 02F8173F 		strb	r3, [r2, #23]!
 632:rhea\drivers\MCP7940N/MCP7940N.c ****     
 633:rhea\drivers\MCP7940N/MCP7940N.c ****     // Writing changes to hardware
 634:rhea\drivers\MCP7940N/MCP7940N.c ****     MCP7940N_I2CWriter(MCP7940N_I2C_ADDR, MCP7940N_CONTROL, (uint8_t*) &MCP7940N_RegistersLocal.CON
 1639              		.loc 1 634 0
 1640 000e 0123     		movs	r3, #1
 1641 0010 0721     		movs	r1, #7
 1642 0012 DE20     		movs	r0, #222
 1643 0014 FFF7FEFF 		bl	MCP7940N_I2CWriter
 1644              	.LVL134:
 1645 0018 08BD     		pop	{r3, pc}
 1646              	.L156:
 1647 001a 00BF     		.align	2
 1648              	.L155:
 1649 001c 00000000 		.word	.LANCHOR0
 1650              		.cfi_endproc
 1651              	.LFE43:
 1652              		.size	MCP7940N_DisableExternalOscillator, .-MCP7940N_DisableExternalOscillator
 1653              		.section	.text.MCP7940N_IsExternalOscillatorEnabled,"ax",%progbits
 1654              		.align	2
 1655              		.global	MCP7940N_IsExternalOscillatorEnabled
 1656              		.thumb
 1657              		.thumb_func
 1658              		.type	MCP7940N_IsExternalOscillatorEnabled, %function
 1659              	MCP7940N_IsExternalOscillatorEnabled:
 1660              	.LFB44:
 635:rhea\drivers\MCP7940N/MCP7940N.c **** }
 636:rhea\drivers\MCP7940N/MCP7940N.c **** 
 637:rhea\drivers\MCP7940N/MCP7940N.c **** uint8_t MCP7940N_IsExternalOscillatorEnabled(void) {
 1661              		.loc 1 637 0
 1662              		.cfi_startproc
 1663              		@ args = 0, pretend = 0, frame = 0
 1664              		@ frame_needed = 0, uses_anonymous_args = 0
 1665              		@ link register save eliminated.
 638:rhea\drivers\MCP7940N/MCP7940N.c **** 
 639:rhea\drivers\MCP7940N/MCP7940N.c ****     // Returning whether EXTOSC bit of CONTROL register is set
 640:rhea\drivers\MCP7940N/MCP7940N.c ****     return MCP7940N_RegistersLocal.CONTROL & MCP7940N_CONTROL_EXTOSC;
 1666              		.loc 1 640 0
 1667 0000 024B     		ldr	r3, .L158
 1668 0002 D87D     		ldrb	r0, [r3, #23]	@ zero_extendqisi2
 641:rhea\drivers\MCP7940N/MCP7940N.c **** }
 1669              		.loc 1 641 0
 1670 0004 00F00800 		and	r0, r0, #8
 1671 0008 7047     		bx	lr
 1672              	.L159:
 1673 000a 00BF     		.align	2
 1674              	.L158:
 1675 000c 00000000 		.word	.LANCHOR0
 1676              		.cfi_endproc
 1677              	.LFE44:
 1678              		.size	MCP7940N_IsExternalOscillatorEnabled, .-MCP7940N_IsExternalOscillatorEnabled
 1679              		.section	.text.MCP7940N_WriteRegisters,"ax",%progbits
 1680              		.align	2
 1681              		.global	MCP7940N_WriteRegisters
ARM GAS  C:\Users\GYULAI~1\AppData\Local\Temp\ccG7iLma.s 			page 42


 1682              		.thumb
 1683              		.thumb_func
 1684              		.type	MCP7940N_WriteRegisters, %function
 1685              	MCP7940N_WriteRegisters:
 1686              	.LFB4:
 100:rhea\drivers\MCP7940N/MCP7940N.c ****     
 1687              		.loc 1 100 0
 1688              		.cfi_startproc
 1689              		@ args = 0, pretend = 0, frame = 0
 1690              		@ frame_needed = 0, uses_anonymous_args = 0
 1691 0000 38B5     		push	{r3, r4, r5, lr}
 1692              		.cfi_def_cfa_offset 16
 1693              		.cfi_offset 3, -16
 1694              		.cfi_offset 4, -12
 1695              		.cfi_offset 5, -8
 1696              		.cfi_offset 14, -4
 103:rhea\drivers\MCP7940N/MCP7940N.c ****     uint8_t internalStatus = MCP7940N_IsOscillatorEnabled();
 1697              		.loc 1 103 0
 1698 0002 FFF7FEFF 		bl	MCP7940N_IsExternalOscillatorEnabled
 1699              	.LVL135:
 1700 0006 0446     		mov	r4, r0
 1701              	.LVL136:
 104:rhea\drivers\MCP7940N/MCP7940N.c ****         
 1702              		.loc 1 104 0
 1703 0008 FFF7FEFF 		bl	MCP7940N_IsOscillatorEnabled
 1704              	.LVL137:
 1705 000c 0546     		mov	r5, r0
 1706              	.LVL138:
 107:rhea\drivers\MCP7940N/MCP7940N.c ****     else if(internalStatus) MCP7940N_DisableOscillator();
 1707              		.loc 1 107 0
 1708 000e 14B1     		cbz	r4, .L161
 107:rhea\drivers\MCP7940N/MCP7940N.c ****     else if(internalStatus) MCP7940N_DisableOscillator();
 1709              		.loc 1 107 0 is_stmt 0 discriminator 1
 1710 0010 FFF7FEFF 		bl	MCP7940N_DisableExternalOscillator
 1711              	.LVL139:
 1712 0014 02E0     		b	.L163
 1713              	.LVL140:
 1714              	.L161:
 108:rhea\drivers\MCP7940N/MCP7940N.c ****     
 1715              		.loc 1 108 0 is_stmt 1
 1716 0016 08B1     		cbz	r0, .L163
 108:rhea\drivers\MCP7940N/MCP7940N.c ****     
 1717              		.loc 1 108 0 is_stmt 0 discriminator 1
 1718 0018 FFF7FEFF 		bl	MCP7940N_DisableOscillator
 1719              	.LVL141:
 1720              	.L163:
 111:rhea\drivers\MCP7940N/MCP7940N.c ****     
 1721              		.loc 1 111 0 is_stmt 1 discriminator 1
 1722 001c FFF7FEFF 		bl	MCP7940N_IsOscillatorRunning
 1723              	.LVL142:
 1724 0020 0028     		cmp	r0, #0
 1725 0022 FBD1     		bne	.L163
 114:rhea\drivers\MCP7940N/MCP7940N.c ****                        MCP7940N_REGISTER_COUNT);
 1726              		.loc 1 114 0
 1727 0024 2023     		movs	r3, #32
 1728 0026 064A     		ldr	r2, .L167
 1729 0028 0021     		movs	r1, #0
ARM GAS  C:\Users\GYULAI~1\AppData\Local\Temp\ccG7iLma.s 			page 43


 1730 002a DE20     		movs	r0, #222
 1731 002c FFF7FEFF 		bl	MCP7940N_I2CWriter
 1732              	.LVL143:
 118:rhea\drivers\MCP7940N/MCP7940N.c ****     else if(internalStatus) MCP7940N_EnableOscillator();
 1733              		.loc 1 118 0
 1734 0030 14B1     		cbz	r4, .L164
 118:rhea\drivers\MCP7940N/MCP7940N.c ****     else if(internalStatus) MCP7940N_EnableOscillator();
 1735              		.loc 1 118 0 is_stmt 0 discriminator 1
 1736 0032 FFF7FEFF 		bl	MCP7940N_EnableExternalOscillator
 1737              	.LVL144:
 1738 0036 38BD     		pop	{r3, r4, r5, pc}
 1739              	.LVL145:
 1740              	.L164:
 119:rhea\drivers\MCP7940N/MCP7940N.c **** }
 1741              		.loc 1 119 0 is_stmt 1
 1742 0038 0DB1     		cbz	r5, .L160
 119:rhea\drivers\MCP7940N/MCP7940N.c **** }
 1743              		.loc 1 119 0 is_stmt 0 discriminator 1
 1744 003a FFF7FEFF 		bl	MCP7940N_EnableOscillator
 1745              	.LVL146:
 1746              	.L160:
 1747 003e 38BD     		pop	{r3, r4, r5, pc}
 1748              	.LVL147:
 1749              	.L168:
 1750              		.align	2
 1751              	.L167:
 1752 0040 10000000 		.word	.LANCHOR0+16
 1753              		.cfi_endproc
 1754              	.LFE4:
 1755              		.size	MCP7940N_WriteRegisters, .-MCP7940N_WriteRegisters
 1756              		.section	.text.MCP7940N_SetDatetime,"ax",%progbits
 1757              		.align	2
 1758              		.global	MCP7940N_SetDatetime
 1759              		.thumb
 1760              		.thumb_func
 1761              		.type	MCP7940N_SetDatetime, %function
 1762              	MCP7940N_SetDatetime:
 1763              	.LFB14:
 242:rhea\drivers\MCP7940N/MCP7940N.c ****     
 1764              		.loc 1 242 0 is_stmt 1
 1765              		.cfi_startproc
 1766              		@ args = 0, pretend = 0, frame = 8
 1767              		@ frame_needed = 0, uses_anonymous_args = 0
 1768 0000 70B5     		push	{r4, r5, r6, lr}
 1769              		.cfi_def_cfa_offset 16
 1770              		.cfi_offset 4, -16
 1771              		.cfi_offset 5, -12
 1772              		.cfi_offset 6, -8
 1773              		.cfi_offset 14, -4
 1774 0002 82B0     		sub	sp, sp, #8
 1775              		.cfi_def_cfa_offset 24
 1776 0004 02AB     		add	r3, sp, #8
 1777 0006 03E90300 		stmdb	r3, {r0, r1}
 245:rhea\drivers\MCP7940N/MCP7940N.c ****     uint8_t internalStatus = MCP7940N_IsOscillatorEnabled();
 1778              		.loc 1 245 0
 1779 000a FFF7FEFF 		bl	MCP7940N_IsExternalOscillatorEnabled
 1780              	.LVL148:
ARM GAS  C:\Users\GYULAI~1\AppData\Local\Temp\ccG7iLma.s 			page 44


 1781 000e 0446     		mov	r4, r0
 1782              	.LVL149:
 246:rhea\drivers\MCP7940N/MCP7940N.c ****     
 1783              		.loc 1 246 0
 1784 0010 FFF7FEFF 		bl	MCP7940N_IsOscillatorEnabled
 1785              	.LVL150:
 1786 0014 0646     		mov	r6, r0
 1787              	.LVL151:
 249:rhea\drivers\MCP7940N/MCP7940N.c ****     else if(internalStatus) MCP7940N_DisableOscillator();
 1788              		.loc 1 249 0
 1789 0016 14B1     		cbz	r4, .L170
 249:rhea\drivers\MCP7940N/MCP7940N.c ****     else if(internalStatus) MCP7940N_DisableOscillator();
 1790              		.loc 1 249 0 is_stmt 0 discriminator 1
 1791 0018 FFF7FEFF 		bl	MCP7940N_DisableExternalOscillator
 1792              	.LVL152:
 1793 001c 02E0     		b	.L172
 1794              	.LVL153:
 1795              	.L170:
 250:rhea\drivers\MCP7940N/MCP7940N.c ****     
 1796              		.loc 1 250 0 is_stmt 1
 1797 001e 08B1     		cbz	r0, .L172
 250:rhea\drivers\MCP7940N/MCP7940N.c ****     
 1798              		.loc 1 250 0 is_stmt 0 discriminator 1
 1799 0020 FFF7FEFF 		bl	MCP7940N_DisableOscillator
 1800              	.LVL154:
 1801              	.L172:
 253:rhea\drivers\MCP7940N/MCP7940N.c ****     
 1802              		.loc 1 253 0 is_stmt 1 discriminator 1
 1803 0024 FFF7FEFF 		bl	MCP7940N_IsOscillatorRunning
 1804              	.LVL155:
 1805 0028 0028     		cmp	r0, #0
 1806 002a FBD1     		bne	.L172
 256:rhea\drivers\MCP7940N/MCP7940N.c ****                        MCP7940N_RTCYEAR - MCP7940N_RTCSEC + 1);
 1807              		.loc 1 256 0
 1808 002c 184D     		ldr	r5, .L176
 1809 002e 0723     		movs	r3, #7
 1810 0030 2A46     		mov	r2, r5
 1811 0032 0021     		movs	r1, #0
 1812 0034 DE20     		movs	r0, #222
 1813 0036 FFF7FEFF 		bl	MCP7940N_I2CReader
 1814              	.LVL156:
 260:rhea\drivers\MCP7940N/MCP7940N.c ****     MCP7940N_SetMonths(datetime.month);
 1815              		.loc 1 260 0
 1816 003a BDF80000 		ldrh	r0, [sp]
 1817 003e FFF7FEFF 		bl	MCP7940N_SetYears
 1818              	.LVL157:
 261:rhea\drivers\MCP7940N/MCP7940N.c ****     MCP7940N_SetDate(datetime.date);
 1819              		.loc 1 261 0
 1820 0042 9DF80200 		ldrb	r0, [sp, #2]	@ zero_extendqisi2
 1821 0046 FFF7FEFF 		bl	MCP7940N_SetMonths
 1822              	.LVL158:
 262:rhea\drivers\MCP7940N/MCP7940N.c ****     MCP7940N_SetWeekday(datetime.weekday);
 1823              		.loc 1 262 0
 1824 004a 9DF80300 		ldrb	r0, [sp, #3]	@ zero_extendqisi2
 1825 004e FFF7FEFF 		bl	MCP7940N_SetDate
 1826              	.LVL159:
 263:rhea\drivers\MCP7940N/MCP7940N.c ****     MCP7940N_SetHours(datetime.hour);
ARM GAS  C:\Users\GYULAI~1\AppData\Local\Temp\ccG7iLma.s 			page 45


 1827              		.loc 1 263 0
 1828 0052 9DF80400 		ldrb	r0, [sp, #4]	@ zero_extendqisi2
 1829 0056 FFF7FEFF 		bl	MCP7940N_SetWeekday
 1830              	.LVL160:
 264:rhea\drivers\MCP7940N/MCP7940N.c ****     MCP7940N_SetMinutes(datetime.minute);
 1831              		.loc 1 264 0
 1832 005a 9DF80500 		ldrb	r0, [sp, #5]	@ zero_extendqisi2
 1833 005e FFF7FEFF 		bl	MCP7940N_SetHours
 1834              	.LVL161:
 265:rhea\drivers\MCP7940N/MCP7940N.c ****     MCP7940N_SetSeconds(datetime.second);
 1835              		.loc 1 265 0
 1836 0062 9DF80600 		ldrb	r0, [sp, #6]	@ zero_extendqisi2
 1837 0066 FFF7FEFF 		bl	MCP7940N_SetMinutes
 1838              	.LVL162:
 266:rhea\drivers\MCP7940N/MCP7940N.c ****     
 1839              		.loc 1 266 0
 1840 006a 9DF80700 		ldrb	r0, [sp, #7]	@ zero_extendqisi2
 1841 006e FFF7FEFF 		bl	MCP7940N_SetSeconds
 1842              	.LVL163:
 269:rhea\drivers\MCP7940N/MCP7940N.c ****                        MCP7940N_RTCYEAR - MCP7940N_RTCSEC + 1);
 1843              		.loc 1 269 0
 1844 0072 0723     		movs	r3, #7
 1845 0074 2A46     		mov	r2, r5
 1846 0076 0021     		movs	r1, #0
 1847 0078 DE20     		movs	r0, #222
 1848 007a FFF7FEFF 		bl	MCP7940N_I2CWriter
 1849              	.LVL164:
 273:rhea\drivers\MCP7940N/MCP7940N.c ****     else if(internalStatus) MCP7940N_EnableOscillator();
 1850              		.loc 1 273 0
 1851 007e 14B1     		cbz	r4, .L173
 273:rhea\drivers\MCP7940N/MCP7940N.c ****     else if(internalStatus) MCP7940N_EnableOscillator();
 1852              		.loc 1 273 0 is_stmt 0 discriminator 1
 1853 0080 FFF7FEFF 		bl	MCP7940N_EnableExternalOscillator
 1854              	.LVL165:
 1855 0084 02E0     		b	.L169
 1856              	.L173:
 274:rhea\drivers\MCP7940N/MCP7940N.c **** }
 1857              		.loc 1 274 0 is_stmt 1
 1858 0086 0EB1     		cbz	r6, .L169
 274:rhea\drivers\MCP7940N/MCP7940N.c **** }
 1859              		.loc 1 274 0 is_stmt 0 discriminator 1
 1860 0088 FFF7FEFF 		bl	MCP7940N_EnableOscillator
 1861              	.LVL166:
 1862              	.L169:
 275:rhea\drivers\MCP7940N/MCP7940N.c **** 
 1863              		.loc 1 275 0 is_stmt 1
 1864 008c 02B0     		add	sp, sp, #8
 1865              		.cfi_def_cfa_offset 16
 1866              		@ sp needed
 1867 008e 70BD     		pop	{r4, r5, r6, pc}
 1868              	.LVL167:
 1869              	.L177:
 1870              		.align	2
 1871              	.L176:
 1872 0090 10000000 		.word	.LANCHOR0+16
 1873              		.cfi_endproc
 1874              	.LFE14:
ARM GAS  C:\Users\GYULAI~1\AppData\Local\Temp\ccG7iLma.s 			page 46


 1875              		.size	MCP7940N_SetDatetime, .-MCP7940N_SetDatetime
 1876              		.section	.text.MCP7940N_EnableBattery,"ax",%progbits
 1877              		.align	2
 1878              		.global	MCP7940N_EnableBattery
 1879              		.thumb
 1880              		.thumb_func
 1881              		.type	MCP7940N_EnableBattery, %function
 1882              	MCP7940N_EnableBattery:
 1883              	.LFB26:
 401:rhea\drivers\MCP7940N/MCP7940N.c ****     
 1884              		.loc 1 401 0
 1885              		.cfi_startproc
 1886              		@ args = 0, pretend = 0, frame = 0
 1887              		@ frame_needed = 0, uses_anonymous_args = 0
 1888 0000 F8B5     		push	{r3, r4, r5, r6, r7, lr}
 1889              		.cfi_def_cfa_offset 24
 1890              		.cfi_offset 3, -24
 1891              		.cfi_offset 4, -20
 1892              		.cfi_offset 5, -16
 1893              		.cfi_offset 6, -12
 1894              		.cfi_offset 7, -8
 1895              		.cfi_offset 14, -4
 404:rhea\drivers\MCP7940N/MCP7940N.c ****     uint8_t internalStatus = MCP7940N_IsOscillatorEnabled();
 1896              		.loc 1 404 0
 1897 0002 FFF7FEFF 		bl	MCP7940N_IsExternalOscillatorEnabled
 1898              	.LVL168:
 1899 0006 0546     		mov	r5, r0
 1900              	.LVL169:
 405:rhea\drivers\MCP7940N/MCP7940N.c ****     
 1901              		.loc 1 405 0
 1902 0008 FFF7FEFF 		bl	MCP7940N_IsOscillatorEnabled
 1903              	.LVL170:
 1904 000c 0746     		mov	r7, r0
 1905              	.LVL171:
 408:rhea\drivers\MCP7940N/MCP7940N.c ****     else if(internalStatus) MCP7940N_DisableOscillator();
 1906              		.loc 1 408 0
 1907 000e 15B1     		cbz	r5, .L179
 408:rhea\drivers\MCP7940N/MCP7940N.c ****     else if(internalStatus) MCP7940N_DisableOscillator();
 1908              		.loc 1 408 0 is_stmt 0 discriminator 1
 1909 0010 FFF7FEFF 		bl	MCP7940N_DisableExternalOscillator
 1910              	.LVL172:
 1911 0014 02E0     		b	.L181
 1912              	.LVL173:
 1913              	.L179:
 409:rhea\drivers\MCP7940N/MCP7940N.c ****     
 1914              		.loc 1 409 0 is_stmt 1
 1915 0016 08B1     		cbz	r0, .L181
 409:rhea\drivers\MCP7940N/MCP7940N.c ****     
 1916              		.loc 1 409 0 is_stmt 0 discriminator 1
 1917 0018 FFF7FEFF 		bl	MCP7940N_DisableOscillator
 1918              	.LVL174:
 1919              	.L181:
 412:rhea\drivers\MCP7940N/MCP7940N.c ****     
 1920              		.loc 1 412 0 is_stmt 1 discriminator 1
 1921 001c FFF7FEFF 		bl	MCP7940N_IsOscillatorRunning
 1922              	.LVL175:
 1923 0020 0028     		cmp	r0, #0
ARM GAS  C:\Users\GYULAI~1\AppData\Local\Temp\ccG7iLma.s 			page 47


 1924 0022 FBD1     		bne	.L181
 415:rhea\drivers\MCP7940N/MCP7940N.c **** 
 1925              		.loc 1 415 0
 1926 0024 0D4C     		ldr	r4, .L185
 1927 0026 04F11306 		add	r6, r4, #19
 1928 002a 0123     		movs	r3, #1
 1929 002c 3246     		mov	r2, r6
 1930 002e 0321     		movs	r1, #3
 1931 0030 DE20     		movs	r0, #222
 1932 0032 FFF7FEFF 		bl	MCP7940N_I2CReader
 1933              	.LVL176:
 418:rhea\drivers\MCP7940N/MCP7940N.c ****     
 1934              		.loc 1 418 0
 1935 0036 E37C     		ldrb	r3, [r4, #19]	@ zero_extendqisi2
 1936 0038 43F00803 		orr	r3, r3, #8
 1937 003c E374     		strb	r3, [r4, #19]
 421:rhea\drivers\MCP7940N/MCP7940N.c **** 
 1938              		.loc 1 421 0
 1939 003e 0123     		movs	r3, #1
 1940 0040 3246     		mov	r2, r6
 1941 0042 0321     		movs	r1, #3
 1942 0044 DE20     		movs	r0, #222
 1943 0046 FFF7FEFF 		bl	MCP7940N_I2CWriter
 1944              	.LVL177:
 424:rhea\drivers\MCP7940N/MCP7940N.c ****     else if(internalStatus) MCP7940N_EnableOscillator();
 1945              		.loc 1 424 0
 1946 004a 15B1     		cbz	r5, .L182
 424:rhea\drivers\MCP7940N/MCP7940N.c ****     else if(internalStatus) MCP7940N_EnableOscillator();
 1947              		.loc 1 424 0 is_stmt 0 discriminator 1
 1948 004c FFF7FEFF 		bl	MCP7940N_EnableExternalOscillator
 1949              	.LVL178:
 1950 0050 F8BD     		pop	{r3, r4, r5, r6, r7, pc}
 1951              	.LVL179:
 1952              	.L182:
 425:rhea\drivers\MCP7940N/MCP7940N.c **** }
 1953              		.loc 1 425 0 is_stmt 1
 1954 0052 0FB1     		cbz	r7, .L178
 425:rhea\drivers\MCP7940N/MCP7940N.c **** }
 1955              		.loc 1 425 0 is_stmt 0 discriminator 1
 1956 0054 FFF7FEFF 		bl	MCP7940N_EnableOscillator
 1957              	.LVL180:
 1958              	.L178:
 1959 0058 F8BD     		pop	{r3, r4, r5, r6, r7, pc}
 1960              	.LVL181:
 1961              	.L186:
 1962 005a 00BF     		.align	2
 1963              	.L185:
 1964 005c 00000000 		.word	.LANCHOR0
 1965              		.cfi_endproc
 1966              	.LFE26:
 1967              		.size	MCP7940N_EnableBattery, .-MCP7940N_EnableBattery
 1968              		.section	.text.MCP7940N_DisableBattery,"ax",%progbits
 1969              		.align	2
 1970              		.global	MCP7940N_DisableBattery
 1971              		.thumb
 1972              		.thumb_func
 1973              		.type	MCP7940N_DisableBattery, %function
ARM GAS  C:\Users\GYULAI~1\AppData\Local\Temp\ccG7iLma.s 			page 48


 1974              	MCP7940N_DisableBattery:
 1975              	.LFB27:
 428:rhea\drivers\MCP7940N/MCP7940N.c ****     
 1976              		.loc 1 428 0 is_stmt 1
 1977              		.cfi_startproc
 1978              		@ args = 0, pretend = 0, frame = 0
 1979              		@ frame_needed = 0, uses_anonymous_args = 0
 1980 0000 F8B5     		push	{r3, r4, r5, r6, r7, lr}
 1981              		.cfi_def_cfa_offset 24
 1982              		.cfi_offset 3, -24
 1983              		.cfi_offset 4, -20
 1984              		.cfi_offset 5, -16
 1985              		.cfi_offset 6, -12
 1986              		.cfi_offset 7, -8
 1987              		.cfi_offset 14, -4
 431:rhea\drivers\MCP7940N/MCP7940N.c ****     uint8_t internalStatus = MCP7940N_IsOscillatorEnabled();
 1988              		.loc 1 431 0
 1989 0002 FFF7FEFF 		bl	MCP7940N_IsExternalOscillatorEnabled
 1990              	.LVL182:
 1991 0006 0546     		mov	r5, r0
 1992              	.LVL183:
 432:rhea\drivers\MCP7940N/MCP7940N.c ****     
 1993              		.loc 1 432 0
 1994 0008 FFF7FEFF 		bl	MCP7940N_IsOscillatorEnabled
 1995              	.LVL184:
 1996 000c 0746     		mov	r7, r0
 1997              	.LVL185:
 435:rhea\drivers\MCP7940N/MCP7940N.c ****     else if(internalStatus) MCP7940N_DisableOscillator();
 1998              		.loc 1 435 0
 1999 000e 15B1     		cbz	r5, .L188
 435:rhea\drivers\MCP7940N/MCP7940N.c ****     else if(internalStatus) MCP7940N_DisableOscillator();
 2000              		.loc 1 435 0 is_stmt 0 discriminator 1
 2001 0010 FFF7FEFF 		bl	MCP7940N_DisableExternalOscillator
 2002              	.LVL186:
 2003 0014 02E0     		b	.L190
 2004              	.LVL187:
 2005              	.L188:
 436:rhea\drivers\MCP7940N/MCP7940N.c ****     
 2006              		.loc 1 436 0 is_stmt 1
 2007 0016 08B1     		cbz	r0, .L190
 436:rhea\drivers\MCP7940N/MCP7940N.c ****     
 2008              		.loc 1 436 0 is_stmt 0 discriminator 1
 2009 0018 FFF7FEFF 		bl	MCP7940N_DisableOscillator
 2010              	.LVL188:
 2011              	.L190:
 439:rhea\drivers\MCP7940N/MCP7940N.c ****     
 2012              		.loc 1 439 0 is_stmt 1 discriminator 1
 2013 001c FFF7FEFF 		bl	MCP7940N_IsOscillatorRunning
 2014              	.LVL189:
 2015 0020 0028     		cmp	r0, #0
 2016 0022 FBD1     		bne	.L190
 442:rhea\drivers\MCP7940N/MCP7940N.c ****     
 2017              		.loc 1 442 0
 2018 0024 0D4C     		ldr	r4, .L194
 2019 0026 04F11306 		add	r6, r4, #19
 2020 002a 0123     		movs	r3, #1
 2021 002c 3246     		mov	r2, r6
ARM GAS  C:\Users\GYULAI~1\AppData\Local\Temp\ccG7iLma.s 			page 49


 2022 002e 0321     		movs	r1, #3
 2023 0030 DE20     		movs	r0, #222
 2024 0032 FFF7FEFF 		bl	MCP7940N_I2CReader
 2025              	.LVL190:
 445:rhea\drivers\MCP7940N/MCP7940N.c ****     
 2026              		.loc 1 445 0
 2027 0036 E37C     		ldrb	r3, [r4, #19]	@ zero_extendqisi2
 2028 0038 23F00803 		bic	r3, r3, #8
 2029 003c E374     		strb	r3, [r4, #19]
 448:rhea\drivers\MCP7940N/MCP7940N.c **** 
 2030              		.loc 1 448 0
 2031 003e 0123     		movs	r3, #1
 2032 0040 3246     		mov	r2, r6
 2033 0042 0321     		movs	r1, #3
 2034 0044 DE20     		movs	r0, #222
 2035 0046 FFF7FEFF 		bl	MCP7940N_I2CWriter
 2036              	.LVL191:
 451:rhea\drivers\MCP7940N/MCP7940N.c ****     else if(internalStatus) MCP7940N_EnableOscillator();
 2037              		.loc 1 451 0
 2038 004a 15B1     		cbz	r5, .L191
 451:rhea\drivers\MCP7940N/MCP7940N.c ****     else if(internalStatus) MCP7940N_EnableOscillator();
 2039              		.loc 1 451 0 is_stmt 0 discriminator 1
 2040 004c FFF7FEFF 		bl	MCP7940N_EnableExternalOscillator
 2041              	.LVL192:
 2042 0050 F8BD     		pop	{r3, r4, r5, r6, r7, pc}
 2043              	.LVL193:
 2044              	.L191:
 452:rhea\drivers\MCP7940N/MCP7940N.c **** }
 2045              		.loc 1 452 0 is_stmt 1
 2046 0052 0FB1     		cbz	r7, .L187
 452:rhea\drivers\MCP7940N/MCP7940N.c **** }
 2047              		.loc 1 452 0 is_stmt 0 discriminator 1
 2048 0054 FFF7FEFF 		bl	MCP7940N_EnableOscillator
 2049              	.LVL194:
 2050              	.L187:
 2051 0058 F8BD     		pop	{r3, r4, r5, r6, r7, pc}
 2052              	.LVL195:
 2053              	.L195:
 2054 005a 00BF     		.align	2
 2055              	.L194:
 2056 005c 00000000 		.word	.LANCHOR0
 2057              		.cfi_endproc
 2058              	.LFE27:
 2059              		.size	MCP7940N_DisableBattery, .-MCP7940N_DisableBattery
 2060              		.section	.text.MCP7940N_ClearPowerFailed,"ax",%progbits
 2061              		.align	2
 2062              		.global	MCP7940N_ClearPowerFailed
 2063              		.thumb
 2064              		.thumb_func
 2065              		.type	MCP7940N_ClearPowerFailed, %function
 2066              	MCP7940N_ClearPowerFailed:
 2067              	.LFB30:
 473:rhea\drivers\MCP7940N/MCP7940N.c ****     
 2068              		.loc 1 473 0 is_stmt 1
 2069              		.cfi_startproc
 2070              		@ args = 0, pretend = 0, frame = 0
 2071              		@ frame_needed = 0, uses_anonymous_args = 0
ARM GAS  C:\Users\GYULAI~1\AppData\Local\Temp\ccG7iLma.s 			page 50


 2072 0000 F8B5     		push	{r3, r4, r5, r6, r7, lr}
 2073              		.cfi_def_cfa_offset 24
 2074              		.cfi_offset 3, -24
 2075              		.cfi_offset 4, -20
 2076              		.cfi_offset 5, -16
 2077              		.cfi_offset 6, -12
 2078              		.cfi_offset 7, -8
 2079              		.cfi_offset 14, -4
 476:rhea\drivers\MCP7940N/MCP7940N.c ****     uint8_t internalStatus = MCP7940N_IsOscillatorEnabled();
 2080              		.loc 1 476 0
 2081 0002 FFF7FEFF 		bl	MCP7940N_IsExternalOscillatorEnabled
 2082              	.LVL196:
 2083 0006 0546     		mov	r5, r0
 2084              	.LVL197:
 477:rhea\drivers\MCP7940N/MCP7940N.c ****     
 2085              		.loc 1 477 0
 2086 0008 FFF7FEFF 		bl	MCP7940N_IsOscillatorEnabled
 2087              	.LVL198:
 2088 000c 0746     		mov	r7, r0
 2089              	.LVL199:
 480:rhea\drivers\MCP7940N/MCP7940N.c ****     else if(internalStatus) MCP7940N_DisableOscillator();
 2090              		.loc 1 480 0
 2091 000e 15B1     		cbz	r5, .L197
 480:rhea\drivers\MCP7940N/MCP7940N.c ****     else if(internalStatus) MCP7940N_DisableOscillator();
 2092              		.loc 1 480 0 is_stmt 0 discriminator 1
 2093 0010 FFF7FEFF 		bl	MCP7940N_DisableExternalOscillator
 2094              	.LVL200:
 2095 0014 02E0     		b	.L199
 2096              	.LVL201:
 2097              	.L197:
 481:rhea\drivers\MCP7940N/MCP7940N.c ****     
 2098              		.loc 1 481 0 is_stmt 1
 2099 0016 08B1     		cbz	r0, .L199
 481:rhea\drivers\MCP7940N/MCP7940N.c ****     
 2100              		.loc 1 481 0 is_stmt 0 discriminator 1
 2101 0018 FFF7FEFF 		bl	MCP7940N_DisableOscillator
 2102              	.LVL202:
 2103              	.L199:
 484:rhea\drivers\MCP7940N/MCP7940N.c ****     
 2104              		.loc 1 484 0 is_stmt 1 discriminator 1
 2105 001c FFF7FEFF 		bl	MCP7940N_IsOscillatorRunning
 2106              	.LVL203:
 2107 0020 0028     		cmp	r0, #0
 2108 0022 FBD1     		bne	.L199
 487:rhea\drivers\MCP7940N/MCP7940N.c ****     
 2109              		.loc 1 487 0
 2110 0024 0D4C     		ldr	r4, .L203
 2111 0026 04F11306 		add	r6, r4, #19
 2112 002a 0123     		movs	r3, #1
 2113 002c 3246     		mov	r2, r6
 2114 002e 0321     		movs	r1, #3
 2115 0030 DE20     		movs	r0, #222
 2116 0032 FFF7FEFF 		bl	MCP7940N_I2CReader
 2117              	.LVL204:
 490:rhea\drivers\MCP7940N/MCP7940N.c ****     
 2118              		.loc 1 490 0
 2119 0036 E37C     		ldrb	r3, [r4, #19]	@ zero_extendqisi2
ARM GAS  C:\Users\GYULAI~1\AppData\Local\Temp\ccG7iLma.s 			page 51


 2120 0038 23F01003 		bic	r3, r3, #16
 2121 003c E374     		strb	r3, [r4, #19]
 493:rhea\drivers\MCP7940N/MCP7940N.c **** 
 2122              		.loc 1 493 0
 2123 003e 0123     		movs	r3, #1
 2124 0040 3246     		mov	r2, r6
 2125 0042 0321     		movs	r1, #3
 2126 0044 DE20     		movs	r0, #222
 2127 0046 FFF7FEFF 		bl	MCP7940N_I2CWriter
 2128              	.LVL205:
 496:rhea\drivers\MCP7940N/MCP7940N.c ****     else if(internalStatus) MCP7940N_EnableOscillator();
 2129              		.loc 1 496 0
 2130 004a 15B1     		cbz	r5, .L200
 496:rhea\drivers\MCP7940N/MCP7940N.c ****     else if(internalStatus) MCP7940N_EnableOscillator();
 2131              		.loc 1 496 0 is_stmt 0 discriminator 1
 2132 004c FFF7FEFF 		bl	MCP7940N_EnableExternalOscillator
 2133              	.LVL206:
 2134 0050 F8BD     		pop	{r3, r4, r5, r6, r7, pc}
 2135              	.LVL207:
 2136              	.L200:
 497:rhea\drivers\MCP7940N/MCP7940N.c **** }
 2137              		.loc 1 497 0 is_stmt 1
 2138 0052 0FB1     		cbz	r7, .L196
 497:rhea\drivers\MCP7940N/MCP7940N.c **** }
 2139              		.loc 1 497 0 is_stmt 0 discriminator 1
 2140 0054 FFF7FEFF 		bl	MCP7940N_EnableOscillator
 2141              	.LVL208:
 2142              	.L196:
 2143 0058 F8BD     		pop	{r3, r4, r5, r6, r7, pc}
 2144              	.LVL209:
 2145              	.L204:
 2146 005a 00BF     		.align	2
 2147              	.L203:
 2148 005c 00000000 		.word	.LANCHOR0
 2149              		.cfi_endproc
 2150              	.LFE30:
 2151              		.size	MCP7940N_ClearPowerFailed, .-MCP7940N_ClearPowerFailed
 2152              		.section	.text.MCP7940N_GetAlarmSeconds,"ax",%progbits
 2153              		.align	2
 2154              		.global	MCP7940N_GetAlarmSeconds
 2155              		.thumb
 2156              		.thumb_func
 2157              		.type	MCP7940N_GetAlarmSeconds, %function
 2158              	MCP7940N_GetAlarmSeconds:
 2159              	.LFB46:
 642:rhea\drivers\MCP7940N/MCP7940N.c **** 
 643:rhea\drivers\MCP7940N/MCP7940N.c **** MCP7940N_Datetime MCP7940N_GetAlarmDatetime(uint8_t id) {
 644:rhea\drivers\MCP7940N/MCP7940N.c **** 
 645:rhea\drivers\MCP7940N/MCP7940N.c ****     // Creating datetime structure to store the result
 646:rhea\drivers\MCP7940N/MCP7940N.c ****     MCP7940N_Datetime datetime;
 647:rhea\drivers\MCP7940N/MCP7940N.c ****     
 648:rhea\drivers\MCP7940N/MCP7940N.c ****     // Populating datetime structure
 649:rhea\drivers\MCP7940N/MCP7940N.c ****     datetime.month = MCP7940N_GetAlarmMonths(id);
 650:rhea\drivers\MCP7940N/MCP7940N.c ****     datetime.date = MCP7940N_GetAlarmDate(id);
 651:rhea\drivers\MCP7940N/MCP7940N.c ****     datetime.weekday = MCP7940N_GetAlarmWeekday(id);
 652:rhea\drivers\MCP7940N/MCP7940N.c ****     datetime.hour = MCP7940N_GetAlarmHours(id);
 653:rhea\drivers\MCP7940N/MCP7940N.c ****     datetime.minute = MCP7940N_GetAlarmMinutes(id);
ARM GAS  C:\Users\GYULAI~1\AppData\Local\Temp\ccG7iLma.s 			page 52


 654:rhea\drivers\MCP7940N/MCP7940N.c ****     datetime.second = MCP7940N_GetAlarmSeconds(id);
 655:rhea\drivers\MCP7940N/MCP7940N.c ****     
 656:rhea\drivers\MCP7940N/MCP7940N.c ****     return datetime;
 657:rhea\drivers\MCP7940N/MCP7940N.c **** }
 658:rhea\drivers\MCP7940N/MCP7940N.c **** 
 659:rhea\drivers\MCP7940N/MCP7940N.c **** uint8_t MCP7940N_GetAlarmSeconds(uint8_t id) {
 2160              		.loc 1 659 0 is_stmt 1
 2161              		.cfi_startproc
 2162              		@ args = 0, pretend = 0, frame = 0
 2163              		@ frame_needed = 0, uses_anonymous_args = 0
 2164              		@ link register save eliminated.
 2165              	.LVL210:
 660:rhea\drivers\MCP7940N/MCP7940N.c ****     
 661:rhea\drivers\MCP7940N/MCP7940N.c ****     // Reading ALMxSEC register
 662:rhea\drivers\MCP7940N/MCP7940N.c ****     uint8_t registerValue = 0;
 663:rhea\drivers\MCP7940N/MCP7940N.c ****     switch(id) {
 2166              		.loc 1 663 0
 2167 0000 10B1     		cbz	r0, .L207
 2168 0002 0128     		cmp	r0, #1
 2169 0004 03D0     		beq	.L208
 2170 0006 05E0     		b	.L210
 2171              	.L207:
 664:rhea\drivers\MCP7940N/MCP7940N.c ****     case MCP7940N_ALARM0: registerValue = MCP7940N_RegistersLocal.ALM0SEC; break;
 2172              		.loc 1 664 0
 2173 0008 084B     		ldr	r3, .L211
 2174 000a 5B7E     		ldrb	r3, [r3, #25]	@ zero_extendqisi2
 2175              	.LVL211:
 2176 000c 03E0     		b	.L206
 2177              	.LVL212:
 2178              	.L208:
 665:rhea\drivers\MCP7940N/MCP7940N.c ****     case MCP7940N_ALARM1: registerValue = MCP7940N_RegistersLocal.ALM1SEC; break;
 2179              		.loc 1 665 0
 2180 000e 074B     		ldr	r3, .L211
 2181 0010 DB7F     		ldrb	r3, [r3, #31]	@ zero_extendqisi2
 2182              	.LVL213:
 2183 0012 00E0     		b	.L206
 2184              	.LVL214:
 2185              	.L210:
 662:rhea\drivers\MCP7940N/MCP7940N.c ****     switch(id) {
 2186              		.loc 1 662 0
 2187 0014 0023     		movs	r3, #0
 2188              	.LVL215:
 2189              	.L206:
 666:rhea\drivers\MCP7940N/MCP7940N.c ****     default: break;
 667:rhea\drivers\MCP7940N/MCP7940N.c ****     };
 668:rhea\drivers\MCP7940N/MCP7940N.c ****     
 669:rhea\drivers\MCP7940N/MCP7940N.c ****     // Decoding BCD
 670:rhea\drivers\MCP7940N/MCP7940N.c ****     uint8_t ones = registerValue & MCP7940N_ALMxSEC_SECONE;
 2190              		.loc 1 670 0
 2191 0016 03F00F00 		and	r0, r3, #15
 2192              	.LVL216:
 671:rhea\drivers\MCP7940N/MCP7940N.c ****     uint8_t tens = registerValue & MCP7940N_ALMxSEC_SECTEN;
 672:rhea\drivers\MCP7940N/MCP7940N.c ****     tens = tens >> 4;
 2193              		.loc 1 672 0
 2194 001a C3F30213 		ubfx	r3, r3, #4, #3
 2195              	.LVL217:
 673:rhea\drivers\MCP7940N/MCP7940N.c ****     
ARM GAS  C:\Users\GYULAI~1\AppData\Local\Temp\ccG7iLma.s 			page 53


 674:rhea\drivers\MCP7940N/MCP7940N.c ****     // Returning result
 675:rhea\drivers\MCP7940N/MCP7940N.c ****     return tens * 10 + ones;
 2196              		.loc 1 675 0
 2197 001e 03EB8303 		add	r3, r3, r3, lsl #2
 2198              	.LVL218:
 2199 0022 5A00     		lsls	r2, r3, #1
 2200 0024 1044     		add	r0, r0, r2
 2201              	.LVL219:
 676:rhea\drivers\MCP7940N/MCP7940N.c **** }
 2202              		.loc 1 676 0
 2203 0026 C0B2     		uxtb	r0, r0
 2204 0028 7047     		bx	lr
 2205              	.L212:
 2206 002a 00BF     		.align	2
 2207              	.L211:
 2208 002c 00000000 		.word	.LANCHOR0
 2209              		.cfi_endproc
 2210              	.LFE46:
 2211              		.size	MCP7940N_GetAlarmSeconds, .-MCP7940N_GetAlarmSeconds
 2212              		.section	.text.MCP7940N_GetAlarmMinutes,"ax",%progbits
 2213              		.align	2
 2214              		.global	MCP7940N_GetAlarmMinutes
 2215              		.thumb
 2216              		.thumb_func
 2217              		.type	MCP7940N_GetAlarmMinutes, %function
 2218              	MCP7940N_GetAlarmMinutes:
 2219              	.LFB47:
 677:rhea\drivers\MCP7940N/MCP7940N.c **** 
 678:rhea\drivers\MCP7940N/MCP7940N.c **** uint8_t MCP7940N_GetAlarmMinutes(uint8_t id) {
 2220              		.loc 1 678 0
 2221              		.cfi_startproc
 2222              		@ args = 0, pretend = 0, frame = 0
 2223              		@ frame_needed = 0, uses_anonymous_args = 0
 2224              		@ link register save eliminated.
 2225              	.LVL220:
 679:rhea\drivers\MCP7940N/MCP7940N.c ****     
 680:rhea\drivers\MCP7940N/MCP7940N.c ****     // Reading ALMxMIN register
 681:rhea\drivers\MCP7940N/MCP7940N.c ****     uint8_t registerValue = 0;
 682:rhea\drivers\MCP7940N/MCP7940N.c ****     switch(id) {
 2226              		.loc 1 682 0
 2227 0000 10B1     		cbz	r0, .L215
 2228 0002 0128     		cmp	r0, #1
 2229 0004 03D0     		beq	.L216
 2230 0006 06E0     		b	.L218
 2231              	.L215:
 683:rhea\drivers\MCP7940N/MCP7940N.c ****     case MCP7940N_ALARM0: registerValue = MCP7940N_RegistersLocal.ALM0MIN; break;
 2232              		.loc 1 683 0
 2233 0008 084B     		ldr	r3, .L219
 2234 000a 9B7E     		ldrb	r3, [r3, #26]	@ zero_extendqisi2
 2235              	.LVL221:
 2236 000c 04E0     		b	.L214
 2237              	.LVL222:
 2238              	.L216:
 684:rhea\drivers\MCP7940N/MCP7940N.c ****     case MCP7940N_ALARM1: registerValue = MCP7940N_RegistersLocal.ALM1MIN; break;
 2239              		.loc 1 684 0
 2240 000e 074B     		ldr	r3, .L219
 2241 0010 93F82030 		ldrb	r3, [r3, #32]	@ zero_extendqisi2
ARM GAS  C:\Users\GYULAI~1\AppData\Local\Temp\ccG7iLma.s 			page 54


 2242              	.LVL223:
 2243 0014 00E0     		b	.L214
 2244              	.LVL224:
 2245              	.L218:
 681:rhea\drivers\MCP7940N/MCP7940N.c ****     switch(id) {
 2246              		.loc 1 681 0
 2247 0016 0023     		movs	r3, #0
 2248              	.LVL225:
 2249              	.L214:
 685:rhea\drivers\MCP7940N/MCP7940N.c ****     default: break;
 686:rhea\drivers\MCP7940N/MCP7940N.c ****     };
 687:rhea\drivers\MCP7940N/MCP7940N.c ****     
 688:rhea\drivers\MCP7940N/MCP7940N.c ****     // Decoding BCD
 689:rhea\drivers\MCP7940N/MCP7940N.c ****     uint8_t ones = registerValue & MCP7940N_ALMxMIN_MINONE;
 2250              		.loc 1 689 0
 2251 0018 03F00F00 		and	r0, r3, #15
 2252              	.LVL226:
 690:rhea\drivers\MCP7940N/MCP7940N.c ****     uint8_t tens = registerValue & MCP7940N_ALMxMIN_MINTEN;
 691:rhea\drivers\MCP7940N/MCP7940N.c ****     tens = tens >> 4;
 2253              		.loc 1 691 0
 2254 001c C3F30213 		ubfx	r3, r3, #4, #3
 2255              	.LVL227:
 692:rhea\drivers\MCP7940N/MCP7940N.c ****     
 693:rhea\drivers\MCP7940N/MCP7940N.c ****     // Returning result
 694:rhea\drivers\MCP7940N/MCP7940N.c ****     return tens * 10 + ones;
 2256              		.loc 1 694 0
 2257 0020 03EB8303 		add	r3, r3, r3, lsl #2
 2258              	.LVL228:
 2259 0024 5A00     		lsls	r2, r3, #1
 2260 0026 1044     		add	r0, r0, r2
 2261              	.LVL229:
 695:rhea\drivers\MCP7940N/MCP7940N.c **** }
 2262              		.loc 1 695 0
 2263 0028 C0B2     		uxtb	r0, r0
 2264 002a 7047     		bx	lr
 2265              	.L220:
 2266              		.align	2
 2267              	.L219:
 2268 002c 00000000 		.word	.LANCHOR0
 2269              		.cfi_endproc
 2270              	.LFE47:
 2271              		.size	MCP7940N_GetAlarmMinutes, .-MCP7940N_GetAlarmMinutes
 2272              		.section	.text.MCP7940N_GetAlarmHours,"ax",%progbits
 2273              		.align	2
 2274              		.global	MCP7940N_GetAlarmHours
 2275              		.thumb
 2276              		.thumb_func
 2277              		.type	MCP7940N_GetAlarmHours, %function
 2278              	MCP7940N_GetAlarmHours:
 2279              	.LFB48:
 696:rhea\drivers\MCP7940N/MCP7940N.c **** 
 697:rhea\drivers\MCP7940N/MCP7940N.c **** uint8_t MCP7940N_GetAlarmHours(uint8_t id) {
 2280              		.loc 1 697 0
 2281              		.cfi_startproc
 2282              		@ args = 0, pretend = 0, frame = 0
 2283              		@ frame_needed = 0, uses_anonymous_args = 0
 2284              		@ link register save eliminated.
ARM GAS  C:\Users\GYULAI~1\AppData\Local\Temp\ccG7iLma.s 			page 55


 2285              	.LVL230:
 698:rhea\drivers\MCP7940N/MCP7940N.c ****     
 699:rhea\drivers\MCP7940N/MCP7940N.c ****     // Reading ALMxHOUR register
 700:rhea\drivers\MCP7940N/MCP7940N.c ****     uint8_t registerValue = 0;
 701:rhea\drivers\MCP7940N/MCP7940N.c ****     switch(id) {
 2286              		.loc 1 701 0
 2287 0000 10B1     		cbz	r0, .L223
 2288 0002 0128     		cmp	r0, #1
 2289 0004 03D0     		beq	.L224
 2290 0006 06E0     		b	.L226
 2291              	.L223:
 702:rhea\drivers\MCP7940N/MCP7940N.c ****     case MCP7940N_ALARM0: registerValue = MCP7940N_RegistersLocal.ALM0HOUR; break;
 2292              		.loc 1 702 0
 2293 0008 084B     		ldr	r3, .L227
 2294 000a DB7E     		ldrb	r3, [r3, #27]	@ zero_extendqisi2
 2295              	.LVL231:
 2296 000c 04E0     		b	.L222
 2297              	.LVL232:
 2298              	.L224:
 703:rhea\drivers\MCP7940N/MCP7940N.c ****     case MCP7940N_ALARM1: registerValue = MCP7940N_RegistersLocal.ALM1HOUR; break;
 2299              		.loc 1 703 0
 2300 000e 074B     		ldr	r3, .L227
 2301 0010 93F82130 		ldrb	r3, [r3, #33]	@ zero_extendqisi2
 2302              	.LVL233:
 2303 0014 00E0     		b	.L222
 2304              	.LVL234:
 2305              	.L226:
 700:rhea\drivers\MCP7940N/MCP7940N.c ****     switch(id) {
 2306              		.loc 1 700 0
 2307 0016 0023     		movs	r3, #0
 2308              	.LVL235:
 2309              	.L222:
 704:rhea\drivers\MCP7940N/MCP7940N.c ****     default: break;
 705:rhea\drivers\MCP7940N/MCP7940N.c ****     };
 706:rhea\drivers\MCP7940N/MCP7940N.c ****     
 707:rhea\drivers\MCP7940N/MCP7940N.c ****     // Decoding BCD
 708:rhea\drivers\MCP7940N/MCP7940N.c ****     uint8_t ones = registerValue & MCP7940N_ALMxHOUR_HRONE;
 2310              		.loc 1 708 0
 2311 0018 03F00F00 		and	r0, r3, #15
 2312              	.LVL236:
 709:rhea\drivers\MCP7940N/MCP7940N.c ****     uint8_t tens = registerValue & MCP7940N_ALMxHOUR_HRTEN;
 710:rhea\drivers\MCP7940N/MCP7940N.c ****     tens = tens >> 4;
 2313              		.loc 1 710 0
 2314 001c C3F30113 		ubfx	r3, r3, #4, #2
 2315              	.LVL237:
 711:rhea\drivers\MCP7940N/MCP7940N.c ****     
 712:rhea\drivers\MCP7940N/MCP7940N.c ****     // Returning result
 713:rhea\drivers\MCP7940N/MCP7940N.c ****     return tens * 10 + ones;
 2316              		.loc 1 713 0
 2317 0020 03EB8303 		add	r3, r3, r3, lsl #2
 2318              	.LVL238:
 2319 0024 5A00     		lsls	r2, r3, #1
 2320 0026 1044     		add	r0, r0, r2
 2321              	.LVL239:
 714:rhea\drivers\MCP7940N/MCP7940N.c **** }
 2322              		.loc 1 714 0
 2323 0028 C0B2     		uxtb	r0, r0
ARM GAS  C:\Users\GYULAI~1\AppData\Local\Temp\ccG7iLma.s 			page 56


 2324 002a 7047     		bx	lr
 2325              	.L228:
 2326              		.align	2
 2327              	.L227:
 2328 002c 00000000 		.word	.LANCHOR0
 2329              		.cfi_endproc
 2330              	.LFE48:
 2331              		.size	MCP7940N_GetAlarmHours, .-MCP7940N_GetAlarmHours
 2332              		.section	.text.MCP7940N_GetAlarmWeekday,"ax",%progbits
 2333              		.align	2
 2334              		.global	MCP7940N_GetAlarmWeekday
 2335              		.thumb
 2336              		.thumb_func
 2337              		.type	MCP7940N_GetAlarmWeekday, %function
 2338              	MCP7940N_GetAlarmWeekday:
 2339              	.LFB49:
 715:rhea\drivers\MCP7940N/MCP7940N.c **** 
 716:rhea\drivers\MCP7940N/MCP7940N.c **** uint8_t MCP7940N_GetAlarmWeekday(uint8_t id) {
 2340              		.loc 1 716 0
 2341              		.cfi_startproc
 2342              		@ args = 0, pretend = 0, frame = 0
 2343              		@ frame_needed = 0, uses_anonymous_args = 0
 2344              		@ link register save eliminated.
 2345              	.LVL240:
 717:rhea\drivers\MCP7940N/MCP7940N.c ****     
 718:rhea\drivers\MCP7940N/MCP7940N.c ****     // Reading ALMxWKDAY register
 719:rhea\drivers\MCP7940N/MCP7940N.c ****     uint8_t registerValue = 0;
 720:rhea\drivers\MCP7940N/MCP7940N.c ****     switch(id) {
 2346              		.loc 1 720 0
 2347 0000 10B1     		cbz	r0, .L231
 2348 0002 0128     		cmp	r0, #1
 2349 0004 03D0     		beq	.L232
 2350 0006 06E0     		b	.L234
 2351              	.L231:
 721:rhea\drivers\MCP7940N/MCP7940N.c ****     case MCP7940N_ALARM0: registerValue = MCP7940N_RegistersLocal.ALM0WKDAY; break;
 2352              		.loc 1 721 0
 2353 0008 054B     		ldr	r3, .L235
 2354 000a 187F     		ldrb	r0, [r3, #28]	@ zero_extendqisi2
 2355              	.LVL241:
 2356 000c 04E0     		b	.L230
 2357              	.LVL242:
 2358              	.L232:
 722:rhea\drivers\MCP7940N/MCP7940N.c ****     case MCP7940N_ALARM1: registerValue = MCP7940N_RegistersLocal.ALM1WKDAY; break;
 2359              		.loc 1 722 0
 2360 000e 044B     		ldr	r3, .L235
 2361 0010 93F82200 		ldrb	r0, [r3, #34]	@ zero_extendqisi2
 2362              	.LVL243:
 2363 0014 00E0     		b	.L230
 2364              	.LVL244:
 2365              	.L234:
 719:rhea\drivers\MCP7940N/MCP7940N.c ****     switch(id) {
 2366              		.loc 1 719 0
 2367 0016 0020     		movs	r0, #0
 2368              	.LVL245:
 2369              	.L230:
 723:rhea\drivers\MCP7940N/MCP7940N.c ****     default: break;
 724:rhea\drivers\MCP7940N/MCP7940N.c ****     };
ARM GAS  C:\Users\GYULAI~1\AppData\Local\Temp\ccG7iLma.s 			page 57


 725:rhea\drivers\MCP7940N/MCP7940N.c ****     
 726:rhea\drivers\MCP7940N/MCP7940N.c ****     // Returning result
 727:rhea\drivers\MCP7940N/MCP7940N.c ****     return registerValue & MCP7940N_ALMxWKDAY_WKDAY;
 728:rhea\drivers\MCP7940N/MCP7940N.c **** }
 2370              		.loc 1 728 0
 2371 0018 00F00700 		and	r0, r0, #7
 2372              	.LVL246:
 2373 001c 7047     		bx	lr
 2374              	.L236:
 2375 001e 00BF     		.align	2
 2376              	.L235:
 2377 0020 00000000 		.word	.LANCHOR0
 2378              		.cfi_endproc
 2379              	.LFE49:
 2380              		.size	MCP7940N_GetAlarmWeekday, .-MCP7940N_GetAlarmWeekday
 2381              		.section	.text.MCP7940N_GetAlarmDate,"ax",%progbits
 2382              		.align	2
 2383              		.global	MCP7940N_GetAlarmDate
 2384              		.thumb
 2385              		.thumb_func
 2386              		.type	MCP7940N_GetAlarmDate, %function
 2387              	MCP7940N_GetAlarmDate:
 2388              	.LFB50:
 729:rhea\drivers\MCP7940N/MCP7940N.c **** 
 730:rhea\drivers\MCP7940N/MCP7940N.c **** uint8_t MCP7940N_GetAlarmDate(uint8_t id) {
 2389              		.loc 1 730 0
 2390              		.cfi_startproc
 2391              		@ args = 0, pretend = 0, frame = 0
 2392              		@ frame_needed = 0, uses_anonymous_args = 0
 2393              		@ link register save eliminated.
 2394              	.LVL247:
 731:rhea\drivers\MCP7940N/MCP7940N.c ****     
 732:rhea\drivers\MCP7940N/MCP7940N.c ****     // Reading ALMxDATE register
 733:rhea\drivers\MCP7940N/MCP7940N.c ****     uint8_t registerValue = 0;
 734:rhea\drivers\MCP7940N/MCP7940N.c ****     switch(id) {
 2395              		.loc 1 734 0
 2396 0000 10B1     		cbz	r0, .L239
 2397 0002 0128     		cmp	r0, #1
 2398 0004 03D0     		beq	.L240
 2399 0006 06E0     		b	.L242
 2400              	.L239:
 735:rhea\drivers\MCP7940N/MCP7940N.c ****     case MCP7940N_ALARM0: registerValue = MCP7940N_RegistersLocal.ALM0DATE; break;
 2401              		.loc 1 735 0
 2402 0008 084B     		ldr	r3, .L243
 2403 000a 5B7F     		ldrb	r3, [r3, #29]	@ zero_extendqisi2
 2404              	.LVL248:
 2405 000c 04E0     		b	.L238
 2406              	.LVL249:
 2407              	.L240:
 736:rhea\drivers\MCP7940N/MCP7940N.c ****     case MCP7940N_ALARM1: registerValue = MCP7940N_RegistersLocal.ALM1DATE; break;
 2408              		.loc 1 736 0
 2409 000e 074B     		ldr	r3, .L243
 2410 0010 93F82330 		ldrb	r3, [r3, #35]	@ zero_extendqisi2
 2411              	.LVL250:
 2412 0014 00E0     		b	.L238
 2413              	.LVL251:
 2414              	.L242:
ARM GAS  C:\Users\GYULAI~1\AppData\Local\Temp\ccG7iLma.s 			page 58


 733:rhea\drivers\MCP7940N/MCP7940N.c ****     switch(id) {
 2415              		.loc 1 733 0
 2416 0016 0023     		movs	r3, #0
 2417              	.LVL252:
 2418              	.L238:
 737:rhea\drivers\MCP7940N/MCP7940N.c ****     default: break;
 738:rhea\drivers\MCP7940N/MCP7940N.c ****     };
 739:rhea\drivers\MCP7940N/MCP7940N.c ****     
 740:rhea\drivers\MCP7940N/MCP7940N.c ****     // Decoding BCD
 741:rhea\drivers\MCP7940N/MCP7940N.c ****     uint8_t ones = registerValue & MCP7940N_ALMxDATE_DATEONE;
 2419              		.loc 1 741 0
 2420 0018 03F00F00 		and	r0, r3, #15
 2421              	.LVL253:
 742:rhea\drivers\MCP7940N/MCP7940N.c ****     uint8_t tens = registerValue & MCP7940N_ALMxDATE_DATETEN;
 743:rhea\drivers\MCP7940N/MCP7940N.c ****     tens = tens >> 4;
 2422              		.loc 1 743 0
 2423 001c C3F30113 		ubfx	r3, r3, #4, #2
 2424              	.LVL254:
 744:rhea\drivers\MCP7940N/MCP7940N.c ****     
 745:rhea\drivers\MCP7940N/MCP7940N.c ****     // Returning result
 746:rhea\drivers\MCP7940N/MCP7940N.c ****     return tens * 10 + ones;
 2425              		.loc 1 746 0
 2426 0020 03EB8303 		add	r3, r3, r3, lsl #2
 2427              	.LVL255:
 2428 0024 5A00     		lsls	r2, r3, #1
 2429 0026 1044     		add	r0, r0, r2
 2430              	.LVL256:
 747:rhea\drivers\MCP7940N/MCP7940N.c **** }
 2431              		.loc 1 747 0
 2432 0028 C0B2     		uxtb	r0, r0
 2433 002a 7047     		bx	lr
 2434              	.L244:
 2435              		.align	2
 2436              	.L243:
 2437 002c 00000000 		.word	.LANCHOR0
 2438              		.cfi_endproc
 2439              	.LFE50:
 2440              		.size	MCP7940N_GetAlarmDate, .-MCP7940N_GetAlarmDate
 2441              		.section	.text.MCP7940N_GetAlarmMonths,"ax",%progbits
 2442              		.align	2
 2443              		.global	MCP7940N_GetAlarmMonths
 2444              		.thumb
 2445              		.thumb_func
 2446              		.type	MCP7940N_GetAlarmMonths, %function
 2447              	MCP7940N_GetAlarmMonths:
 2448              	.LFB51:
 748:rhea\drivers\MCP7940N/MCP7940N.c **** 
 749:rhea\drivers\MCP7940N/MCP7940N.c **** uint8_t MCP7940N_GetAlarmMonths(uint8_t id) {
 2449              		.loc 1 749 0
 2450              		.cfi_startproc
 2451              		@ args = 0, pretend = 0, frame = 0
 2452              		@ frame_needed = 0, uses_anonymous_args = 0
 2453              		@ link register save eliminated.
 2454              	.LVL257:
 750:rhea\drivers\MCP7940N/MCP7940N.c ****     
 751:rhea\drivers\MCP7940N/MCP7940N.c ****     // Reading ALMxMTH register
 752:rhea\drivers\MCP7940N/MCP7940N.c ****     uint8_t registerValue = 0;
ARM GAS  C:\Users\GYULAI~1\AppData\Local\Temp\ccG7iLma.s 			page 59


 753:rhea\drivers\MCP7940N/MCP7940N.c ****     switch(id) {
 2455              		.loc 1 753 0
 2456 0000 10B1     		cbz	r0, .L247
 2457 0002 0128     		cmp	r0, #1
 2458 0004 03D0     		beq	.L248
 2459 0006 06E0     		b	.L250
 2460              	.L247:
 754:rhea\drivers\MCP7940N/MCP7940N.c ****     case MCP7940N_ALARM0: registerValue = MCP7940N_RegistersLocal.ALM0MTH; break;
 2461              		.loc 1 754 0
 2462 0008 084B     		ldr	r3, .L251
 2463 000a 9B7F     		ldrb	r3, [r3, #30]	@ zero_extendqisi2
 2464              	.LVL258:
 2465 000c 04E0     		b	.L246
 2466              	.LVL259:
 2467              	.L248:
 755:rhea\drivers\MCP7940N/MCP7940N.c ****     case MCP7940N_ALARM1: registerValue = MCP7940N_RegistersLocal.ALM1MTH; break;
 2468              		.loc 1 755 0
 2469 000e 074B     		ldr	r3, .L251
 2470 0010 93F82430 		ldrb	r3, [r3, #36]	@ zero_extendqisi2
 2471              	.LVL260:
 2472 0014 00E0     		b	.L246
 2473              	.LVL261:
 2474              	.L250:
 752:rhea\drivers\MCP7940N/MCP7940N.c ****     switch(id) {
 2475              		.loc 1 752 0
 2476 0016 0023     		movs	r3, #0
 2477              	.LVL262:
 2478              	.L246:
 756:rhea\drivers\MCP7940N/MCP7940N.c ****     default: break;
 757:rhea\drivers\MCP7940N/MCP7940N.c ****     };
 758:rhea\drivers\MCP7940N/MCP7940N.c ****     
 759:rhea\drivers\MCP7940N/MCP7940N.c ****     // Decoding BCD
 760:rhea\drivers\MCP7940N/MCP7940N.c ****     uint8_t ones = registerValue & MCP7940N_ALMxMTH_MTHONE;
 2479              		.loc 1 760 0
 2480 0018 03F00F00 		and	r0, r3, #15
 2481              	.LVL263:
 761:rhea\drivers\MCP7940N/MCP7940N.c ****     uint8_t tens = registerValue & MCP7940N_ALMxMTH_MTHTEN;
 762:rhea\drivers\MCP7940N/MCP7940N.c ****     tens = tens >> 4;
 2482              		.loc 1 762 0
 2483 001c C3F30013 		ubfx	r3, r3, #4, #1
 2484              	.LVL264:
 763:rhea\drivers\MCP7940N/MCP7940N.c ****     
 764:rhea\drivers\MCP7940N/MCP7940N.c ****     // Returning result
 765:rhea\drivers\MCP7940N/MCP7940N.c ****     return tens * 10 + ones;
 2485              		.loc 1 765 0
 2486 0020 9900     		lsls	r1, r3, #2
 2487 0022 0B44     		add	r3, r3, r1
 2488              	.LVL265:
 2489 0024 5A00     		lsls	r2, r3, #1
 2490 0026 1044     		add	r0, r0, r2
 2491              	.LVL266:
 766:rhea\drivers\MCP7940N/MCP7940N.c **** }
 2492              		.loc 1 766 0
 2493 0028 C0B2     		uxtb	r0, r0
 2494 002a 7047     		bx	lr
 2495              	.L252:
 2496              		.align	2
ARM GAS  C:\Users\GYULAI~1\AppData\Local\Temp\ccG7iLma.s 			page 60


 2497              	.L251:
 2498 002c 00000000 		.word	.LANCHOR0
 2499              		.cfi_endproc
 2500              	.LFE51:
 2501              		.size	MCP7940N_GetAlarmMonths, .-MCP7940N_GetAlarmMonths
 2502              		.section	.text.MCP7940N_GetAlarmDatetime,"ax",%progbits
 2503              		.align	2
 2504              		.global	MCP7940N_GetAlarmDatetime
 2505              		.thumb
 2506              		.thumb_func
 2507              		.type	MCP7940N_GetAlarmDatetime, %function
 2508              	MCP7940N_GetAlarmDatetime:
 2509              	.LFB45:
 643:rhea\drivers\MCP7940N/MCP7940N.c **** 
 2510              		.loc 1 643 0
 2511              		.cfi_startproc
 2512              		@ args = 0, pretend = 0, frame = 0
 2513              		@ frame_needed = 0, uses_anonymous_args = 0
 2514              	.LVL267:
 2515 0000 38B5     		push	{r3, r4, r5, lr}
 2516              		.cfi_def_cfa_offset 16
 2517              		.cfi_offset 3, -16
 2518              		.cfi_offset 4, -12
 2519              		.cfi_offset 5, -8
 2520              		.cfi_offset 14, -4
 2521 0002 0446     		mov	r4, r0
 2522 0004 0D46     		mov	r5, r1
 649:rhea\drivers\MCP7940N/MCP7940N.c ****     datetime.date = MCP7940N_GetAlarmDate(id);
 2523              		.loc 1 649 0
 2524 0006 0846     		mov	r0, r1
 2525              	.LVL268:
 2526 0008 FFF7FEFF 		bl	MCP7940N_GetAlarmMonths
 2527              	.LVL269:
 2528 000c A070     		strb	r0, [r4, #2]
 650:rhea\drivers\MCP7940N/MCP7940N.c ****     datetime.weekday = MCP7940N_GetAlarmWeekday(id);
 2529              		.loc 1 650 0
 2530 000e 2846     		mov	r0, r5
 2531 0010 FFF7FEFF 		bl	MCP7940N_GetAlarmDate
 2532              	.LVL270:
 2533 0014 E070     		strb	r0, [r4, #3]
 651:rhea\drivers\MCP7940N/MCP7940N.c ****     datetime.hour = MCP7940N_GetAlarmHours(id);
 2534              		.loc 1 651 0
 2535 0016 2846     		mov	r0, r5
 2536 0018 FFF7FEFF 		bl	MCP7940N_GetAlarmWeekday
 2537              	.LVL271:
 2538 001c 2071     		strb	r0, [r4, #4]
 652:rhea\drivers\MCP7940N/MCP7940N.c ****     datetime.minute = MCP7940N_GetAlarmMinutes(id);
 2539              		.loc 1 652 0
 2540 001e 2846     		mov	r0, r5
 2541 0020 FFF7FEFF 		bl	MCP7940N_GetAlarmHours
 2542              	.LVL272:
 2543 0024 6071     		strb	r0, [r4, #5]
 653:rhea\drivers\MCP7940N/MCP7940N.c ****     datetime.second = MCP7940N_GetAlarmSeconds(id);
 2544              		.loc 1 653 0
 2545 0026 2846     		mov	r0, r5
 2546 0028 FFF7FEFF 		bl	MCP7940N_GetAlarmMinutes
 2547              	.LVL273:
ARM GAS  C:\Users\GYULAI~1\AppData\Local\Temp\ccG7iLma.s 			page 61


 2548 002c A071     		strb	r0, [r4, #6]
 654:rhea\drivers\MCP7940N/MCP7940N.c ****     
 2549              		.loc 1 654 0
 2550 002e 2846     		mov	r0, r5
 2551 0030 FFF7FEFF 		bl	MCP7940N_GetAlarmSeconds
 2552              	.LVL274:
 2553 0034 E071     		strb	r0, [r4, #7]
 657:rhea\drivers\MCP7940N/MCP7940N.c **** 
 2554              		.loc 1 657 0
 2555 0036 2046     		mov	r0, r4
 2556 0038 38BD     		pop	{r3, r4, r5, pc}
 2557              		.cfi_endproc
 2558              	.LFE45:
 2559              		.size	MCP7940N_GetAlarmDatetime, .-MCP7940N_GetAlarmDatetime
 2560 003a 00BF     		.section	.text.MCP7940N_GetAlarmPolarity,"ax",%progbits
 2561              		.align	2
 2562              		.global	MCP7940N_GetAlarmPolarity
 2563              		.thumb
 2564              		.thumb_func
 2565              		.type	MCP7940N_GetAlarmPolarity, %function
 2566              	MCP7940N_GetAlarmPolarity:
 2567              	.LFB52:
 767:rhea\drivers\MCP7940N/MCP7940N.c **** 
 768:rhea\drivers\MCP7940N/MCP7940N.c **** uint8_t MCP7940N_GetAlarmPolarity(void) {
 2568              		.loc 1 768 0
 2569              		.cfi_startproc
 2570              		@ args = 0, pretend = 0, frame = 0
 2571              		@ frame_needed = 0, uses_anonymous_args = 0
 2572              		@ link register save eliminated.
 769:rhea\drivers\MCP7940N/MCP7940N.c ****     
 770:rhea\drivers\MCP7940N/MCP7940N.c ****     // Returning alarm polarity
 771:rhea\drivers\MCP7940N/MCP7940N.c ****     return MCP7940N_RegistersLocal.ALM0WKDAY & MCP7940N_ALMxWKDAY_ALMPOL;
 2573              		.loc 1 771 0
 2574 0000 024B     		ldr	r3, .L256
 2575 0002 187F     		ldrb	r0, [r3, #28]	@ zero_extendqisi2
 772:rhea\drivers\MCP7940N/MCP7940N.c **** }
 2576              		.loc 1 772 0
 2577 0004 00F08000 		and	r0, r0, #128
 2578 0008 7047     		bx	lr
 2579              	.L257:
 2580 000a 00BF     		.align	2
 2581              	.L256:
 2582 000c 00000000 		.word	.LANCHOR0
 2583              		.cfi_endproc
 2584              	.LFE52:
 2585              		.size	MCP7940N_GetAlarmPolarity, .-MCP7940N_GetAlarmPolarity
 2586              		.section	.text.MCP7940N_GetAlarmMode,"ax",%progbits
 2587              		.align	2
 2588              		.global	MCP7940N_GetAlarmMode
 2589              		.thumb
 2590              		.thumb_func
 2591              		.type	MCP7940N_GetAlarmMode, %function
 2592              	MCP7940N_GetAlarmMode:
 2593              	.LFB53:
 773:rhea\drivers\MCP7940N/MCP7940N.c **** 
 774:rhea\drivers\MCP7940N/MCP7940N.c **** uint8_t MCP7940N_GetAlarmMode(uint8_t id) {
 2594              		.loc 1 774 0
ARM GAS  C:\Users\GYULAI~1\AppData\Local\Temp\ccG7iLma.s 			page 62


 2595              		.cfi_startproc
 2596              		@ args = 0, pretend = 0, frame = 0
 2597              		@ frame_needed = 0, uses_anonymous_args = 0
 2598              		@ link register save eliminated.
 2599              	.LVL275:
 775:rhea\drivers\MCP7940N/MCP7940N.c ****     
 776:rhea\drivers\MCP7940N/MCP7940N.c ****     // Returning alarm mode mask
 777:rhea\drivers\MCP7940N/MCP7940N.c ****     switch(id) {
 2600              		.loc 1 777 0
 2601 0000 10B1     		cbz	r0, .L260
 2602 0002 0128     		cmp	r0, #1
 2603 0004 05D0     		beq	.L261
 2604 0006 0AE0     		b	.L263
 2605              	.L260:
 778:rhea\drivers\MCP7940N/MCP7940N.c ****     case MCP7940N_ALARM0: return MCP7940N_RegistersLocal.ALM0WKDAY & MCP7940N_ALMxWKDAY_ALMxMSK;
 2606              		.loc 1 778 0
 2607 0008 064B     		ldr	r3, .L264
 2608 000a 187F     		ldrb	r0, [r3, #28]	@ zero_extendqisi2
 2609              	.LVL276:
 2610 000c 00F07000 		and	r0, r0, #112
 2611 0010 7047     		bx	lr
 2612              	.LVL277:
 2613              	.L261:
 779:rhea\drivers\MCP7940N/MCP7940N.c ****     case MCP7940N_ALARM1: return MCP7940N_RegistersLocal.ALM1WKDAY & MCP7940N_ALMxWKDAY_ALMxMSK;
 2614              		.loc 1 779 0
 2615 0012 044B     		ldr	r3, .L264
 2616 0014 93F82200 		ldrb	r0, [r3, #34]	@ zero_extendqisi2
 2617              	.LVL278:
 2618 0018 00F07000 		and	r0, r0, #112
 2619 001c 7047     		bx	lr
 2620              	.LVL279:
 2621              	.L263:
 780:rhea\drivers\MCP7940N/MCP7940N.c ****     default:     return 0;
 2622              		.loc 1 780 0
 2623 001e 0020     		movs	r0, #0
 2624              	.LVL280:
 781:rhea\drivers\MCP7940N/MCP7940N.c ****     };
 782:rhea\drivers\MCP7940N/MCP7940N.c **** }
 2625              		.loc 1 782 0
 2626 0020 7047     		bx	lr
 2627              	.L265:
 2628 0022 00BF     		.align	2
 2629              	.L264:
 2630 0024 00000000 		.word	.LANCHOR0
 2631              		.cfi_endproc
 2632              	.LFE53:
 2633              		.size	MCP7940N_GetAlarmMode, .-MCP7940N_GetAlarmMode
 2634              		.section	.text.MCP7940N_IsAlarmEnabled,"ax",%progbits
 2635              		.align	2
 2636              		.global	MCP7940N_IsAlarmEnabled
 2637              		.thumb
 2638              		.thumb_func
 2639              		.type	MCP7940N_IsAlarmEnabled, %function
 2640              	MCP7940N_IsAlarmEnabled:
 2641              	.LFB54:
 783:rhea\drivers\MCP7940N/MCP7940N.c **** 
 784:rhea\drivers\MCP7940N/MCP7940N.c **** uint8_t MCP7940N_IsAlarmEnabled(uint8_t id) {
ARM GAS  C:\Users\GYULAI~1\AppData\Local\Temp\ccG7iLma.s 			page 63


 2642              		.loc 1 784 0
 2643              		.cfi_startproc
 2644              		@ args = 0, pretend = 0, frame = 0
 2645              		@ frame_needed = 0, uses_anonymous_args = 0
 2646              		@ link register save eliminated.
 2647              	.LVL281:
 785:rhea\drivers\MCP7940N/MCP7940N.c ****      
 786:rhea\drivers\MCP7940N/MCP7940N.c ****     // Returning whether ALMxEN flag is set
 787:rhea\drivers\MCP7940N/MCP7940N.c ****     switch(id) {
 2648              		.loc 1 787 0
 2649 0000 10B1     		cbz	r0, .L268
 2650 0002 0128     		cmp	r0, #1
 2651 0004 06D0     		beq	.L269
 2652 0006 0BE0     		b	.L271
 2653              	.L268:
 788:rhea\drivers\MCP7940N/MCP7940N.c ****     case MCP7940N_ALARM0: return MCP7940N_RegistersLocal.CONTROL & MCP7940N_CONTROL_ALM0EN;
 2654              		.loc 1 788 0
 2655 0008 064B     		ldr	r3, .L272
 2656 000a D87D     		ldrb	r0, [r3, #23]	@ zero_extendqisi2
 2657              	.LVL282:
 2658 000c 00F01000 		and	r0, r0, #16
 2659 0010 C0B2     		uxtb	r0, r0
 2660 0012 7047     		bx	lr
 2661              	.LVL283:
 2662              	.L269:
 789:rhea\drivers\MCP7940N/MCP7940N.c ****     case MCP7940N_ALARM1: return MCP7940N_RegistersLocal.CONTROL & MCP7940N_CONTROL_ALM1EN;
 2663              		.loc 1 789 0
 2664 0014 034B     		ldr	r3, .L272
 2665 0016 D87D     		ldrb	r0, [r3, #23]	@ zero_extendqisi2
 2666              	.LVL284:
 2667 0018 00F02000 		and	r0, r0, #32
 2668 001c C0B2     		uxtb	r0, r0
 2669 001e 7047     		bx	lr
 2670              	.LVL285:
 2671              	.L271:
 790:rhea\drivers\MCP7940N/MCP7940N.c ****     default:              return MCP7940N_ALARM_DISABLED;
 2672              		.loc 1 790 0
 2673 0020 0020     		movs	r0, #0
 2674              	.LVL286:
 791:rhea\drivers\MCP7940N/MCP7940N.c ****     };
 792:rhea\drivers\MCP7940N/MCP7940N.c **** }
 2675              		.loc 1 792 0
 2676 0022 7047     		bx	lr
 2677              	.L273:
 2678              		.align	2
 2679              	.L272:
 2680 0024 00000000 		.word	.LANCHOR0
 2681              		.cfi_endproc
 2682              	.LFE54:
 2683              		.size	MCP7940N_IsAlarmEnabled, .-MCP7940N_IsAlarmEnabled
 2684              		.section	.text.MCP7940N_HasAlarmFired,"ax",%progbits
 2685              		.align	2
 2686              		.global	MCP7940N_HasAlarmFired
 2687              		.thumb
 2688              		.thumb_func
 2689              		.type	MCP7940N_HasAlarmFired, %function
 2690              	MCP7940N_HasAlarmFired:
ARM GAS  C:\Users\GYULAI~1\AppData\Local\Temp\ccG7iLma.s 			page 64


 2691              	.LFB55:
 793:rhea\drivers\MCP7940N/MCP7940N.c **** 
 794:rhea\drivers\MCP7940N/MCP7940N.c **** uint8_t MCP7940N_HasAlarmFired(uint8_t id) {
 2692              		.loc 1 794 0
 2693              		.cfi_startproc
 2694              		@ args = 0, pretend = 0, frame = 0
 2695              		@ frame_needed = 0, uses_anonymous_args = 0
 2696              	.LVL287:
 2697 0000 38B5     		push	{r3, r4, r5, lr}
 2698              		.cfi_def_cfa_offset 16
 2699              		.cfi_offset 3, -16
 2700              		.cfi_offset 4, -12
 2701              		.cfi_offset 5, -8
 2702              		.cfi_offset 14, -4
 2703 0002 0546     		mov	r5, r0
 795:rhea\drivers\MCP7940N/MCP7940N.c ****     
 796:rhea\drivers\MCP7940N/MCP7940N.c ****     // Reading ALMxWKDAY registers
 797:rhea\drivers\MCP7940N/MCP7940N.c ****     MCP7940N_I2CReader(MCP7940N_I2C_ADDR, MCP7940N_ALM0WKDAY, (uint8_t*) &MCP7940N_RegistersLocal.A
 2704              		.loc 1 797 0
 2705 0004 104C     		ldr	r4, .L279
 2706 0006 0123     		movs	r3, #1
 2707 0008 04F11C02 		add	r2, r4, #28
 2708 000c 0D21     		movs	r1, #13
 2709 000e DE20     		movs	r0, #222
 2710              	.LVL288:
 2711 0010 FFF7FEFF 		bl	MCP7940N_I2CReader
 2712              	.LVL289:
 798:rhea\drivers\MCP7940N/MCP7940N.c ****     MCP7940N_I2CReader(MCP7940N_I2C_ADDR, MCP7940N_ALM1WKDAY, (uint8_t*) &MCP7940N_RegistersLocal.A
 2713              		.loc 1 798 0
 2714 0014 0123     		movs	r3, #1
 2715 0016 04F12202 		add	r2, r4, #34
 2716 001a 1421     		movs	r1, #20
 2717 001c DE20     		movs	r0, #222
 2718 001e FFF7FEFF 		bl	MCP7940N_I2CReader
 2719              	.LVL290:
 799:rhea\drivers\MCP7940N/MCP7940N.c ****     
 800:rhea\drivers\MCP7940N/MCP7940N.c ****     // Register value initialization
 801:rhea\drivers\MCP7940N/MCP7940N.c ****     uint8_t registerValue = MCP7940N_ALARM_NOT_FIRED;
 802:rhea\drivers\MCP7940N/MCP7940N.c ****     
 803:rhea\drivers\MCP7940N/MCP7940N.c ****     // Returning whether ALMxIF flag is set
 804:rhea\drivers\MCP7940N/MCP7940N.c ****     switch(id) {
 2720              		.loc 1 804 0
 2721 0022 15B1     		cbz	r5, .L276
 2722 0024 012D     		cmp	r5, #1
 2723 0026 05D0     		beq	.L277
 2724 0028 0BE0     		b	.L275
 2725              	.L276:
 805:rhea\drivers\MCP7940N/MCP7940N.c ****     case MCP7940N_ALARM0: registerValue = MCP7940N_RegistersLocal.ALM0WKDAY & MCP7940N_ALMxWKDAY_AL
 2726              		.loc 1 805 0
 2727 002a 074A     		ldr	r2, .L279
 2728 002c 137F     		ldrb	r3, [r2, #28]	@ zero_extendqisi2
 2729              	.LVL291:
 806:rhea\drivers\MCP7940N/MCP7940N.c ****                           MCP7940N_RegistersLocal.ALM0WKDAY &= ~MCP7940N_ALMxWKDAY_ALMxIF;
 2730              		.loc 1 806 0
 2731 002e 23F00803 		bic	r3, r3, #8
 2732              	.LVL292:
 2733 0032 1377     		strb	r3, [r2, #28]
ARM GAS  C:\Users\GYULAI~1\AppData\Local\Temp\ccG7iLma.s 			page 65


 2734              	.LVL293:
 2735              	.L277:
 807:rhea\drivers\MCP7940N/MCP7940N.c ****     case MCP7940N_ALARM1: registerValue = MCP7940N_RegistersLocal.ALM1WKDAY & MCP7940N_ALMxWKDAY_AL
 2736              		.loc 1 807 0
 2737 0034 044A     		ldr	r2, .L279
 2738 0036 92F82230 		ldrb	r3, [r2, #34]	@ zero_extendqisi2
 2739              	.LVL294:
 808:rhea\drivers\MCP7940N/MCP7940N.c ****                           MCP7940N_RegistersLocal.ALM1WKDAY &= ~MCP7940N_ALMxWKDAY_ALMxIF;
 2740              		.loc 1 808 0
 2741 003a 23F00803 		bic	r3, r3, #8
 2742              	.LVL295:
 2743 003e 82F82230 		strb	r3, [r2, #34]
 2744              	.LVL296:
 2745              	.L275:
 809:rhea\drivers\MCP7940N/MCP7940N.c ****     default:              registerValue = MCP7940N_ALARM_NOT_FIRED;
 810:rhea\drivers\MCP7940N/MCP7940N.c ****     };
 811:rhea\drivers\MCP7940N/MCP7940N.c ****     
 812:rhea\drivers\MCP7940N/MCP7940N.c ****     return registerValue;
 813:rhea\drivers\MCP7940N/MCP7940N.c **** }
 2746              		.loc 1 813 0
 2747 0042 0020     		movs	r0, #0
 2748 0044 38BD     		pop	{r3, r4, r5, pc}
 2749              	.L280:
 2750 0046 00BF     		.align	2
 2751              	.L279:
 2752 0048 00000000 		.word	.LANCHOR0
 2753              		.cfi_endproc
 2754              	.LFE55:
 2755              		.size	MCP7940N_HasAlarmFired, .-MCP7940N_HasAlarmFired
 2756              		.section	.text.MCP7940N_SetAlarmSeconds,"ax",%progbits
 2757              		.align	2
 2758              		.global	MCP7940N_SetAlarmSeconds
 2759              		.thumb
 2760              		.thumb_func
 2761              		.type	MCP7940N_SetAlarmSeconds, %function
 2762              	MCP7940N_SetAlarmSeconds:
 2763              	.LFB57:
 814:rhea\drivers\MCP7940N/MCP7940N.c **** 
 815:rhea\drivers\MCP7940N/MCP7940N.c **** void MCP7940N_SetAlarmDatetime(uint8_t id, MCP7940N_Datetime datetime) {
 816:rhea\drivers\MCP7940N/MCP7940N.c ****     
 817:rhea\drivers\MCP7940N/MCP7940N.c ****     // Setting alarm registers
 818:rhea\drivers\MCP7940N/MCP7940N.c ****     MCP7940N_SetAlarmSeconds(id, datetime.second);
 819:rhea\drivers\MCP7940N/MCP7940N.c ****     MCP7940N_SetAlarmMinutes(id, datetime.minute);
 820:rhea\drivers\MCP7940N/MCP7940N.c ****     MCP7940N_SetAlarmHours(id, datetime.hour);
 821:rhea\drivers\MCP7940N/MCP7940N.c ****     MCP7940N_SetAlarmWeekday(id, datetime.weekday);
 822:rhea\drivers\MCP7940N/MCP7940N.c ****     MCP7940N_SetAlarmDate(id, datetime.date);
 823:rhea\drivers\MCP7940N/MCP7940N.c ****     MCP7940N_SetAlarmMonths(id, datetime.month);
 824:rhea\drivers\MCP7940N/MCP7940N.c ****     
 825:rhea\drivers\MCP7940N/MCP7940N.c ****     // Writing changes to hardware
 826:rhea\drivers\MCP7940N/MCP7940N.c ****     if(id == MCP7940N_ALARM0) {
 827:rhea\drivers\MCP7940N/MCP7940N.c ****         MCP7940N_I2CWriter(MCP7940N_I2C_ADDR, MCP7940N_ALM0SEC, (uint8_t*) &MCP7940N_RegistersLocal
 828:rhea\drivers\MCP7940N/MCP7940N.c ****                            MCP7940N_ALM0MTH - MCP7940N_ALM0SEC + 1);
 829:rhea\drivers\MCP7940N/MCP7940N.c ****     }
 830:rhea\drivers\MCP7940N/MCP7940N.c ****     else if(id == MCP7940N_ALARM1) {
 831:rhea\drivers\MCP7940N/MCP7940N.c ****         MCP7940N_I2CWriter(MCP7940N_I2C_ADDR, MCP7940N_ALM0SEC, (uint8_t*) &MCP7940N_RegistersLocal
 832:rhea\drivers\MCP7940N/MCP7940N.c ****                            MCP7940N_ALM0MTH - MCP7940N_ALM0SEC + 1);
 833:rhea\drivers\MCP7940N/MCP7940N.c ****     }
ARM GAS  C:\Users\GYULAI~1\AppData\Local\Temp\ccG7iLma.s 			page 66


 834:rhea\drivers\MCP7940N/MCP7940N.c **** }
 835:rhea\drivers\MCP7940N/MCP7940N.c **** 
 836:rhea\drivers\MCP7940N/MCP7940N.c **** void MCP7940N_SetAlarmSeconds(uint8_t id, uint8_t seconds) {
 2764              		.loc 1 836 0
 2765              		.cfi_startproc
 2766              		@ args = 0, pretend = 0, frame = 0
 2767              		@ frame_needed = 0, uses_anonymous_args = 0
 2768              		@ link register save eliminated.
 2769              	.LVL297:
 2770 0000 10B4     		push	{r4}
 2771              		.cfi_def_cfa_offset 4
 2772              		.cfi_offset 4, -4
 837:rhea\drivers\MCP7940N/MCP7940N.c ****   
 838:rhea\drivers\MCP7940N/MCP7940N.c ****     // Encoding BCD
 839:rhea\drivers\MCP7940N/MCP7940N.c ****     uint8_t ones = seconds % 10;
 2773              		.loc 1 839 0
 2774 0002 0B4B     		ldr	r3, .L286
 2775 0004 A3FB0123 		umull	r2, r3, r3, r1
 2776 0008 DB08     		lsrs	r3, r3, #3
 2777 000a 03EB8304 		add	r4, r3, r3, lsl #2
 2778 000e 6200     		lsls	r2, r4, #1
 2779 0010 891A     		subs	r1, r1, r2
 2780              	.LVL298:
 2781 0012 C9B2     		uxtb	r1, r1
 2782              	.LVL299:
 840:rhea\drivers\MCP7940N/MCP7940N.c ****     uint8_t tens = seconds / 10;
 841:rhea\drivers\MCP7940N/MCP7940N.c ****     uint8_t registerValue = ones | tens << 4;
 2783              		.loc 1 841 0
 2784 0014 41EA0311 		orr	r1, r1, r3, lsl #4
 2785              	.LVL300:
 2786 0018 C9B2     		uxtb	r1, r1
 2787              	.LVL301:
 842:rhea\drivers\MCP7940N/MCP7940N.c ****     
 843:rhea\drivers\MCP7940N/MCP7940N.c ****     // Writing alarm seconds register
 844:rhea\drivers\MCP7940N/MCP7940N.c ****     switch(id) {
 2788              		.loc 1 844 0
 2789 001a 10B1     		cbz	r0, .L283
 2790 001c 0128     		cmp	r0, #1
 2791 001e 03D0     		beq	.L284
 2792 0020 04E0     		b	.L281
 2793              	.L283:
 845:rhea\drivers\MCP7940N/MCP7940N.c ****     case MCP7940N_ALARM0: MCP7940N_RegistersLocal.ALM0SEC = registerValue; return;
 2794              		.loc 1 845 0
 2795 0022 044B     		ldr	r3, .L286+4
 2796              	.LVL302:
 2797 0024 5976     		strb	r1, [r3, #25]
 2798 0026 01E0     		b	.L281
 2799              	.LVL303:
 2800              	.L284:
 846:rhea\drivers\MCP7940N/MCP7940N.c ****     case MCP7940N_ALARM1: MCP7940N_RegistersLocal.ALM1SEC = registerValue; return;
 2801              		.loc 1 846 0
 2802 0028 024B     		ldr	r3, .L286+4
 2803              	.LVL304:
 2804 002a D977     		strb	r1, [r3, #31]
 2805              	.L281:
 847:rhea\drivers\MCP7940N/MCP7940N.c ****     default: return;
 848:rhea\drivers\MCP7940N/MCP7940N.c ****     };
ARM GAS  C:\Users\GYULAI~1\AppData\Local\Temp\ccG7iLma.s 			page 67


 849:rhea\drivers\MCP7940N/MCP7940N.c **** }
 2806              		.loc 1 849 0
 2807 002c 10BC     		pop	{r4}
 2808              		.cfi_restore 4
 2809              		.cfi_def_cfa_offset 0
 2810 002e 7047     		bx	lr
 2811              	.L287:
 2812              		.align	2
 2813              	.L286:
 2814 0030 CDCCCCCC 		.word	-858993459
 2815 0034 00000000 		.word	.LANCHOR0
 2816              		.cfi_endproc
 2817              	.LFE57:
 2818              		.size	MCP7940N_SetAlarmSeconds, .-MCP7940N_SetAlarmSeconds
 2819              		.section	.text.MCP7940N_SetAlarmMinutes,"ax",%progbits
 2820              		.align	2
 2821              		.global	MCP7940N_SetAlarmMinutes
 2822              		.thumb
 2823              		.thumb_func
 2824              		.type	MCP7940N_SetAlarmMinutes, %function
 2825              	MCP7940N_SetAlarmMinutes:
 2826              	.LFB58:
 850:rhea\drivers\MCP7940N/MCP7940N.c **** 
 851:rhea\drivers\MCP7940N/MCP7940N.c **** void MCP7940N_SetAlarmMinutes(uint8_t id, uint8_t minutes) {
 2827              		.loc 1 851 0
 2828              		.cfi_startproc
 2829              		@ args = 0, pretend = 0, frame = 0
 2830              		@ frame_needed = 0, uses_anonymous_args = 0
 2831              		@ link register save eliminated.
 2832              	.LVL305:
 2833 0000 10B4     		push	{r4}
 2834              		.cfi_def_cfa_offset 4
 2835              		.cfi_offset 4, -4
 852:rhea\drivers\MCP7940N/MCP7940N.c **** 
 853:rhea\drivers\MCP7940N/MCP7940N.c ****     // Encoding BCD
 854:rhea\drivers\MCP7940N/MCP7940N.c ****     uint8_t ones = minutes % 10;
 2836              		.loc 1 854 0
 2837 0002 0C4B     		ldr	r3, .L293
 2838 0004 A3FB0123 		umull	r2, r3, r3, r1
 2839 0008 DB08     		lsrs	r3, r3, #3
 2840 000a 03EB8304 		add	r4, r3, r3, lsl #2
 2841 000e 6200     		lsls	r2, r4, #1
 2842 0010 891A     		subs	r1, r1, r2
 2843              	.LVL306:
 2844 0012 C9B2     		uxtb	r1, r1
 2845              	.LVL307:
 855:rhea\drivers\MCP7940N/MCP7940N.c ****     uint8_t tens = minutes / 10;
 856:rhea\drivers\MCP7940N/MCP7940N.c ****     uint8_t registerValue = ones | tens << 4;
 2846              		.loc 1 856 0
 2847 0014 41EA0311 		orr	r1, r1, r3, lsl #4
 2848              	.LVL308:
 2849 0018 C9B2     		uxtb	r1, r1
 2850              	.LVL309:
 857:rhea\drivers\MCP7940N/MCP7940N.c ****     
 858:rhea\drivers\MCP7940N/MCP7940N.c ****     // Writing alarm minute register
 859:rhea\drivers\MCP7940N/MCP7940N.c ****     switch(id) {
 2851              		.loc 1 859 0
ARM GAS  C:\Users\GYULAI~1\AppData\Local\Temp\ccG7iLma.s 			page 68


 2852 001a 10B1     		cbz	r0, .L290
 2853 001c 0128     		cmp	r0, #1
 2854 001e 03D0     		beq	.L291
 2855 0020 05E0     		b	.L288
 2856              	.L290:
 860:rhea\drivers\MCP7940N/MCP7940N.c ****     case MCP7940N_ALARM0: MCP7940N_RegistersLocal.ALM0MIN = registerValue; return;
 2857              		.loc 1 860 0
 2858 0022 054B     		ldr	r3, .L293+4
 2859              	.LVL310:
 2860 0024 9976     		strb	r1, [r3, #26]
 2861 0026 02E0     		b	.L288
 2862              	.LVL311:
 2863              	.L291:
 861:rhea\drivers\MCP7940N/MCP7940N.c ****     case MCP7940N_ALARM1: MCP7940N_RegistersLocal.ALM1MIN = registerValue; return;
 2864              		.loc 1 861 0
 2865 0028 034B     		ldr	r3, .L293+4
 2866              	.LVL312:
 2867 002a 83F82010 		strb	r1, [r3, #32]
 2868              	.L288:
 862:rhea\drivers\MCP7940N/MCP7940N.c ****     default: return;
 863:rhea\drivers\MCP7940N/MCP7940N.c ****     };
 864:rhea\drivers\MCP7940N/MCP7940N.c **** }
 2869              		.loc 1 864 0
 2870 002e 10BC     		pop	{r4}
 2871              		.cfi_restore 4
 2872              		.cfi_def_cfa_offset 0
 2873 0030 7047     		bx	lr
 2874              	.L294:
 2875 0032 00BF     		.align	2
 2876              	.L293:
 2877 0034 CDCCCCCC 		.word	-858993459
 2878 0038 00000000 		.word	.LANCHOR0
 2879              		.cfi_endproc
 2880              	.LFE58:
 2881              		.size	MCP7940N_SetAlarmMinutes, .-MCP7940N_SetAlarmMinutes
 2882              		.section	.text.MCP7940N_SetAlarmHours,"ax",%progbits
 2883              		.align	2
 2884              		.global	MCP7940N_SetAlarmHours
 2885              		.thumb
 2886              		.thumb_func
 2887              		.type	MCP7940N_SetAlarmHours, %function
 2888              	MCP7940N_SetAlarmHours:
 2889              	.LFB59:
 865:rhea\drivers\MCP7940N/MCP7940N.c **** 
 866:rhea\drivers\MCP7940N/MCP7940N.c **** void MCP7940N_SetAlarmHours(uint8_t id, uint8_t hours) {
 2890              		.loc 1 866 0
 2891              		.cfi_startproc
 2892              		@ args = 0, pretend = 0, frame = 0
 2893              		@ frame_needed = 0, uses_anonymous_args = 0
 2894              		@ link register save eliminated.
 2895              	.LVL313:
 2896 0000 10B4     		push	{r4}
 2897              		.cfi_def_cfa_offset 4
 2898              		.cfi_offset 4, -4
 867:rhea\drivers\MCP7940N/MCP7940N.c **** 
 868:rhea\drivers\MCP7940N/MCP7940N.c ****     // Encoding BCD
 869:rhea\drivers\MCP7940N/MCP7940N.c ****     uint8_t ones = hours % 10;
ARM GAS  C:\Users\GYULAI~1\AppData\Local\Temp\ccG7iLma.s 			page 69


 2899              		.loc 1 869 0
 2900 0002 0C4B     		ldr	r3, .L300
 2901 0004 A3FB0123 		umull	r2, r3, r3, r1
 2902 0008 DB08     		lsrs	r3, r3, #3
 2903 000a 03EB8304 		add	r4, r3, r3, lsl #2
 2904 000e 6200     		lsls	r2, r4, #1
 2905 0010 891A     		subs	r1, r1, r2
 2906              	.LVL314:
 2907 0012 C9B2     		uxtb	r1, r1
 2908              	.LVL315:
 870:rhea\drivers\MCP7940N/MCP7940N.c ****     uint8_t tens = hours / 10;
 871:rhea\drivers\MCP7940N/MCP7940N.c ****     uint8_t registerValue = ones | tens << 4;
 2909              		.loc 1 871 0
 2910 0014 41EA0311 		orr	r1, r1, r3, lsl #4
 2911              	.LVL316:
 2912 0018 C9B2     		uxtb	r1, r1
 2913              	.LVL317:
 872:rhea\drivers\MCP7940N/MCP7940N.c ****     
 873:rhea\drivers\MCP7940N/MCP7940N.c ****     // Writing alarm hour register
 874:rhea\drivers\MCP7940N/MCP7940N.c ****     switch(id) {
 2914              		.loc 1 874 0
 2915 001a 10B1     		cbz	r0, .L297
 2916 001c 0128     		cmp	r0, #1
 2917 001e 03D0     		beq	.L298
 2918 0020 05E0     		b	.L295
 2919              	.L297:
 875:rhea\drivers\MCP7940N/MCP7940N.c ****     case MCP7940N_ALARM0: MCP7940N_RegistersLocal.ALM0HOUR = registerValue; return;
 2920              		.loc 1 875 0
 2921 0022 054B     		ldr	r3, .L300+4
 2922              	.LVL318:
 2923 0024 D976     		strb	r1, [r3, #27]
 2924 0026 02E0     		b	.L295
 2925              	.LVL319:
 2926              	.L298:
 876:rhea\drivers\MCP7940N/MCP7940N.c ****     case MCP7940N_ALARM1: MCP7940N_RegistersLocal.ALM1HOUR = registerValue; return;
 2927              		.loc 1 876 0
 2928 0028 034B     		ldr	r3, .L300+4
 2929              	.LVL320:
 2930 002a 83F82110 		strb	r1, [r3, #33]
 2931              	.L295:
 877:rhea\drivers\MCP7940N/MCP7940N.c ****     default: return;
 878:rhea\drivers\MCP7940N/MCP7940N.c ****     };
 879:rhea\drivers\MCP7940N/MCP7940N.c **** }
 2932              		.loc 1 879 0
 2933 002e 10BC     		pop	{r4}
 2934              		.cfi_restore 4
 2935              		.cfi_def_cfa_offset 0
 2936 0030 7047     		bx	lr
 2937              	.L301:
 2938 0032 00BF     		.align	2
 2939              	.L300:
 2940 0034 CDCCCCCC 		.word	-858993459
 2941 0038 00000000 		.word	.LANCHOR0
 2942              		.cfi_endproc
 2943              	.LFE59:
 2944              		.size	MCP7940N_SetAlarmHours, .-MCP7940N_SetAlarmHours
 2945              		.section	.text.MCP7940N_SetAlarmWeekday,"ax",%progbits
ARM GAS  C:\Users\GYULAI~1\AppData\Local\Temp\ccG7iLma.s 			page 70


 2946              		.align	2
 2947              		.global	MCP7940N_SetAlarmWeekday
 2948              		.thumb
 2949              		.thumb_func
 2950              		.type	MCP7940N_SetAlarmWeekday, %function
 2951              	MCP7940N_SetAlarmWeekday:
 2952              	.LFB60:
 880:rhea\drivers\MCP7940N/MCP7940N.c **** 
 881:rhea\drivers\MCP7940N/MCP7940N.c **** void MCP7940N_SetAlarmWeekday(uint8_t id, uint8_t weekday) {
 2953              		.loc 1 881 0
 2954              		.cfi_startproc
 2955              		@ args = 0, pretend = 0, frame = 0
 2956              		@ frame_needed = 0, uses_anonymous_args = 0
 2957              		@ link register save eliminated.
 2958              	.LVL321:
 882:rhea\drivers\MCP7940N/MCP7940N.c ****     
 883:rhea\drivers\MCP7940N/MCP7940N.c ****     // Writing alarm weekday register
 884:rhea\drivers\MCP7940N/MCP7940N.c ****     switch(id) {
 2959              		.loc 1 884 0
 2960 0000 10B1     		cbz	r0, .L304
 2961 0002 0128     		cmp	r0, #1
 2962 0004 07D0     		beq	.L305
 2963 0006 7047     		bx	lr
 2964              	.L304:
 885:rhea\drivers\MCP7940N/MCP7940N.c ****     case MCP7940N_ALARM0:   MCP7940N_RegistersLocal.ALM0WKDAY &= ~MCP7940N_ALMxWKDAY_WKDAY;
 2965              		.loc 1 885 0
 2966 0008 074A     		ldr	r2, .L306
 2967 000a 137F     		ldrb	r3, [r2, #28]	@ zero_extendqisi2
 2968 000c 03F0F803 		and	r3, r3, #248
 886:rhea\drivers\MCP7940N/MCP7940N.c ****                             MCP7940N_RegistersLocal.ALM0WKDAY |= weekday; 
 2969              		.loc 1 886 0
 2970 0010 1943     		orrs	r1, r1, r3
 2971              	.LVL322:
 2972 0012 1177     		strb	r1, [r2, #28]
 887:rhea\drivers\MCP7940N/MCP7940N.c ****                             return;
 2973              		.loc 1 887 0
 2974 0014 7047     		bx	lr
 2975              	.LVL323:
 2976              	.L305:
 888:rhea\drivers\MCP7940N/MCP7940N.c ****     case MCP7940N_ALARM1:   MCP7940N_RegistersLocal.ALM1WKDAY &= ~MCP7940N_ALMxWKDAY_WKDAY;
 2977              		.loc 1 888 0
 2978 0016 044A     		ldr	r2, .L306
 2979 0018 92F82230 		ldrb	r3, [r2, #34]	@ zero_extendqisi2
 2980 001c 03F0F803 		and	r3, r3, #248
 889:rhea\drivers\MCP7940N/MCP7940N.c ****                             MCP7940N_RegistersLocal.ALM1WKDAY |= weekday; 
 2981              		.loc 1 889 0
 2982 0020 1943     		orrs	r1, r1, r3
 2983              	.LVL324:
 2984 0022 82F82210 		strb	r1, [r2, #34]
 2985 0026 7047     		bx	lr
 2986              	.L307:
 2987              		.align	2
 2988              	.L306:
 2989 0028 00000000 		.word	.LANCHOR0
 2990              		.cfi_endproc
 2991              	.LFE60:
 2992              		.size	MCP7940N_SetAlarmWeekday, .-MCP7940N_SetAlarmWeekday
ARM GAS  C:\Users\GYULAI~1\AppData\Local\Temp\ccG7iLma.s 			page 71


 2993              		.section	.text.MCP7940N_SetAlarmDate,"ax",%progbits
 2994              		.align	2
 2995              		.global	MCP7940N_SetAlarmDate
 2996              		.thumb
 2997              		.thumb_func
 2998              		.type	MCP7940N_SetAlarmDate, %function
 2999              	MCP7940N_SetAlarmDate:
 3000              	.LFB61:
 890:rhea\drivers\MCP7940N/MCP7940N.c ****                             return;
 891:rhea\drivers\MCP7940N/MCP7940N.c ****     default:                return;
 892:rhea\drivers\MCP7940N/MCP7940N.c ****     };
 893:rhea\drivers\MCP7940N/MCP7940N.c **** }
 894:rhea\drivers\MCP7940N/MCP7940N.c **** 
 895:rhea\drivers\MCP7940N/MCP7940N.c **** void MCP7940N_SetAlarmDate(uint8_t id, uint8_t date) {
 3001              		.loc 1 895 0
 3002              		.cfi_startproc
 3003              		@ args = 0, pretend = 0, frame = 0
 3004              		@ frame_needed = 0, uses_anonymous_args = 0
 3005              		@ link register save eliminated.
 3006              	.LVL325:
 3007 0000 10B4     		push	{r4}
 3008              		.cfi_def_cfa_offset 4
 3009              		.cfi_offset 4, -4
 896:rhea\drivers\MCP7940N/MCP7940N.c **** 
 897:rhea\drivers\MCP7940N/MCP7940N.c ****     // Encoding BCD
 898:rhea\drivers\MCP7940N/MCP7940N.c ****     uint8_t ones = date % 10;
 3010              		.loc 1 898 0
 3011 0002 0C4B     		ldr	r3, .L313
 3012 0004 A3FB0123 		umull	r2, r3, r3, r1
 3013 0008 DB08     		lsrs	r3, r3, #3
 3014 000a 03EB8304 		add	r4, r3, r3, lsl #2
 3015 000e 6200     		lsls	r2, r4, #1
 3016 0010 891A     		subs	r1, r1, r2
 3017              	.LVL326:
 3018 0012 C9B2     		uxtb	r1, r1
 3019              	.LVL327:
 899:rhea\drivers\MCP7940N/MCP7940N.c ****     uint8_t tens = date / 10;
 900:rhea\drivers\MCP7940N/MCP7940N.c ****     uint8_t registerValue = ones | tens << 4;
 3020              		.loc 1 900 0
 3021 0014 41EA0311 		orr	r1, r1, r3, lsl #4
 3022              	.LVL328:
 3023 0018 C9B2     		uxtb	r1, r1
 3024              	.LVL329:
 901:rhea\drivers\MCP7940N/MCP7940N.c ****     
 902:rhea\drivers\MCP7940N/MCP7940N.c ****     // Writing alarm date register
 903:rhea\drivers\MCP7940N/MCP7940N.c ****     switch(id) {
 3025              		.loc 1 903 0
 3026 001a 10B1     		cbz	r0, .L310
 3027 001c 0128     		cmp	r0, #1
 3028 001e 03D0     		beq	.L311
 3029 0020 05E0     		b	.L308
 3030              	.L310:
 904:rhea\drivers\MCP7940N/MCP7940N.c ****     case MCP7940N_ALARM0: MCP7940N_RegistersLocal.ALM0DATE = registerValue; return;
 3031              		.loc 1 904 0
 3032 0022 054B     		ldr	r3, .L313+4
 3033              	.LVL330:
 3034 0024 5977     		strb	r1, [r3, #29]
ARM GAS  C:\Users\GYULAI~1\AppData\Local\Temp\ccG7iLma.s 			page 72


 3035 0026 02E0     		b	.L308
 3036              	.LVL331:
 3037              	.L311:
 905:rhea\drivers\MCP7940N/MCP7940N.c ****     case MCP7940N_ALARM1: MCP7940N_RegistersLocal.ALM1DATE = registerValue; return;
 3038              		.loc 1 905 0
 3039 0028 034B     		ldr	r3, .L313+4
 3040              	.LVL332:
 3041 002a 83F82310 		strb	r1, [r3, #35]
 3042              	.L308:
 906:rhea\drivers\MCP7940N/MCP7940N.c ****     default: return;
 907:rhea\drivers\MCP7940N/MCP7940N.c ****     };
 908:rhea\drivers\MCP7940N/MCP7940N.c **** }
 3043              		.loc 1 908 0
 3044 002e 10BC     		pop	{r4}
 3045              		.cfi_restore 4
 3046              		.cfi_def_cfa_offset 0
 3047 0030 7047     		bx	lr
 3048              	.L314:
 3049 0032 00BF     		.align	2
 3050              	.L313:
 3051 0034 CDCCCCCC 		.word	-858993459
 3052 0038 00000000 		.word	.LANCHOR0
 3053              		.cfi_endproc
 3054              	.LFE61:
 3055              		.size	MCP7940N_SetAlarmDate, .-MCP7940N_SetAlarmDate
 3056              		.section	.text.MCP7940N_SetAlarmMonths,"ax",%progbits
 3057              		.align	2
 3058              		.global	MCP7940N_SetAlarmMonths
 3059              		.thumb
 3060              		.thumb_func
 3061              		.type	MCP7940N_SetAlarmMonths, %function
 3062              	MCP7940N_SetAlarmMonths:
 3063              	.LFB62:
 909:rhea\drivers\MCP7940N/MCP7940N.c **** 
 910:rhea\drivers\MCP7940N/MCP7940N.c **** void MCP7940N_SetAlarmMonths(uint8_t id, uint8_t months) {
 3064              		.loc 1 910 0
 3065              		.cfi_startproc
 3066              		@ args = 0, pretend = 0, frame = 0
 3067              		@ frame_needed = 0, uses_anonymous_args = 0
 3068              		@ link register save eliminated.
 3069              	.LVL333:
 3070 0000 10B4     		push	{r4}
 3071              		.cfi_def_cfa_offset 4
 3072              		.cfi_offset 4, -4
 911:rhea\drivers\MCP7940N/MCP7940N.c **** 
 912:rhea\drivers\MCP7940N/MCP7940N.c ****     // Encoding BCD
 913:rhea\drivers\MCP7940N/MCP7940N.c ****     uint8_t ones = months % 10;
 3073              		.loc 1 913 0
 3074 0002 0C4B     		ldr	r3, .L320
 3075 0004 A3FB0123 		umull	r2, r3, r3, r1
 3076 0008 DB08     		lsrs	r3, r3, #3
 3077 000a 03EB8304 		add	r4, r3, r3, lsl #2
 3078 000e 6200     		lsls	r2, r4, #1
 3079 0010 891A     		subs	r1, r1, r2
 3080              	.LVL334:
 3081 0012 C9B2     		uxtb	r1, r1
 3082              	.LVL335:
ARM GAS  C:\Users\GYULAI~1\AppData\Local\Temp\ccG7iLma.s 			page 73


 914:rhea\drivers\MCP7940N/MCP7940N.c ****     uint8_t tens = months / 10;
 915:rhea\drivers\MCP7940N/MCP7940N.c ****     uint8_t registerValue = ones | tens << 4;
 3083              		.loc 1 915 0
 3084 0014 41EA0311 		orr	r1, r1, r3, lsl #4
 3085              	.LVL336:
 3086 0018 C9B2     		uxtb	r1, r1
 3087              	.LVL337:
 916:rhea\drivers\MCP7940N/MCP7940N.c ****     
 917:rhea\drivers\MCP7940N/MCP7940N.c ****     // Writing alarm month register
 918:rhea\drivers\MCP7940N/MCP7940N.c ****     switch(id) {
 3088              		.loc 1 918 0
 3089 001a 10B1     		cbz	r0, .L317
 3090 001c 0128     		cmp	r0, #1
 3091 001e 03D0     		beq	.L318
 3092 0020 05E0     		b	.L315
 3093              	.L317:
 919:rhea\drivers\MCP7940N/MCP7940N.c ****     case MCP7940N_ALARM0: MCP7940N_RegistersLocal.ALM0MTH = registerValue; return;
 3094              		.loc 1 919 0
 3095 0022 054B     		ldr	r3, .L320+4
 3096              	.LVL338:
 3097 0024 9977     		strb	r1, [r3, #30]
 3098 0026 02E0     		b	.L315
 3099              	.LVL339:
 3100              	.L318:
 920:rhea\drivers\MCP7940N/MCP7940N.c ****     case MCP7940N_ALARM1: MCP7940N_RegistersLocal.ALM1MTH = registerValue; return;
 3101              		.loc 1 920 0
 3102 0028 034B     		ldr	r3, .L320+4
 3103              	.LVL340:
 3104 002a 83F82410 		strb	r1, [r3, #36]
 3105              	.L315:
 921:rhea\drivers\MCP7940N/MCP7940N.c ****     default: return;
 922:rhea\drivers\MCP7940N/MCP7940N.c ****     };
 923:rhea\drivers\MCP7940N/MCP7940N.c **** }
 3106              		.loc 1 923 0
 3107 002e 10BC     		pop	{r4}
 3108              		.cfi_restore 4
 3109              		.cfi_def_cfa_offset 0
 3110 0030 7047     		bx	lr
 3111              	.L321:
 3112 0032 00BF     		.align	2
 3113              	.L320:
 3114 0034 CDCCCCCC 		.word	-858993459
 3115 0038 00000000 		.word	.LANCHOR0
 3116              		.cfi_endproc
 3117              	.LFE62:
 3118              		.size	MCP7940N_SetAlarmMonths, .-MCP7940N_SetAlarmMonths
 3119              		.section	.text.MCP7940N_SetAlarmDatetime,"ax",%progbits
 3120              		.align	2
 3121              		.global	MCP7940N_SetAlarmDatetime
 3122              		.thumb
 3123              		.thumb_func
 3124              		.type	MCP7940N_SetAlarmDatetime, %function
 3125              	MCP7940N_SetAlarmDatetime:
 3126              	.LFB56:
 815:rhea\drivers\MCP7940N/MCP7940N.c ****     
 3127              		.loc 1 815 0
 3128              		.cfi_startproc
ARM GAS  C:\Users\GYULAI~1\AppData\Local\Temp\ccG7iLma.s 			page 74


 3129              		@ args = 0, pretend = 0, frame = 8
 3130              		@ frame_needed = 0, uses_anonymous_args = 0
 3131              	.LVL341:
 3132 0000 10B5     		push	{r4, lr}
 3133              		.cfi_def_cfa_offset 8
 3134              		.cfi_offset 4, -8
 3135              		.cfi_offset 14, -4
 3136 0002 82B0     		sub	sp, sp, #8
 3137              		.cfi_def_cfa_offset 16
 3138 0004 0446     		mov	r4, r0
 3139 0006 02AB     		add	r3, sp, #8
 3140 0008 03E90600 		stmdb	r3, {r1, r2}
 818:rhea\drivers\MCP7940N/MCP7940N.c ****     MCP7940N_SetAlarmMinutes(id, datetime.minute);
 3141              		.loc 1 818 0
 3142 000c 9DF80710 		ldrb	r1, [sp, #7]	@ zero_extendqisi2
 3143 0010 FFF7FEFF 		bl	MCP7940N_SetAlarmSeconds
 3144              	.LVL342:
 819:rhea\drivers\MCP7940N/MCP7940N.c ****     MCP7940N_SetAlarmHours(id, datetime.hour);
 3145              		.loc 1 819 0
 3146 0014 9DF80610 		ldrb	r1, [sp, #6]	@ zero_extendqisi2
 3147 0018 2046     		mov	r0, r4
 3148 001a FFF7FEFF 		bl	MCP7940N_SetAlarmMinutes
 3149              	.LVL343:
 820:rhea\drivers\MCP7940N/MCP7940N.c ****     MCP7940N_SetAlarmWeekday(id, datetime.weekday);
 3150              		.loc 1 820 0
 3151 001e 9DF80510 		ldrb	r1, [sp, #5]	@ zero_extendqisi2
 3152 0022 2046     		mov	r0, r4
 3153 0024 FFF7FEFF 		bl	MCP7940N_SetAlarmHours
 3154              	.LVL344:
 821:rhea\drivers\MCP7940N/MCP7940N.c ****     MCP7940N_SetAlarmDate(id, datetime.date);
 3155              		.loc 1 821 0
 3156 0028 9DF80410 		ldrb	r1, [sp, #4]	@ zero_extendqisi2
 3157 002c 2046     		mov	r0, r4
 3158 002e FFF7FEFF 		bl	MCP7940N_SetAlarmWeekday
 3159              	.LVL345:
 822:rhea\drivers\MCP7940N/MCP7940N.c ****     MCP7940N_SetAlarmMonths(id, datetime.month);
 3160              		.loc 1 822 0
 3161 0032 9DF80310 		ldrb	r1, [sp, #3]	@ zero_extendqisi2
 3162 0036 2046     		mov	r0, r4
 3163 0038 FFF7FEFF 		bl	MCP7940N_SetAlarmDate
 3164              	.LVL346:
 823:rhea\drivers\MCP7940N/MCP7940N.c ****     
 3165              		.loc 1 823 0
 3166 003c 9DF80210 		ldrb	r1, [sp, #2]	@ zero_extendqisi2
 3167 0040 2046     		mov	r0, r4
 3168 0042 FFF7FEFF 		bl	MCP7940N_SetAlarmMonths
 3169              	.LVL347:
 826:rhea\drivers\MCP7940N/MCP7940N.c ****         MCP7940N_I2CWriter(MCP7940N_I2C_ADDR, MCP7940N_ALM0SEC, (uint8_t*) &MCP7940N_RegistersLocal
 3170              		.loc 1 826 0
 3171 0046 34B9     		cbnz	r4, .L323
 827:rhea\drivers\MCP7940N/MCP7940N.c ****                            MCP7940N_ALM0MTH - MCP7940N_ALM0SEC + 1);
 3172              		.loc 1 827 0
 3173 0048 0623     		movs	r3, #6
 3174 004a 084A     		ldr	r2, .L326
 3175 004c 0A21     		movs	r1, #10
 3176 004e DE20     		movs	r0, #222
 3177 0050 FFF7FEFF 		bl	MCP7940N_I2CWriter
ARM GAS  C:\Users\GYULAI~1\AppData\Local\Temp\ccG7iLma.s 			page 75


 3178              	.LVL348:
 3179 0054 07E0     		b	.L322
 3180              	.L323:
 830:rhea\drivers\MCP7940N/MCP7940N.c ****         MCP7940N_I2CWriter(MCP7940N_I2C_ADDR, MCP7940N_ALM0SEC, (uint8_t*) &MCP7940N_RegistersLocal
 3181              		.loc 1 830 0
 3182 0056 012C     		cmp	r4, #1
 3183 0058 05D1     		bne	.L322
 831:rhea\drivers\MCP7940N/MCP7940N.c ****                            MCP7940N_ALM0MTH - MCP7940N_ALM0SEC + 1);
 3184              		.loc 1 831 0
 3185 005a 0623     		movs	r3, #6
 3186 005c 034A     		ldr	r2, .L326
 3187 005e 0A21     		movs	r1, #10
 3188 0060 DE20     		movs	r0, #222
 3189 0062 FFF7FEFF 		bl	MCP7940N_I2CWriter
 3190              	.LVL349:
 3191              	.L322:
 834:rhea\drivers\MCP7940N/MCP7940N.c **** 
 3192              		.loc 1 834 0
 3193 0066 02B0     		add	sp, sp, #8
 3194              		.cfi_def_cfa_offset 8
 3195              		@ sp needed
 3196 0068 10BD     		pop	{r4, pc}
 3197              	.L327:
 3198 006a 00BF     		.align	2
 3199              	.L326:
 3200 006c 19000000 		.word	.LANCHOR0+25
 3201              		.cfi_endproc
 3202              	.LFE56:
 3203              		.size	MCP7940N_SetAlarmDatetime, .-MCP7940N_SetAlarmDatetime
 3204              		.section	.text.MCP7940N_SetAlarmPolarity,"ax",%progbits
 3205              		.align	2
 3206              		.global	MCP7940N_SetAlarmPolarity
 3207              		.thumb
 3208              		.thumb_func
 3209              		.type	MCP7940N_SetAlarmPolarity, %function
 3210              	MCP7940N_SetAlarmPolarity:
 3211              	.LFB63:
 924:rhea\drivers\MCP7940N/MCP7940N.c **** 
 925:rhea\drivers\MCP7940N/MCP7940N.c **** void MCP7940N_SetAlarmPolarity(uint8_t polarity) {
 3212              		.loc 1 925 0
 3213              		.cfi_startproc
 3214              		@ args = 0, pretend = 0, frame = 0
 3215              		@ frame_needed = 0, uses_anonymous_args = 0
 3216              	.LVL350:
 3217 0000 08B5     		push	{r3, lr}
 3218              		.cfi_def_cfa_offset 8
 3219              		.cfi_offset 3, -8
 3220              		.cfi_offset 14, -4
 926:rhea\drivers\MCP7940N/MCP7940N.c ****     
 927:rhea\drivers\MCP7940N/MCP7940N.c ****     // Writing ALM0WKDAY register
 928:rhea\drivers\MCP7940N/MCP7940N.c ****     MCP7940N_RegistersLocal.ALM0WKDAY &= ~MCP7940N_ALMxWKDAY_ALMPOL;
 3221              		.loc 1 928 0
 3222 0002 064A     		ldr	r2, .L330
 3223 0004 137F     		ldrb	r3, [r2, #28]	@ zero_extendqisi2
 3224 0006 03F07F03 		and	r3, r3, #127
 929:rhea\drivers\MCP7940N/MCP7940N.c ****     MCP7940N_RegistersLocal.ALM0WKDAY |= polarity;
 3225              		.loc 1 929 0
ARM GAS  C:\Users\GYULAI~1\AppData\Local\Temp\ccG7iLma.s 			page 76


 3226 000a 1843     		orrs	r0, r0, r3
 3227              	.LVL351:
 3228 000c 02F81C0F 		strb	r0, [r2, #28]!
 930:rhea\drivers\MCP7940N/MCP7940N.c ****     
 931:rhea\drivers\MCP7940N/MCP7940N.c ****     // Writing changes to hardware
 932:rhea\drivers\MCP7940N/MCP7940N.c ****     MCP7940N_I2CWriter(MCP7940N_I2C_ADDR, MCP7940N_ALM0WKDAY, (uint8_t*) &MCP7940N_RegistersLocal.A
 3229              		.loc 1 932 0
 3230 0010 0123     		movs	r3, #1
 3231 0012 0D21     		movs	r1, #13
 3232 0014 DE20     		movs	r0, #222
 3233 0016 FFF7FEFF 		bl	MCP7940N_I2CWriter
 3234              	.LVL352:
 3235 001a 08BD     		pop	{r3, pc}
 3236              	.L331:
 3237              		.align	2
 3238              	.L330:
 3239 001c 00000000 		.word	.LANCHOR0
 3240              		.cfi_endproc
 3241              	.LFE63:
 3242              		.size	MCP7940N_SetAlarmPolarity, .-MCP7940N_SetAlarmPolarity
 3243              		.section	.text.MCP7940N_EnableAlarm,"ax",%progbits
 3244              		.align	2
 3245              		.global	MCP7940N_EnableAlarm
 3246              		.thumb
 3247              		.thumb_func
 3248              		.type	MCP7940N_EnableAlarm, %function
 3249              	MCP7940N_EnableAlarm:
 3250              	.LFB64:
 933:rhea\drivers\MCP7940N/MCP7940N.c **** }
 934:rhea\drivers\MCP7940N/MCP7940N.c **** 
 935:rhea\drivers\MCP7940N/MCP7940N.c **** void MCP7940N_EnableAlarm(uint8_t id, uint8_t mode) {
 3251              		.loc 1 935 0
 3252              		.cfi_startproc
 3253              		@ args = 0, pretend = 0, frame = 0
 3254              		@ frame_needed = 0, uses_anonymous_args = 0
 3255              		@ link register save eliminated.
 3256              	.LVL353:
 936:rhea\drivers\MCP7940N/MCP7940N.c ****     
 937:rhea\drivers\MCP7940N/MCP7940N.c ****     // Writing alarm weekday & CONTROL registers
 938:rhea\drivers\MCP7940N/MCP7940N.c ****     switch(id) {
 3257              		.loc 1 938 0
 3258 0000 10B1     		cbz	r0, .L334
 3259 0002 0128     		cmp	r0, #1
 3260 0004 0BD0     		beq	.L335
 3261 0006 7047     		bx	lr
 3262              	.L334:
 939:rhea\drivers\MCP7940N/MCP7940N.c ****     case MCP7940N_ALARM0:   MCP7940N_RegistersLocal.ALM0WKDAY &= ~MCP7940N_ALMxWKDAY_ALMxMSK;
 3263              		.loc 1 939 0
 3264 0008 0C4B     		ldr	r3, .L336
 3265 000a 1A7F     		ldrb	r2, [r3, #28]	@ zero_extendqisi2
 3266 000c 02F08F02 		and	r2, r2, #143
 940:rhea\drivers\MCP7940N/MCP7940N.c ****                             MCP7940N_RegistersLocal.ALM0WKDAY |= mode;
 3267              		.loc 1 940 0
 3268 0010 1143     		orrs	r1, r1, r2
 3269              	.LVL354:
 3270 0012 1977     		strb	r1, [r3, #28]
 941:rhea\drivers\MCP7940N/MCP7940N.c ****                             MCP7940N_RegistersLocal.CONTROL   |= MCP7940N_CONTROL_ALM0EN;
ARM GAS  C:\Users\GYULAI~1\AppData\Local\Temp\ccG7iLma.s 			page 77


 3271              		.loc 1 941 0
 3272 0014 DA7D     		ldrb	r2, [r3, #23]	@ zero_extendqisi2
 3273 0016 42F01002 		orr	r2, r2, #16
 3274 001a DA75     		strb	r2, [r3, #23]
 942:rhea\drivers\MCP7940N/MCP7940N.c ****                             return;
 3275              		.loc 1 942 0
 3276 001c 7047     		bx	lr
 3277              	.LVL355:
 3278              	.L335:
 943:rhea\drivers\MCP7940N/MCP7940N.c ****     case MCP7940N_ALARM1:   MCP7940N_RegistersLocal.ALM1WKDAY &= ~MCP7940N_ALMxWKDAY_ALMxMSK;
 3279              		.loc 1 943 0
 3280 001e 074B     		ldr	r3, .L336
 3281 0020 93F82220 		ldrb	r2, [r3, #34]	@ zero_extendqisi2
 3282 0024 22F07002 		bic	r2, r2, #112
 3283 0028 83F82220 		strb	r2, [r3, #34]
 944:rhea\drivers\MCP7940N/MCP7940N.c ****                             MCP7940N_RegistersLocal.ALM0WKDAY |= mode;
 3284              		.loc 1 944 0
 3285 002c 1A7F     		ldrb	r2, [r3, #28]	@ zero_extendqisi2
 3286 002e 1143     		orrs	r1, r1, r2
 3287              	.LVL356:
 3288 0030 1977     		strb	r1, [r3, #28]
 945:rhea\drivers\MCP7940N/MCP7940N.c ****                             MCP7940N_RegistersLocal.CONTROL   |= MCP7940N_CONTROL_ALM1EN;
 3289              		.loc 1 945 0
 3290 0032 DA7D     		ldrb	r2, [r3, #23]	@ zero_extendqisi2
 3291 0034 42F02002 		orr	r2, r2, #32
 3292 0038 DA75     		strb	r2, [r3, #23]
 3293 003a 7047     		bx	lr
 3294              	.L337:
 3295              		.align	2
 3296              	.L336:
 3297 003c 00000000 		.word	.LANCHOR0
 3298              		.cfi_endproc
 3299              	.LFE64:
 3300              		.size	MCP7940N_EnableAlarm, .-MCP7940N_EnableAlarm
 3301              		.section	.text.MCP7940N_DisableAlarm,"ax",%progbits
 3302              		.align	2
 3303              		.global	MCP7940N_DisableAlarm
 3304              		.thumb
 3305              		.thumb_func
 3306              		.type	MCP7940N_DisableAlarm, %function
 3307              	MCP7940N_DisableAlarm:
 3308              	.LFB65:
 946:rhea\drivers\MCP7940N/MCP7940N.c ****                             return;
 947:rhea\drivers\MCP7940N/MCP7940N.c ****     default:                return;
 948:rhea\drivers\MCP7940N/MCP7940N.c ****     };
 949:rhea\drivers\MCP7940N/MCP7940N.c ****     
 950:rhea\drivers\MCP7940N/MCP7940N.c ****     // Writing changes to hardware
 951:rhea\drivers\MCP7940N/MCP7940N.c ****     if(id == MCP7940N_ALARM0) {
 952:rhea\drivers\MCP7940N/MCP7940N.c ****         MCP7940N_I2CWriter(MCP7940N_I2C_ADDR, MCP7940N_ALM0WKDAY, (uint8_t*) &MCP7940N_RegistersLoc
 953:rhea\drivers\MCP7940N/MCP7940N.c ****     }
 954:rhea\drivers\MCP7940N/MCP7940N.c ****     else if(id == MCP7940N_ALARM1) {
 955:rhea\drivers\MCP7940N/MCP7940N.c ****         MCP7940N_I2CWriter(MCP7940N_I2C_ADDR, MCP7940N_ALM0WKDAY, (uint8_t*) &MCP7940N_RegistersLoc
 956:rhea\drivers\MCP7940N/MCP7940N.c ****     }
 957:rhea\drivers\MCP7940N/MCP7940N.c ****     MCP7940N_I2CWriter(MCP7940N_I2C_ADDR, MCP7940N_CONTROL, (uint8_t*) &MCP7940N_RegistersLocal.CON
 958:rhea\drivers\MCP7940N/MCP7940N.c **** }
 959:rhea\drivers\MCP7940N/MCP7940N.c **** 
 960:rhea\drivers\MCP7940N/MCP7940N.c **** void MCP7940N_DisableAlarm(uint8_t id) {
ARM GAS  C:\Users\GYULAI~1\AppData\Local\Temp\ccG7iLma.s 			page 78


 3309              		.loc 1 960 0
 3310              		.cfi_startproc
 3311              		@ args = 0, pretend = 0, frame = 0
 3312              		@ frame_needed = 0, uses_anonymous_args = 0
 3313              		@ link register save eliminated.
 3314              	.LVL357:
 961:rhea\drivers\MCP7940N/MCP7940N.c ****     
 962:rhea\drivers\MCP7940N/MCP7940N.c ****     // Clearing alarm enable bit of CONTROL register
 963:rhea\drivers\MCP7940N/MCP7940N.c ****     switch(id) {
 3315              		.loc 1 963 0
 3316 0000 10B1     		cbz	r0, .L340
 3317 0002 0128     		cmp	r0, #1
 3318 0004 06D0     		beq	.L341
 3319 0006 7047     		bx	lr
 3320              	.L340:
 964:rhea\drivers\MCP7940N/MCP7940N.c ****     case MCP7940N_ALARM0: MCP7940N_RegistersLocal.CONTROL &= ~MCP7940N_CONTROL_ALM0EN; return;
 3321              		.loc 1 964 0
 3322 0008 054A     		ldr	r2, .L342
 3323 000a D37D     		ldrb	r3, [r2, #23]	@ zero_extendqisi2
 3324 000c 23F01003 		bic	r3, r3, #16
 3325 0010 D375     		strb	r3, [r2, #23]
 3326 0012 7047     		bx	lr
 3327              	.L341:
 965:rhea\drivers\MCP7940N/MCP7940N.c ****     case MCP7940N_ALARM1: MCP7940N_RegistersLocal.CONTROL &= ~MCP7940N_CONTROL_ALM1EN; return;
 3328              		.loc 1 965 0
 3329 0014 024A     		ldr	r2, .L342
 3330 0016 D37D     		ldrb	r3, [r2, #23]	@ zero_extendqisi2
 3331 0018 23F02003 		bic	r3, r3, #32
 3332 001c D375     		strb	r3, [r2, #23]
 3333 001e 7047     		bx	lr
 3334              	.L343:
 3335              		.align	2
 3336              	.L342:
 3337 0020 00000000 		.word	.LANCHOR0
 3338              		.cfi_endproc
 3339              	.LFE65:
 3340              		.size	MCP7940N_DisableAlarm, .-MCP7940N_DisableAlarm
 3341              		.section	.text.MCP7940N_GetPowerFailMonth,"ax",%progbits
 3342              		.align	2
 3343              		.global	MCP7940N_GetPowerFailMonth
 3344              		.thumb
 3345              		.thumb_func
 3346              		.type	MCP7940N_GetPowerFailMonth, %function
 3347              	MCP7940N_GetPowerFailMonth:
 3348              	.LFB67:
 966:rhea\drivers\MCP7940N/MCP7940N.c ****     default: return;
 967:rhea\drivers\MCP7940N/MCP7940N.c ****     };  
 968:rhea\drivers\MCP7940N/MCP7940N.c ****     
 969:rhea\drivers\MCP7940N/MCP7940N.c ****     // Writing changes to hardware
 970:rhea\drivers\MCP7940N/MCP7940N.c ****     MCP7940N_I2CWriter(MCP7940N_I2C_ADDR, MCP7940N_CONTROL, (uint8_t*) &MCP7940N_RegistersLocal.CON
 971:rhea\drivers\MCP7940N/MCP7940N.c **** }
 972:rhea\drivers\MCP7940N/MCP7940N.c **** 
 973:rhea\drivers\MCP7940N/MCP7940N.c **** MCP7940N_Datetime MCP7940N_GetPowerFailDatetime(void) {
 974:rhea\drivers\MCP7940N/MCP7940N.c ****     
 975:rhea\drivers\MCP7940N/MCP7940N.c ****     // Reading power-fail timestamp registers
 976:rhea\drivers\MCP7940N/MCP7940N.c ****     MCP7940N_I2CReader(MCP7940N_I2C_ADDR, MCP7940N_PWRDNMIN, (uint8_t*) &MCP7940N_RegistersLocal.PW
 977:rhea\drivers\MCP7940N/MCP7940N.c ****                        MCP7940N_PWRDNMTH - MCP7940N_PWRDNMIN + 1);
ARM GAS  C:\Users\GYULAI~1\AppData\Local\Temp\ccG7iLma.s 			page 79


 978:rhea\drivers\MCP7940N/MCP7940N.c ****     
 979:rhea\drivers\MCP7940N/MCP7940N.c ****     // Creating datetime structure to store the result
 980:rhea\drivers\MCP7940N/MCP7940N.c ****     MCP7940N_Datetime datetime;
 981:rhea\drivers\MCP7940N/MCP7940N.c ****     
 982:rhea\drivers\MCP7940N/MCP7940N.c ****     // Populating datetime structure
 983:rhea\drivers\MCP7940N/MCP7940N.c ****     datetime.year = 0;
 984:rhea\drivers\MCP7940N/MCP7940N.c ****     datetime.month = MCP7940N_GetPowerFailMonth();
 985:rhea\drivers\MCP7940N/MCP7940N.c ****     datetime.date = MCP7940N_GetPowerFailDate();
 986:rhea\drivers\MCP7940N/MCP7940N.c ****     datetime.weekday = MCP7940N_GetPowerFailWeekday();
 987:rhea\drivers\MCP7940N/MCP7940N.c ****     datetime.hour = MCP7940N_GetPowerFailHour();
 988:rhea\drivers\MCP7940N/MCP7940N.c ****     datetime.minute = MCP7940N_GetPowerFailMinute();
 989:rhea\drivers\MCP7940N/MCP7940N.c ****     datetime.second = 0;
 990:rhea\drivers\MCP7940N/MCP7940N.c ****     
 991:rhea\drivers\MCP7940N/MCP7940N.c ****     return datetime;
 992:rhea\drivers\MCP7940N/MCP7940N.c **** }
 993:rhea\drivers\MCP7940N/MCP7940N.c **** 
 994:rhea\drivers\MCP7940N/MCP7940N.c **** uint8_t MCP7940N_GetPowerFailMonth(void) {
 3349              		.loc 1 994 0
 3350              		.cfi_startproc
 3351              		@ args = 0, pretend = 0, frame = 0
 3352              		@ frame_needed = 0, uses_anonymous_args = 0
 3353              		@ link register save eliminated.
 995:rhea\drivers\MCP7940N/MCP7940N.c ****     
 996:rhea\drivers\MCP7940N/MCP7940N.c ****     // Reading PWRDNMTH register
 997:rhea\drivers\MCP7940N/MCP7940N.c ****     uint8_t registerValue = MCP7940N_RegistersLocal.PWRDNMTH;
 3354              		.loc 1 997 0
 3355 0000 064B     		ldr	r3, .L345
 3356 0002 93F82830 		ldrb	r3, [r3, #40]	@ zero_extendqisi2
 3357              	.LVL358:
 998:rhea\drivers\MCP7940N/MCP7940N.c ****     
 999:rhea\drivers\MCP7940N/MCP7940N.c ****     // Decoding BCD
1000:rhea\drivers\MCP7940N/MCP7940N.c ****     uint8_t ones = registerValue & MCP7940N_PWRDNMTH_MTHONE;
 3358              		.loc 1 1000 0
 3359 0006 03F00F00 		and	r0, r3, #15
 3360              	.LVL359:
1001:rhea\drivers\MCP7940N/MCP7940N.c ****     uint8_t tens = registerValue & MCP7940N_PWRDNMTH_MTHTEN;
1002:rhea\drivers\MCP7940N/MCP7940N.c ****     tens = tens >> 4;
 3361              		.loc 1 1002 0
 3362 000a C3F30013 		ubfx	r3, r3, #4, #1
 3363              	.LVL360:
1003:rhea\drivers\MCP7940N/MCP7940N.c ****     
1004:rhea\drivers\MCP7940N/MCP7940N.c ****     // Returning result
1005:rhea\drivers\MCP7940N/MCP7940N.c ****     return tens * 10 + ones;
 3364              		.loc 1 1005 0
 3365 000e 9900     		lsls	r1, r3, #2
 3366 0010 0B44     		add	r3, r3, r1
 3367              	.LVL361:
 3368 0012 5A00     		lsls	r2, r3, #1
 3369 0014 1044     		add	r0, r0, r2
 3370              	.LVL362:
1006:rhea\drivers\MCP7940N/MCP7940N.c **** }
 3371              		.loc 1 1006 0
 3372 0016 C0B2     		uxtb	r0, r0
 3373 0018 7047     		bx	lr
 3374              	.L346:
 3375 001a 00BF     		.align	2
 3376              	.L345:
ARM GAS  C:\Users\GYULAI~1\AppData\Local\Temp\ccG7iLma.s 			page 80


 3377 001c 00000000 		.word	.LANCHOR0
 3378              		.cfi_endproc
 3379              	.LFE67:
 3380              		.size	MCP7940N_GetPowerFailMonth, .-MCP7940N_GetPowerFailMonth
 3381              		.section	.text.MCP7940N_GetPowerFailWeekday,"ax",%progbits
 3382              		.align	2
 3383              		.global	MCP7940N_GetPowerFailWeekday
 3384              		.thumb
 3385              		.thumb_func
 3386              		.type	MCP7940N_GetPowerFailWeekday, %function
 3387              	MCP7940N_GetPowerFailWeekday:
 3388              	.LFB68:
1007:rhea\drivers\MCP7940N/MCP7940N.c **** 
1008:rhea\drivers\MCP7940N/MCP7940N.c **** uint8_t MCP7940N_GetPowerFailWeekday(void) {
 3389              		.loc 1 1008 0
 3390              		.cfi_startproc
 3391              		@ args = 0, pretend = 0, frame = 0
 3392              		@ frame_needed = 0, uses_anonymous_args = 0
 3393              		@ link register save eliminated.
1009:rhea\drivers\MCP7940N/MCP7940N.c ****     
1010:rhea\drivers\MCP7940N/MCP7940N.c ****     // Return weekday bits of PWRDNMTH register
1011:rhea\drivers\MCP7940N/MCP7940N.c ****     return (MCP7940N_RegistersLocal.PWRDNMTH & MCP7940N_PWRDNMTH_WKDAY) >> 5;  
 3394              		.loc 1 1011 0
 3395 0000 024B     		ldr	r3, .L348
 3396 0002 93F82800 		ldrb	r0, [r3, #40]	@ zero_extendqisi2
1012:rhea\drivers\MCP7940N/MCP7940N.c **** }
 3397              		.loc 1 1012 0
 3398 0006 4009     		lsrs	r0, r0, #5
 3399 0008 7047     		bx	lr
 3400              	.L349:
 3401 000a 00BF     		.align	2
 3402              	.L348:
 3403 000c 00000000 		.word	.LANCHOR0
 3404              		.cfi_endproc
 3405              	.LFE68:
 3406              		.size	MCP7940N_GetPowerFailWeekday, .-MCP7940N_GetPowerFailWeekday
 3407              		.section	.text.MCP7940N_GetPowerFailDate,"ax",%progbits
 3408              		.align	2
 3409              		.global	MCP7940N_GetPowerFailDate
 3410              		.thumb
 3411              		.thumb_func
 3412              		.type	MCP7940N_GetPowerFailDate, %function
 3413              	MCP7940N_GetPowerFailDate:
 3414              	.LFB69:
1013:rhea\drivers\MCP7940N/MCP7940N.c **** 
1014:rhea\drivers\MCP7940N/MCP7940N.c **** uint8_t MCP7940N_GetPowerFailDate(void) {
 3415              		.loc 1 1014 0
 3416              		.cfi_startproc
 3417              		@ args = 0, pretend = 0, frame = 0
 3418              		@ frame_needed = 0, uses_anonymous_args = 0
 3419              		@ link register save eliminated.
1015:rhea\drivers\MCP7940N/MCP7940N.c ****     
1016:rhea\drivers\MCP7940N/MCP7940N.c ****     // Reading PWRDNDATE register
1017:rhea\drivers\MCP7940N/MCP7940N.c ****     uint8_t registerValue = MCP7940N_RegistersLocal.PWRDNDATE;
 3420              		.loc 1 1017 0
 3421 0000 064B     		ldr	r3, .L351
 3422 0002 93F82730 		ldrb	r3, [r3, #39]	@ zero_extendqisi2
ARM GAS  C:\Users\GYULAI~1\AppData\Local\Temp\ccG7iLma.s 			page 81


 3423              	.LVL363:
1018:rhea\drivers\MCP7940N/MCP7940N.c ****     
1019:rhea\drivers\MCP7940N/MCP7940N.c ****     // Decoding BCD
1020:rhea\drivers\MCP7940N/MCP7940N.c ****     uint8_t ones = registerValue & MCP7940N_PWRDNDATE_DATEONE;
 3424              		.loc 1 1020 0
 3425 0006 03F00F00 		and	r0, r3, #15
 3426              	.LVL364:
1021:rhea\drivers\MCP7940N/MCP7940N.c ****     uint8_t tens = registerValue & MCP7940N_PWRDNDATE_DATETEN;
1022:rhea\drivers\MCP7940N/MCP7940N.c ****     tens = tens >> 4;
 3427              		.loc 1 1022 0
 3428 000a C3F30113 		ubfx	r3, r3, #4, #2
 3429              	.LVL365:
1023:rhea\drivers\MCP7940N/MCP7940N.c ****     
1024:rhea\drivers\MCP7940N/MCP7940N.c ****     // Returning result
1025:rhea\drivers\MCP7940N/MCP7940N.c ****     return tens * 10 + ones;
 3430              		.loc 1 1025 0
 3431 000e 03EB8303 		add	r3, r3, r3, lsl #2
 3432              	.LVL366:
 3433 0012 5A00     		lsls	r2, r3, #1
 3434 0014 1044     		add	r0, r0, r2
 3435              	.LVL367:
1026:rhea\drivers\MCP7940N/MCP7940N.c **** }
 3436              		.loc 1 1026 0
 3437 0016 C0B2     		uxtb	r0, r0
 3438 0018 7047     		bx	lr
 3439              	.L352:
 3440 001a 00BF     		.align	2
 3441              	.L351:
 3442 001c 00000000 		.word	.LANCHOR0
 3443              		.cfi_endproc
 3444              	.LFE69:
 3445              		.size	MCP7940N_GetPowerFailDate, .-MCP7940N_GetPowerFailDate
 3446              		.section	.text.MCP7940N_GetPowerFailHour,"ax",%progbits
 3447              		.align	2
 3448              		.global	MCP7940N_GetPowerFailHour
 3449              		.thumb
 3450              		.thumb_func
 3451              		.type	MCP7940N_GetPowerFailHour, %function
 3452              	MCP7940N_GetPowerFailHour:
 3453              	.LFB70:
1027:rhea\drivers\MCP7940N/MCP7940N.c **** 
1028:rhea\drivers\MCP7940N/MCP7940N.c **** uint8_t MCP7940N_GetPowerFailHour(void) {
 3454              		.loc 1 1028 0
 3455              		.cfi_startproc
 3456              		@ args = 0, pretend = 0, frame = 0
 3457              		@ frame_needed = 0, uses_anonymous_args = 0
 3458              		@ link register save eliminated.
1029:rhea\drivers\MCP7940N/MCP7940N.c ****     
1030:rhea\drivers\MCP7940N/MCP7940N.c ****     // Reading PWRDNHOUR register
1031:rhea\drivers\MCP7940N/MCP7940N.c ****     uint8_t registerValue = MCP7940N_RegistersLocal.PWRDNHOUR;
 3459              		.loc 1 1031 0
 3460 0000 064B     		ldr	r3, .L354
 3461 0002 93F82630 		ldrb	r3, [r3, #38]	@ zero_extendqisi2
 3462              	.LVL368:
1032:rhea\drivers\MCP7940N/MCP7940N.c ****     
1033:rhea\drivers\MCP7940N/MCP7940N.c ****     // Decoding BCD
1034:rhea\drivers\MCP7940N/MCP7940N.c ****     uint8_t ones = registerValue & MCP7940N_PWRDNHOUR_HRONE;
ARM GAS  C:\Users\GYULAI~1\AppData\Local\Temp\ccG7iLma.s 			page 82


 3463              		.loc 1 1034 0
 3464 0006 03F00F00 		and	r0, r3, #15
 3465              	.LVL369:
1035:rhea\drivers\MCP7940N/MCP7940N.c ****     uint8_t tens = registerValue & MCP7940N_PWRDNHOUR_HRTEN;
1036:rhea\drivers\MCP7940N/MCP7940N.c ****     tens = tens >> 4;
 3466              		.loc 1 1036 0
 3467 000a C3F30113 		ubfx	r3, r3, #4, #2
 3468              	.LVL370:
1037:rhea\drivers\MCP7940N/MCP7940N.c ****     
1038:rhea\drivers\MCP7940N/MCP7940N.c ****     // Returning result
1039:rhea\drivers\MCP7940N/MCP7940N.c ****     return tens * 10 + ones;
 3469              		.loc 1 1039 0
 3470 000e 03EB8303 		add	r3, r3, r3, lsl #2
 3471              	.LVL371:
 3472 0012 5A00     		lsls	r2, r3, #1
 3473 0014 1044     		add	r0, r0, r2
 3474              	.LVL372:
1040:rhea\drivers\MCP7940N/MCP7940N.c **** }
 3475              		.loc 1 1040 0
 3476 0016 C0B2     		uxtb	r0, r0
 3477 0018 7047     		bx	lr
 3478              	.L355:
 3479 001a 00BF     		.align	2
 3480              	.L354:
 3481 001c 00000000 		.word	.LANCHOR0
 3482              		.cfi_endproc
 3483              	.LFE70:
 3484              		.size	MCP7940N_GetPowerFailHour, .-MCP7940N_GetPowerFailHour
 3485              		.section	.text.MCP7940N_GetPowerFailMinute,"ax",%progbits
 3486              		.align	2
 3487              		.global	MCP7940N_GetPowerFailMinute
 3488              		.thumb
 3489              		.thumb_func
 3490              		.type	MCP7940N_GetPowerFailMinute, %function
 3491              	MCP7940N_GetPowerFailMinute:
 3492              	.LFB71:
1041:rhea\drivers\MCP7940N/MCP7940N.c **** 
1042:rhea\drivers\MCP7940N/MCP7940N.c **** uint8_t MCP7940N_GetPowerFailMinute(void) {
 3493              		.loc 1 1042 0
 3494              		.cfi_startproc
 3495              		@ args = 0, pretend = 0, frame = 0
 3496              		@ frame_needed = 0, uses_anonymous_args = 0
 3497              		@ link register save eliminated.
1043:rhea\drivers\MCP7940N/MCP7940N.c ****     
1044:rhea\drivers\MCP7940N/MCP7940N.c ****     // Reading PWRDNMIN register
1045:rhea\drivers\MCP7940N/MCP7940N.c ****     uint8_t registerValue = MCP7940N_RegistersLocal.PWRDNMIN;
 3498              		.loc 1 1045 0
 3499 0000 064B     		ldr	r3, .L357
 3500 0002 93F82530 		ldrb	r3, [r3, #37]	@ zero_extendqisi2
 3501              	.LVL373:
1046:rhea\drivers\MCP7940N/MCP7940N.c ****     
1047:rhea\drivers\MCP7940N/MCP7940N.c ****     // Decoding BCD
1048:rhea\drivers\MCP7940N/MCP7940N.c ****     uint8_t ones = registerValue & MCP7940N_PWRDNMIN_MINONE;
 3502              		.loc 1 1048 0
 3503 0006 03F00F00 		and	r0, r3, #15
 3504              	.LVL374:
1049:rhea\drivers\MCP7940N/MCP7940N.c ****     uint8_t tens = registerValue & MCP7940N_PWRDNMIN_MINTEN;
ARM GAS  C:\Users\GYULAI~1\AppData\Local\Temp\ccG7iLma.s 			page 83


1050:rhea\drivers\MCP7940N/MCP7940N.c ****     tens = tens >> 4;
 3505              		.loc 1 1050 0
 3506 000a C3F30213 		ubfx	r3, r3, #4, #3
 3507              	.LVL375:
1051:rhea\drivers\MCP7940N/MCP7940N.c ****     
1052:rhea\drivers\MCP7940N/MCP7940N.c ****     // Returning result
1053:rhea\drivers\MCP7940N/MCP7940N.c ****     return tens * 10 + ones;
 3508              		.loc 1 1053 0
 3509 000e 03EB8303 		add	r3, r3, r3, lsl #2
 3510              	.LVL376:
 3511 0012 5A00     		lsls	r2, r3, #1
 3512 0014 1044     		add	r0, r0, r2
 3513              	.LVL377:
1054:rhea\drivers\MCP7940N/MCP7940N.c **** }
 3514              		.loc 1 1054 0
 3515 0016 C0B2     		uxtb	r0, r0
 3516 0018 7047     		bx	lr
 3517              	.L358:
 3518 001a 00BF     		.align	2
 3519              	.L357:
 3520 001c 00000000 		.word	.LANCHOR0
 3521              		.cfi_endproc
 3522              	.LFE71:
 3523              		.size	MCP7940N_GetPowerFailMinute, .-MCP7940N_GetPowerFailMinute
 3524              		.section	.text.MCP7940N_GetPowerFailDatetime,"ax",%progbits
 3525              		.align	2
 3526              		.global	MCP7940N_GetPowerFailDatetime
 3527              		.thumb
 3528              		.thumb_func
 3529              		.type	MCP7940N_GetPowerFailDatetime, %function
 3530              	MCP7940N_GetPowerFailDatetime:
 3531              	.LFB66:
 973:rhea\drivers\MCP7940N/MCP7940N.c ****     
 3532              		.loc 1 973 0
 3533              		.cfi_startproc
 3534              		@ args = 0, pretend = 0, frame = 0
 3535              		@ frame_needed = 0, uses_anonymous_args = 0
 3536              	.LVL378:
 3537 0000 38B5     		push	{r3, r4, r5, lr}
 3538              		.cfi_def_cfa_offset 16
 3539              		.cfi_offset 3, -16
 3540              		.cfi_offset 4, -12
 3541              		.cfi_offset 5, -8
 3542              		.cfi_offset 14, -4
 3543 0002 0446     		mov	r4, r0
 976:rhea\drivers\MCP7940N/MCP7940N.c ****                        MCP7940N_PWRDNMTH - MCP7940N_PWRDNMIN + 1);
 3544              		.loc 1 976 0
 3545 0004 0423     		movs	r3, #4
 3546 0006 0C4A     		ldr	r2, .L361
 3547 0008 1821     		movs	r1, #24
 3548 000a DE20     		movs	r0, #222
 3549              	.LVL379:
 3550 000c FFF7FEFF 		bl	MCP7940N_I2CReader
 3551              	.LVL380:
 983:rhea\drivers\MCP7940N/MCP7940N.c ****     datetime.month = MCP7940N_GetPowerFailMonth();
 3552              		.loc 1 983 0
 3553 0010 0025     		movs	r5, #0
ARM GAS  C:\Users\GYULAI~1\AppData\Local\Temp\ccG7iLma.s 			page 84


 3554 0012 2580     		strh	r5, [r4]	@ movhi
 984:rhea\drivers\MCP7940N/MCP7940N.c ****     datetime.date = MCP7940N_GetPowerFailDate();
 3555              		.loc 1 984 0
 3556 0014 FFF7FEFF 		bl	MCP7940N_GetPowerFailMonth
 3557              	.LVL381:
 3558 0018 A070     		strb	r0, [r4, #2]
 985:rhea\drivers\MCP7940N/MCP7940N.c ****     datetime.weekday = MCP7940N_GetPowerFailWeekday();
 3559              		.loc 1 985 0
 3560 001a FFF7FEFF 		bl	MCP7940N_GetPowerFailDate
 3561              	.LVL382:
 3562 001e E070     		strb	r0, [r4, #3]
 986:rhea\drivers\MCP7940N/MCP7940N.c ****     datetime.hour = MCP7940N_GetPowerFailHour();
 3563              		.loc 1 986 0
 3564 0020 FFF7FEFF 		bl	MCP7940N_GetPowerFailWeekday
 3565              	.LVL383:
 3566 0024 2071     		strb	r0, [r4, #4]
 987:rhea\drivers\MCP7940N/MCP7940N.c ****     datetime.minute = MCP7940N_GetPowerFailMinute();
 3567              		.loc 1 987 0
 3568 0026 FFF7FEFF 		bl	MCP7940N_GetPowerFailHour
 3569              	.LVL384:
 3570 002a 6071     		strb	r0, [r4, #5]
 988:rhea\drivers\MCP7940N/MCP7940N.c ****     datetime.second = 0;
 3571              		.loc 1 988 0
 3572 002c FFF7FEFF 		bl	MCP7940N_GetPowerFailMinute
 3573              	.LVL385:
 3574 0030 A071     		strb	r0, [r4, #6]
 989:rhea\drivers\MCP7940N/MCP7940N.c ****     
 3575              		.loc 1 989 0
 3576 0032 E571     		strb	r5, [r4, #7]
 992:rhea\drivers\MCP7940N/MCP7940N.c **** 
 3577              		.loc 1 992 0
 3578 0034 2046     		mov	r0, r4
 3579 0036 38BD     		pop	{r3, r4, r5, pc}
 3580              	.LVL386:
 3581              	.L362:
 3582              		.align	2
 3583              	.L361:
 3584 0038 25000000 		.word	.LANCHOR0+37
 3585              		.cfi_endproc
 3586              	.LFE66:
 3587              		.size	MCP7940N_GetPowerFailDatetime, .-MCP7940N_GetPowerFailDatetime
 3588              		.section	.text.MCP7940N_GetPowerUpMonth,"ax",%progbits
 3589              		.align	2
 3590              		.global	MCP7940N_GetPowerUpMonth
 3591              		.thumb
 3592              		.thumb_func
 3593              		.type	MCP7940N_GetPowerUpMonth, %function
 3594              	MCP7940N_GetPowerUpMonth:
 3595              	.LFB73:
1055:rhea\drivers\MCP7940N/MCP7940N.c **** 
1056:rhea\drivers\MCP7940N/MCP7940N.c **** MCP7940N_Datetime MCP7940N_GetPowerUpDatetime(void) {
1057:rhea\drivers\MCP7940N/MCP7940N.c ****     
1058:rhea\drivers\MCP7940N/MCP7940N.c ****     // Reading power-up timestamp registers
1059:rhea\drivers\MCP7940N/MCP7940N.c ****     MCP7940N_I2CReader(MCP7940N_I2C_ADDR, MCP7940N_PWRUPMIN, (uint8_t*) &MCP7940N_RegistersLocal.PW
1060:rhea\drivers\MCP7940N/MCP7940N.c ****                        MCP7940N_PWRUPMTH - MCP7940N_PWRUPMIN + 1);
1061:rhea\drivers\MCP7940N/MCP7940N.c ****     
1062:rhea\drivers\MCP7940N/MCP7940N.c ****     // Creating datetime structure to store the result
ARM GAS  C:\Users\GYULAI~1\AppData\Local\Temp\ccG7iLma.s 			page 85


1063:rhea\drivers\MCP7940N/MCP7940N.c ****     MCP7940N_Datetime datetime;
1064:rhea\drivers\MCP7940N/MCP7940N.c ****     
1065:rhea\drivers\MCP7940N/MCP7940N.c ****     // Populating datetime structure
1066:rhea\drivers\MCP7940N/MCP7940N.c ****     datetime.year = 0;
1067:rhea\drivers\MCP7940N/MCP7940N.c ****     datetime.month = MCP7940N_GetPowerUpMonth();
1068:rhea\drivers\MCP7940N/MCP7940N.c ****     datetime.date = MCP7940N_GetPowerUpDate();
1069:rhea\drivers\MCP7940N/MCP7940N.c ****     datetime.weekday = MCP7940N_GetPowerUpWeekday();
1070:rhea\drivers\MCP7940N/MCP7940N.c ****     datetime.hour = MCP7940N_GetPowerUpHour();
1071:rhea\drivers\MCP7940N/MCP7940N.c ****     datetime.minute = MCP7940N_GetPowerUpMinute();
1072:rhea\drivers\MCP7940N/MCP7940N.c ****     datetime.second = 0;
1073:rhea\drivers\MCP7940N/MCP7940N.c ****     
1074:rhea\drivers\MCP7940N/MCP7940N.c ****     return datetime;
1075:rhea\drivers\MCP7940N/MCP7940N.c **** }
1076:rhea\drivers\MCP7940N/MCP7940N.c **** 
1077:rhea\drivers\MCP7940N/MCP7940N.c **** uint8_t MCP7940N_GetPowerUpMonth(void) {
 3596              		.loc 1 1077 0
 3597              		.cfi_startproc
 3598              		@ args = 0, pretend = 0, frame = 0
 3599              		@ frame_needed = 0, uses_anonymous_args = 0
 3600              		@ link register save eliminated.
1078:rhea\drivers\MCP7940N/MCP7940N.c ****     
1079:rhea\drivers\MCP7940N/MCP7940N.c ****     // Reading PWRUPMTH register
1080:rhea\drivers\MCP7940N/MCP7940N.c ****     uint8_t registerValue = MCP7940N_RegistersLocal.PWRDNMTH;
 3601              		.loc 1 1080 0
 3602 0000 064B     		ldr	r3, .L364
 3603 0002 93F82830 		ldrb	r3, [r3, #40]	@ zero_extendqisi2
 3604              	.LVL387:
1081:rhea\drivers\MCP7940N/MCP7940N.c ****     
1082:rhea\drivers\MCP7940N/MCP7940N.c ****     // Decoding BCD
1083:rhea\drivers\MCP7940N/MCP7940N.c ****     uint8_t ones = registerValue & MCP7940N_PWRDNMTH_MTHONE;
 3605              		.loc 1 1083 0
 3606 0006 03F00F00 		and	r0, r3, #15
 3607              	.LVL388:
1084:rhea\drivers\MCP7940N/MCP7940N.c ****     uint8_t tens = registerValue & MCP7940N_PWRDNMTH_MTHTEN;
1085:rhea\drivers\MCP7940N/MCP7940N.c ****     tens = tens >> 4;
 3608              		.loc 1 1085 0
 3609 000a C3F30013 		ubfx	r3, r3, #4, #1
 3610              	.LVL389:
1086:rhea\drivers\MCP7940N/MCP7940N.c ****     
1087:rhea\drivers\MCP7940N/MCP7940N.c ****     // Returning result
1088:rhea\drivers\MCP7940N/MCP7940N.c ****     return tens * 10 + ones;
 3611              		.loc 1 1088 0
 3612 000e 9900     		lsls	r1, r3, #2
 3613 0010 0B44     		add	r3, r3, r1
 3614              	.LVL390:
 3615 0012 5A00     		lsls	r2, r3, #1
 3616 0014 1044     		add	r0, r0, r2
 3617              	.LVL391:
1089:rhea\drivers\MCP7940N/MCP7940N.c **** }
 3618              		.loc 1 1089 0
 3619 0016 C0B2     		uxtb	r0, r0
 3620 0018 7047     		bx	lr
 3621              	.L365:
 3622 001a 00BF     		.align	2
 3623              	.L364:
 3624 001c 00000000 		.word	.LANCHOR0
 3625              		.cfi_endproc
ARM GAS  C:\Users\GYULAI~1\AppData\Local\Temp\ccG7iLma.s 			page 86


 3626              	.LFE73:
 3627              		.size	MCP7940N_GetPowerUpMonth, .-MCP7940N_GetPowerUpMonth
 3628              		.section	.text.MCP7940N_GetPowerUpWeekday,"ax",%progbits
 3629              		.align	2
 3630              		.global	MCP7940N_GetPowerUpWeekday
 3631              		.thumb
 3632              		.thumb_func
 3633              		.type	MCP7940N_GetPowerUpWeekday, %function
 3634              	MCP7940N_GetPowerUpWeekday:
 3635              	.LFB74:
1090:rhea\drivers\MCP7940N/MCP7940N.c **** 
1091:rhea\drivers\MCP7940N/MCP7940N.c **** uint8_t MCP7940N_GetPowerUpWeekday(void) {
 3636              		.loc 1 1091 0
 3637              		.cfi_startproc
 3638              		@ args = 0, pretend = 0, frame = 0
 3639              		@ frame_needed = 0, uses_anonymous_args = 0
 3640              		@ link register save eliminated.
1092:rhea\drivers\MCP7940N/MCP7940N.c ****     
1093:rhea\drivers\MCP7940N/MCP7940N.c ****     // Return weekday bits of PWRDNMTH register
1094:rhea\drivers\MCP7940N/MCP7940N.c ****     return (MCP7940N_RegistersLocal.PWRUPMTH & MCP7940N_PWRUPMTH_WKDAY) >> 5; 
 3641              		.loc 1 1094 0
 3642 0000 024B     		ldr	r3, .L367
 3643 0002 93F82C00 		ldrb	r0, [r3, #44]	@ zero_extendqisi2
1095:rhea\drivers\MCP7940N/MCP7940N.c **** }
 3644              		.loc 1 1095 0
 3645 0006 4009     		lsrs	r0, r0, #5
 3646 0008 7047     		bx	lr
 3647              	.L368:
 3648 000a 00BF     		.align	2
 3649              	.L367:
 3650 000c 00000000 		.word	.LANCHOR0
 3651              		.cfi_endproc
 3652              	.LFE74:
 3653              		.size	MCP7940N_GetPowerUpWeekday, .-MCP7940N_GetPowerUpWeekday
 3654              		.section	.text.MCP7940N_GetPowerUpDate,"ax",%progbits
 3655              		.align	2
 3656              		.global	MCP7940N_GetPowerUpDate
 3657              		.thumb
 3658              		.thumb_func
 3659              		.type	MCP7940N_GetPowerUpDate, %function
 3660              	MCP7940N_GetPowerUpDate:
 3661              	.LFB75:
1096:rhea\drivers\MCP7940N/MCP7940N.c **** 
1097:rhea\drivers\MCP7940N/MCP7940N.c **** uint8_t MCP7940N_GetPowerUpDate(void) {
 3662              		.loc 1 1097 0
 3663              		.cfi_startproc
 3664              		@ args = 0, pretend = 0, frame = 0
 3665              		@ frame_needed = 0, uses_anonymous_args = 0
 3666              		@ link register save eliminated.
1098:rhea\drivers\MCP7940N/MCP7940N.c ****     
1099:rhea\drivers\MCP7940N/MCP7940N.c ****     // Reading PWRDNDATE register
1100:rhea\drivers\MCP7940N/MCP7940N.c ****     uint8_t registerValue = MCP7940N_RegistersLocal.PWRUPDATE;
 3667              		.loc 1 1100 0
 3668 0000 064B     		ldr	r3, .L370
 3669 0002 93F82B30 		ldrb	r3, [r3, #43]	@ zero_extendqisi2
 3670              	.LVL392:
1101:rhea\drivers\MCP7940N/MCP7940N.c ****     
ARM GAS  C:\Users\GYULAI~1\AppData\Local\Temp\ccG7iLma.s 			page 87


1102:rhea\drivers\MCP7940N/MCP7940N.c ****     // Decoding BCD
1103:rhea\drivers\MCP7940N/MCP7940N.c ****     uint8_t ones = registerValue & MCP7940N_PWRUPDATE_DATEONE;
 3671              		.loc 1 1103 0
 3672 0006 03F00F00 		and	r0, r3, #15
 3673              	.LVL393:
1104:rhea\drivers\MCP7940N/MCP7940N.c ****     uint8_t tens = registerValue & MCP7940N_PWRUPDATE_DATETEN;
1105:rhea\drivers\MCP7940N/MCP7940N.c ****     tens = tens >> 4;
 3674              		.loc 1 1105 0
 3675 000a C3F30113 		ubfx	r3, r3, #4, #2
 3676              	.LVL394:
1106:rhea\drivers\MCP7940N/MCP7940N.c ****     
1107:rhea\drivers\MCP7940N/MCP7940N.c ****     // Returning result
1108:rhea\drivers\MCP7940N/MCP7940N.c ****     return tens * 10 + ones;
 3677              		.loc 1 1108 0
 3678 000e 03EB8303 		add	r3, r3, r3, lsl #2
 3679              	.LVL395:
 3680 0012 5A00     		lsls	r2, r3, #1
 3681 0014 1044     		add	r0, r0, r2
 3682              	.LVL396:
1109:rhea\drivers\MCP7940N/MCP7940N.c **** }
 3683              		.loc 1 1109 0
 3684 0016 C0B2     		uxtb	r0, r0
 3685 0018 7047     		bx	lr
 3686              	.L371:
 3687 001a 00BF     		.align	2
 3688              	.L370:
 3689 001c 00000000 		.word	.LANCHOR0
 3690              		.cfi_endproc
 3691              	.LFE75:
 3692              		.size	MCP7940N_GetPowerUpDate, .-MCP7940N_GetPowerUpDate
 3693              		.section	.text.MCP7940N_GetPowerUpHour,"ax",%progbits
 3694              		.align	2
 3695              		.global	MCP7940N_GetPowerUpHour
 3696              		.thumb
 3697              		.thumb_func
 3698              		.type	MCP7940N_GetPowerUpHour, %function
 3699              	MCP7940N_GetPowerUpHour:
 3700              	.LFB76:
1110:rhea\drivers\MCP7940N/MCP7940N.c **** 
1111:rhea\drivers\MCP7940N/MCP7940N.c **** uint8_t MCP7940N_GetPowerUpHour(void) {
 3701              		.loc 1 1111 0
 3702              		.cfi_startproc
 3703              		@ args = 0, pretend = 0, frame = 0
 3704              		@ frame_needed = 0, uses_anonymous_args = 0
 3705              		@ link register save eliminated.
1112:rhea\drivers\MCP7940N/MCP7940N.c ****     
1113:rhea\drivers\MCP7940N/MCP7940N.c ****     // Reading PWRUPHOUR register
1114:rhea\drivers\MCP7940N/MCP7940N.c ****     uint8_t registerValue = MCP7940N_RegistersLocal.PWRUPHOUR;
 3706              		.loc 1 1114 0
 3707 0000 064B     		ldr	r3, .L373
 3708 0002 93F82A30 		ldrb	r3, [r3, #42]	@ zero_extendqisi2
 3709              	.LVL397:
1115:rhea\drivers\MCP7940N/MCP7940N.c ****     
1116:rhea\drivers\MCP7940N/MCP7940N.c ****     // Decoding BCD
1117:rhea\drivers\MCP7940N/MCP7940N.c ****     uint8_t ones = registerValue & MCP7940N_PWRUPHOUR_HRONE;
 3710              		.loc 1 1117 0
 3711 0006 03F00F00 		and	r0, r3, #15
ARM GAS  C:\Users\GYULAI~1\AppData\Local\Temp\ccG7iLma.s 			page 88


 3712              	.LVL398:
1118:rhea\drivers\MCP7940N/MCP7940N.c ****     uint8_t tens = registerValue & MCP7940N_PWRUPHOUR_HRTEN;
1119:rhea\drivers\MCP7940N/MCP7940N.c ****     tens = tens >> 4;
 3713              		.loc 1 1119 0
 3714 000a C3F30113 		ubfx	r3, r3, #4, #2
 3715              	.LVL399:
1120:rhea\drivers\MCP7940N/MCP7940N.c ****     
1121:rhea\drivers\MCP7940N/MCP7940N.c ****     // Returning result
1122:rhea\drivers\MCP7940N/MCP7940N.c ****     return tens * 10 + ones;
 3716              		.loc 1 1122 0
 3717 000e 03EB8303 		add	r3, r3, r3, lsl #2
 3718              	.LVL400:
 3719 0012 5A00     		lsls	r2, r3, #1
 3720 0014 1044     		add	r0, r0, r2
 3721              	.LVL401:
1123:rhea\drivers\MCP7940N/MCP7940N.c **** }
 3722              		.loc 1 1123 0
 3723 0016 C0B2     		uxtb	r0, r0
 3724 0018 7047     		bx	lr
 3725              	.L374:
 3726 001a 00BF     		.align	2
 3727              	.L373:
 3728 001c 00000000 		.word	.LANCHOR0
 3729              		.cfi_endproc
 3730              	.LFE76:
 3731              		.size	MCP7940N_GetPowerUpHour, .-MCP7940N_GetPowerUpHour
 3732              		.section	.text.MCP7940N_GetPowerUpMinute,"ax",%progbits
 3733              		.align	2
 3734              		.global	MCP7940N_GetPowerUpMinute
 3735              		.thumb
 3736              		.thumb_func
 3737              		.type	MCP7940N_GetPowerUpMinute, %function
 3738              	MCP7940N_GetPowerUpMinute:
 3739              	.LFB77:
1124:rhea\drivers\MCP7940N/MCP7940N.c **** 
1125:rhea\drivers\MCP7940N/MCP7940N.c **** uint8_t MCP7940N_GetPowerUpMinute(void) {
 3740              		.loc 1 1125 0
 3741              		.cfi_startproc
 3742              		@ args = 0, pretend = 0, frame = 0
 3743              		@ frame_needed = 0, uses_anonymous_args = 0
 3744              		@ link register save eliminated.
1126:rhea\drivers\MCP7940N/MCP7940N.c ****     
1127:rhea\drivers\MCP7940N/MCP7940N.c ****     // Reading PWRUPMIN register
1128:rhea\drivers\MCP7940N/MCP7940N.c ****     uint8_t registerValue = MCP7940N_RegistersLocal.PWRUPMIN;
 3745              		.loc 1 1128 0
 3746 0000 064B     		ldr	r3, .L376
 3747 0002 93F82930 		ldrb	r3, [r3, #41]	@ zero_extendqisi2
 3748              	.LVL402:
1129:rhea\drivers\MCP7940N/MCP7940N.c ****     
1130:rhea\drivers\MCP7940N/MCP7940N.c ****     // Decoding BCD
1131:rhea\drivers\MCP7940N/MCP7940N.c ****     uint8_t ones = registerValue & MCP7940N_PWRUPMIN_MINONE;
 3749              		.loc 1 1131 0
 3750 0006 03F00F00 		and	r0, r3, #15
 3751              	.LVL403:
1132:rhea\drivers\MCP7940N/MCP7940N.c ****     uint8_t tens = registerValue & MCP7940N_PWRUPMIN_MINTEN;
1133:rhea\drivers\MCP7940N/MCP7940N.c ****     tens = tens >> 4;
 3752              		.loc 1 1133 0
ARM GAS  C:\Users\GYULAI~1\AppData\Local\Temp\ccG7iLma.s 			page 89


 3753 000a C3F30213 		ubfx	r3, r3, #4, #3
 3754              	.LVL404:
1134:rhea\drivers\MCP7940N/MCP7940N.c ****     
1135:rhea\drivers\MCP7940N/MCP7940N.c ****     // Returning result
1136:rhea\drivers\MCP7940N/MCP7940N.c ****     return tens * 10 + ones;
 3755              		.loc 1 1136 0
 3756 000e 03EB8303 		add	r3, r3, r3, lsl #2
 3757              	.LVL405:
 3758 0012 5A00     		lsls	r2, r3, #1
 3759 0014 1044     		add	r0, r0, r2
 3760              	.LVL406:
1137:rhea\drivers\MCP7940N/MCP7940N.c **** }
 3761              		.loc 1 1137 0
 3762 0016 C0B2     		uxtb	r0, r0
 3763 0018 7047     		bx	lr
 3764              	.L377:
 3765 001a 00BF     		.align	2
 3766              	.L376:
 3767 001c 00000000 		.word	.LANCHOR0
 3768              		.cfi_endproc
 3769              	.LFE77:
 3770              		.size	MCP7940N_GetPowerUpMinute, .-MCP7940N_GetPowerUpMinute
 3771              		.section	.text.MCP7940N_GetPowerUpDatetime,"ax",%progbits
 3772              		.align	2
 3773              		.global	MCP7940N_GetPowerUpDatetime
 3774              		.thumb
 3775              		.thumb_func
 3776              		.type	MCP7940N_GetPowerUpDatetime, %function
 3777              	MCP7940N_GetPowerUpDatetime:
 3778              	.LFB72:
1056:rhea\drivers\MCP7940N/MCP7940N.c ****     
 3779              		.loc 1 1056 0
 3780              		.cfi_startproc
 3781              		@ args = 0, pretend = 0, frame = 0
 3782              		@ frame_needed = 0, uses_anonymous_args = 0
 3783              	.LVL407:
 3784 0000 38B5     		push	{r3, r4, r5, lr}
 3785              		.cfi_def_cfa_offset 16
 3786              		.cfi_offset 3, -16
 3787              		.cfi_offset 4, -12
 3788              		.cfi_offset 5, -8
 3789              		.cfi_offset 14, -4
 3790 0002 0446     		mov	r4, r0
1059:rhea\drivers\MCP7940N/MCP7940N.c ****                        MCP7940N_PWRUPMTH - MCP7940N_PWRUPMIN + 1);
 3791              		.loc 1 1059 0
 3792 0004 0423     		movs	r3, #4
 3793 0006 0C4A     		ldr	r2, .L380
 3794 0008 1C21     		movs	r1, #28
 3795 000a DE20     		movs	r0, #222
 3796              	.LVL408:
 3797 000c FFF7FEFF 		bl	MCP7940N_I2CReader
 3798              	.LVL409:
1066:rhea\drivers\MCP7940N/MCP7940N.c ****     datetime.month = MCP7940N_GetPowerUpMonth();
 3799              		.loc 1 1066 0
 3800 0010 0025     		movs	r5, #0
 3801 0012 2580     		strh	r5, [r4]	@ movhi
1067:rhea\drivers\MCP7940N/MCP7940N.c ****     datetime.date = MCP7940N_GetPowerUpDate();
ARM GAS  C:\Users\GYULAI~1\AppData\Local\Temp\ccG7iLma.s 			page 90


 3802              		.loc 1 1067 0
 3803 0014 FFF7FEFF 		bl	MCP7940N_GetPowerUpMonth
 3804              	.LVL410:
 3805 0018 A070     		strb	r0, [r4, #2]
