ARM GAS  C:\Users\GYULAI~1\AppData\Local\Temp\ccG7iLma.s 			page 1


   1              		.syntax unified
   2              		.cpu cortex-m3
   3              		.fpu softvfp
   4              		.eabi_attribute 20, 1
   5              		.eabi_attribute 21, 1
   6              		.eabi_attribute 23, 3
   7              		.eabi_attribute 24, 1
   8              		.eabi_attribute 25, 1
   9              		.eabi_attribute 26, 1
  10              		.eabi_attribute 30, 1
  11              		.eabi_attribute 34, 1
  12              		.eabi_attribute 18, 4
  13              		.thumb
  14              		.syntax unified
  15              		.file	"MCP7940N.c"
  16              		.text
  17              	.Ltext0:
  18              		.cfi_sections	.debug_frame
  19              		.section	.text.MCP7940N_I2CReader,"ax",%progbits
  20              		.align	2
  21              		.global	MCP7940N_I2CReader
  22              		.thumb
  23              		.thumb_func
  24              		.type	MCP7940N_I2CReader, %function
  25              	MCP7940N_I2CReader:
  26              	.LFB0:
  27              		.file 1 "rhea\\drivers\\MCP7940N\\MCP7940N.c"
   1:rhea\drivers\MCP7940N/MCP7940N.c **** /*********************************************************************************
   2:rhea\drivers\MCP7940N/MCP7940N.c ****  * Copyright (c) 2020 Peter Gyulai
   3:rhea\drivers\MCP7940N/MCP7940N.c ****  *
   4:rhea\drivers\MCP7940N/MCP7940N.c ****  * Permission is hereby granted, free of charge, to any person obtaining a copy
   5:rhea\drivers\MCP7940N/MCP7940N.c ****  * of this software and associated documentation files (the "Software"), to deal
   6:rhea\drivers\MCP7940N/MCP7940N.c ****  * in the Software without restriction, including without limitation the rights
   7:rhea\drivers\MCP7940N/MCP7940N.c ****  * to use, copy, modify, merge, publish, distribute, sublicense, and/or sell
   8:rhea\drivers\MCP7940N/MCP7940N.c ****  * copies of the Software, and to permit persons to whom the Software is
   9:rhea\drivers\MCP7940N/MCP7940N.c ****  * furnished to do so, subject to the following conditions:
  10:rhea\drivers\MCP7940N/MCP7940N.c ****  *
  11:rhea\drivers\MCP7940N/MCP7940N.c ****  * The above copyright notice and this permission notice shall be included in all
  12:rhea\drivers\MCP7940N/MCP7940N.c ****  * copies or substantial portions of the Software.
  13:rhea\drivers\MCP7940N/MCP7940N.c ****  *
  14:rhea\drivers\MCP7940N/MCP7940N.c ****  * THE SOFTWARE IS PROVIDED "AS IS", WITHOUT WARRANTY OF ANY KIND,
  15:rhea\drivers\MCP7940N/MCP7940N.c ****  * EXPRESS OR IMPLIED, INCLUDING BUT NOT LIMITED TO THE WARRANTIES OF
  16:rhea\drivers\MCP7940N/MCP7940N.c ****  * MERCHANTABILITY, FITNESS FOR A PARTICULAR PURPOSE AND NONINFRINGEMENT.
  17:rhea\drivers\MCP7940N/MCP7940N.c ****  * IN NO EVENT SHALL THE AUTHORS OR COPYRIGHT HOLDERS BE LIABLE FOR ANY CLAIM,
  18:rhea\drivers\MCP7940N/MCP7940N.c ****  * DAMAGES OR OTHER LIABILITY, WHETHER IN AN ACTION OF CONTRACT, TORT OR
  19:rhea\drivers\MCP7940N/MCP7940N.c ****  * OTHERWISE, ARISING FROM, OUT OF OR IN CONNECTION WITH THE SOFTWARE OR THE USE
  20:rhea\drivers\MCP7940N/MCP7940N.c ****  * OR OTHER DEALINGS IN THE SOFTWARE.
  21:rhea\drivers\MCP7940N/MCP7940N.c **** **********************************************************************************/
  22:rhea\drivers\MCP7940N/MCP7940N.c **** 
  23:rhea\drivers\MCP7940N/MCP7940N.c **** /**
  24:rhea\drivers\MCP7940N/MCP7940N.c ****  * @file    MCP7940N.c
  25:rhea\drivers\MCP7940N/MCP7940N.c ****  * @author  Peter Gyulai
  26:rhea\drivers\MCP7940N/MCP7940N.c ****  * @version 1.1.1
  27:rhea\drivers\MCP7940N/MCP7940N.c ****  * @date    2020.04.16
  28:rhea\drivers\MCP7940N/MCP7940N.c ****  * @brief   Library implementation.
  29:rhea\drivers\MCP7940N/MCP7940N.c ****  * @details
  30:rhea\drivers\MCP7940N/MCP7940N.c ****  * This file contains the function definitions and static variable definitions used
ARM GAS  C:\Users\GYULAI~1\AppData\Local\Temp\ccG7iLma.s 			page 2


  31:rhea\drivers\MCP7940N/MCP7940N.c ****  * by the MCP7940N driver library.
  32:rhea\drivers\MCP7940N/MCP7940N.c ****  */
  33:rhea\drivers\MCP7940N/MCP7940N.c **** 
  34:rhea\drivers\MCP7940N/MCP7940N.c **** // Doxygen documentation duplication suppression
  35:rhea\drivers\MCP7940N/MCP7940N.c **** #ifndef DOXYGEN_SHOULD_SKIP_THIS
  36:rhea\drivers\MCP7940N/MCP7940N.c **** 
  37:rhea\drivers\MCP7940N/MCP7940N.c **** // Standard includes
  38:rhea\drivers\MCP7940N/MCP7940N.c **** #include <stdlib.h>
  39:rhea\drivers\MCP7940N/MCP7940N.c **** 
  40:rhea\drivers\MCP7940N/MCP7940N.c **** // Project includes
  41:rhea\drivers\MCP7940N/MCP7940N.c **** #include "MCP7940N.h"
  42:rhea\drivers\MCP7940N/MCP7940N.c **** 
  43:rhea\drivers\MCP7940N/MCP7940N.c **** 
  44:rhea\drivers\MCP7940N/MCP7940N.c **** // Static instance holding a local copy of the MCP7940N's registers
  45:rhea\drivers\MCP7940N/MCP7940N.c **** static MCP7940N_RegisterStruct MCP7940N_RegistersLocal;
  46:rhea\drivers\MCP7940N/MCP7940N.c **** 
  47:rhea\drivers\MCP7940N/MCP7940N.c **** // Structure holding function pointers to I2C handlers
  48:rhea\drivers\MCP7940N/MCP7940N.c **** static MCP7940N_I2CControllerStruct MCP7940N_I2CController;
  49:rhea\drivers\MCP7940N/MCP7940N.c **** 
  50:rhea\drivers\MCP7940N/MCP7940N.c **** void MCP7940N_I2CReader(uint8_t address, uint8_t deviceAddress, unsigned char * buffer, uint8_t byt
  28              		.loc 1 50 0
  29              		.cfi_startproc
  30              		@ args = 0, pretend = 0, frame = 0
  31              		@ frame_needed = 0, uses_anonymous_args = 0
  32              	.LVL0:
  33 0000 2DE9F041 		push	{r4, r5, r6, r7, r8, lr}
  34              		.cfi_def_cfa_offset 24
  35              		.cfi_offset 4, -24
  36              		.cfi_offset 5, -20
  37              		.cfi_offset 6, -16
  38              		.cfi_offset 7, -12
  39              		.cfi_offset 8, -8
  40              		.cfi_offset 14, -4
  41 0004 0746     		mov	r7, r0
  42 0006 8846     		mov	r8, r1
  43 0008 1646     		mov	r6, r2
  44 000a 1D46     		mov	r5, r3
  51:rhea\drivers\MCP7940N/MCP7940N.c ****     
  52:rhea\drivers\MCP7940N/MCP7940N.c ****     // Selecting the device for write
  53:rhea\drivers\MCP7940N/MCP7940N.c ****     MCP7940N_I2CController.MasterSendStart(address, 0);
  45              		.loc 1 53 0
  46 000c 0F4C     		ldr	r4, .L5
  47 000e 2368     		ldr	r3, [r4]
  48              	.LVL1:
  49 0010 0021     		movs	r1, #0
  50              	.LVL2:
  51 0012 9847     		blx	r3
  52              	.LVL3:
  54:rhea\drivers\MCP7940N/MCP7940N.c ****     
  55:rhea\drivers\MCP7940N/MCP7940N.c ****     // Writing first device address to read
  56:rhea\drivers\MCP7940N/MCP7940N.c ****     MCP7940N_I2CController.MasterWriteByte(deviceAddress);
  53              		.loc 1 56 0
  54 0014 A368     		ldr	r3, [r4, #8]
  55 0016 4046     		mov	r0, r8
  56 0018 9847     		blx	r3
  57              	.LVL4:
  57:rhea\drivers\MCP7940N/MCP7940N.c ****     
ARM GAS  C:\Users\GYULAI~1\AppData\Local\Temp\ccG7iLma.s 			page 3


  58:rhea\drivers\MCP7940N/MCP7940N.c ****     // Selecting the device for read
  59:rhea\drivers\MCP7940N/MCP7940N.c ****     MCP7940N_I2CController.MasterSendStart(address, 1);
  58              		.loc 1 59 0
  59 001a 2368     		ldr	r3, [r4]
  60 001c 0121     		movs	r1, #1
  61 001e 3846     		mov	r0, r7
  62 0020 9847     		blx	r3
  63              	.LVL5:
  64              	.LBB2:
  60:rhea\drivers\MCP7940N/MCP7940N.c ****     
  61:rhea\drivers\MCP7940N/MCP7940N.c ****     // Reading bytes from the device
  62:rhea\drivers\MCP7940N/MCP7940N.c ****     for(uint8_t i = 0; i < byteCount; i++) {
  65              		.loc 1 62 0
  66 0022 0024     		movs	r4, #0
  67 0024 0AE0     		b	.L2
  68              	.LVL6:
  69              	.L3:
  63:rhea\drivers\MCP7940N/MCP7940N.c ****         buffer[i] = MCP7940N_I2CController.MasterReadByte(i < byteCount - 1 ? 1 : 0);   
  70              		.loc 1 63 0 discriminator 3
  71 0026 094B     		ldr	r3, .L5
  72 0028 DB68     		ldr	r3, [r3, #12]
  73 002a 681E     		subs	r0, r5, #1
  74 002c 8442     		cmp	r4, r0
  75 002e ACBF     		ite	ge
  76 0030 0020     		movge	r0, #0
  77 0032 0120     		movlt	r0, #1
  78 0034 9847     		blx	r3
  79              	.LVL7:
  80 0036 3055     		strb	r0, [r6, r4]
  62:rhea\drivers\MCP7940N/MCP7940N.c ****         buffer[i] = MCP7940N_I2CController.MasterReadByte(i < byteCount - 1 ? 1 : 0);   
  81              		.loc 1 62 0 discriminator 3
  82 0038 0134     		adds	r4, r4, #1
  83              	.LVL8:
  84 003a E4B2     		uxtb	r4, r4
  85              	.LVL9:
  86              	.L2:
  62:rhea\drivers\MCP7940N/MCP7940N.c ****         buffer[i] = MCP7940N_I2CController.MasterReadByte(i < byteCount - 1 ? 1 : 0);   
  87              		.loc 1 62 0 is_stmt 0 discriminator 1
  88 003c AC42     		cmp	r4, r5
  89 003e F2D3     		bcc	.L3
  90              	.LBE2:
  64:rhea\drivers\MCP7940N/MCP7940N.c ****     }
  65:rhea\drivers\MCP7940N/MCP7940N.c ****     
  66:rhea\drivers\MCP7940N/MCP7940N.c ****     // Sending STOP 
  67:rhea\drivers\MCP7940N/MCP7940N.c ****     MCP7940N_I2CController.MasterSendStop();
  91              		.loc 1 67 0 is_stmt 1
  92 0040 024B     		ldr	r3, .L5
  93 0042 5B68     		ldr	r3, [r3, #4]
  94 0044 9847     		blx	r3
  95              	.LVL10:
  96 0046 BDE8F081 		pop	{r4, r5, r6, r7, r8, pc}
  97              	.LVL11:
  98              	.L6:
  99 004a 00BF     		.align	2
 100              	.L5:
 101 004c 00000000 		.word	.LANCHOR0
 102              		.cfi_endproc
ARM GAS  C:\Users\GYULAI~1\AppData\Local\Temp\ccG7iLma.s 			page 4


 103              	.LFE0:
 104              		.size	MCP7940N_I2CReader, .-MCP7940N_I2CReader
 105              		.section	.text.MCP7940N_I2CWriter,"ax",%progbits
 106              		.align	2
 107              		.global	MCP7940N_I2CWriter
 108              		.thumb
 109              		.thumb_func
 110              		.type	MCP7940N_I2CWriter, %function
 111              	MCP7940N_I2CWriter:
 112              	.LFB1:
  68:rhea\drivers\MCP7940N/MCP7940N.c **** }
  69:rhea\drivers\MCP7940N/MCP7940N.c **** 
  70:rhea\drivers\MCP7940N/MCP7940N.c **** void MCP7940N_I2CWriter(uint8_t address, uint8_t deviceAddress, const unsigned char * buffer, uint8
 113              		.loc 1 70 0
 114              		.cfi_startproc
 115              		@ args = 0, pretend = 0, frame = 0
 116              		@ frame_needed = 0, uses_anonymous_args = 0
 117              	.LVL12:
 118 0000 F8B5     		push	{r3, r4, r5, r6, r7, lr}
 119              		.cfi_def_cfa_offset 24
 120              		.cfi_offset 3, -24
 121              		.cfi_offset 4, -20
 122              		.cfi_offset 5, -16
 123              		.cfi_offset 6, -12
 124              		.cfi_offset 7, -8
 125              		.cfi_offset 14, -4
 126 0002 0F46     		mov	r7, r1
 127 0004 1646     		mov	r6, r2
 128 0006 1D46     		mov	r5, r3
  71:rhea\drivers\MCP7940N/MCP7940N.c ****     
  72:rhea\drivers\MCP7940N/MCP7940N.c ****     // Selecting the device for write
  73:rhea\drivers\MCP7940N/MCP7940N.c ****     MCP7940N_I2CController.MasterSendStart(address, 0);
 129              		.loc 1 73 0
 130 0008 0A4C     		ldr	r4, .L11
 131 000a 2368     		ldr	r3, [r4]
 132              	.LVL13:
 133 000c 0021     		movs	r1, #0
 134              	.LVL14:
 135 000e 9847     		blx	r3
 136              	.LVL15:
  74:rhea\drivers\MCP7940N/MCP7940N.c ****     
  75:rhea\drivers\MCP7940N/MCP7940N.c ****     // Writing first device address to read
  76:rhea\drivers\MCP7940N/MCP7940N.c ****     MCP7940N_I2CController.MasterWriteByte(deviceAddress);
 137              		.loc 1 76 0
 138 0010 A368     		ldr	r3, [r4, #8]
 139 0012 3846     		mov	r0, r7
 140 0014 9847     		blx	r3
 141              	.LVL16:
 142              	.LBB3:
  77:rhea\drivers\MCP7940N/MCP7940N.c ****     
  78:rhea\drivers\MCP7940N/MCP7940N.c ****     // Writing bytes to the device
  79:rhea\drivers\MCP7940N/MCP7940N.c ****     for(uint8_t i = 0; i < byteCount; i++) {
 143              		.loc 1 79 0
 144 0016 0024     		movs	r4, #0
 145 0018 05E0     		b	.L8
 146              	.LVL17:
 147              	.L9:
ARM GAS  C:\Users\GYULAI~1\AppData\Local\Temp\ccG7iLma.s 			page 5


  80:rhea\drivers\MCP7940N/MCP7940N.c ****                 
  81:rhea\drivers\MCP7940N/MCP7940N.c ****         // Sending byte to write
  82:rhea\drivers\MCP7940N/MCP7940N.c ****         MCP7940N_I2CController.MasterWriteByte(buffer[i]);
 148              		.loc 1 82 0 discriminator 3
 149 001a 064B     		ldr	r3, .L11
 150 001c 9B68     		ldr	r3, [r3, #8]
 151 001e 305D     		ldrb	r0, [r6, r4]	@ zero_extendqisi2
 152 0020 9847     		blx	r3
 153              	.LVL18:
  79:rhea\drivers\MCP7940N/MCP7940N.c ****                 
 154              		.loc 1 79 0 discriminator 3
 155 0022 0134     		adds	r4, r4, #1
 156              	.LVL19:
 157 0024 E4B2     		uxtb	r4, r4
 158              	.LVL20:
 159              	.L8:
  79:rhea\drivers\MCP7940N/MCP7940N.c ****                 
 160              		.loc 1 79 0 is_stmt 0 discriminator 1
 161 0026 AC42     		cmp	r4, r5
 162 0028 F7D3     		bcc	.L9
 163              	.LBE3:
  83:rhea\drivers\MCP7940N/MCP7940N.c ****     }
  84:rhea\drivers\MCP7940N/MCP7940N.c ****     
  85:rhea\drivers\MCP7940N/MCP7940N.c ****     // Sending STOP 
  86:rhea\drivers\MCP7940N/MCP7940N.c ****     MCP7940N_I2CController.MasterSendStop();
 164              		.loc 1 86 0 is_stmt 1
 165 002a 024B     		ldr	r3, .L11
 166 002c 5B68     		ldr	r3, [r3, #4]
 167 002e 9847     		blx	r3
 168              	.LVL21:
 169 0030 F8BD     		pop	{r3, r4, r5, r6, r7, pc}
 170              	.LVL22:
 171              	.L12:
 172 0032 00BF     		.align	2
 173              	.L11:
 174 0034 00000000 		.word	.LANCHOR0
 175              		.cfi_endproc
 176              	.LFE1:
 177              		.size	MCP7940N_I2CWriter, .-MCP7940N_I2CWriter
 178              		.section	.text.MCP7940N_SetI2CController,"ax",%progbits
 179              		.align	2
 180              		.global	MCP7940N_SetI2CController
 181              		.thumb
 182              		.thumb_func
 183              		.type	MCP7940N_SetI2CController, %function
 184              	MCP7940N_SetI2CController:
 185              	.LFB2:
  87:rhea\drivers\MCP7940N/MCP7940N.c **** }
  88:rhea\drivers\MCP7940N/MCP7940N.c **** 
  89:rhea\drivers\MCP7940N/MCP7940N.c **** void MCP7940N_SetI2CController(MCP7940N_I2CControllerStruct controller) {
 186              		.loc 1 89 0
 187              		.cfi_startproc
 188              		@ args = 0, pretend = 0, frame = 16
 189              		@ frame_needed = 0, uses_anonymous_args = 0
 190              		@ link register save eliminated.
 191 0000 30B4     		push	{r4, r5}
 192              		.cfi_def_cfa_offset 8
ARM GAS  C:\Users\GYULAI~1\AppData\Local\Temp\ccG7iLma.s 			page 6


 193              		.cfi_offset 4, -8
 194              		.cfi_offset 5, -4
 195 0002 84B0     		sub	sp, sp, #16
 196              		.cfi_def_cfa_offset 24
 197 0004 8DE80F00 		stmia	sp, {r0, r1, r2, r3}
  90:rhea\drivers\MCP7940N/MCP7940N.c ****     MCP7940N_I2CController = controller;
 198              		.loc 1 90 0
 199 0008 034D     		ldr	r5, .L15
 200 000a 9DE80F00 		ldmia	sp, {r0, r1, r2, r3}
 201 000e 85E80F00 		stmia	r5, {r0, r1, r2, r3}
  91:rhea\drivers\MCP7940N/MCP7940N.c **** }
 202              		.loc 1 91 0
 203 0012 04B0     		add	sp, sp, #16
 204              		.cfi_def_cfa_offset 8
 205              		@ sp needed
 206 0014 30BC     		pop	{r4, r5}
 207              		.cfi_restore 5
 208              		.cfi_restore 4
 209              		.cfi_def_cfa_offset 0
 210 0016 7047     		bx	lr
 211              	.L16:
 212              		.align	2
 213              	.L15:
 214 0018 00000000 		.word	.LANCHOR0
 215              		.cfi_endproc
 216              	.LFE2:
 217              		.size	MCP7940N_SetI2CController, .-MCP7940N_SetI2CController
 218              		.section	.text.MCP7940N_ReadRegisters,"ax",%progbits
 219              		.align	2
 220              		.global	MCP7940N_ReadRegisters
 221              		.thumb
 222              		.thumb_func
 223              		.type	MCP7940N_ReadRegisters, %function
 224              	MCP7940N_ReadRegisters:
 225              	.LFB3:
  92:rhea\drivers\MCP7940N/MCP7940N.c **** 
  93:rhea\drivers\MCP7940N/MCP7940N.c **** void MCP7940N_ReadRegisters(void) {
 226              		.loc 1 93 0
 227              		.cfi_startproc
 228              		@ args = 0, pretend = 0, frame = 0
 229              		@ frame_needed = 0, uses_anonymous_args = 0
 230 0000 08B5     		push	{r3, lr}
 231              		.cfi_def_cfa_offset 8
 232              		.cfi_offset 3, -8
 233              		.cfi_offset 14, -4
  94:rhea\drivers\MCP7940N/MCP7940N.c **** 
  95:rhea\drivers\MCP7940N/MCP7940N.c ****     // Reading all registers from the MCP7940N to the local copy
  96:rhea\drivers\MCP7940N/MCP7940N.c ****     MCP7940N_I2CReader(MCP7940N_I2C_ADDR, MCP7940N_REGISTERS_START, (uint8_t*) &MCP7940N_RegistersL
 234              		.loc 1 96 0
 235 0002 2023     		movs	r3, #32
 236 0004 024A     		ldr	r2, .L19
 237 0006 0021     		movs	r1, #0
 238 0008 DE20     		movs	r0, #222
 239 000a FFF7FEFF 		bl	MCP7940N_I2CReader
 240              	.LVL23:
 241 000e 08BD     		pop	{r3, pc}
 242              	.L20:
ARM GAS  C:\Users\GYULAI~1\AppData\Local\Temp\ccG7iLma.s 			page 7


 243              		.align	2
 244              	.L19:
 245 0010 10000000 		.word	.LANCHOR0+16
 246              		.cfi_endproc
 247              	.LFE3:
 248              		.size	MCP7940N_ReadRegisters, .-MCP7940N_ReadRegisters
 249              		.section	.text.MCP7940N_GetLocalRegisters,"ax",%progbits
 250              		.align	2
 251              		.global	MCP7940N_GetLocalRegisters
 252              		.thumb
 253              		.thumb_func
 254              		.type	MCP7940N_GetLocalRegisters, %function
 255              	MCP7940N_GetLocalRegisters:
 256              	.LFB5:
  97:rhea\drivers\MCP7940N/MCP7940N.c ****                        MCP7940N_REGISTER_COUNT);
  98:rhea\drivers\MCP7940N/MCP7940N.c **** }
  99:rhea\drivers\MCP7940N/MCP7940N.c **** 
 100:rhea\drivers\MCP7940N/MCP7940N.c **** void MCP7940N_WriteRegisters(void) {
 101:rhea\drivers\MCP7940N/MCP7940N.c ****     
 102:rhea\drivers\MCP7940N/MCP7940N.c ****     // Oscillator status
 103:rhea\drivers\MCP7940N/MCP7940N.c ****     uint8_t externalStatus = MCP7940N_IsExternalOscillatorEnabled(); 
 104:rhea\drivers\MCP7940N/MCP7940N.c ****     uint8_t internalStatus = MCP7940N_IsOscillatorEnabled();
 105:rhea\drivers\MCP7940N/MCP7940N.c ****         
 106:rhea\drivers\MCP7940N/MCP7940N.c ****     // Disabling oscillator
 107:rhea\drivers\MCP7940N/MCP7940N.c ****     if(externalStatus)      MCP7940N_DisableExternalOscillator();
 108:rhea\drivers\MCP7940N/MCP7940N.c ****     else if(internalStatus) MCP7940N_DisableOscillator();
 109:rhea\drivers\MCP7940N/MCP7940N.c ****     
 110:rhea\drivers\MCP7940N/MCP7940N.c ****     // Waiting for oscillator to stop
 111:rhea\drivers\MCP7940N/MCP7940N.c ****     while(MCP7940N_IsOscillatorRunning());
 112:rhea\drivers\MCP7940N/MCP7940N.c ****     
 113:rhea\drivers\MCP7940N/MCP7940N.c ****     // Updating all registers of the MCP7940N from the local copy
 114:rhea\drivers\MCP7940N/MCP7940N.c ****     MCP7940N_I2CWriter(MCP7940N_I2C_ADDR, MCP7940N_REGISTERS_START, (uint8_t*) &MCP7940N_RegistersL
 115:rhea\drivers\MCP7940N/MCP7940N.c ****                        MCP7940N_REGISTER_COUNT);
 116:rhea\drivers\MCP7940N/MCP7940N.c **** 
 117:rhea\drivers\MCP7940N/MCP7940N.c ****     // Enabling oscillator
 118:rhea\drivers\MCP7940N/MCP7940N.c ****     if(externalStatus)      MCP7940N_EnableExternalOscillator();
 119:rhea\drivers\MCP7940N/MCP7940N.c ****     else if(internalStatus) MCP7940N_EnableOscillator();
 120:rhea\drivers\MCP7940N/MCP7940N.c **** }
 121:rhea\drivers\MCP7940N/MCP7940N.c **** 
 122:rhea\drivers\MCP7940N/MCP7940N.c **** MCP7940N_RegisterStruct* MCP7940N_GetLocalRegisters(void) {
 257              		.loc 1 122 0
 258              		.cfi_startproc
 259              		@ args = 0, pretend = 0, frame = 0
 260              		@ frame_needed = 0, uses_anonymous_args = 0
 261              		@ link register save eliminated.
 123:rhea\drivers\MCP7940N/MCP7940N.c **** 
 124:rhea\drivers\MCP7940N/MCP7940N.c ****     // Returning address of the local copy
 125:rhea\drivers\MCP7940N/MCP7940N.c ****     return &MCP7940N_RegistersLocal;
 126:rhea\drivers\MCP7940N/MCP7940N.c **** }
 262              		.loc 1 126 0
 263 0000 0048     		ldr	r0, .L22
 264 0002 7047     		bx	lr
 265              	.L23:
 266              		.align	2
 267              	.L22:
 268 0004 10000000 		.word	.LANCHOR0+16
 269              		.cfi_endproc
ARM GAS  C:\Users\GYULAI~1\AppData\Local\Temp\ccG7iLma.s 			page 8


 270              	.LFE5:
 271              		.size	MCP7940N_GetLocalRegisters, .-MCP7940N_GetLocalRegisters
 272              		.section	.text.MCP7940N_GetSeconds,"ax",%progbits
 273              		.align	2
 274              		.global	MCP7940N_GetSeconds
 275              		.thumb
 276              		.thumb_func
 277              		.type	MCP7940N_GetSeconds, %function
 278              	MCP7940N_GetSeconds:
 279              	.LFB7:
 127:rhea\drivers\MCP7940N/MCP7940N.c **** 
 128:rhea\drivers\MCP7940N/MCP7940N.c **** MCP7940N_Datetime MCP7940N_GetDatetime(void) {
 129:rhea\drivers\MCP7940N/MCP7940N.c ****     
 130:rhea\drivers\MCP7940N/MCP7940N.c ****     // Reading timekeeping registers
 131:rhea\drivers\MCP7940N/MCP7940N.c ****     MCP7940N_I2CReader(MCP7940N_I2C_ADDR, MCP7940N_RTCSEC, (uint8_t*) &MCP7940N_RegistersLocal.RTCS
 132:rhea\drivers\MCP7940N/MCP7940N.c ****                        MCP7940N_RTCYEAR - MCP7940N_RTCSEC + 1);
 133:rhea\drivers\MCP7940N/MCP7940N.c ****     
 134:rhea\drivers\MCP7940N/MCP7940N.c ****     // Creating structure to store the datetime
 135:rhea\drivers\MCP7940N/MCP7940N.c ****     MCP7940N_Datetime result;
 136:rhea\drivers\MCP7940N/MCP7940N.c ****     
 137:rhea\drivers\MCP7940N/MCP7940N.c ****     // Populating datetime structure
 138:rhea\drivers\MCP7940N/MCP7940N.c ****     result.year = MCP7940N_GetYears();
 139:rhea\drivers\MCP7940N/MCP7940N.c ****     result.month = MCP7940N_GetMonths();
 140:rhea\drivers\MCP7940N/MCP7940N.c ****     result.date = MCP7940N_GetDate();
 141:rhea\drivers\MCP7940N/MCP7940N.c ****     result.weekday = MCP7940N_GetWeekday();
 142:rhea\drivers\MCP7940N/MCP7940N.c ****     result.hour = MCP7940N_GetHours();
 143:rhea\drivers\MCP7940N/MCP7940N.c ****     result.minute = MCP7940N_GetMinutes();
 144:rhea\drivers\MCP7940N/MCP7940N.c ****     result.second = MCP7940N_GetSeconds();
 145:rhea\drivers\MCP7940N/MCP7940N.c ****     
 146:rhea\drivers\MCP7940N/MCP7940N.c ****     return result;
 147:rhea\drivers\MCP7940N/MCP7940N.c **** }
 148:rhea\drivers\MCP7940N/MCP7940N.c **** 
 149:rhea\drivers\MCP7940N/MCP7940N.c **** uint8_t MCP7940N_GetSeconds(void) {
 280              		.loc 1 149 0
 281              		.cfi_startproc
 282              		@ args = 0, pretend = 0, frame = 0
 283              		@ frame_needed = 0, uses_anonymous_args = 0
 284              		@ link register save eliminated.
 150:rhea\drivers\MCP7940N/MCP7940N.c ****     
 151:rhea\drivers\MCP7940N/MCP7940N.c ****     // Reading RTCSEC register
 152:rhea\drivers\MCP7940N/MCP7940N.c ****     uint8_t registerValue = MCP7940N_RegistersLocal.RTCSEC;
 285              		.loc 1 152 0
 286 0000 054B     		ldr	r3, .L25
 287 0002 1B7C     		ldrb	r3, [r3, #16]	@ zero_extendqisi2
 288              	.LVL24:
 153:rhea\drivers\MCP7940N/MCP7940N.c ****     
 154:rhea\drivers\MCP7940N/MCP7940N.c ****     // Decoding BCD
 155:rhea\drivers\MCP7940N/MCP7940N.c ****     uint8_t ones = registerValue & MCP7940N_RTCSEC_SECONE;
 289              		.loc 1 155 0
 290 0004 03F00F00 		and	r0, r3, #15
 291              	.LVL25:
 156:rhea\drivers\MCP7940N/MCP7940N.c ****     uint8_t tens = registerValue & MCP7940N_RTCSEC_SECTEN;
 157:rhea\drivers\MCP7940N/MCP7940N.c ****     tens = tens >> 4;
 292              		.loc 1 157 0
 293 0008 C3F30213 		ubfx	r3, r3, #4, #3
 294              	.LVL26:
 158:rhea\drivers\MCP7940N/MCP7940N.c ****     
ARM GAS  C:\Users\GYULAI~1\AppData\Local\Temp\ccG7iLma.s 			page 9


 159:rhea\drivers\MCP7940N/MCP7940N.c ****     // Returning result
 160:rhea\drivers\MCP7940N/MCP7940N.c ****     return tens * 10 + ones;
 295              		.loc 1 160 0
 296 000c 03EB8303 		add	r3, r3, r3, lsl #2
 297              	.LVL27:
 298 0010 5A00     		lsls	r2, r3, #1
 299 0012 1044     		add	r0, r0, r2
 300              	.LVL28:
 161:rhea\drivers\MCP7940N/MCP7940N.c **** }
 301              		.loc 1 161 0
 302 0014 C0B2     		uxtb	r0, r0
 303 0016 7047     		bx	lr
 304              	.L26:
 305              		.align	2
 306              	.L25:
 307 0018 00000000 		.word	.LANCHOR0
 308              		.cfi_endproc
 309              	.LFE7:
 310              		.size	MCP7940N_GetSeconds, .-MCP7940N_GetSeconds
 311              		.section	.text.MCP7940N_GetMinutes,"ax",%progbits
 312              		.align	2
 313              		.global	MCP7940N_GetMinutes
 314              		.thumb
 315              		.thumb_func
 316              		.type	MCP7940N_GetMinutes, %function
 317              	MCP7940N_GetMinutes:
 318              	.LFB8:
 162:rhea\drivers\MCP7940N/MCP7940N.c **** 
 163:rhea\drivers\MCP7940N/MCP7940N.c **** uint8_t MCP7940N_GetMinutes(void) {
 319              		.loc 1 163 0
 320              		.cfi_startproc
 321              		@ args = 0, pretend = 0, frame = 0
 322              		@ frame_needed = 0, uses_anonymous_args = 0
 323              		@ link register save eliminated.
 164:rhea\drivers\MCP7940N/MCP7940N.c ****     
 165:rhea\drivers\MCP7940N/MCP7940N.c ****     // Reading RTCMIN register
 166:rhea\drivers\MCP7940N/MCP7940N.c ****     uint8_t registerValue = MCP7940N_RegistersLocal.RTCMIN;
 324              		.loc 1 166 0
 325 0000 054B     		ldr	r3, .L28
 326 0002 5B7C     		ldrb	r3, [r3, #17]	@ zero_extendqisi2
 327              	.LVL29:
 167:rhea\drivers\MCP7940N/MCP7940N.c ****     
 168:rhea\drivers\MCP7940N/MCP7940N.c ****     // Decoding BCD
 169:rhea\drivers\MCP7940N/MCP7940N.c ****     uint8_t ones = registerValue & MCP7940N_RTCMIN_MINONE;
 328              		.loc 1 169 0
 329 0004 03F00F00 		and	r0, r3, #15
 330              	.LVL30:
 170:rhea\drivers\MCP7940N/MCP7940N.c ****     uint8_t tens = registerValue & MCP7940N_RTCMIN_MINTEN;
 171:rhea\drivers\MCP7940N/MCP7940N.c ****     tens = tens >> 4;
 331              		.loc 1 171 0
 332 0008 C3F30213 		ubfx	r3, r3, #4, #3
 333              	.LVL31:
 172:rhea\drivers\MCP7940N/MCP7940N.c ****     
 173:rhea\drivers\MCP7940N/MCP7940N.c ****     // Returning result
 174:rhea\drivers\MCP7940N/MCP7940N.c ****     return tens * 10 + ones;
 334              		.loc 1 174 0
 335 000c 03EB8303 		add	r3, r3, r3, lsl #2
ARM GAS  C:\Users\GYULAI~1\AppData\Local\Temp\ccG7iLma.s 			page 10


 336              	.LVL32:
 337 0010 5A00     		lsls	r2, r3, #1
 338 0012 1044     		add	r0, r0, r2
 339              	.LVL33:
 175:rhea\drivers\MCP7940N/MCP7940N.c **** }
 340              		.loc 1 175 0
 341 0014 C0B2     		uxtb	r0, r0
 342 0016 7047     		bx	lr
 343              	.L29:
 344              		.align	2
 345              	.L28:
 346 0018 00000000 		.word	.LANCHOR0
 347              		.cfi_endproc
 348              	.LFE8:
 349              		.size	MCP7940N_GetMinutes, .-MCP7940N_GetMinutes
 350              		.section	.text.MCP7940N_GetHours,"ax",%progbits
 351              		.align	2
 352              		.global	MCP7940N_GetHours
 353              		.thumb
 354              		.thumb_func
 355              		.type	MCP7940N_GetHours, %function
 356              	MCP7940N_GetHours:
 357              	.LFB9:
 176:rhea\drivers\MCP7940N/MCP7940N.c **** 
 177:rhea\drivers\MCP7940N/MCP7940N.c **** uint8_t MCP7940N_GetHours(void) {
 358              		.loc 1 177 0
 359              		.cfi_startproc
 360              		@ args = 0, pretend = 0, frame = 0
 361              		@ frame_needed = 0, uses_anonymous_args = 0
 362              		@ link register save eliminated.
 178:rhea\drivers\MCP7940N/MCP7940N.c ****     
 179:rhea\drivers\MCP7940N/MCP7940N.c ****     // Reading RTCHOUR register
 180:rhea\drivers\MCP7940N/MCP7940N.c ****     uint8_t registerValue = MCP7940N_RegistersLocal.RTCHOUR;
 363              		.loc 1 180 0
 364 0000 054B     		ldr	r3, .L31
 365 0002 9B7C     		ldrb	r3, [r3, #18]	@ zero_extendqisi2
 366              	.LVL34:
 181:rhea\drivers\MCP7940N/MCP7940N.c ****     
 182:rhea\drivers\MCP7940N/MCP7940N.c ****     // Decoding BCD
 183:rhea\drivers\MCP7940N/MCP7940N.c ****     uint8_t ones = registerValue & MCP7940N_RTCHOUR_HRONE;
 367              		.loc 1 183 0
 368 0004 03F00F00 		and	r0, r3, #15
 369              	.LVL35:
 184:rhea\drivers\MCP7940N/MCP7940N.c ****     uint8_t tens = registerValue & MCP7940N_RTCHOUR_HRTEN;
 185:rhea\drivers\MCP7940N/MCP7940N.c ****     tens = tens >> 4;
 370              		.loc 1 185 0
 371 0008 C3F30113 		ubfx	r3, r3, #4, #2
 372              	.LVL36:
 186:rhea\drivers\MCP7940N/MCP7940N.c ****     
 187:rhea\drivers\MCP7940N/MCP7940N.c ****     // Returning result
 188:rhea\drivers\MCP7940N/MCP7940N.c ****     return tens * 10 + ones;
 373              		.loc 1 188 0
 374 000c 03EB8303 		add	r3, r3, r3, lsl #2
 375              	.LVL37:
 376 0010 5A00     		lsls	r2, r3, #1
 377 0012 1044     		add	r0, r0, r2
 378              	.LVL38:
ARM GAS  C:\Users\GYULAI~1\AppData\Local\Temp\ccG7iLma.s 			page 11


 189:rhea\drivers\MCP7940N/MCP7940N.c **** }
 379              		.loc 1 189 0
 380 0014 C0B2     		uxtb	r0, r0
 381 0016 7047     		bx	lr
 382              	.L32:
 383              		.align	2
 384              	.L31:
 385 0018 00000000 		.word	.LANCHOR0
 386              		.cfi_endproc
 387              	.LFE9:
 388              		.size	MCP7940N_GetHours, .-MCP7940N_GetHours
 389              		.section	.text.MCP7940N_GetDate,"ax",%progbits
 390              		.align	2
 391              		.global	MCP7940N_GetDate
 392              		.thumb
 393              		.thumb_func
 394              		.type	MCP7940N_GetDate, %function
 395              	MCP7940N_GetDate:
 396              	.LFB10:
 190:rhea\drivers\MCP7940N/MCP7940N.c **** 
 191:rhea\drivers\MCP7940N/MCP7940N.c **** uint8_t MCP7940N_GetDate(void) {
 397              		.loc 1 191 0
 398              		.cfi_startproc
 399              		@ args = 0, pretend = 0, frame = 0
 400              		@ frame_needed = 0, uses_anonymous_args = 0
 401              		@ link register save eliminated.
 192:rhea\drivers\MCP7940N/MCP7940N.c ****     
 193:rhea\drivers\MCP7940N/MCP7940N.c ****     // Reading RTCDATE register
 194:rhea\drivers\MCP7940N/MCP7940N.c ****     uint8_t registerValue = MCP7940N_RegistersLocal.RTCDATE;
 402              		.loc 1 194 0
 403 0000 054B     		ldr	r3, .L34
 404 0002 1B7D     		ldrb	r3, [r3, #20]	@ zero_extendqisi2
 405              	.LVL39:
 195:rhea\drivers\MCP7940N/MCP7940N.c ****     
 196:rhea\drivers\MCP7940N/MCP7940N.c ****     // Decoding BCD
 197:rhea\drivers\MCP7940N/MCP7940N.c ****     uint8_t ones = registerValue & MCP7940N_RTCDATE_DATEONE;
 406              		.loc 1 197 0
 407 0004 03F00F00 		and	r0, r3, #15
 408              	.LVL40:
 198:rhea\drivers\MCP7940N/MCP7940N.c ****     uint8_t tens = registerValue & MCP7940N_RTCDATE_DATETEN;
 199:rhea\drivers\MCP7940N/MCP7940N.c ****     tens = tens >> 4;
 409              		.loc 1 199 0
 410 0008 C3F30113 		ubfx	r3, r3, #4, #2
 411              	.LVL41:
 200:rhea\drivers\MCP7940N/MCP7940N.c ****     
 201:rhea\drivers\MCP7940N/MCP7940N.c ****     // Returning result
 202:rhea\drivers\MCP7940N/MCP7940N.c ****     return tens * 10 + ones;
 412              		.loc 1 202 0
 413 000c 03EB8303 		add	r3, r3, r3, lsl #2
 414              	.LVL42:
 415 0010 5A00     		lsls	r2, r3, #1
 416 0012 1044     		add	r0, r0, r2
 417              	.LVL43:
 203:rhea\drivers\MCP7940N/MCP7940N.c **** }
 418              		.loc 1 203 0
 419 0014 C0B2     		uxtb	r0, r0
 420 0016 7047     		bx	lr
ARM GAS  C:\Users\GYULAI~1\AppData\Local\Temp\ccG7iLma.s 			page 12


 421              	.L35:
 422              		.align	2
 423              	.L34:
 424 0018 00000000 		.word	.LANCHOR0
 425              		.cfi_endproc
 426              	.LFE10:
 427              		.size	MCP7940N_GetDate, .-MCP7940N_GetDate
 428              		.section	.text.MCP7940N_GetWeekday,"ax",%progbits
 429              		.align	2
 430              		.global	MCP7940N_GetWeekday
 431              		.thumb
 432              		.thumb_func
 433              		.type	MCP7940N_GetWeekday, %function
 434              	MCP7940N_GetWeekday:
 435              	.LFB11:
 204:rhea\drivers\MCP7940N/MCP7940N.c **** 
 205:rhea\drivers\MCP7940N/MCP7940N.c **** uint8_t MCP7940N_GetWeekday(void) {
 436              		.loc 1 205 0
 437              		.cfi_startproc
 438              		@ args = 0, pretend = 0, frame = 0
 439              		@ frame_needed = 0, uses_anonymous_args = 0
 440              		@ link register save eliminated.
 206:rhea\drivers\MCP7940N/MCP7940N.c ****     
 207:rhea\drivers\MCP7940N/MCP7940N.c ****     // Reading RTCWKDAY register
 208:rhea\drivers\MCP7940N/MCP7940N.c ****     uint8_t registerValue = MCP7940N_RegistersLocal.RTCWKDAY;
 441              		.loc 1 208 0
 442 0000 024B     		ldr	r3, .L37
 443 0002 D87C     		ldrb	r0, [r3, #19]	@ zero_extendqisi2
 444              	.LVL44:
 209:rhea\drivers\MCP7940N/MCP7940N.c ****     
 210:rhea\drivers\MCP7940N/MCP7940N.c ****     // Returning result
 211:rhea\drivers\MCP7940N/MCP7940N.c ****     return registerValue & MCP7940N_RTCWKDAY_WKDAY;
 212:rhea\drivers\MCP7940N/MCP7940N.c **** }
 445              		.loc 1 212 0
 446 0004 00F00700 		and	r0, r0, #7
 447              	.LVL45:
 448 0008 7047     		bx	lr
 449              	.L38:
 450 000a 00BF     		.align	2
 451              	.L37:
 452 000c 00000000 		.word	.LANCHOR0
 453              		.cfi_endproc
 454              	.LFE11:
 455              		.size	MCP7940N_GetWeekday, .-MCP7940N_GetWeekday
 456              		.section	.text.MCP7940N_GetMonths,"ax",%progbits
 457              		.align	2
 458              		.global	MCP7940N_GetMonths
 459              		.thumb
 460              		.thumb_func
 461              		.type	MCP7940N_GetMonths, %function
 462              	MCP7940N_GetMonths:
 463              	.LFB12:
 213:rhea\drivers\MCP7940N/MCP7940N.c **** 
 214:rhea\drivers\MCP7940N/MCP7940N.c **** uint8_t MCP7940N_GetMonths(void) {
 464              		.loc 1 214 0
 465              		.cfi_startproc
 466              		@ args = 0, pretend = 0, frame = 0
ARM GAS  C:\Users\GYULAI~1\AppData\Local\Temp\ccG7iLma.s 			page 13


 467              		@ frame_needed = 0, uses_anonymous_args = 0
 468              		@ link register save eliminated.
 215:rhea\drivers\MCP7940N/MCP7940N.c ****     
 216:rhea\drivers\MCP7940N/MCP7940N.c ****     // Reading RTCMTH register
 217:rhea\drivers\MCP7940N/MCP7940N.c ****     uint8_t registerValue = MCP7940N_RegistersLocal.RTCMTH;
 469              		.loc 1 217 0
 470 0000 054B     		ldr	r3, .L40
 471 0002 5B7D     		ldrb	r3, [r3, #21]	@ zero_extendqisi2
 472              	.LVL46:
 218:rhea\drivers\MCP7940N/MCP7940N.c ****     
 219:rhea\drivers\MCP7940N/MCP7940N.c ****     // Decoding BCD
 220:rhea\drivers\MCP7940N/MCP7940N.c ****     uint8_t ones = registerValue & MCP7940N_RTCMTH_MTHONE;
 473              		.loc 1 220 0
 474 0004 03F00F00 		and	r0, r3, #15
 475              	.LVL47:
 221:rhea\drivers\MCP7940N/MCP7940N.c ****     uint8_t tens = registerValue & MCP7940N_RTCMTH_MTHTEN;
 222:rhea\drivers\MCP7940N/MCP7940N.c ****     tens = tens >> 4;
 476              		.loc 1 222 0
 477 0008 C3F30013 		ubfx	r3, r3, #4, #1
 478              	.LVL48:
 223:rhea\drivers\MCP7940N/MCP7940N.c ****     
 224:rhea\drivers\MCP7940N/MCP7940N.c ****     // Returning result
 225:rhea\drivers\MCP7940N/MCP7940N.c ****     return tens * 10 + ones;
 479              		.loc 1 225 0
 480 000c 9900     		lsls	r1, r3, #2
 481 000e 0B44     		add	r3, r3, r1
 482              	.LVL49:
 483 0010 5A00     		lsls	r2, r3, #1
 484 0012 1044     		add	r0, r0, r2
 485              	.LVL50:
 226:rhea\drivers\MCP7940N/MCP7940N.c **** }
 486              		.loc 1 226 0
 487 0014 C0B2     		uxtb	r0, r0
 488 0016 7047     		bx	lr
 489              	.L41:
 490              		.align	2
 491              	.L40:
 492 0018 00000000 		.word	.LANCHOR0
 493              		.cfi_endproc
 494              	.LFE12:
 495              		.size	MCP7940N_GetMonths, .-MCP7940N_GetMonths
 496              		.section	.text.MCP7940N_GetYears,"ax",%progbits
 497              		.align	2
 498              		.global	MCP7940N_GetYears
 499              		.thumb
 500              		.thumb_func
 501              		.type	MCP7940N_GetYears, %function
 502              	MCP7940N_GetYears:
 503              	.LFB13:
 227:rhea\drivers\MCP7940N/MCP7940N.c **** 
 228:rhea\drivers\MCP7940N/MCP7940N.c **** uint16_t MCP7940N_GetYears(void) {
 504              		.loc 1 228 0
 505              		.cfi_startproc
 506              		@ args = 0, pretend = 0, frame = 0
 507              		@ frame_needed = 0, uses_anonymous_args = 0
 508              		@ link register save eliminated.
 229:rhea\drivers\MCP7940N/MCP7940N.c ****     
ARM GAS  C:\Users\GYULAI~1\AppData\Local\Temp\ccG7iLma.s 			page 14


 230:rhea\drivers\MCP7940N/MCP7940N.c ****     // Reading RTCYEAR register
 231:rhea\drivers\MCP7940N/MCP7940N.c ****     uint8_t registerValue = MCP7940N_RegistersLocal.RTCYEAR;
 509              		.loc 1 231 0
 510 0000 064B     		ldr	r3, .L43
 511 0002 9B7D     		ldrb	r3, [r3, #22]	@ zero_extendqisi2
 512              	.LVL51:
 232:rhea\drivers\MCP7940N/MCP7940N.c ****     
 233:rhea\drivers\MCP7940N/MCP7940N.c ****     // Decoding BCD
 234:rhea\drivers\MCP7940N/MCP7940N.c ****     uint8_t ones = registerValue & MCP7940N_RTCYEAR_YRONE;
 513              		.loc 1 234 0
 514 0004 03F00F02 		and	r2, r3, #15
 515              	.LVL52:
 235:rhea\drivers\MCP7940N/MCP7940N.c ****     uint8_t tens = registerValue & MCP7940N_RTCYEAR_YRTEN;
 236:rhea\drivers\MCP7940N/MCP7940N.c ****     tens = tens >> 4;
 237:rhea\drivers\MCP7940N/MCP7940N.c ****     
 238:rhea\drivers\MCP7940N/MCP7940N.c ****     // Returning result
 239:rhea\drivers\MCP7940N/MCP7940N.c ****     return 2000 + tens * 10 + ones;
 516              		.loc 1 239 0
 517 0008 1B09     		lsrs	r3, r3, #4
 518              	.LVL53:
 519 000a 03EB8303 		add	r3, r3, r3, lsl #2
 520 000e 5800     		lsls	r0, r3, #1
 521 0010 1044     		add	r0, r0, r2
 522 0012 00F5FA60 		add	r0, r0, #2000
 240:rhea\drivers\MCP7940N/MCP7940N.c **** }
 523              		.loc 1 240 0
 524 0016 80B2     		uxth	r0, r0
 525 0018 7047     		bx	lr
 526              	.L44:
 527 001a 00BF     		.align	2
 528              	.L43:
 529 001c 00000000 		.word	.LANCHOR0
 530              		.cfi_endproc
 531              	.LFE13:
 532              		.size	MCP7940N_GetYears, .-MCP7940N_GetYears
 533              		.section	.text.MCP7940N_GetDatetime,"ax",%progbits
 534              		.align	2
 535              		.global	MCP7940N_GetDatetime
 536              		.thumb
 537              		.thumb_func
 538              		.type	MCP7940N_GetDatetime, %function
 539              	MCP7940N_GetDatetime:
 540              	.LFB6:
 128:rhea\drivers\MCP7940N/MCP7940N.c ****     
 541              		.loc 1 128 0
 542              		.cfi_startproc
 543              		@ args = 0, pretend = 0, frame = 0
 544              		@ frame_needed = 0, uses_anonymous_args = 0
 545              	.LVL54:
 546 0000 10B5     		push	{r4, lr}
 547              		.cfi_def_cfa_offset 8
 548              		.cfi_offset 4, -8
 549              		.cfi_offset 14, -4
 550 0002 0446     		mov	r4, r0
 131:rhea\drivers\MCP7940N/MCP7940N.c ****                        MCP7940N_RTCYEAR - MCP7940N_RTCSEC + 1);
 551              		.loc 1 131 0
 552 0004 0723     		movs	r3, #7
ARM GAS  C:\Users\GYULAI~1\AppData\Local\Temp\ccG7iLma.s 			page 15


 553 0006 0E4A     		ldr	r2, .L47
 554 0008 0021     		movs	r1, #0
 555 000a DE20     		movs	r0, #222
 556              	.LVL55:
 557 000c FFF7FEFF 		bl	MCP7940N_I2CReader
 558              	.LVL56:
 138:rhea\drivers\MCP7940N/MCP7940N.c ****     result.month = MCP7940N_GetMonths();
 559              		.loc 1 138 0
 560 0010 FFF7FEFF 		bl	MCP7940N_GetYears
 561              	.LVL57:
 562 0014 2080     		strh	r0, [r4]	@ movhi
 139:rhea\drivers\MCP7940N/MCP7940N.c ****     result.date = MCP7940N_GetDate();
 563              		.loc 1 139 0
 564 0016 FFF7FEFF 		bl	MCP7940N_GetMonths
 565              	.LVL58:
 566 001a A070     		strb	r0, [r4, #2]
 140:rhea\drivers\MCP7940N/MCP7940N.c ****     result.weekday = MCP7940N_GetWeekday();
 567              		.loc 1 140 0
 568 001c FFF7FEFF 		bl	MCP7940N_GetDate
 569              	.LVL59:
 570 0020 E070     		strb	r0, [r4, #3]
 141:rhea\drivers\MCP7940N/MCP7940N.c ****     result.hour = MCP7940N_GetHours();
 571              		.loc 1 141 0
 572 0022 FFF7FEFF 		bl	MCP7940N_GetWeekday
 573              	.LVL60:
 574 0026 2071     		strb	r0, [r4, #4]
 142:rhea\drivers\MCP7940N/MCP7940N.c ****     result.minute = MCP7940N_GetMinutes();
 575              		.loc 1 142 0
 576 0028 FFF7FEFF 		bl	MCP7940N_GetHours
 577              	.LVL61:
 578 002c 6071     		strb	r0, [r4, #5]
 143:rhea\drivers\MCP7940N/MCP7940N.c ****     result.second = MCP7940N_GetSeconds();
 579              		.loc 1 143 0
 580 002e FFF7FEFF 		bl	MCP7940N_GetMinutes
 581              	.LVL62:
 582 0032 A071     		strb	r0, [r4, #6]
 144:rhea\drivers\MCP7940N/MCP7940N.c ****     
 583              		.loc 1 144 0
 584 0034 FFF7FEFF 		bl	MCP7940N_GetSeconds
 585              	.LVL63:
 586 0038 E071     		strb	r0, [r4, #7]
 147:rhea\drivers\MCP7940N/MCP7940N.c **** 
 587              		.loc 1 147 0
 588 003a 2046     		mov	r0, r4
 589 003c 10BD     		pop	{r4, pc}
 590              	.LVL64:
 591              	.L48:
 592 003e 00BF     		.align	2
 593              	.L47:
 594 0040 10000000 		.word	.LANCHOR0+16
 595              		.cfi_endproc
 596              	.LFE6:
 597              		.size	MCP7940N_GetDatetime, .-MCP7940N_GetDatetime
 598              		.section	.text.MCP7940N_SetSeconds,"ax",%progbits
 599              		.align	2
 600              		.global	MCP7940N_SetSeconds
 601              		.thumb
ARM GAS  C:\Users\GYULAI~1\AppData\Local\Temp\ccG7iLma.s 			page 16


 602              		.thumb_func
 603              		.type	MCP7940N_SetSeconds, %function
 604              	MCP7940N_SetSeconds:
 605              	.LFB15:
 241:rhea\drivers\MCP7940N/MCP7940N.c **** 
 242:rhea\drivers\MCP7940N/MCP7940N.c **** void MCP7940N_SetDatetime(MCP7940N_Datetime datetime) {
 243:rhea\drivers\MCP7940N/MCP7940N.c ****     
 244:rhea\drivers\MCP7940N/MCP7940N.c ****     // Oscillator status
 245:rhea\drivers\MCP7940N/MCP7940N.c ****     uint8_t externalStatus = MCP7940N_IsExternalOscillatorEnabled();
 246:rhea\drivers\MCP7940N/MCP7940N.c ****     uint8_t internalStatus = MCP7940N_IsOscillatorEnabled();
 247:rhea\drivers\MCP7940N/MCP7940N.c ****     
 248:rhea\drivers\MCP7940N/MCP7940N.c ****     // Disabling oscillator sources
 249:rhea\drivers\MCP7940N/MCP7940N.c ****     if(externalStatus)      MCP7940N_DisableExternalOscillator();
 250:rhea\drivers\MCP7940N/MCP7940N.c ****     else if(internalStatus) MCP7940N_DisableOscillator();
 251:rhea\drivers\MCP7940N/MCP7940N.c ****     
 252:rhea\drivers\MCP7940N/MCP7940N.c ****     // Waiting for oscillator to stop
 253:rhea\drivers\MCP7940N/MCP7940N.c ****     while(MCP7940N_IsOscillatorRunning());
 254:rhea\drivers\MCP7940N/MCP7940N.c ****     
 255:rhea\drivers\MCP7940N/MCP7940N.c ****     // Reading current datetime and configuration
 256:rhea\drivers\MCP7940N/MCP7940N.c ****     MCP7940N_I2CReader(MCP7940N_I2C_ADDR, MCP7940N_RTCSEC, (uint8_t*) &MCP7940N_RegistersLocal.RTCS
 257:rhea\drivers\MCP7940N/MCP7940N.c ****                        MCP7940N_RTCYEAR - MCP7940N_RTCSEC + 1);
 258:rhea\drivers\MCP7940N/MCP7940N.c ****     
 259:rhea\drivers\MCP7940N/MCP7940N.c ****     // Writing new datetime to local registers
 260:rhea\drivers\MCP7940N/MCP7940N.c ****     MCP7940N_SetYears(datetime.year);
 261:rhea\drivers\MCP7940N/MCP7940N.c ****     MCP7940N_SetMonths(datetime.month);
 262:rhea\drivers\MCP7940N/MCP7940N.c ****     MCP7940N_SetDate(datetime.date);
 263:rhea\drivers\MCP7940N/MCP7940N.c ****     MCP7940N_SetWeekday(datetime.weekday);
 264:rhea\drivers\MCP7940N/MCP7940N.c ****     MCP7940N_SetHours(datetime.hour);
 265:rhea\drivers\MCP7940N/MCP7940N.c ****     MCP7940N_SetMinutes(datetime.minute);
 266:rhea\drivers\MCP7940N/MCP7940N.c ****     MCP7940N_SetSeconds(datetime.second);
 267:rhea\drivers\MCP7940N/MCP7940N.c ****     
 268:rhea\drivers\MCP7940N/MCP7940N.c ****     // Updating timekeeping registers of the MCP7940N from the local copy
 269:rhea\drivers\MCP7940N/MCP7940N.c ****     MCP7940N_I2CWriter(MCP7940N_I2C_ADDR, MCP7940N_RTCSEC, (uint8_t*) &MCP7940N_RegistersLocal.RTCS
 270:rhea\drivers\MCP7940N/MCP7940N.c ****                        MCP7940N_RTCYEAR - MCP7940N_RTCSEC + 1);
 271:rhea\drivers\MCP7940N/MCP7940N.c **** 
 272:rhea\drivers\MCP7940N/MCP7940N.c ****     // Enabling oscillator sources
 273:rhea\drivers\MCP7940N/MCP7940N.c ****     if(externalStatus)      MCP7940N_EnableExternalOscillator();
 274:rhea\drivers\MCP7940N/MCP7940N.c ****     else if(internalStatus) MCP7940N_EnableOscillator();
 275:rhea\drivers\MCP7940N/MCP7940N.c **** }
 276:rhea\drivers\MCP7940N/MCP7940N.c **** 
 277:rhea\drivers\MCP7940N/MCP7940N.c **** void MCP7940N_SetSeconds(uint8_t seconds) {
 606              		.loc 1 277 0
 607              		.cfi_startproc
 608              		@ args = 0, pretend = 0, frame = 0
 609              		@ frame_needed = 0, uses_anonymous_args = 0
 610              		@ link register save eliminated.
 611              	.LVL65:
 278:rhea\drivers\MCP7940N/MCP7940N.c ****     
 279:rhea\drivers\MCP7940N/MCP7940N.c ****     // Encoding BCD
 280:rhea\drivers\MCP7940N/MCP7940N.c ****     uint8_t ones = seconds % 10;
 612              		.loc 1 280 0
 613 0000 094B     		ldr	r3, .L50
 614 0002 A3FB0023 		umull	r2, r3, r3, r0
 615 0006 DB08     		lsrs	r3, r3, #3
 616 0008 03EB8302 		add	r2, r3, r3, lsl #2
 617 000c A0EB4200 		sub	r0, r0, r2, lsl #1
 618              	.LVL66:
ARM GAS  C:\Users\GYULAI~1\AppData\Local\Temp\ccG7iLma.s 			page 17


 619 0010 C0B2     		uxtb	r0, r0
 620              	.LVL67:
 281:rhea\drivers\MCP7940N/MCP7940N.c ****     uint8_t tens = seconds / 10;
 282:rhea\drivers\MCP7940N/MCP7940N.c ****     uint8_t registerValue = ones | tens << 4 ;
 621              		.loc 1 282 0
 622 0012 40EA0310 		orr	r0, r0, r3, lsl #4
 623              	.LVL68:
 624 0016 C0B2     		uxtb	r0, r0
 625              	.LVL69:
 283:rhea\drivers\MCP7940N/MCP7940N.c ****     
 284:rhea\drivers\MCP7940N/MCP7940N.c ****     // Clearing seconds bits of RTCSEC register
 285:rhea\drivers\MCP7940N/MCP7940N.c ****     MCP7940N_RegistersLocal.RTCSEC &= ~(MCP7940N_RTCSEC_SECONE | MCP7940N_RTCSEC_SECTEN);
 626              		.loc 1 285 0
 627 0018 044A     		ldr	r2, .L50+4
 628 001a 137C     		ldrb	r3, [r2, #16]	@ zero_extendqisi2
 629              	.LVL70:
 630 001c 03F08003 		and	r3, r3, #128
 286:rhea\drivers\MCP7940N/MCP7940N.c ****     
 287:rhea\drivers\MCP7940N/MCP7940N.c ****     // Writing seconds bits of RTCSEC register
 288:rhea\drivers\MCP7940N/MCP7940N.c ****     MCP7940N_RegistersLocal.RTCSEC |= registerValue;
 631              		.loc 1 288 0
 632 0020 1843     		orrs	r0, r0, r3
 633              	.LVL71:
 634 0022 1074     		strb	r0, [r2, #16]
 635 0024 7047     		bx	lr
 636              	.L51:
 637 0026 00BF     		.align	2
 638              	.L50:
 639 0028 CDCCCCCC 		.word	-858993459
 640 002c 00000000 		.word	.LANCHOR0
 641              		.cfi_endproc
 642              	.LFE15:
 643              		.size	MCP7940N_SetSeconds, .-MCP7940N_SetSeconds
 644              		.section	.text.MCP7940N_SetMinutes,"ax",%progbits
 645              		.align	2
 646              		.global	MCP7940N_SetMinutes
 647              		.thumb
 648              		.thumb_func
 649              		.type	MCP7940N_SetMinutes, %function
 650              	MCP7940N_SetMinutes:
 651              	.LFB16:
 289:rhea\drivers\MCP7940N/MCP7940N.c **** }
 290:rhea\drivers\MCP7940N/MCP7940N.c **** 
 291:rhea\drivers\MCP7940N/MCP7940N.c **** void MCP7940N_SetMinutes(uint8_t minutes) {
 652              		.loc 1 291 0
 653              		.cfi_startproc
 654              		@ args = 0, pretend = 0, frame = 0
 655              		@ frame_needed = 0, uses_anonymous_args = 0
 656              		@ link register save eliminated.
 657              	.LVL72:
 292:rhea\drivers\MCP7940N/MCP7940N.c ****     
 293:rhea\drivers\MCP7940N/MCP7940N.c ****     // Encoding BCD
 294:rhea\drivers\MCP7940N/MCP7940N.c ****     uint8_t ones = minutes % 10;
 658              		.loc 1 294 0
 659 0000 064B     		ldr	r3, .L53
 660 0002 A3FB0023 		umull	r2, r3, r3, r0
 661 0006 DB08     		lsrs	r3, r3, #3
ARM GAS  C:\Users\GYULAI~1\AppData\Local\Temp\ccG7iLma.s 			page 18


 662 0008 03EB8301 		add	r1, r3, r3, lsl #2
 663 000c 4A00     		lsls	r2, r1, #1
 664 000e 801A     		subs	r0, r0, r2
 665              	.LVL73:
 666 0010 C0B2     		uxtb	r0, r0
 667              	.LVL74:
 295:rhea\drivers\MCP7940N/MCP7940N.c ****     uint8_t tens = minutes / 10;
 296:rhea\drivers\MCP7940N/MCP7940N.c ****     uint8_t registerValue = ones | tens << 4;
 668              		.loc 1 296 0
 669 0012 40EA0310 		orr	r0, r0, r3, lsl #4
 670              	.LVL75:
 297:rhea\drivers\MCP7940N/MCP7940N.c ****     
 298:rhea\drivers\MCP7940N/MCP7940N.c ****     // Writing RTCMIN register
 299:rhea\drivers\MCP7940N/MCP7940N.c ****     MCP7940N_RegistersLocal.RTCMIN = registerValue;
 671              		.loc 1 299 0
 672 0016 024B     		ldr	r3, .L53+4
 673              	.LVL76:
 674 0018 5874     		strb	r0, [r3, #17]
 675 001a 7047     		bx	lr
 676              	.L54:
 677              		.align	2
 678              	.L53:
 679 001c CDCCCCCC 		.word	-858993459
 680 0020 00000000 		.word	.LANCHOR0
 681              		.cfi_endproc
 682              	.LFE16:
 683              		.size	MCP7940N_SetMinutes, .-MCP7940N_SetMinutes
 684              		.section	.text.MCP7940N_SetHours,"ax",%progbits
 685              		.align	2
 686              		.global	MCP7940N_SetHours
 687              		.thumb
 688              		.thumb_func
 689              		.type	MCP7940N_SetHours, %function
 690              	MCP7940N_SetHours:
 691              	.LFB17:
 300:rhea\drivers\MCP7940N/MCP7940N.c **** }
 301:rhea\drivers\MCP7940N/MCP7940N.c **** 
 302:rhea\drivers\MCP7940N/MCP7940N.c **** void MCP7940N_SetHours(uint8_t hours) {
 692              		.loc 1 302 0
 693              		.cfi_startproc
 694              		@ args = 0, pretend = 0, frame = 0
 695              		@ frame_needed = 0, uses_anonymous_args = 0
 696              		@ link register save eliminated.
 697              	.LVL77:
 303:rhea\drivers\MCP7940N/MCP7940N.c ****     
 304:rhea\drivers\MCP7940N/MCP7940N.c ****     // Encoding BCD
 305:rhea\drivers\MCP7940N/MCP7940N.c ****     uint8_t ones = hours % 10;
 698              		.loc 1 305 0
 699 0000 094B     		ldr	r3, .L56
 700 0002 A3FB0023 		umull	r2, r3, r3, r0
 701 0006 DB08     		lsrs	r3, r3, #3
 702 0008 03EB8302 		add	r2, r3, r3, lsl #2
 703 000c A0EB4200 		sub	r0, r0, r2, lsl #1
 704              	.LVL78:
 705 0010 C0B2     		uxtb	r0, r0
 706              	.LVL79:
 306:rhea\drivers\MCP7940N/MCP7940N.c ****     uint8_t tens = hours / 10;
ARM GAS  C:\Users\GYULAI~1\AppData\Local\Temp\ccG7iLma.s 			page 19


 307:rhea\drivers\MCP7940N/MCP7940N.c ****     uint8_t registerValue = ones | tens << 4;
 707              		.loc 1 307 0
 708 0012 40EA0310 		orr	r0, r0, r3, lsl #4
 709              	.LVL80:
 710 0016 C0B2     		uxtb	r0, r0
 711              	.LVL81:
 308:rhea\drivers\MCP7940N/MCP7940N.c ****     
 309:rhea\drivers\MCP7940N/MCP7940N.c ****     // Clearing hour bits of RTCHOUR register
 310:rhea\drivers\MCP7940N/MCP7940N.c ****     MCP7940N_RegistersLocal.RTCHOUR &= ~(MCP7940N_RTCHOUR_HRONE | MCP7940N_RTCHOUR_HRTEN);
 712              		.loc 1 310 0
 713 0018 044A     		ldr	r2, .L56+4
 714 001a 937C     		ldrb	r3, [r2, #18]	@ zero_extendqisi2
 715              	.LVL82:
 716 001c 03F0C003 		and	r3, r3, #192
 311:rhea\drivers\MCP7940N/MCP7940N.c ****                                             
 312:rhea\drivers\MCP7940N/MCP7940N.c ****     // Writing hour bits of RTCHOUR register
 313:rhea\drivers\MCP7940N/MCP7940N.c ****     MCP7940N_RegistersLocal.RTCHOUR |= registerValue;
 717              		.loc 1 313 0
 718 0020 1843     		orrs	r0, r0, r3
 719              	.LVL83:
 720 0022 9074     		strb	r0, [r2, #18]
 721 0024 7047     		bx	lr
 722              	.L57:
 723 0026 00BF     		.align	2
 724              	.L56:
 725 0028 CDCCCCCC 		.word	-858993459
 726 002c 00000000 		.word	.LANCHOR0
 727              		.cfi_endproc
 728              	.LFE17:
 729              		.size	MCP7940N_SetHours, .-MCP7940N_SetHours
 730              		.section	.text.MCP7940N_SetDate,"ax",%progbits
 731              		.align	2
 732              		.global	MCP7940N_SetDate
 733              		.thumb
 734              		.thumb_func
 735              		.type	MCP7940N_SetDate, %function
 736              	MCP7940N_SetDate:
 737              	.LFB18:
 314:rhea\drivers\MCP7940N/MCP7940N.c **** }
 315:rhea\drivers\MCP7940N/MCP7940N.c **** 
 316:rhea\drivers\MCP7940N/MCP7940N.c **** void MCP7940N_SetDate(uint16_t date) {
 738              		.loc 1 316 0
 739              		.cfi_startproc
 740              		@ args = 0, pretend = 0, frame = 0
 741              		@ frame_needed = 0, uses_anonymous_args = 0
 742              		@ link register save eliminated.
 743              	.LVL84:
 317:rhea\drivers\MCP7940N/MCP7940N.c ****     
 318:rhea\drivers\MCP7940N/MCP7940N.c ****     // Encoding BCD
 319:rhea\drivers\MCP7940N/MCP7940N.c ****     uint8_t ones = date % 10;
 744              		.loc 1 319 0
 745 0000 074B     		ldr	r3, .L59
 746 0002 A3FB0023 		umull	r2, r3, r3, r0
 747 0006 DB08     		lsrs	r3, r3, #3
 748 0008 03EB8301 		add	r1, r3, r3, lsl #2
 749 000c 4A00     		lsls	r2, r1, #1
 750 000e 801A     		subs	r0, r0, r2
ARM GAS  C:\Users\GYULAI~1\AppData\Local\Temp\ccG7iLma.s 			page 20


 751              	.LVL85:
 752 0010 80B2     		uxth	r0, r0
 753              	.LVL86:
 320:rhea\drivers\MCP7940N/MCP7940N.c ****     uint8_t tens = date / 10;
 754              		.loc 1 320 0
 755 0012 DBB2     		uxtb	r3, r3
 756              	.LVL87:
 321:rhea\drivers\MCP7940N/MCP7940N.c ****     uint8_t registerValue = ones | tens << 4;
 757              		.loc 1 321 0
 758 0014 40EA0313 		orr	r3, r0, r3, lsl #4
 759              	.LVL88:
 322:rhea\drivers\MCP7940N/MCP7940N.c ****     
 323:rhea\drivers\MCP7940N/MCP7940N.c ****     // Writing RTCDATE register
 324:rhea\drivers\MCP7940N/MCP7940N.c ****     MCP7940N_RegistersLocal.RTCDATE = registerValue;
 760              		.loc 1 324 0
 761 0018 024A     		ldr	r2, .L59+4
 762 001a 1375     		strb	r3, [r2, #20]
 763 001c 7047     		bx	lr
 764              	.L60:
 765 001e 00BF     		.align	2
 766              	.L59:
 767 0020 CDCCCCCC 		.word	-858993459
 768 0024 00000000 		.word	.LANCHOR0
 769              		.cfi_endproc
 770              	.LFE18:
 771              		.size	MCP7940N_SetDate, .-MCP7940N_SetDate
 772              		.section	.text.MCP7940N_SetWeekday,"ax",%progbits
 773              		.align	2
 774              		.global	MCP7940N_SetWeekday
 775              		.thumb
 776              		.thumb_func
 777              		.type	MCP7940N_SetWeekday, %function
 778              	MCP7940N_SetWeekday:
 779              	.LFB19:
 325:rhea\drivers\MCP7940N/MCP7940N.c **** }
 326:rhea\drivers\MCP7940N/MCP7940N.c **** 
 327:rhea\drivers\MCP7940N/MCP7940N.c **** void MCP7940N_SetWeekday(uint8_t weekday) {
 780              		.loc 1 327 0
 781              		.cfi_startproc
 782              		@ args = 0, pretend = 0, frame = 0
 783              		@ frame_needed = 0, uses_anonymous_args = 0
 784              		@ link register save eliminated.
 785              	.LVL89:
 328:rhea\drivers\MCP7940N/MCP7940N.c ****     
 329:rhea\drivers\MCP7940N/MCP7940N.c ****     // Clearing weekday bits of RTCWKDAY register
 330:rhea\drivers\MCP7940N/MCP7940N.c ****     MCP7940N_RegistersLocal.RTCWKDAY &= ~MCP7940N_RTCWKDAY_WKDAY;
 786              		.loc 1 330 0
 787 0000 034A     		ldr	r2, .L62
 788 0002 D37C     		ldrb	r3, [r2, #19]	@ zero_extendqisi2
 789 0004 03F0F803 		and	r3, r3, #248
 331:rhea\drivers\MCP7940N/MCP7940N.c ****     
 332:rhea\drivers\MCP7940N/MCP7940N.c ****     // Writing weekday bits of RTCWKDAY register
 333:rhea\drivers\MCP7940N/MCP7940N.c ****     MCP7940N_RegistersLocal.RTCWKDAY |= weekday;
 790              		.loc 1 333 0
 791 0008 1843     		orrs	r0, r0, r3
 792              	.LVL90:
 793 000a D074     		strb	r0, [r2, #19]
ARM GAS  C:\Users\GYULAI~1\AppData\Local\Temp\ccG7iLma.s 			page 21


 794 000c 7047     		bx	lr
 795              	.L63:
 796 000e 00BF     		.align	2
 797              	.L62:
 798 0010 00000000 		.word	.LANCHOR0
 799              		.cfi_endproc
 800              	.LFE19:
 801              		.size	MCP7940N_SetWeekday, .-MCP7940N_SetWeekday
 802              		.section	.text.MCP7940N_SetMonths,"ax",%progbits
 803              		.align	2
 804              		.global	MCP7940N_SetMonths
 805              		.thumb
 806              		.thumb_func
 807              		.type	MCP7940N_SetMonths, %function
 808              	MCP7940N_SetMonths:
 809              	.LFB20:
 334:rhea\drivers\MCP7940N/MCP7940N.c **** }
 335:rhea\drivers\MCP7940N/MCP7940N.c **** 
 336:rhea\drivers\MCP7940N/MCP7940N.c **** void MCP7940N_SetMonths(uint8_t months) {
 810              		.loc 1 336 0
 811              		.cfi_startproc
 812              		@ args = 0, pretend = 0, frame = 0
 813              		@ frame_needed = 0, uses_anonymous_args = 0
 814              		@ link register save eliminated.
 815              	.LVL91:
 337:rhea\drivers\MCP7940N/MCP7940N.c ****     
 338:rhea\drivers\MCP7940N/MCP7940N.c ****     // Encoding BCD
 339:rhea\drivers\MCP7940N/MCP7940N.c ****     uint8_t ones = months % 10;
 816              		.loc 1 339 0
 817 0000 064B     		ldr	r3, .L65
 818 0002 A3FB0023 		umull	r2, r3, r3, r0
 819 0006 DB08     		lsrs	r3, r3, #3
 820 0008 03EB8301 		add	r1, r3, r3, lsl #2
 821 000c 4A00     		lsls	r2, r1, #1
 822 000e 801A     		subs	r0, r0, r2
 823              	.LVL92:
 824 0010 C0B2     		uxtb	r0, r0
 825              	.LVL93:
 340:rhea\drivers\MCP7940N/MCP7940N.c ****     uint8_t tens = months / 10;
 341:rhea\drivers\MCP7940N/MCP7940N.c ****     uint8_t registerValue = ones | tens << 4;
 826              		.loc 1 341 0
 827 0012 40EA0310 		orr	r0, r0, r3, lsl #4
 828              	.LVL94:
 342:rhea\drivers\MCP7940N/MCP7940N.c ****     
 343:rhea\drivers\MCP7940N/MCP7940N.c ****     // Writing RTCMTH register
 344:rhea\drivers\MCP7940N/MCP7940N.c ****     MCP7940N_RegistersLocal.RTCMTH = registerValue;
 829              		.loc 1 344 0
 830 0016 024B     		ldr	r3, .L65+4
 831              	.LVL95:
 832 0018 5875     		strb	r0, [r3, #21]
 833 001a 7047     		bx	lr
 834              	.L66:
 835              		.align	2
 836              	.L65:
 837 001c CDCCCCCC 		.word	-858993459
 838 0020 00000000 		.word	.LANCHOR0
 839              		.cfi_endproc
ARM GAS  C:\Users\GYULAI~1\AppData\Local\Temp\ccG7iLma.s 			page 22


 840              	.LFE20:
 841              		.size	MCP7940N_SetMonths, .-MCP7940N_SetMonths
 842              		.section	.text.MCP7940N_SetYears,"ax",%progbits
 843              		.align	2
 844              		.global	MCP7940N_SetYears
 845              		.thumb
 846              		.thumb_func
 847              		.type	MCP7940N_SetYears, %function
 848              	MCP7940N_SetYears:
 849              	.LFB21:
 345:rhea\drivers\MCP7940N/MCP7940N.c **** }
 346:rhea\drivers\MCP7940N/MCP7940N.c **** 
 347:rhea\drivers\MCP7940N/MCP7940N.c **** void MCP7940N_SetYears(uint16_t years) {
 850              		.loc 1 347 0
 851              		.cfi_startproc
 852              		@ args = 0, pretend = 0, frame = 0
 853              		@ frame_needed = 0, uses_anonymous_args = 0
 854              		@ link register save eliminated.
 855              	.LVL96:
 348:rhea\drivers\MCP7940N/MCP7940N.c ****     
 349:rhea\drivers\MCP7940N/MCP7940N.c ****     // Encoding BCD
 350:rhea\drivers\MCP7940N/MCP7940N.c ****     years = years - 2000;
 856              		.loc 1 350 0
 857 0000 A0F5FA60 		sub	r0, r0, #2000
 858              	.LVL97:
 859 0004 80B2     		uxth	r0, r0
 860              	.LVL98:
 351:rhea\drivers\MCP7940N/MCP7940N.c ****     uint8_t ones = years % 10;
 861              		.loc 1 351 0
 862 0006 074B     		ldr	r3, .L68
 863 0008 A3FB0023 		umull	r2, r3, r3, r0
 864 000c DB08     		lsrs	r3, r3, #3
 865 000e 03EB8301 		add	r1, r3, r3, lsl #2
 866 0012 4A00     		lsls	r2, r1, #1
 867 0014 801A     		subs	r0, r0, r2
 868              	.LVL99:
 869 0016 80B2     		uxth	r0, r0
 870              	.LVL100:
 352:rhea\drivers\MCP7940N/MCP7940N.c ****     uint8_t tens = years / 10;
 871              		.loc 1 352 0
 872 0018 DBB2     		uxtb	r3, r3
 873              	.LVL101:
 353:rhea\drivers\MCP7940N/MCP7940N.c ****     uint8_t registerValue = ones | tens << 4;
 874              		.loc 1 353 0
 875 001a 40EA0310 		orr	r0, r0, r3, lsl #4
 876              	.LVL102:
 354:rhea\drivers\MCP7940N/MCP7940N.c ****     
 355:rhea\drivers\MCP7940N/MCP7940N.c ****     // Writing RTCYEAR register
 356:rhea\drivers\MCP7940N/MCP7940N.c ****     MCP7940N_RegistersLocal.RTCYEAR = registerValue;
 877              		.loc 1 356 0
 878 001e 024B     		ldr	r3, .L68+4
 879              	.LVL103:
 880 0020 9875     		strb	r0, [r3, #22]
 881 0022 7047     		bx	lr
 882              	.L69:
 883              		.align	2
 884              	.L68:
ARM GAS  C:\Users\GYULAI~1\AppData\Local\Temp\ccG7iLma.s 			page 23


 885 0024 CDCCCCCC 		.word	-858993459
 886 0028 00000000 		.word	.LANCHOR0
 887              		.cfi_endproc
 888              	.LFE21:
 889              		.size	MCP7940N_SetYears, .-MCP7940N_SetYears
 890              		.section	.text.MCP7940N_IsOscillatorEnabled,"ax",%progbits
 891              		.align	2
 892              		.global	MCP7940N_IsOscillatorEnabled
 893              		.thumb
 894              		.thumb_func
 895              		.type	MCP7940N_IsOscillatorEnabled, %function
 896              	MCP7940N_IsOscillatorEnabled:
 897              	.LFB22:
 357:rhea\drivers\MCP7940N/MCP7940N.c **** }
 358:rhea\drivers\MCP7940N/MCP7940N.c **** 
 359:rhea\drivers\MCP7940N/MCP7940N.c **** uint8_t MCP7940N_IsOscillatorEnabled(void) {
 898              		.loc 1 359 0
 899              		.cfi_startproc
 900              		@ args = 0, pretend = 0, frame = 0
 901              		@ frame_needed = 0, uses_anonymous_args = 0
 902 0000 10B5     		push	{r4, lr}
 903              		.cfi_def_cfa_offset 8
 904              		.cfi_offset 4, -8
 905              		.cfi_offset 14, -4
 360:rhea\drivers\MCP7940N/MCP7940N.c ****     
 361:rhea\drivers\MCP7940N/MCP7940N.c ****     // Reading current content of RTCSEC register
 362:rhea\drivers\MCP7940N/MCP7940N.c ****     MCP7940N_I2CReader(MCP7940N_I2C_ADDR, MCP7940N_RTCSEC, (uint8_t*) &MCP7940N_RegistersLocal.RTCS
 906              		.loc 1 362 0
 907 0002 064C     		ldr	r4, .L72
 908 0004 0123     		movs	r3, #1
 909 0006 04F11002 		add	r2, r4, #16
 910 000a 0021     		movs	r1, #0
 911 000c DE20     		movs	r0, #222
 912 000e FFF7FEFF 		bl	MCP7940N_I2CReader
 913              	.LVL104:
 363:rhea\drivers\MCP7940N/MCP7940N.c ****     
 364:rhea\drivers\MCP7940N/MCP7940N.c ****     // Returning whether ST flag is set
 365:rhea\drivers\MCP7940N/MCP7940N.c ****     return MCP7940N_RegistersLocal.RTCSEC & MCP7940N_RTCSEC_ST; 
 914              		.loc 1 365 0
 915 0012 207C     		ldrb	r0, [r4, #16]	@ zero_extendqisi2
 366:rhea\drivers\MCP7940N/MCP7940N.c **** }
 916              		.loc 1 366 0
 917 0014 00F08000 		and	r0, r0, #128
 918 0018 10BD     		pop	{r4, pc}
 919              	.L73:
 920 001a 00BF     		.align	2
 921              	.L72:
 922 001c 00000000 		.word	.LANCHOR0
 923              		.cfi_endproc
 924              	.LFE22:
 925              		.size	MCP7940N_IsOscillatorEnabled, .-MCP7940N_IsOscillatorEnabled
 926              		.section	.text.MCP7940N_EnableOscillator,"ax",%progbits
 927              		.align	2
 928              		.global	MCP7940N_EnableOscillator
 929              		.thumb
 930              		.thumb_func
 931              		.type	MCP7940N_EnableOscillator, %function
ARM GAS  C:\Users\GYULAI~1\AppData\Local\Temp\ccG7iLma.s 			page 24


 932              	MCP7940N_EnableOscillator:
 933              	.LFB23:
 367:rhea\drivers\MCP7940N/MCP7940N.c **** 
 368:rhea\drivers\MCP7940N/MCP7940N.c **** void MCP7940N_EnableOscillator(void) {
 934              		.loc 1 368 0
 935              		.cfi_startproc
 936              		@ args = 0, pretend = 0, frame = 0
 937              		@ frame_needed = 0, uses_anonymous_args = 0
 938 0000 38B5     		push	{r3, r4, r5, lr}
 939              		.cfi_def_cfa_offset 16
 940              		.cfi_offset 3, -16
 941              		.cfi_offset 4, -12
 942              		.cfi_offset 5, -8
 943              		.cfi_offset 14, -4
 369:rhea\drivers\MCP7940N/MCP7940N.c ****     
 370:rhea\drivers\MCP7940N/MCP7940N.c ****     // Reading current content of RTCSEC register
 371:rhea\drivers\MCP7940N/MCP7940N.c ****     MCP7940N_I2CReader(MCP7940N_I2C_ADDR, MCP7940N_RTCSEC, (uint8_t*) &MCP7940N_RegistersLocal.RTCS
 944              		.loc 1 371 0
 945 0002 0A4C     		ldr	r4, .L76
 946 0004 04F11005 		add	r5, r4, #16
 947 0008 0123     		movs	r3, #1
 948 000a 2A46     		mov	r2, r5
 949 000c 0021     		movs	r1, #0
 950 000e DE20     		movs	r0, #222
 951 0010 FFF7FEFF 		bl	MCP7940N_I2CReader
 952              	.LVL105:
 372:rhea\drivers\MCP7940N/MCP7940N.c ****     
 373:rhea\drivers\MCP7940N/MCP7940N.c ****     // Setting ST flag of RTCSEC register
 374:rhea\drivers\MCP7940N/MCP7940N.c ****     MCP7940N_RegistersLocal.RTCSEC |= MCP7940N_RTCSEC_ST;
 953              		.loc 1 374 0
 954 0014 237C     		ldrb	r3, [r4, #16]	@ zero_extendqisi2
 955 0016 63F07F03 		orn	r3, r3, #127
 956 001a 2374     		strb	r3, [r4, #16]
 375:rhea\drivers\MCP7940N/MCP7940N.c ****     
 376:rhea\drivers\MCP7940N/MCP7940N.c ****     // Writing changes to hardware
 377:rhea\drivers\MCP7940N/MCP7940N.c ****     MCP7940N_I2CWriter(MCP7940N_I2C_ADDR, MCP7940N_RTCSEC, (uint8_t*) &MCP7940N_RegistersLocal.RTCS
 957              		.loc 1 377 0
 958 001c 0123     		movs	r3, #1
 959 001e 2A46     		mov	r2, r5
 960 0020 0021     		movs	r1, #0
 961 0022 DE20     		movs	r0, #222
 962 0024 FFF7FEFF 		bl	MCP7940N_I2CWriter
 963              	.LVL106:
 964 0028 38BD     		pop	{r3, r4, r5, pc}
 965              	.L77:
 966 002a 00BF     		.align	2
 967              	.L76:
 968 002c 00000000 		.word	.LANCHOR0
 969              		.cfi_endproc
 970              	.LFE23:
 971              		.size	MCP7940N_EnableOscillator, .-MCP7940N_EnableOscillator
 972              		.section	.text.MCP7940N_DisableOscillator,"ax",%progbits
 973              		.align	2
 974              		.global	MCP7940N_DisableOscillator
 975              		.thumb
 976              		.thumb_func
 977              		.type	MCP7940N_DisableOscillator, %function
ARM GAS  C:\Users\GYULAI~1\AppData\Local\Temp\ccG7iLma.s 			page 25


 978              	MCP7940N_DisableOscillator:
 979              	.LFB24:
 378:rhea\drivers\MCP7940N/MCP7940N.c **** }
 379:rhea\drivers\MCP7940N/MCP7940N.c **** 
 380:rhea\drivers\MCP7940N/MCP7940N.c **** void MCP7940N_DisableOscillator(void) {
 980              		.loc 1 380 0
 981              		.cfi_startproc
 982              		@ args = 0, pretend = 0, frame = 0
 983              		@ frame_needed = 0, uses_anonymous_args = 0
 984 0000 38B5     		push	{r3, r4, r5, lr}
 985              		.cfi_def_cfa_offset 16
 986              		.cfi_offset 3, -16
 987              		.cfi_offset 4, -12
 988              		.cfi_offset 5, -8
 989              		.cfi_offset 14, -4
 381:rhea\drivers\MCP7940N/MCP7940N.c ****     
 382:rhea\drivers\MCP7940N/MCP7940N.c ****     // Reading current content of RTCSEC register
 383:rhea\drivers\MCP7940N/MCP7940N.c ****     MCP7940N_I2CReader(MCP7940N_I2C_ADDR, MCP7940N_RTCSEC, (uint8_t*) &MCP7940N_RegistersLocal.RTCS
 990              		.loc 1 383 0
 991 0002 0A4C     		ldr	r4, .L80
 992 0004 04F11005 		add	r5, r4, #16
 993 0008 0123     		movs	r3, #1
 994 000a 2A46     		mov	r2, r5
 995 000c 0021     		movs	r1, #0
 996 000e DE20     		movs	r0, #222
 997 0010 FFF7FEFF 		bl	MCP7940N_I2CReader
 998              	.LVL107:
 384:rhea\drivers\MCP7940N/MCP7940N.c ****     
 385:rhea\drivers\MCP7940N/MCP7940N.c ****     // Clearing ST flag of RTCSEC register
 386:rhea\drivers\MCP7940N/MCP7940N.c ****     MCP7940N_RegistersLocal.RTCSEC &= ~MCP7940N_RTCSEC_ST;
 999              		.loc 1 386 0
 1000 0014 237C     		ldrb	r3, [r4, #16]	@ zero_extendqisi2
 1001 0016 03F07F03 		and	r3, r3, #127
 1002 001a 2374     		strb	r3, [r4, #16]
 387:rhea\drivers\MCP7940N/MCP7940N.c ****     
 388:rhea\drivers\MCP7940N/MCP7940N.c ****     // Writing changes to hardware
 389:rhea\drivers\MCP7940N/MCP7940N.c ****     MCP7940N_I2CWriter(MCP7940N_I2C_ADDR, MCP7940N_RTCSEC, (uint8_t*) &MCP7940N_RegistersLocal.RTCS
 1003              		.loc 1 389 0
 1004 001c 0123     		movs	r3, #1
 1005 001e 2A46     		mov	r2, r5
 1006 0020 0021     		movs	r1, #0
 1007 0022 DE20     		movs	r0, #222
 1008 0024 FFF7FEFF 		bl	MCP7940N_I2CWriter
 1009              	.LVL108:
 1010 0028 38BD     		pop	{r3, r4, r5, pc}
 1011              	.L81:
 1012 002a 00BF     		.align	2
 1013              	.L80:
 1014 002c 00000000 		.word	.LANCHOR0
 1015              		.cfi_endproc
 1016              	.LFE24:
 1017              		.size	MCP7940N_DisableOscillator, .-MCP7940N_DisableOscillator
 1018              		.section	.text.MCP7940N_IsOscillatorRunning,"ax",%progbits
 1019              		.align	2
 1020              		.global	MCP7940N_IsOscillatorRunning
 1021              		.thumb
 1022              		.thumb_func
ARM GAS  C:\Users\GYULAI~1\AppData\Local\Temp\ccG7iLma.s 			page 26


 1023              		.type	MCP7940N_IsOscillatorRunning, %function
 1024              	MCP7940N_IsOscillatorRunning:
 1025              	.LFB25:
 390:rhea\drivers\MCP7940N/MCP7940N.c **** }
 391:rhea\drivers\MCP7940N/MCP7940N.c **** 
 392:rhea\drivers\MCP7940N/MCP7940N.c **** uint8_t MCP7940N_IsOscillatorRunning(void) {
 1026              		.loc 1 392 0
 1027              		.cfi_startproc
 1028              		@ args = 0, pretend = 0, frame = 0
 1029              		@ frame_needed = 0, uses_anonymous_args = 0
 1030 0000 10B5     		push	{r4, lr}
 1031              		.cfi_def_cfa_offset 8
 1032              		.cfi_offset 4, -8
 1033              		.cfi_offset 14, -4
 393:rhea\drivers\MCP7940N/MCP7940N.c ****     
 394:rhea\drivers\MCP7940N/MCP7940N.c ****     // Reading RTCWKDAY register
 395:rhea\drivers\MCP7940N/MCP7940N.c ****     MCP7940N_I2CReader(MCP7940N_I2C_ADDR, MCP7940N_RTCWKDAY, (uint8_t*) &MCP7940N_RegistersLocal.RT
 1034              		.loc 1 395 0
 1035 0002 064C     		ldr	r4, .L84
 1036 0004 0123     		movs	r3, #1
 1037 0006 04F11302 		add	r2, r4, #19
 1038 000a 0321     		movs	r1, #3
 1039 000c DE20     		movs	r0, #222
 1040 000e FFF7FEFF 		bl	MCP7940N_I2CReader
 1041              	.LVL109:
 396:rhea\drivers\MCP7940N/MCP7940N.c ****     
 397:rhea\drivers\MCP7940N/MCP7940N.c ****     // Returning whether OSCRUN bit is set
 398:rhea\drivers\MCP7940N/MCP7940N.c ****     return MCP7940N_RegistersLocal.RTCWKDAY & MCP7940N_RTCWKDAY_OSCRUN;    
 1042              		.loc 1 398 0
 1043 0012 E07C     		ldrb	r0, [r4, #19]	@ zero_extendqisi2
 399:rhea\drivers\MCP7940N/MCP7940N.c **** }
 1044              		.loc 1 399 0
 1045 0014 00F02000 		and	r0, r0, #32
 1046 0018 10BD     		pop	{r4, pc}
 1047              	.L85:
 1048 001a 00BF     		.align	2
 1049              	.L84:
 1050 001c 00000000 		.word	.LANCHOR0
 1051              		.cfi_endproc
 1052              	.LFE25:
 1053              		.size	MCP7940N_IsOscillatorRunning, .-MCP7940N_IsOscillatorRunning
 1054              		.section	.text.MCP7940N_IsBatteryEnabled,"ax",%progbits
 1055              		.align	2
 1056              		.global	MCP7940N_IsBatteryEnabled
 1057              		.thumb
 1058              		.thumb_func
 1059              		.type	MCP7940N_IsBatteryEnabled, %function
 1060              	MCP7940N_IsBatteryEnabled:
 1061              	.LFB28:
 400:rhea\drivers\MCP7940N/MCP7940N.c **** 
 401:rhea\drivers\MCP7940N/MCP7940N.c **** void MCP7940N_EnableBattery(void) {
 402:rhea\drivers\MCP7940N/MCP7940N.c ****     
 403:rhea\drivers\MCP7940N/MCP7940N.c ****     // Oscillator status
 404:rhea\drivers\MCP7940N/MCP7940N.c ****     uint8_t externalStatus = MCP7940N_IsExternalOscillatorEnabled();
 405:rhea\drivers\MCP7940N/MCP7940N.c ****     uint8_t internalStatus = MCP7940N_IsOscillatorEnabled();
 406:rhea\drivers\MCP7940N/MCP7940N.c ****     
 407:rhea\drivers\MCP7940N/MCP7940N.c ****     // Disabling oscillator sources
ARM GAS  C:\Users\GYULAI~1\AppData\Local\Temp\ccG7iLma.s 			page 27


 408:rhea\drivers\MCP7940N/MCP7940N.c ****     if(externalStatus)      MCP7940N_DisableExternalOscillator();
 409:rhea\drivers\MCP7940N/MCP7940N.c ****     else if(internalStatus) MCP7940N_DisableOscillator();
 410:rhea\drivers\MCP7940N/MCP7940N.c ****     
 411:rhea\drivers\MCP7940N/MCP7940N.c ****     // Waiting for oscillator to stop
 412:rhea\drivers\MCP7940N/MCP7940N.c ****     while(MCP7940N_IsOscillatorRunning());
 413:rhea\drivers\MCP7940N/MCP7940N.c ****     
 414:rhea\drivers\MCP7940N/MCP7940N.c ****     // Reading current content of RTCWKDAY register
 415:rhea\drivers\MCP7940N/MCP7940N.c ****     MCP7940N_I2CReader(MCP7940N_I2C_ADDR, MCP7940N_RTCWKDAY, (uint8_t*) &MCP7940N_RegistersLocal.RT
 416:rhea\drivers\MCP7940N/MCP7940N.c **** 
 417:rhea\drivers\MCP7940N/MCP7940N.c ****     // Setting VBATEN flag of RTCWKDAY register
 418:rhea\drivers\MCP7940N/MCP7940N.c ****     MCP7940N_RegistersLocal.RTCWKDAY |= MCP7940N_RTCWKDAY_VBATEN;
 419:rhea\drivers\MCP7940N/MCP7940N.c ****     
 420:rhea\drivers\MCP7940N/MCP7940N.c ****     // Writing changes to hardware
 421:rhea\drivers\MCP7940N/MCP7940N.c ****     MCP7940N_I2CWriter(MCP7940N_I2C_ADDR, MCP7940N_RTCWKDAY, (uint8_t*) &MCP7940N_RegistersLocal.RT
 422:rhea\drivers\MCP7940N/MCP7940N.c **** 
 423:rhea\drivers\MCP7940N/MCP7940N.c ****     // Enabling oscillator sources
 424:rhea\drivers\MCP7940N/MCP7940N.c ****     if(externalStatus)      MCP7940N_EnableExternalOscillator();
 425:rhea\drivers\MCP7940N/MCP7940N.c ****     else if(internalStatus) MCP7940N_EnableOscillator();
 426:rhea\drivers\MCP7940N/MCP7940N.c **** }
 427:rhea\drivers\MCP7940N/MCP7940N.c **** 
 428:rhea\drivers\MCP7940N/MCP7940N.c **** void MCP7940N_DisableBattery(void) {
 429:rhea\drivers\MCP7940N/MCP7940N.c ****     
 430:rhea\drivers\MCP7940N/MCP7940N.c ****     // Oscillator status
 431:rhea\drivers\MCP7940N/MCP7940N.c ****     uint8_t externalStatus = MCP7940N_IsExternalOscillatorEnabled();
 432:rhea\drivers\MCP7940N/MCP7940N.c ****     uint8_t internalStatus = MCP7940N_IsOscillatorEnabled();
 433:rhea\drivers\MCP7940N/MCP7940N.c ****     
 434:rhea\drivers\MCP7940N/MCP7940N.c ****     // Disabling oscillator sources
 435:rhea\drivers\MCP7940N/MCP7940N.c ****     if(externalStatus)      MCP7940N_DisableExternalOscillator();
 436:rhea\drivers\MCP7940N/MCP7940N.c ****     else if(internalStatus) MCP7940N_DisableOscillator();
 437:rhea\drivers\MCP7940N/MCP7940N.c ****     
 438:rhea\drivers\MCP7940N/MCP7940N.c ****     // Waiting for oscillator to stop
 439:rhea\drivers\MCP7940N/MCP7940N.c ****     while(MCP7940N_IsOscillatorRunning());
 440:rhea\drivers\MCP7940N/MCP7940N.c ****     
 441:rhea\drivers\MCP7940N/MCP7940N.c ****     // Reading current content of RTCWKDAY register
 442:rhea\drivers\MCP7940N/MCP7940N.c ****     MCP7940N_I2CReader(MCP7940N_I2C_ADDR, MCP7940N_RTCWKDAY, (uint8_t*) &MCP7940N_RegistersLocal.RT
 443:rhea\drivers\MCP7940N/MCP7940N.c ****     
 444:rhea\drivers\MCP7940N/MCP7940N.c ****     // Clearing VBATEN flag of RTCWKDAY register
 445:rhea\drivers\MCP7940N/MCP7940N.c ****     MCP7940N_RegistersLocal.RTCWKDAY &= ~MCP7940N_RTCWKDAY_VBATEN;
 446:rhea\drivers\MCP7940N/MCP7940N.c ****     
 447:rhea\drivers\MCP7940N/MCP7940N.c ****     // Writing changes to hardware
 448:rhea\drivers\MCP7940N/MCP7940N.c ****     MCP7940N_I2CWriter(MCP7940N_I2C_ADDR, MCP7940N_RTCWKDAY, (uint8_t*) &MCP7940N_RegistersLocal.RT
 449:rhea\drivers\MCP7940N/MCP7940N.c **** 
 450:rhea\drivers\MCP7940N/MCP7940N.c ****     // Enabling oscillator sources
 451:rhea\drivers\MCP7940N/MCP7940N.c ****     if(externalStatus)      MCP7940N_EnableExternalOscillator();
 452:rhea\drivers\MCP7940N/MCP7940N.c ****     else if(internalStatus) MCP7940N_EnableOscillator();
 453:rhea\drivers\MCP7940N/MCP7940N.c **** }
 454:rhea\drivers\MCP7940N/MCP7940N.c **** 
 455:rhea\drivers\MCP7940N/MCP7940N.c **** uint8_t MCP7940N_IsBatteryEnabled(void) {
 1062              		.loc 1 455 0
 1063              		.cfi_startproc
 1064              		@ args = 0, pretend = 0, frame = 0
 1065              		@ frame_needed = 0, uses_anonymous_args = 0
 1066 0000 10B5     		push	{r4, lr}
 1067              		.cfi_def_cfa_offset 8
 1068              		.cfi_offset 4, -8
 1069              		.cfi_offset 14, -4
 456:rhea\drivers\MCP7940N/MCP7940N.c ****     
ARM GAS  C:\Users\GYULAI~1\AppData\Local\Temp\ccG7iLma.s 			page 28


 457:rhea\drivers\MCP7940N/MCP7940N.c ****     // Reading RTCWKDAY register
 458:rhea\drivers\MCP7940N/MCP7940N.c ****     MCP7940N_I2CReader(MCP7940N_I2C_ADDR, MCP7940N_RTCWKDAY, (uint8_t*) &MCP7940N_RegistersLocal.RT
 1070              		.loc 1 458 0
 1071 0002 064C     		ldr	r4, .L88
 1072 0004 0123     		movs	r3, #1
 1073 0006 04F11302 		add	r2, r4, #19
 1074 000a 0321     		movs	r1, #3
 1075 000c DE20     		movs	r0, #222
 1076 000e FFF7FEFF 		bl	MCP7940N_I2CReader
 1077              	.LVL110:
 459:rhea\drivers\MCP7940N/MCP7940N.c ****     
 460:rhea\drivers\MCP7940N/MCP7940N.c ****     // Returning whether VBATEN bit is set
 461:rhea\drivers\MCP7940N/MCP7940N.c ****     return MCP7940N_RegistersLocal.RTCWKDAY & MCP7940N_RTCWKDAY_VBATEN;
 1078              		.loc 1 461 0
 1079 0012 E07C     		ldrb	r0, [r4, #19]	@ zero_extendqisi2
 462:rhea\drivers\MCP7940N/MCP7940N.c **** }
 1080              		.loc 1 462 0
 1081 0014 00F00800 		and	r0, r0, #8
 1082 0018 10BD     		pop	{r4, pc}
 1083              	.L89:
 1084 001a 00BF     		.align	2
 1085              	.L88:
 1086 001c 00000000 		.word	.LANCHOR0
 1087              		.cfi_endproc
 1088              	.LFE28:
 1089              		.size	MCP7940N_IsBatteryEnabled, .-MCP7940N_IsBatteryEnabled
 1090              		.section	.text.MCP7940N_HasPowerFailed,"ax",%progbits
 1091              		.align	2
 1092              		.global	MCP7940N_HasPowerFailed
 1093              		.thumb
 1094              		.thumb_func
 1095              		.type	MCP7940N_HasPowerFailed, %function
 1096              	MCP7940N_HasPowerFailed:
 1097              	.LFB29:
 463:rhea\drivers\MCP7940N/MCP7940N.c **** 
 464:rhea\drivers\MCP7940N/MCP7940N.c **** uint8_t MCP7940N_HasPowerFailed(void) {
 1098              		.loc 1 464 0
 1099              		.cfi_startproc
 1100              		@ args = 0, pretend = 0, frame = 0
 1101              		@ frame_needed = 0, uses_anonymous_args = 0
 1102 0000 10B5     		push	{r4, lr}
 1103              		.cfi_def_cfa_offset 8
 1104              		.cfi_offset 4, -8
 1105              		.cfi_offset 14, -4
 465:rhea\drivers\MCP7940N/MCP7940N.c ****     
 466:rhea\drivers\MCP7940N/MCP7940N.c ****     // Reading RTCWKDAY register
 467:rhea\drivers\MCP7940N/MCP7940N.c ****     MCP7940N_I2CReader(MCP7940N_I2C_ADDR, MCP7940N_RTCWKDAY, (uint8_t*) &MCP7940N_RegistersLocal.RT
 1106              		.loc 1 467 0
 1107 0002 064C     		ldr	r4, .L92
 1108 0004 0123     		movs	r3, #1
 1109 0006 04F11302 		add	r2, r4, #19
 1110 000a 0321     		movs	r1, #3
 1111 000c DE20     		movs	r0, #222
 1112 000e FFF7FEFF 		bl	MCP7940N_I2CReader
 1113              	.LVL111:
 468:rhea\drivers\MCP7940N/MCP7940N.c ****     
 469:rhea\drivers\MCP7940N/MCP7940N.c ****     // Returning whether PWRFAIL bit is set
ARM GAS  C:\Users\GYULAI~1\AppData\Local\Temp\ccG7iLma.s 			page 29


 470:rhea\drivers\MCP7940N/MCP7940N.c ****     return MCP7940N_RegistersLocal.RTCWKDAY & MCP7940N_RTCWKDAY_PWRFAIL;
 1114              		.loc 1 470 0
 1115 0012 E07C     		ldrb	r0, [r4, #19]	@ zero_extendqisi2
 471:rhea\drivers\MCP7940N/MCP7940N.c **** }
 1116              		.loc 1 471 0
 1117 0014 00F01000 		and	r0, r0, #16
 1118 0018 10BD     		pop	{r4, pc}
 1119              	.L93:
 1120 001a 00BF     		.align	2
 1121              	.L92:
 1122 001c 00000000 		.word	.LANCHOR0
 1123              		.cfi_endproc
 1124              	.LFE29:
 1125              		.size	MCP7940N_HasPowerFailed, .-MCP7940N_HasPowerFailed
 1126              		.section	.text.MCP7940N_IsLeapYear,"ax",%progbits
 1127              		.align	2
 1128              		.global	MCP7940N_IsLeapYear
 1129              		.thumb
 1130              		.thumb_func
 1131              		.type	MCP7940N_IsLeapYear, %function
 1132              	MCP7940N_IsLeapYear:
 1133              	.LFB31:
 472:rhea\drivers\MCP7940N/MCP7940N.c **** 
 473:rhea\drivers\MCP7940N/MCP7940N.c **** void MCP7940N_ClearPowerFailed(void) {
 474:rhea\drivers\MCP7940N/MCP7940N.c ****     
 475:rhea\drivers\MCP7940N/MCP7940N.c ****     // Oscillator status
 476:rhea\drivers\MCP7940N/MCP7940N.c ****     uint8_t externalStatus = MCP7940N_IsExternalOscillatorEnabled();
 477:rhea\drivers\MCP7940N/MCP7940N.c ****     uint8_t internalStatus = MCP7940N_IsOscillatorEnabled();
 478:rhea\drivers\MCP7940N/MCP7940N.c ****     
 479:rhea\drivers\MCP7940N/MCP7940N.c ****     // Disabling oscillator sources
 480:rhea\drivers\MCP7940N/MCP7940N.c ****     if(externalStatus)      MCP7940N_DisableExternalOscillator();
 481:rhea\drivers\MCP7940N/MCP7940N.c ****     else if(internalStatus) MCP7940N_DisableOscillator();
 482:rhea\drivers\MCP7940N/MCP7940N.c ****     
 483:rhea\drivers\MCP7940N/MCP7940N.c ****     // Waiting for oscillator to stop
 484:rhea\drivers\MCP7940N/MCP7940N.c ****     while(MCP7940N_IsOscillatorRunning());
 485:rhea\drivers\MCP7940N/MCP7940N.c ****     
 486:rhea\drivers\MCP7940N/MCP7940N.c ****     // Reading current content of RTCWKDAY register
 487:rhea\drivers\MCP7940N/MCP7940N.c ****     MCP7940N_I2CReader(MCP7940N_I2C_ADDR, MCP7940N_RTCWKDAY, (uint8_t*) &MCP7940N_RegistersLocal.RT
 488:rhea\drivers\MCP7940N/MCP7940N.c ****     
 489:rhea\drivers\MCP7940N/MCP7940N.c ****     // Clearing PWRFAIL flag of RTCWKDAY register
 490:rhea\drivers\MCP7940N/MCP7940N.c ****     MCP7940N_RegistersLocal.RTCWKDAY &= ~MCP7940N_RTCWKDAY_PWRFAIL;
 491:rhea\drivers\MCP7940N/MCP7940N.c ****     
 492:rhea\drivers\MCP7940N/MCP7940N.c ****     // Writing changes to hardware
 493:rhea\drivers\MCP7940N/MCP7940N.c ****     MCP7940N_I2CWriter(MCP7940N_I2C_ADDR, MCP7940N_RTCWKDAY, (uint8_t*) &MCP7940N_RegistersLocal.RT
 494:rhea\drivers\MCP7940N/MCP7940N.c **** 
 495:rhea\drivers\MCP7940N/MCP7940N.c ****     // Enabling oscillator sources
 496:rhea\drivers\MCP7940N/MCP7940N.c ****     if(externalStatus)      MCP7940N_EnableExternalOscillator();
 497:rhea\drivers\MCP7940N/MCP7940N.c ****     else if(internalStatus) MCP7940N_EnableOscillator();
 498:rhea\drivers\MCP7940N/MCP7940N.c **** }
 499:rhea\drivers\MCP7940N/MCP7940N.c **** 
 500:rhea\drivers\MCP7940N/MCP7940N.c **** uint8_t MCP7940N_IsLeapYear(void) {
 1134              		.loc 1 500 0
 1135              		.cfi_startproc
 1136              		@ args = 0, pretend = 0, frame = 0
 1137              		@ frame_needed = 0, uses_anonymous_args = 0
 1138 0000 10B5     		push	{r4, lr}
 1139              		.cfi_def_cfa_offset 8
ARM GAS  C:\Users\GYULAI~1\AppData\Local\Temp\ccG7iLma.s 			page 30


 1140              		.cfi_offset 4, -8
 1141              		.cfi_offset 14, -4
 501:rhea\drivers\MCP7940N/MCP7940N.c ****     
 502:rhea\drivers\MCP7940N/MCP7940N.c ****     // Reading RTCMTH register
 503:rhea\drivers\MCP7940N/MCP7940N.c ****     MCP7940N_I2CReader(MCP7940N_I2C_ADDR, MCP7940N_RTCWKDAY, (uint8_t*) &MCP7940N_RegistersLocal.RT
 1142              		.loc 1 503 0
 1143 0002 064C     		ldr	r4, .L96
 1144 0004 0123     		movs	r3, #1
 1145 0006 04F11302 		add	r2, r4, #19
 1146 000a 0321     		movs	r1, #3
 1147 000c DE20     		movs	r0, #222
 1148 000e FFF7FEFF 		bl	MCP7940N_I2CReader
 1149              	.LVL112:
 504:rhea\drivers\MCP7940N/MCP7940N.c ****     
 505:rhea\drivers\MCP7940N/MCP7940N.c ****     // Returning whether LPYR bit is set
 506:rhea\drivers\MCP7940N/MCP7940N.c ****     return MCP7940N_RegistersLocal.RTCMTH & MCP7940N_RTCMTH_LPYR;
 1150              		.loc 1 506 0
 1151 0012 607D     		ldrb	r0, [r4, #21]	@ zero_extendqisi2
 507:rhea\drivers\MCP7940N/MCP7940N.c **** }
 1152              		.loc 1 507 0
 1153 0014 00F02000 		and	r0, r0, #32
 1154 0018 10BD     		pop	{r4, pc}
 1155              	.L97:
 1156 001a 00BF     		.align	2
 1157              	.L96:
 1158 001c 00000000 		.word	.LANCHOR0
 1159              		.cfi_endproc
 1160              	.LFE31:
 1161              		.size	MCP7940N_IsLeapYear, .-MCP7940N_IsLeapYear
 1162              		.section	.text.MCP7940N_SetMFPMode,"ax",%progbits
 1163              		.align	2
 1164              		.global	MCP7940N_SetMFPMode
 1165              		.thumb
 1166              		.thumb_func
 1167              		.type	MCP7940N_SetMFPMode, %function
 1168              	MCP7940N_SetMFPMode:
 1169              	.LFB32:
 508:rhea\drivers\MCP7940N/MCP7940N.c **** 
 509:rhea\drivers\MCP7940N/MCP7940N.c **** void MCP7940N_SetMFPMode(uint8_t mode) {
 1170              		.loc 1 509 0
 1171              		.cfi_startproc
 1172              		@ args = 0, pretend = 0, frame = 0
 1173              		@ frame_needed = 0, uses_anonymous_args = 0
 1174              	.LVL113:
 1175 0000 08B5     		push	{r3, lr}
 1176              		.cfi_def_cfa_offset 8
 1177              		.cfi_offset 3, -8
 1178              		.cfi_offset 14, -4
 510:rhea\drivers\MCP7940N/MCP7940N.c ****        
 511:rhea\drivers\MCP7940N/MCP7940N.c ****     // Writing MFP mode bits to CONTROL register
 512:rhea\drivers\MCP7940N/MCP7940N.c ****     switch(mode) {
 1179              		.loc 1 512 0
 1180 0002 8F28     		cmp	r0, #143
 1181 0004 10D0     		beq	.L100
 1182 0006 BF28     		cmp	r0, #191
 1183 0008 02D0     		beq	.L101
 1184 000a 4028     		cmp	r0, #64
ARM GAS  C:\Users\GYULAI~1\AppData\Local\Temp\ccG7iLma.s 			page 31


 1185 000c 12D1     		bne	.L104
 1186 000e 05E0     		b	.L102
 1187              	.L101:
 513:rhea\drivers\MCP7940N/MCP7940N.c ****     case MCP7940N_MFP_ALARM:  MCP7940N_RegistersLocal.CONTROL &= MCP7940N_MFP_ALARM; return;
 1188              		.loc 1 513 0
 1189 0010 0C4A     		ldr	r2, .L106
 1190 0012 D37D     		ldrb	r3, [r2, #23]	@ zero_extendqisi2
 1191 0014 23F04003 		bic	r3, r3, #64
 1192 0018 D375     		strb	r3, [r2, #23]
 1193 001a 08BD     		pop	{r3, pc}
 1194              	.L102:
 514:rhea\drivers\MCP7940N/MCP7940N.c ****     case MCP7940N_MFP_SQUARE: MCP7940N_RegistersLocal.CONTROL |= MCP7940N_MFP_SQUARE; return;
 1195              		.loc 1 514 0
 1196 001c 094A     		ldr	r2, .L106
 1197 001e D37D     		ldrb	r3, [r2, #23]	@ zero_extendqisi2
 1198 0020 43F04003 		orr	r3, r3, #64
 1199 0024 D375     		strb	r3, [r2, #23]
 1200 0026 08BD     		pop	{r3, pc}
 1201              	.L100:
 515:rhea\drivers\MCP7940N/MCP7940N.c ****     case MCP7940N_MFP_GPIO:   MCP7940N_RegistersLocal.CONTROL &= MCP7940N_MFP_GPIO;  return;
 1202              		.loc 1 515 0
 1203 0028 064A     		ldr	r2, .L106
 1204 002a D37D     		ldrb	r3, [r2, #23]	@ zero_extendqisi2
 1205 002c 23F07003 		bic	r3, r3, #112
 1206 0030 D375     		strb	r3, [r2, #23]
 1207 0032 08BD     		pop	{r3, pc}
 1208              	.L104:
 516:rhea\drivers\MCP7940N/MCP7940N.c ****     };
 517:rhea\drivers\MCP7940N/MCP7940N.c ****     
 518:rhea\drivers\MCP7940N/MCP7940N.c ****     // Writing changes to hardware
 519:rhea\drivers\MCP7940N/MCP7940N.c ****     MCP7940N_I2CWriter(MCP7940N_I2C_ADDR, MCP7940N_CONTROL, (uint8_t*) &MCP7940N_RegistersLocal.CON
 1209              		.loc 1 519 0
 1210 0034 0123     		movs	r3, #1
 1211 0036 044A     		ldr	r2, .L106+4
 1212 0038 0721     		movs	r1, #7
 1213 003a DE20     		movs	r0, #222
 1214              	.LVL114:
 1215 003c FFF7FEFF 		bl	MCP7940N_I2CWriter
 1216              	.LVL115:
 1217 0040 08BD     		pop	{r3, pc}
 1218              	.L107:
 1219 0042 00BF     		.align	2
 1220              	.L106:
 1221 0044 00000000 		.word	.LANCHOR0
 1222 0048 17000000 		.word	.LANCHOR0+23
 1223              		.cfi_endproc
 1224              	.LFE32:
 1225              		.size	MCP7940N_SetMFPMode, .-MCP7940N_SetMFPMode
 1226              		.section	.text.MCP7940N_GetMFPMode,"ax",%progbits
 1227              		.align	2
 1228              		.global	MCP7940N_GetMFPMode
 1229              		.thumb
 1230              		.thumb_func
 1231              		.type	MCP7940N_GetMFPMode, %function
 1232              	MCP7940N_GetMFPMode:
 1233              	.LFB33:
 520:rhea\drivers\MCP7940N/MCP7940N.c **** }
ARM GAS  C:\Users\GYULAI~1\AppData\Local\Temp\ccG7iLma.s 			page 32


 521:rhea\drivers\MCP7940N/MCP7940N.c **** 
 522:rhea\drivers\MCP7940N/MCP7940N.c **** uint8_t MCP7940N_GetMFPMode() {
 1234              		.loc 1 522 0
 1235              		.cfi_startproc
 1236              		@ args = 0, pretend = 0, frame = 0
 1237              		@ frame_needed = 0, uses_anonymous_args = 0
 1238              		@ link register save eliminated.
 523:rhea\drivers\MCP7940N/MCP7940N.c ****     
 524:rhea\drivers\MCP7940N/MCP7940N.c ****     // Reading CONTROL register
 525:rhea\drivers\MCP7940N/MCP7940N.c ****     uint8_t registerValue = MCP7940N_RegistersLocal.CONTROL;
 1239              		.loc 1 525 0
 1240 0000 0D4B     		ldr	r3, .L114
 1241 0002 DB7D     		ldrb	r3, [r3, #23]	@ zero_extendqisi2
 1242              	.LVL116:
 526:rhea\drivers\MCP7940N/MCP7940N.c ****     
 527:rhea\drivers\MCP7940N/MCP7940N.c ****     // Returning current mode based on the masked register values
 528:rhea\drivers\MCP7940N/MCP7940N.c ****     switch(registerValue & (MCP7940N_CONTROL_SQWEN | MCP7940N_CONTROL_ALM0EN | MCP7940N_CONTROL_ALM
 1243              		.loc 1 528 0
 1244 0004 03F07003 		and	r3, r3, #112
 1245              	.LVL117:
 1246 0008 402B     		cmp	r3, #64
 1247 000a 12D0     		beq	.L113
 1248 000c 06D8     		bhi	.L111
 1249 000e 202B     		cmp	r3, #32
 1250 0010 0BD0     		beq	.L112
 1251 0012 302B     		cmp	r3, #48
 1252 0014 09D0     		beq	.L112
 1253 0016 102B     		cmp	r3, #16
 1254 0018 09D1     		bne	.L109
 1255 001a 06E0     		b	.L112
 1256              	.L111:
 1257 001c 602B     		cmp	r3, #96
 1258 001e 08D0     		beq	.L113
 1259 0020 702B     		cmp	r3, #112
 1260 0022 06D0     		beq	.L113
 1261 0024 502B     		cmp	r3, #80
 1262 0026 02D1     		bne	.L109
 1263 0028 03E0     		b	.L113
 1264              	.L112:
 529:rhea\drivers\MCP7940N/MCP7940N.c ****     case MCP7940N_CONTROL_ALM0EN: 
 530:rhea\drivers\MCP7940N/MCP7940N.c ****     case MCP7940N_CONTROL_ALM1EN:
 531:rhea\drivers\MCP7940N/MCP7940N.c ****     case MCP7940N_CONTROL_ALM0EN | MCP7940N_CONTROL_ALM1EN: 
 532:rhea\drivers\MCP7940N/MCP7940N.c ****          return MCP7940N_MFP_ALARM;
 1265              		.loc 1 532 0
 1266 002a BF20     		movs	r0, #191
 1267 002c 7047     		bx	lr
 1268              	.L109:
 533:rhea\drivers\MCP7940N/MCP7940N.c ****     
 534:rhea\drivers\MCP7940N/MCP7940N.c ****     case MCP7940N_CONTROL_SQWEN:
 535:rhea\drivers\MCP7940N/MCP7940N.c ****     case MCP7940N_CONTROL_SQWEN | MCP7940N_CONTROL_ALM0EN:
 536:rhea\drivers\MCP7940N/MCP7940N.c ****     case MCP7940N_CONTROL_SQWEN | MCP7940N_CONTROL_ALM1EN:
 537:rhea\drivers\MCP7940N/MCP7940N.c ****     case MCP7940N_CONTROL_SQWEN | MCP7940N_CONTROL_ALM0EN | MCP7940N_CONTROL_ALM1EN: 
 538:rhea\drivers\MCP7940N/MCP7940N.c ****          return MCP7940N_MFP_SQUARE;
 539:rhea\drivers\MCP7940N/MCP7940N.c ****     
 540:rhea\drivers\MCP7940N/MCP7940N.c ****     default: return MCP7940N_MFP_GPIO;
 1269              		.loc 1 540 0
 1270 002e 8F20     		movs	r0, #143
ARM GAS  C:\Users\GYULAI~1\AppData\Local\Temp\ccG7iLma.s 			page 33


 1271 0030 7047     		bx	lr
 1272              	.L113:
 538:rhea\drivers\MCP7940N/MCP7940N.c ****     
 1273              		.loc 1 538 0
 1274 0032 4020     		movs	r0, #64
 541:rhea\drivers\MCP7940N/MCP7940N.c ****     };
 542:rhea\drivers\MCP7940N/MCP7940N.c **** }
 1275              		.loc 1 542 0
 1276 0034 7047     		bx	lr
 1277              	.L115:
 1278 0036 00BF     		.align	2
 1279              	.L114:
 1280 0038 00000000 		.word	.LANCHOR0
 1281              		.cfi_endproc
 1282              	.LFE33:
 1283              		.size	MCP7940N_GetMFPMode, .-MCP7940N_GetMFPMode
 1284              		.section	.text.MCP7940N_SetGPIO,"ax",%progbits
 1285              		.align	2
 1286              		.global	MCP7940N_SetGPIO
 1287              		.thumb
 1288              		.thumb_func
 1289              		.type	MCP7940N_SetGPIO, %function
 1290              	MCP7940N_SetGPIO:
 1291              	.LFB34:
 543:rhea\drivers\MCP7940N/MCP7940N.c **** 
 544:rhea\drivers\MCP7940N/MCP7940N.c **** void MCP7940N_SetGPIO(uint8_t value) {
 1292              		.loc 1 544 0
 1293              		.cfi_startproc
 1294              		@ args = 0, pretend = 0, frame = 0
 1295              		@ frame_needed = 0, uses_anonymous_args = 0
 1296              	.LVL118:
 1297 0000 08B5     		push	{r3, lr}
 1298              		.cfi_def_cfa_offset 8
 1299              		.cfi_offset 3, -8
 1300              		.cfi_offset 14, -4
 545:rhea\drivers\MCP7940N/MCP7940N.c **** 
 546:rhea\drivers\MCP7940N/MCP7940N.c ****     // Writing CONTROL register
 547:rhea\drivers\MCP7940N/MCP7940N.c ****     MCP7940N_RegistersLocal.CONTROL &= ~MCP7940N_CONTROL_OUT;
 1301              		.loc 1 547 0
 1302 0002 064A     		ldr	r2, .L118
 1303 0004 D37D     		ldrb	r3, [r2, #23]	@ zero_extendqisi2
 1304 0006 03F07F03 		and	r3, r3, #127
 548:rhea\drivers\MCP7940N/MCP7940N.c ****     MCP7940N_RegistersLocal.CONTROL |=  value;
 1305              		.loc 1 548 0
 1306 000a 1843     		orrs	r0, r0, r3
 1307              	.LVL119:
 1308 000c 02F8170F 		strb	r0, [r2, #23]!
 549:rhea\drivers\MCP7940N/MCP7940N.c ****     
 550:rhea\drivers\MCP7940N/MCP7940N.c ****     // Writing changes to hardware
 551:rhea\drivers\MCP7940N/MCP7940N.c ****     MCP7940N_I2CWriter(MCP7940N_I2C_ADDR, MCP7940N_CONTROL, (uint8_t*) &MCP7940N_RegistersLocal.CON
 1309              		.loc 1 551 0
 1310 0010 0123     		movs	r3, #1
 1311 0012 0721     		movs	r1, #7
 1312 0014 DE20     		movs	r0, #222
 1313 0016 FFF7FEFF 		bl	MCP7940N_I2CWriter
 1314              	.LVL120:
 1315 001a 08BD     		pop	{r3, pc}
ARM GAS  C:\Users\GYULAI~1\AppData\Local\Temp\ccG7iLma.s 			page 34


 1316              	.L119:
 1317              		.align	2
 1318              	.L118:
 1319 001c 00000000 		.word	.LANCHOR0
 1320              		.cfi_endproc
 1321              	.LFE34:
 1322              		.size	MCP7940N_SetGPIO, .-MCP7940N_SetGPIO
 1323              		.section	.text.MCP7940N_EnableCoarseTrimming,"ax",%progbits
 1324              		.align	2
 1325              		.global	MCP7940N_EnableCoarseTrimming
 1326              		.thumb
 1327              		.thumb_func
 1328              		.type	MCP7940N_EnableCoarseTrimming, %function
 1329              	MCP7940N_EnableCoarseTrimming:
 1330              	.LFB35:
 552:rhea\drivers\MCP7940N/MCP7940N.c **** }
 553:rhea\drivers\MCP7940N/MCP7940N.c **** 
 554:rhea\drivers\MCP7940N/MCP7940N.c **** void MCP7940N_EnableCoarseTrimming(void) {
 1331              		.loc 1 554 0
 1332              		.cfi_startproc
 1333              		@ args = 0, pretend = 0, frame = 0
 1334              		@ frame_needed = 0, uses_anonymous_args = 0
 1335 0000 08B5     		push	{r3, lr}
 1336              		.cfi_def_cfa_offset 8
 1337              		.cfi_offset 3, -8
 1338              		.cfi_offset 14, -4
 555:rhea\drivers\MCP7940N/MCP7940N.c **** 
 556:rhea\drivers\MCP7940N/MCP7940N.c ****     // Setting CRSTRIM bit of CONTROL register
 557:rhea\drivers\MCP7940N/MCP7940N.c ****     MCP7940N_RegistersLocal.CONTROL |= MCP7940N_CONTROL_CRSTRIM;
 1339              		.loc 1 557 0
 1340 0002 064A     		ldr	r2, .L122
 1341 0004 D37D     		ldrb	r3, [r2, #23]	@ zero_extendqisi2
 1342 0006 43F00403 		orr	r3, r3, #4
 1343 000a 02F8173F 		strb	r3, [r2, #23]!
 558:rhea\drivers\MCP7940N/MCP7940N.c ****     
 559:rhea\drivers\MCP7940N/MCP7940N.c ****     // Writing changes to hardware
 560:rhea\drivers\MCP7940N/MCP7940N.c ****     MCP7940N_I2CWriter(MCP7940N_I2C_ADDR, MCP7940N_CONTROL, (uint8_t*) &MCP7940N_RegistersLocal.CON
 1344              		.loc 1 560 0
 1345 000e 0123     		movs	r3, #1
 1346 0010 0721     		movs	r1, #7
 1347 0012 DE20     		movs	r0, #222
 1348 0014 FFF7FEFF 		bl	MCP7940N_I2CWriter
 1349              	.LVL121:
 1350 0018 08BD     		pop	{r3, pc}
 1351              	.L123:
 1352 001a 00BF     		.align	2
 1353              	.L122:
 1354 001c 00000000 		.word	.LANCHOR0
 1355              		.cfi_endproc
 1356              	.LFE35:
 1357              		.size	MCP7940N_EnableCoarseTrimming, .-MCP7940N_EnableCoarseTrimming
 1358              		.section	.text.MCP7940N_DisableCoarseTrimming,"ax",%progbits
 1359              		.align	2
 1360              		.global	MCP7940N_DisableCoarseTrimming
 1361              		.thumb
 1362              		.thumb_func
 1363              		.type	MCP7940N_DisableCoarseTrimming, %function
ARM GAS  C:\Users\GYULAI~1\AppData\Local\Temp\ccG7iLma.s 			page 35


 1364              	MCP7940N_DisableCoarseTrimming:
 1365              	.LFB36:
 561:rhea\drivers\MCP7940N/MCP7940N.c **** }
 562:rhea\drivers\MCP7940N/MCP7940N.c **** 
 563:rhea\drivers\MCP7940N/MCP7940N.c **** void MCP7940N_DisableCoarseTrimming(void) {
 1366              		.loc 1 563 0
 1367              		.cfi_startproc
 1368              		@ args = 0, pretend = 0, frame = 0
 1369              		@ frame_needed = 0, uses_anonymous_args = 0
 1370 0000 08B5     		push	{r3, lr}
 1371              		.cfi_def_cfa_offset 8
 1372              		.cfi_offset 3, -8
 1373              		.cfi_offset 14, -4
 564:rhea\drivers\MCP7940N/MCP7940N.c **** 
 565:rhea\drivers\MCP7940N/MCP7940N.c ****     // Clearing CRSTRIM bit of CONTROL register
 566:rhea\drivers\MCP7940N/MCP7940N.c ****     MCP7940N_RegistersLocal.CONTROL &= ~MCP7940N_CONTROL_CRSTRIM;
 1374              		.loc 1 566 0
 1375 0002 064A     		ldr	r2, .L126
 1376 0004 D37D     		ldrb	r3, [r2, #23]	@ zero_extendqisi2
 1377 0006 23F00403 		bic	r3, r3, #4
 1378 000a 02F8173F 		strb	r3, [r2, #23]!
 567:rhea\drivers\MCP7940N/MCP7940N.c ****     
 568:rhea\drivers\MCP7940N/MCP7940N.c ****     // Writing changes to hardware
 569:rhea\drivers\MCP7940N/MCP7940N.c ****     MCP7940N_I2CWriter(MCP7940N_I2C_ADDR, MCP7940N_CONTROL, (uint8_t*) &MCP7940N_RegistersLocal.CON
 1379              		.loc 1 569 0
 1380 000e 0123     		movs	r3, #1
 1381 0010 0721     		movs	r1, #7
 1382 0012 DE20     		movs	r0, #222
 1383 0014 FFF7FEFF 		bl	MCP7940N_I2CWriter
 1384              	.LVL122:
 1385 0018 08BD     		pop	{r3, pc}
 1386              	.L127:
 1387 001a 00BF     		.align	2
 1388              	.L126:
 1389 001c 00000000 		.word	.LANCHOR0
 1390              		.cfi_endproc
 1391              	.LFE36:
 1392              		.size	MCP7940N_DisableCoarseTrimming, .-MCP7940N_DisableCoarseTrimming
 1393              		.section	.text.MCP7940N_IsCoarseTrimmingEnabled,"ax",%progbits
 1394              		.align	2
 1395              		.global	MCP7940N_IsCoarseTrimmingEnabled
 1396              		.thumb
 1397              		.thumb_func
 1398              		.type	MCP7940N_IsCoarseTrimmingEnabled, %function
 1399              	MCP7940N_IsCoarseTrimmingEnabled:
 1400              	.LFB37:
 570:rhea\drivers\MCP7940N/MCP7940N.c **** }
 571:rhea\drivers\MCP7940N/MCP7940N.c **** 
 572:rhea\drivers\MCP7940N/MCP7940N.c **** uint8_t MCP7940N_IsCoarseTrimmingEnabled(void) {
 1401              		.loc 1 572 0
 1402              		.cfi_startproc
 1403              		@ args = 0, pretend = 0, frame = 0
 1404              		@ frame_needed = 0, uses_anonymous_args = 0
 1405              		@ link register save eliminated.
 573:rhea\drivers\MCP7940N/MCP7940N.c **** 
 574:rhea\drivers\MCP7940N/MCP7940N.c ****     // Returning whether CRSTRIM bit is set
 575:rhea\drivers\MCP7940N/MCP7940N.c ****     return MCP7940N_RegistersLocal.CONTROL & MCP7940N_CONTROL_CRSTRIM;
ARM GAS  C:\Users\GYULAI~1\AppData\Local\Temp\ccG7iLma.s 			page 36


 1406              		.loc 1 575 0
 1407 0000 024B     		ldr	r3, .L129
 1408 0002 D87D     		ldrb	r0, [r3, #23]	@ zero_extendqisi2
 576:rhea\drivers\MCP7940N/MCP7940N.c **** }
 1409              		.loc 1 576 0
 1410 0004 00F00400 		and	r0, r0, #4
 1411 0008 7047     		bx	lr
 1412              	.L130:
 1413 000a 00BF     		.align	2
 1414              	.L129:
 1415 000c 00000000 		.word	.LANCHOR0
 1416              		.cfi_endproc
 1417              	.LFE37:
 1418              		.size	MCP7940N_IsCoarseTrimmingEnabled, .-MCP7940N_IsCoarseTrimmingEnabled
 1419              		.section	.text.MCP7940N_SetTrimmingValue,"ax",%progbits
 1420              		.align	2
 1421              		.global	MCP7940N_SetTrimmingValue
 1422              		.thumb
 1423              		.thumb_func
 1424              		.type	MCP7940N_SetTrimmingValue, %function
 1425              	MCP7940N_SetTrimmingValue:
 1426              	.LFB38:
 577:rhea\drivers\MCP7940N/MCP7940N.c **** 
 578:rhea\drivers\MCP7940N/MCP7940N.c **** void MCP7940N_SetTrimmingValue(int8_t value) {
 1427              		.loc 1 578 0
 1428              		.cfi_startproc
 1429              		@ args = 0, pretend = 0, frame = 0
 1430              		@ frame_needed = 0, uses_anonymous_args = 0
 1431              	.LVL123:
 1432 0000 08B5     		push	{r3, lr}
 1433              		.cfi_def_cfa_offset 8
 1434              		.cfi_offset 3, -8
 1435              		.cfi_offset 14, -4
 579:rhea\drivers\MCP7940N/MCP7940N.c ****     
 580:rhea\drivers\MCP7940N/MCP7940N.c ****     // Setting sign flag of OSCTRIM register
 581:rhea\drivers\MCP7940N/MCP7940N.c ****     if(value > 0) MCP7940N_RegistersLocal.OSCTRIM |=  MCP7940N_OSCTRIM_SIGN;
 1436              		.loc 1 581 0
 1437 0002 0028     		cmp	r0, #0
 1438              	.LVL124:
 1439 0004 05DD     		ble	.L132
 1440              		.loc 1 581 0 is_stmt 0 discriminator 1
 1441 0006 0D4A     		ldr	r2, .L135
 1442 0008 137E     		ldrb	r3, [r2, #24]	@ zero_extendqisi2
 1443 000a 63F07F03 		orn	r3, r3, #127
 1444 000e 1376     		strb	r3, [r2, #24]
 1445 0010 04E0     		b	.L133
 1446              	.L132:
 582:rhea\drivers\MCP7940N/MCP7940N.c ****     else          MCP7940N_RegistersLocal.OSCTRIM &= ~MCP7940N_OSCTRIM_SIGN;
 1447              		.loc 1 582 0 is_stmt 1
 1448 0012 0A4A     		ldr	r2, .L135
 1449 0014 137E     		ldrb	r3, [r2, #24]	@ zero_extendqisi2
 1450 0016 03F07F03 		and	r3, r3, #127
 1451 001a 1376     		strb	r3, [r2, #24]
 1452              	.L133:
 583:rhea\drivers\MCP7940N/MCP7940N.c ****     
 584:rhea\drivers\MCP7940N/MCP7940N.c ****     // Setting trimming bits of OSCTRIM register
 585:rhea\drivers\MCP7940N/MCP7940N.c ****     MCP7940N_RegistersLocal.OSCTRIM &= ~MCP7940N_OSCTRIM_TRIMVAL;
ARM GAS  C:\Users\GYULAI~1\AppData\Local\Temp\ccG7iLma.s 			page 37


 1453              		.loc 1 585 0
 1454 001c 074A     		ldr	r2, .L135
 1455 001e 137E     		ldrb	r3, [r2, #24]	@ zero_extendqisi2
 1456 0020 03F08003 		and	r3, r3, #128
 586:rhea\drivers\MCP7940N/MCP7940N.c ****     MCP7940N_RegistersLocal.OSCTRIM |= (uint8_t) abs(value);
 1457              		.loc 1 586 0
 1458 0024 0028     		cmp	r0, #0
 1459 0026 B8BF     		it	lt
 1460 0028 4042     		rsblt	r0, r0, #0
 1461 002a 1843     		orrs	r0, r0, r3
 1462 002c 1076     		strb	r0, [r2, #24]
 587:rhea\drivers\MCP7940N/MCP7940N.c ****     
 588:rhea\drivers\MCP7940N/MCP7940N.c ****     // Writing changes to hardware
 589:rhea\drivers\MCP7940N/MCP7940N.c ****     MCP7940N_I2CWriter(MCP7940N_I2C_ADDR, MCP7940N_CONTROL, (uint8_t*) &MCP7940N_RegistersLocal.CON
 1463              		.loc 1 589 0
 1464 002e 0123     		movs	r3, #1
 1465 0030 1732     		adds	r2, r2, #23
 1466 0032 0721     		movs	r1, #7
 1467 0034 DE20     		movs	r0, #222
 1468 0036 FFF7FEFF 		bl	MCP7940N_I2CWriter
 1469              	.LVL125:
 1470 003a 08BD     		pop	{r3, pc}
 1471              	.L136:
 1472              		.align	2
 1473              	.L135:
 1474 003c 00000000 		.word	.LANCHOR0
 1475              		.cfi_endproc
 1476              	.LFE38:
 1477              		.size	MCP7940N_SetTrimmingValue, .-MCP7940N_SetTrimmingValue
 1478              		.section	.text.MCP7940N_GetTrimmingValue,"ax",%progbits
 1479              		.align	2
 1480              		.global	MCP7940N_GetTrimmingValue
 1481              		.thumb
 1482              		.thumb_func
 1483              		.type	MCP7940N_GetTrimmingValue, %function
 1484              	MCP7940N_GetTrimmingValue:
 1485              	.LFB39:
 590:rhea\drivers\MCP7940N/MCP7940N.c **** }
 591:rhea\drivers\MCP7940N/MCP7940N.c **** 
 592:rhea\drivers\MCP7940N/MCP7940N.c **** int8_t MCP7940N_GetTrimmingValue(void) {
 1486              		.loc 1 592 0
 1487              		.cfi_startproc
 1488              		@ args = 0, pretend = 0, frame = 0
 1489              		@ frame_needed = 0, uses_anonymous_args = 0
 1490              		@ link register save eliminated.
 593:rhea\drivers\MCP7940N/MCP7940N.c ****     
 594:rhea\drivers\MCP7940N/MCP7940N.c ****     // Reading OSCTRIM register
 595:rhea\drivers\MCP7940N/MCP7940N.c ****     uint8_t registerValue = MCP7940N_RegistersLocal.OSCTRIM & MCP7940N_OSCTRIM_TRIMVAL;
 1491              		.loc 1 595 0
 1492 0000 054B     		ldr	r3, .L140
 1493 0002 1B7E     		ldrb	r3, [r3, #24]	@ zero_extendqisi2
 1494 0004 03F07F00 		and	r0, r3, #127
 1495              	.LVL126:
 596:rhea\drivers\MCP7940N/MCP7940N.c ****     
 597:rhea\drivers\MCP7940N/MCP7940N.c ****     // Returning trimming value
 598:rhea\drivers\MCP7940N/MCP7940N.c ****     return MCP7940N_RegistersLocal.OSCTRIM & MCP7940N_OSCTRIM_SIGN ? registerValue : -registerValue
 1496              		.loc 1 598 0
ARM GAS  C:\Users\GYULAI~1\AppData\Local\Temp\ccG7iLma.s 			page 38


 1497 0008 13F0800F 		tst	r3, #128
 1498 000c 02D1     		bne	.L138
 1499              		.loc 1 598 0 is_stmt 0 discriminator 1
 1500 000e 4042     		negs	r0, r0
 1501              	.LVL127:
 1502 0010 40B2     		sxtb	r0, r0
 1503              	.LVL128:
 1504 0012 7047     		bx	lr
 1505              	.LVL129:
 1506              	.L138:
 1507              		.loc 1 598 0 discriminator 2
 1508 0014 40B2     		sxtb	r0, r0
 599:rhea\drivers\MCP7940N/MCP7940N.c **** }
 1509              		.loc 1 599 0 is_stmt 1 discriminator 2
 1510 0016 7047     		bx	lr
 1511              	.L141:
 1512              		.align	2
 1513              	.L140:
 1514 0018 00000000 		.word	.LANCHOR0
 1515              		.cfi_endproc
 1516              	.LFE39:
 1517              		.size	MCP7940N_GetTrimmingValue, .-MCP7940N_GetTrimmingValue
 1518              		.section	.text.MCP7940N_GetSquarewaveFrequency,"ax",%progbits
 1519              		.align	2
 1520              		.global	MCP7940N_GetSquarewaveFrequency
 1521              		.thumb
 1522              		.thumb_func
 1523              		.type	MCP7940N_GetSquarewaveFrequency, %function
 1524              	MCP7940N_GetSquarewaveFrequency:
 1525              	.LFB40:
 600:rhea\drivers\MCP7940N/MCP7940N.c **** 
 601:rhea\drivers\MCP7940N/MCP7940N.c **** uint8_t MCP7940N_GetSquarewaveFrequency(void) {
 1526              		.loc 1 601 0
 1527              		.cfi_startproc
 1528              		@ args = 0, pretend = 0, frame = 0
 1529              		@ frame_needed = 0, uses_anonymous_args = 0
 1530              		@ link register save eliminated.
 602:rhea\drivers\MCP7940N/MCP7940N.c **** 
 603:rhea\drivers\MCP7940N/MCP7940N.c ****     // Returning SQWFS bits of CONTROL register
 604:rhea\drivers\MCP7940N/MCP7940N.c ****     return MCP7940N_RegistersLocal.CONTROL & MCP7940N_CONTROL_SQWFS;
 1531              		.loc 1 604 0
 1532 0000 024B     		ldr	r3, .L143
 1533 0002 D87D     		ldrb	r0, [r3, #23]	@ zero_extendqisi2
 605:rhea\drivers\MCP7940N/MCP7940N.c **** }
 1534              		.loc 1 605 0
 1535 0004 00F00300 		and	r0, r0, #3
 1536 0008 7047     		bx	lr
 1537              	.L144:
 1538 000a 00BF     		.align	2
 1539              	.L143:
 1540 000c 00000000 		.word	.LANCHOR0
 1541              		.cfi_endproc
 1542              	.LFE40:
 1543              		.size	MCP7940N_GetSquarewaveFrequency, .-MCP7940N_GetSquarewaveFrequency
 1544              		.section	.text.MCP7940N_SetSquarewaveFrequency,"ax",%progbits
 1545              		.align	2
 1546              		.global	MCP7940N_SetSquarewaveFrequency
ARM GAS  C:\Users\GYULAI~1\AppData\Local\Temp\ccG7iLma.s 			page 39


 1547              		.thumb
 1548              		.thumb_func
 1549              		.type	MCP7940N_SetSquarewaveFrequency, %function
 1550              	MCP7940N_SetSquarewaveFrequency:
 1551              	.LFB41:
 606:rhea\drivers\MCP7940N/MCP7940N.c **** 
 607:rhea\drivers\MCP7940N/MCP7940N.c **** void MCP7940N_SetSquarewaveFrequency(uint8_t frequency) {
 1552              		.loc 1 607 0
 1553              		.cfi_startproc
 1554              		@ args = 0, pretend = 0, frame = 0
 1555              		@ frame_needed = 0, uses_anonymous_args = 0
 1556              	.LVL130:
 1557 0000 08B5     		push	{r3, lr}
 1558              		.cfi_def_cfa_offset 8
 1559              		.cfi_offset 3, -8
 1560              		.cfi_offset 14, -4
 608:rhea\drivers\MCP7940N/MCP7940N.c ****     
 609:rhea\drivers\MCP7940N/MCP7940N.c ****     // Clearing frequency bits of CONTROL register
 610:rhea\drivers\MCP7940N/MCP7940N.c ****     MCP7940N_RegistersLocal.CONTROL &= ~MCP7940N_CONTROL_SQWFS;
 1561              		.loc 1 610 0
 1562 0002 064A     		ldr	r2, .L147
 1563 0004 D37D     		ldrb	r3, [r2, #23]	@ zero_extendqisi2
 1564 0006 03F0FC03 		and	r3, r3, #252
 611:rhea\drivers\MCP7940N/MCP7940N.c ****     
 612:rhea\drivers\MCP7940N/MCP7940N.c ****     // Setting frequency bits of CONTROL register
 613:rhea\drivers\MCP7940N/MCP7940N.c ****     MCP7940N_RegistersLocal.CONTROL |= frequency;
 1565              		.loc 1 613 0
 1566 000a 1843     		orrs	r0, r0, r3
 1567              	.LVL131:
 1568 000c 02F8170F 		strb	r0, [r2, #23]!
 614:rhea\drivers\MCP7940N/MCP7940N.c ****     
 615:rhea\drivers\MCP7940N/MCP7940N.c ****     // Writing changes to hardware
 616:rhea\drivers\MCP7940N/MCP7940N.c ****     MCP7940N_I2CWriter(MCP7940N_I2C_ADDR, MCP7940N_CONTROL, (uint8_t*) &MCP7940N_RegistersLocal.CON
 1569              		.loc 1 616 0
 1570 0010 0123     		movs	r3, #1
 1571 0012 0721     		movs	r1, #7
 1572 0014 DE20     		movs	r0, #222
 1573 0016 FFF7FEFF 		bl	MCP7940N_I2CWriter
 1574              	.LVL132:
 1575 001a 08BD     		pop	{r3, pc}
 1576              	.L148:
 1577              		.align	2
 1578              	.L147:
 1579 001c 00000000 		.word	.LANCHOR0
 1580              		.cfi_endproc
 1581              	.LFE41:
 1582              		.size	MCP7940N_SetSquarewaveFrequency, .-MCP7940N_SetSquarewaveFrequency
 1583              		.section	.text.MCP7940N_EnableExternalOscillator,"ax",%progbits
 1584              		.align	2
 1585              		.global	MCP7940N_EnableExternalOscillator
 1586              		.thumb
 1587              		.thumb_func
 1588              		.type	MCP7940N_EnableExternalOscillator, %function
 1589              	MCP7940N_EnableExternalOscillator:
 1590              	.LFB42:
 617:rhea\drivers\MCP7940N/MCP7940N.c **** }
 618:rhea\drivers\MCP7940N/MCP7940N.c **** 
ARM GAS  C:\Users\GYULAI~1\AppData\Local\Temp\ccG7iLma.s 			page 40


 619:rhea\drivers\MCP7940N/MCP7940N.c **** void MCP7940N_EnableExternalOscillator(void) {
 1591              		.loc 1 619 0
 1592              		.cfi_startproc
 1593              		@ args = 0, pretend = 0, frame = 0
 1594              		@ frame_needed = 0, uses_anonymous_args = 0
 1595 0000 08B5     		push	{r3, lr}
 1596              		.cfi_def_cfa_offset 8
 1597              		.cfi_offset 3, -8
 1598              		.cfi_offset 14, -4
 620:rhea\drivers\MCP7940N/MCP7940N.c **** 
 621:rhea\drivers\MCP7940N/MCP7940N.c ****     // Setting EXTOSC bit of CONTROL register
 622:rhea\drivers\MCP7940N/MCP7940N.c ****     MCP7940N_RegistersLocal.CONTROL |= MCP7940N_CONTROL_EXTOSC;
 1599              		.loc 1 622 0
 1600 0002 064A     		ldr	r2, .L151
 1601 0004 D37D     		ldrb	r3, [r2, #23]	@ zero_extendqisi2
 1602 0006 43F00803 		orr	r3, r3, #8
 1603 000a 02F8173F 		strb	r3, [r2, #23]!
 623:rhea\drivers\MCP7940N/MCP7940N.c ****     
 624:rhea\drivers\MCP7940N/MCP7940N.c ****     // Writing changes to hardware
 625:rhea\drivers\MCP7940N/MCP7940N.c ****     MCP7940N_I2CWriter(MCP7940N_I2C_ADDR, MCP7940N_CONTROL, (uint8_t*) &MCP7940N_RegistersLocal.CON
 1604              		.loc 1 625 0
 1605 000e 0123     		movs	r3, #1
 1606 0010 0721     		movs	r1, #7
 1607 0012 DE20     		movs	r0, #222
 1608 0014 FFF7FEFF 		bl	MCP7940N_I2CWriter
 1609              	.LVL133:
 1610 0018 08BD     		pop	{r3, pc}
 1611              	.L152:
 1612 001a 00BF     		.align	2
 1613              	.L151:
 1614 001c 00000000 		.word	.LANCHOR0
 1615              		.cfi_endproc
 1616              	.LFE42:
 1617              		.size	MCP7940N_EnableExternalOscillator, .-MCP7940N_EnableExternalOscillator
 1618              		.section	.text.MCP7940N_DisableExternalOscillator,"ax",%progbits
 1619              		.align	2
 1620              		.global	MCP7940N_DisableExternalOscillator
 1621              		.thumb
 1622              		.thumb_func
 1623              		.type	MCP7940N_DisableExternalOscillator, %function
 1624              	MCP7940N_DisableExternalOscillator:
 1625              	.LFB43:
 626:rhea\drivers\MCP7940N/MCP7940N.c **** }
 627:rhea\drivers\MCP7940N/MCP7940N.c **** 
 628:rhea\drivers\MCP7940N/MCP7940N.c **** void MCP7940N_DisableExternalOscillator(void) {
 1626              		.loc 1 628 0
 1627              		.cfi_startproc
 1628              		@ args = 0, pretend = 0, frame = 0
 1629              		@ frame_needed = 0, uses_anonymous_args = 0
 1630 0000 08B5     		push	{r3, lr}
 1631              		.cfi_def_cfa_offset 8
 1632              		.cfi_offset 3, -8
 1633              		.cfi_offset 14, -4
 629:rhea\drivers\MCP7940N/MCP7940N.c **** 
 630:rhea\drivers\MCP7940N/MCP7940N.c ****     // Clearing EXTOSC bit of CONTROL register
 631:rhea\drivers\MCP7940N/MCP7940N.c ****     MCP7940N_RegistersLocal.CONTROL &= ~MCP7940N_CONTROL_EXTOSC;
 1634              		.loc 1 631 0
ARM GAS  C:\Users\GYULAI~1\AppData\Local\Temp\ccG7iLma.s 			page 41


 1635 0002 064A     		ldr	r2, .L155
 1636 0004 D37D     		ldrb	r3, [r2, #23]	@ zero_extendqisi2
 1637 0006 23F00803 		bic	r3, r3, #8
 1638 000a 02F8173F 		strb	r3, [r2, #23]!
 632:rhea\drivers\MCP7940N/MCP7940N.c ****     
 633:rhea\drivers\MCP7940N/MCP7940N.c ****     // Writing changes to hardware
 634:rhea\drivers\MCP7940N/MCP7940N.c ****     MCP7940N_I2CWriter(MCP7940N_I2C_ADDR, MCP7940N_CONTROL, (uint8_t*) &MCP7940N_RegistersLocal.CON
 1639              		.loc 1 634 0
 1640 000e 0123     		movs	r3, #1
 1641 0010 0721     		movs	r1, #7
 1642 0012 DE20     		movs	r0, #222
 1643 0014 FFF7FEFF 		bl	MCP7940N_I2CWriter
 1644              	.LVL134:
 1645 0018 08BD     		pop	{r3, pc}
 1646              	.L156:
 1647 001a 00BF     		.align	2
 1648              	.L155:
 1649 001c 00000000 		.word	.LANCHOR0
 1650              		.cfi_endproc
 1651              	.LFE43:
 1652              		.size	MCP7940N_DisableExternalOscillator, .-MCP7940N_DisableExternalOscillator
 1653              		.section	.text.MCP7940N_IsExternalOscillatorEnabled,"ax",%progbits
 1654              		.align	2
 1655              		.global	MCP7940N_IsExternalOscillatorEnabled
 1656              		.thumb
 1657              		.thumb_func
 1658              		.type	MCP7940N_IsExternalOscillatorEnabled, %function
 1659              	MCP7940N_IsExternalOscillatorEnabled:
 1660              	.LFB44:
 635:rhea\drivers\MCP7940N/MCP7940N.c **** }
 636:rhea\drivers\MCP7940N/MCP7940N.c **** 
 637:rhea\drivers\MCP7940N/MCP7940N.c **** uint8_t MCP7940N_IsExternalOscillatorEnabled(void) {
 1661              		.loc 1 637 0
 1662              		.cfi_startproc
 1663              		@ args = 0, pretend = 0, frame = 0
 1664              		@ frame_needed = 0, uses_anonymous_args = 0
 1665              		@ link register save eliminated.
 638:rhea\drivers\MCP7940N/MCP7940N.c **** 
 639:rhea\drivers\MCP7940N/MCP7940N.c ****     // Returning whether EXTOSC bit of CONTROL register is set
 640:rhea\drivers\MCP7940N/MCP7940N.c ****     return MCP7940N_RegistersLocal.CONTROL & MCP7940N_CONTROL_EXTOSC;
 1666              		.loc 1 640 0
 1667 0000 024B     		ldr	r3, .L158
 1668 0002 D87D     		ldrb	r0, [r3, #23]	@ zero_extendqisi2
 641:rhea\drivers\MCP7940N/MCP7940N.c **** }
 1669              		.loc 1 641 0
 1670 0004 00F00800 		and	r0, r0, #8
 1671 0008 7047     		bx	lr
 1672              	.L159:
 1673 000a 00BF     		.align	2
 1674              	.L158:
 1675 000c 00000000 		.word	.LANCHOR0
 1676              		.cfi_endproc
 1677              	.LFE44:
 1678              		.size	MCP7940N_IsExternalOscillatorEnabled, .-MCP7940N_IsExternalOscillatorEnabled
 1679              		.section	.text.MCP7940N_WriteRegisters,"ax",%progbits
 1680              		.align	2
 1681              		.global	MCP7940N_WriteRegisters
ARM GAS  C:\Users\GYULAI~1\AppData\Local\Temp\ccG7iLma.s 			page 42


 1682              		.thumb
 1683              		.thumb_func
 1684              		.type	MCP7940N_WriteRegisters, %function
 1685              	MCP7940N_WriteRegisters:
 1686              	.LFB4:
 100:rhea\drivers\MCP7940N/MCP7940N.c ****     
 1687              		.loc 1 100 0
 1688              		.cfi_startproc
 1689              		@ args = 0, pretend = 0, frame = 0
 1690              		@ frame_needed = 0, uses_anonymous_args = 0
 1691 0000 38B5     		push	{r3, r4, r5, lr}
 1692              		.cfi_def_cfa_offset 16
 1693              		.cfi_offset 3, -16
 1694              		.cfi_offset 4, -12
 1695              		.cfi_offset 5, -8
 1696              		.cfi_offset 14, -4
 103:rhea\drivers\MCP7940N/MCP7940N.c ****     uint8_t internalStatus = MCP7940N_IsOscillatorEnabled();
 1697              		.loc 1 103 0
 1698 0002 FFF7FEFF 		bl	MCP7940N_IsExternalOscillatorEnabled
 1699              	.LVL135:
 1700 0006 0446     		mov	r4, r0
 1701              	.LVL136:
 104:rhea\drivers\MCP7940N/MCP7940N.c ****         
 1702              		.loc 1 104 0
 1703 0008 FFF7FEFF 		bl	MCP7940N_IsOscillatorEnabled
 1704              	.LVL137:
 1705 000c 0546     		mov	r5, r0
 1706              	.LVL138:
 107:rhea\drivers\MCP7940N/MCP7940N.c ****     else if(internalStatus) MCP7940N_DisableOscillator();
 1707              		.loc 1 107 0
 1708 000e 14B1     		cbz	r4, .L161
 107:rhea\drivers\MCP7940N/MCP7940N.c ****     else if(internalStatus) MCP7940N_DisableOscillator();
 1709              		.loc 1 107 0 is_stmt 0 discriminator 1
 1710 0010 FFF7FEFF 		bl	MCP7940N_DisableExternalOscillator
 1711              	.LVL139:
 1712 0014 02E0     		b	.L163
 1713              	.LVL140:
 1714              	.L161:
 108:rhea\drivers\MCP7940N/MCP7940N.c ****     
 1715              		.loc 1 108 0 is_stmt 1
 1716 0016 08B1     		cbz	r0, .L163
 108:rhea\drivers\MCP7940N/MCP7940N.c ****     
 1717              		.loc 1 108 0 is_stmt 0 discriminator 1
 1718 0018 FFF7FEFF 		bl	MCP7940N_DisableOscillator
 1719              	.LVL141:
 1720              	.L163:
 111:rhea\drivers\MCP7940N/MCP7940N.c ****     
 1721              		.loc 1 111 0 is_stmt 1 discriminator 1
 1722 001c FFF7FEFF 		bl	MCP7940N_IsOscillatorRunning
 1723              	.LVL142:
 1724 0020 0028     		cmp	r0, #0
 1725 0022 FBD1     		bne	.L163
 114:rhea\drivers\MCP7940N/MCP7940N.c ****                        MCP7940N_REGISTER_COUNT);
 1726              		.loc 1 114 0
 1727 0024 2023     		movs	r3, #32
 1728 0026 064A     		ldr	r2, .L167
 1729 0028 0021     		movs	r1, #0
ARM GAS  C:\Users\GYULAI~1\AppData\Local\Temp\ccG7iLma.s 			page 43


 1730 002a DE20     		movs	r0, #222
 1731 002c FFF7FEFF 		bl	MCP7940N_I2CWriter
 1732              	.LVL143:
 118:rhea\drivers\MCP7940N/MCP7940N.c ****     else if(internalStatus) MCP7940N_EnableOscillator();
 1733              		.loc 1 118 0
 1734 0030 14B1     		cbz	r4, .L164
 118:rhea\drivers\MCP7940N/MCP7940N.c ****     else if(internalStatus) MCP7940N_EnableOscillator();
 1735              		.loc 1 118 0 is_stmt 0 discriminator 1
 1736 0032 FFF7FEFF 		bl	MCP7940N_EnableExternalOscillator
 1737              	.LVL144:
 1738 0036 38BD     		pop	{r3, r4, r5, pc}
 1739              	.LVL145:
 1740              	.L164:
 119:rhea\drivers\MCP7940N/MCP7940N.c **** }
 1741              		.loc 1 119 0 is_stmt 1
 1742 0038 0DB1     		cbz	r5, .L160
 119:rhea\drivers\MCP7940N/MCP7940N.c **** }
 1743              		.loc 1 119 0 is_stmt 0 discriminator 1
 1744 003a FFF7FEFF 		bl	MCP7940N_EnableOscillator
 1745              	.LVL146:
 1746              	.L160:
 1747 003e 38BD     		pop	{r3, r4, r5, pc}
 1748              	.LVL147:
 1749              	.L168:
 1750              		.align	2
 1751              	.L167:
 1752 0040 10000000 		.word	.LANCHOR0+16
 1753              		.cfi_endproc
 1754              	.LFE4:
 1755              		.size	MCP7940N_WriteRegisters, .-MCP7940N_WriteRegisters
 1756              		.section	.text.MCP7940N_SetDatetime,"ax",%progbits
 1757              		.align	2
 1758              		.global	MCP7940N_SetDatetime
 1759              		.thumb
 1760              		.thumb_func
 1761              		.type	MCP7940N_SetDatetime, %function
 1762              	MCP7940N_SetDatetime:
 1763              	.LFB14:
 242:rhea\drivers\MCP7940N/MCP7940N.c ****     
 1764              		.loc 1 242 0 is_stmt 1
 1765              		.cfi_startproc
 1766              		@ args = 0, pretend = 0, frame = 8
 1767              		@ frame_needed = 0, uses_anonymous_args = 0
 1768 0000 70B5     		push	{r4, r5, r6, lr}
 1769              		.cfi_def_cfa_offset 16
 1770              		.cfi_offset 4, -16
 1771              		.cfi_offset 5, -12
 1772              		.cfi_offset 6, -8
 1773              		.cfi_offset 14, -4
 1774 0002 82B0     		sub	sp, sp, #8
 1775              		.cfi_def_cfa_offset 24
 1776 0004 02AB     		add	r3, sp, #8
 1777 0006 03E90300 		stmdb	r3, {r0, r1}
 245:rhea\drivers\MCP7940N/MCP7940N.c ****     uint8_t internalStatus = MCP7940N_IsOscillatorEnabled();
 1778              		.loc 1 245 0
 1779 000a FFF7FEFF 		bl	MCP7940N_IsExternalOscillatorEnabled
 1780              	.LVL148:
ARM GAS  C:\Users\GYULAI~1\AppData\Local\Temp\ccG7iLma.s 			page 44


 1781 000e 0446     		mov	r4, r0
 1782              	.LVL149:
 246:rhea\drivers\MCP7940N/MCP7940N.c ****     
 1783              		.loc 1 246 0
 1784 0010 FFF7FEFF 		bl	MCP7940N_IsOscillatorEnabled
 1785              	.LVL150:
 1786 0014 0646     		mov	r6, r0
 1787              	.LVL151:
 249:rhea\drivers\MCP7940N/MCP7940N.c ****     else if(internalStatus) MCP7940N_DisableOscillator();
 1788              		.loc 1 249 0
 1789 0016 14B1     		cbz	r4, .L170
 249:rhea\drivers\MCP7940N/MCP7940N.c ****     else if(internalStatus) MCP7940N_DisableOscillator();
 1790              		.loc 1 249 0 is_stmt 0 discriminator 1
 1791 0018 FFF7FEFF 		bl	MCP7940N_DisableExternalOscillator
 1792              	.LVL152:
 1793 001c 02E0     		b	.L172
 1794              	.LVL153:
 1795              	.L170:
 250:rhea\drivers\MCP7940N/MCP7940N.c ****     
 1796              		.loc 1 250 0 is_stmt 1
 1797 001e 08B1     		cbz	r0, .L172
 250:rhea\drivers\MCP7940N/MCP7940N.c ****     
 1798              		.loc 1 250 0 is_stmt 0 discriminator 1
 1799 0020 FFF7FEFF 		bl	MCP7940N_DisableOscillator
 1800              	.LVL154:
 1801              	.L172:
 253:rhea\drivers\MCP7940N/MCP7940N.c ****     
 1802              		.loc 1 253 0 is_stmt 1 discriminator 1
 1803 0024 FFF7FEFF 		bl	MCP7940N_IsOscillatorRunning
 1804              	.LVL155:
 1805 0028 0028     		cmp	r0, #0
 1806 002a FBD1     		bne	.L172
 256:rhea\drivers\MCP7940N/MCP7940N.c ****                        MCP7940N_RTCYEAR - MCP7940N_RTCSEC + 1);
 1807              		.loc 1 256 0
 1808 002c 184D     		ldr	r5, .L176
 1809 002e 0723     		movs	r3, #7
 1810 0030 2A46     		mov	r2, r5
 1811 0032 0021     		movs	r1, #0
 1812 0034 DE20     		movs	r0, #222
 1813 0036 FFF7FEFF 		bl	MCP7940N_I2CReader
 1814              	.LVL156:
 260:rhea\drivers\MCP7940N/MCP7940N.c ****     MCP7940N_SetMonths(datetime.month);
 1815              		.loc 1 260 0
 1816 003a BDF80000 		ldrh	r0, [sp]
 1817 003e FFF7FEFF 		bl	MCP7940N_SetYears
 1818              	.LVL157:
 261:rhea\drivers\MCP7940N/MCP7940N.c ****     MCP7940N_SetDate(datetime.date);
 1819              		.loc 1 261 0
 1820 0042 9DF80200 		ldrb	r0, [sp, #2]	@ zero_extendqisi2
 1821 0046 FFF7FEFF 		bl	MCP7940N_SetMonths
 1822              	.LVL158:
 262:rhea\drivers\MCP7940N/MCP7940N.c ****     MCP7940N_SetWeekday(datetime.weekday);
 1823              		.loc 1 262 0
 1824 004a 9DF80300 		ldrb	r0, [sp, #3]	@ zero_extendqisi2
 1825 004e FFF7FEFF 		bl	MCP7940N_SetDate
 1826              	.LVL159:
 263:rhea\drivers\MCP7940N/MCP7940N.c ****     MCP7940N_SetHours(datetime.hour);
ARM GAS  C:\Users\GYULAI~1\AppData\Local\Temp\ccG7iLma.s 			page 45


 1827              		.loc 1 263 0
 1828 0052 9DF80400 		ldrb	r0, [sp, #4]	@ zero_extendqisi2
 1829 0056 FFF7FEFF 		bl	MCP7940N_SetWeekday
 1830              	.LVL160:
 264:rhea\drivers\MCP7940N/MCP7940N.c ****     MCP7940N_SetMinutes(datetime.minute);
 1831              		.loc 1 264 0
 1832 005a 9DF80500 		ldrb	r0, [sp, #5]	@ zero_extendqisi2
 1833 005e FFF7FEFF 		bl	MCP7940N_SetHours
 1834              	.LVL161:
 265:rhea\drivers\MCP7940N/MCP7940N.c ****     MCP7940N_SetSeconds(datetime.second);
 1835              		.loc 1 265 0
 1836 0062 9DF80600 		ldrb	r0, [sp, #6]	@ zero_extendqisi2
 1837 0066 FFF7FEFF 		bl	MCP7940N_SetMinutes
 1838              	.LVL162:
 266:rhea\drivers\MCP7940N/MCP7940N.c ****     
 1839              		.loc 1 266 0
 1840 006a 9DF80700 		ldrb	r0, [sp, #7]	@ zero_extendqisi2
 1841 006e FFF7FEFF 		bl	MCP7940N_SetSeconds
 1842              	.LVL163:
 269:rhea\drivers\MCP7940N/MCP7940N.c ****                        MCP7940N_RTCYEAR - MCP7940N_RTCSEC + 1);
 1843              		.loc 1 269 0
 1844 0072 0723     		movs	r3, #7
 1845 0074 2A46     		mov	r2, r5
 1846 0076 0021     		movs	r1, #0
 1847 0078 DE20     		movs	r0, #222
 1848 007a FFF7FEFF 		bl	MCP7940N_I2CWriter
 1849              	.LVL164:
 273:rhea\drivers\MCP7940N/MCP7940N.c ****     else if(internalStatus) MCP7940N_EnableOscillator();
 1850              		.loc 1 273 0
 1851 007e 14B1     		cbz	r4, .L173
 273:rhea\drivers\MCP7940N/MCP7940N.c ****     else if(internalStatus) MCP7940N_EnableOscillator();
 1852              		.loc 1 273 0 is_stmt 0 discriminator 1
 1853 0080 FFF7FEFF 		bl	MCP7940N_EnableExternalOscillator
 1854              	.LVL165:
 1855 0084 02E0     		b	.L169
 1856              	.L173:
 274:rhea\drivers\MCP7940N/MCP7940N.c **** }
 1857              		.loc 1 274 0 is_stmt 1
 1858 0086 0EB1     		cbz	r6, .L169
 274:rhea\drivers\MCP7940N/MCP7940N.c **** }
 1859              		.loc 1 274 0 is_stmt 0 discriminator 1
 1860 0088 FFF7FEFF 		bl	MCP7940N_EnableOscillator
 1861              	.LVL166:
 1862              	.L169:
 275:rhea\drivers\MCP7940N/MCP7940N.c **** 
 1863              		.loc 1 275 0 is_stmt 1
 1864 008c 02B0     		add	sp, sp, #8
 1865              		.cfi_def_cfa_offset 16
 1866              		@ sp needed
 1867 008e 70BD     		pop	{r4, r5, r6, pc}
 1868              	.LVL167:
 1869              	.L177:
 1870              		.align	2
 1871              	.L176:
 1872 0090 10000000 		.word	.LANCHOR0+16
 1873              		.cfi_endproc
 1874              	.LFE14:
ARM GAS  C:\Users\GYULAI~1\AppData\Local\Temp\ccG7iLma.s 			page 46


 1875              		.size	MCP7940N_SetDatetime, .-MCP7940N_SetDatetime
 1876              		.section	.text.MCP7940N_EnableBattery,"ax",%progbits
 1877              		.align	2
 1878              		.global	MCP7940N_EnableBattery
 1879              		.thumb
 1880              		.thumb_func
 1881              		.type	MCP7940N_EnableBattery, %function
 1882              	MCP7940N_EnableBattery:
 1883              	.LFB26:
 401:rhea\drivers\MCP7940N/MCP7940N.c ****     
 1884              		.loc 1 401 0
 1885              		.cfi_startproc
 1886              		@ args = 0, pretend = 0, frame = 0
 1887              		@ frame_needed = 0, uses_anonymous_args = 0
 1888 0000 F8B5     		push	{r3, r4, r5, r6, r7, lr}
 1889              		.cfi_def_cfa_offset 24
 1890              		.cfi_offset 3, -24
 1891              		.cfi_offset 4, -20
 1892              		.cfi_offset 5, -16
 1893              		.cfi_offset 6, -12
 1894              		.cfi_offset 7, -8
 1895              		.cfi_offset 14, -4
 404:rhea\drivers\MCP7940N/MCP7940N.c ****     uint8_t internalStatus = MCP7940N_IsOscillatorEnabled();
 1896              		.loc 1 404 0
 1897 0002 FFF7FEFF 		bl	MCP7940N_IsExternalOscillatorEnabled
 1898              	.LVL168:
 1899 0006 0546     		mov	r5, r0
 1900              	.LVL169:
 405:rhea\drivers\MCP7940N/MCP7940N.c ****     
 1901              		.loc 1 405 0
 1902 0008 FFF7FEFF 		bl	MCP7940N_IsOscillatorEnabled
 1903              	.LVL170:
 1904 000c 0746     		mov	r7, r0
 1905              	.LVL171:
 408:rhea\drivers\MCP7940N/MCP7940N.c ****     else if(internalStatus) MCP7940N_DisableOscillator();
 1906              		.loc 1 408 0
 1907 000e 15B1     		cbz	r5, .L179
 408:rhea\drivers\MCP7940N/MCP7940N.c ****     else if(internalStatus) MCP7940N_DisableOscillator();
 1908              		.loc 1 408 0 is_stmt 0 discriminator 1
 1909 0010 FFF7FEFF 		bl	MCP7940N_DisableExternalOscillator
 1910              	.LVL172:
 1911 0014 02E0     		b	.L181
 1912              	.LVL173:
 1913              	.L179:
 409:rhea\drivers\MCP7940N/MCP7940N.c ****     
 1914              		.loc 1 409 0 is_stmt 1
 1915 0016 08B1     		cbz	r0, .L181
 409:rhea\drivers\MCP7940N/MCP7940N.c ****     
 1916              		.loc 1 409 0 is_stmt 0 discriminator 1
 1917 0018 FFF7FEFF 		bl	MCP7940N_DisableOscillator
 1918              	.LVL174:
 1919              	.L181:
 412:rhea\drivers\MCP7940N/MCP7940N.c ****     
 1920              		.loc 1 412 0 is_stmt 1 discriminator 1
 1921 001c FFF7FEFF 		bl	MCP7940N_IsOscillatorRunning
 1922              	.LVL175:
 1923 0020 0028     		cmp	r0, #0
ARM GAS  C:\Users\GYULAI~1\AppData\Local\Temp\ccG7iLma.s 			page 47


 1924 0022 FBD1     		bne	.L181
 415:rhea\drivers\MCP7940N/MCP7940N.c **** 
 1925              		.loc 1 415 0
 1926 0024 0D4C     		ldr	r4, .L185
 1927 0026 04F11306 		add	r6, r4, #19
 1928 002a 0123     		movs	r3, #1
 1929 002c 3246     		mov	r2, r6
 1930 002e 0321     		movs	r1, #3
 1931 0030 DE20     		movs	r0, #222
 1932 0032 FFF7FEFF 		bl	MCP7940N_I2CReader
 1933              	.LVL176:
 418:rhea\drivers\MCP7940N/MCP7940N.c ****     
 1934              		.loc 1 418 0
 1935 0036 E37C     		ldrb	r3, [r4, #19]	@ zero_extendqisi2
 1936 0038 43F00803 		orr	r3, r3, #8
 1937 003c E374     		strb	r3, [r4, #19]
 421:rhea\drivers\MCP7940N/MCP7940N.c **** 
 1938              		.loc 1 421 0
 1939 003e 0123     		movs	r3, #1
 1940 0040 3246     		mov	r2, r6
 1941 0042 0321     		movs	r1, #3
 1942 0044 DE20     		movs	r0, #222
 1943 0046 FFF7FEFF 		bl	MCP7940N_I2CWriter
 1944              	.LVL177:
 424:rhea\drivers\MCP7940N/MCP7940N.c ****     else if(internalStatus) MCP7940N_EnableOscillator();
 1945              		.loc 1 424 0
 1946 004a 15B1     		cbz	r5, .L182
 424:rhea\drivers\MCP7940N/MCP7940N.c ****     else if(internalStatus) MCP7940N_EnableOscillator();
 1947              		.loc 1 424 0 is_stmt 0 discriminator 1
 1948 004c FFF7FEFF 		bl	MCP7940N_EnableExternalOscillator
 1949              	.LVL178:
 1950 0050 F8BD     		pop	{r3, r4, r5, r6, r7, pc}
 1951              	.LVL179:
 1952              	.L182:
 425:rhea\drivers\MCP7940N/MCP7940N.c **** }
 1953              		.loc 1 425 0 is_stmt 1
 1954 0052 0FB1     		cbz	r7, .L178
 425:rhea\drivers\MCP7940N/MCP7940N.c **** }
 1955              		.loc 1 425 0 is_stmt 0 discriminator 1
 1956 0054 FFF7FEFF 		bl	MCP7940N_EnableOscillator
 1957              	.LVL180:
 1958              	.L178:
 1959 0058 F8BD     		pop	{r3, r4, r5, r6, r7, pc}
 1960              	.LVL181:
 1961              	.L186:
 1962 005a 00BF     		.align	2
 1963              	.L185:
 1964 005c 00000000 		.word	.LANCHOR0
 1965              		.cfi_endproc
 1966              	.LFE26:
 1967              		.size	MCP7940N_EnableBattery, .-MCP7940N_EnableBattery
 1968              		.section	.text.MCP7940N_DisableBattery,"ax",%progbits
 1969              		.align	2
 1970              		.global	MCP7940N_DisableBattery
 1971              		.thumb
 1972              		.thumb_func
 1973              		.type	MCP7940N_DisableBattery, %function
ARM GAS  C:\Users\GYULAI~1\AppData\Local\Temp\ccG7iLma.s 			page 48


 1974              	MCP7940N_DisableBattery:
 1975              	.LFB27:
 428:rhea\drivers\MCP7940N/MCP7940N.c ****     
 1976              		.loc 1 428 0 is_stmt 1
 1977              		.cfi_startproc
 1978              		@ args = 0, pretend = 0, frame = 0
 1979              		@ frame_needed = 0, uses_anonymous_args = 0
 1980 0000 F8B5     		push	{r3, r4, r5, r6, r7, lr}
 1981              		.cfi_def_cfa_offset 24
 1982              		.cfi_offset 3, -24
 1983              		.cfi_offset 4, -20
 1984              		.cfi_offset 5, -16
 1985              		.cfi_offset 6, -12
 1986              		.cfi_offset 7, -8
 1987              		.cfi_offset 14, -4
 431:rhea\drivers\MCP7940N/MCP7940N.c ****     uint8_t internalStatus = MCP7940N_IsOscillatorEnabled();
 1988              		.loc 1 431 0
 1989 0002 FFF7FEFF 		bl	MCP7940N_IsExternalOscillatorEnabled
 1990              	.LVL182:
 1991 0006 0546     		mov	r5, r0
 1992              	.LVL183:
 432:rhea\drivers\MCP7940N/MCP7940N.c ****     
 1993              		.loc 1 432 0
 1994 0008 FFF7FEFF 		bl	MCP7940N_IsOscillatorEnabled
 1995              	.LVL184:
 1996 000c 0746     		mov	r7, r0
 1997              	.LVL185:
 435:rhea\drivers\MCP7940N/MCP7940N.c ****     else if(internalStatus) MCP7940N_DisableOscillator();
 1998              		.loc 1 435 0
 1999 000e 15B1     		cbz	r5, .L188
 435:rhea\drivers\MCP7940N/MCP7940N.c ****     else if(internalStatus) MCP7940N_DisableOscillator();
 2000              		.loc 1 435 0 is_stmt 0 discriminator 1
 2001 0010 FFF7FEFF 		bl	MCP7940N_DisableExternalOscillator
 2002              	.LVL186:
 2003 0014 02E0     		b	.L190
 2004              	.LVL187:
 2005              	.L188:
 436:rhea\drivers\MCP7940N/MCP7940N.c ****     
 2006              		.loc 1 436 0 is_stmt 1
 2007 0016 08B1     		cbz	r0, .L190
 436:rhea\drivers\MCP7940N/MCP7940N.c ****     
 2008              		.loc 1 436 0 is_stmt 0 discriminator 1
 2009 0018 FFF7FEFF 		bl	MCP7940N_DisableOscillator
 2010              	.LVL188:
 2011              	.L190:
 439:rhea\drivers\MCP7940N/MCP7940N.c ****     
 2012              		.loc 1 439 0 is_stmt 1 discriminator 1
 2013 001c FFF7FEFF 		bl	MCP7940N_IsOscillatorRunning
 2014              	.LVL189:
 2015 0020 0028     		cmp	r0, #0
 2016 0022 FBD1     		bne	.L190
 442:rhea\drivers\MCP7940N/MCP7940N.c ****     
 2017              		.loc 1 442 0
 2018 0024 0D4C     		ldr	r4, .L194
 2019 0026 04F11306 		add	r6, r4, #19
 2020 002a 0123     		movs	r3, #1
 2021 002c 3246     		mov	r2, r6
ARM GAS  C:\Users\GYULAI~1\AppData\Local\Temp\ccG7iLma.s 			page 49


 2022 002e 0321     		movs	r1, #3
 2023 0030 DE20     		movs	r0, #222
 2024 0032 FFF7FEFF 		bl	MCP7940N_I2CReader
 2025              	.LVL190:
 445:rhea\drivers\MCP7940N/MCP7940N.c ****     
 2026              		.loc 1 445 0
 2027 0036 E37C     		ldrb	r3, [r4, #19]	@ zero_extendqisi2
 2028 0038 23F00803 		bic	r3, r3, #8
 2029 003c E374     		strb	r3, [r4, #19]
 448:rhea\drivers\MCP7940N/MCP7940N.c **** 
 2030              		.loc 1 448 0
 2031 003e 0123     		movs	r3, #1
 2032 0040 3246     		mov	r2, r6
 2033 0042 0321     		movs	r1, #3
 2034 0044 DE20     		movs	r0, #222
 2035 0046 FFF7FEFF 		bl	MCP7940N_I2CWriter
 2036              	.LVL191:
 451:rhea\drivers\MCP7940N/MCP7940N.c ****     else if(internalStatus) MCP7940N_EnableOscillator();
 2037              		.loc 1 451 0
 2038 004a 15B1     		cbz	r5, .L191
 451:rhea\drivers\MCP7940N/MCP7940N.c ****     else if(internalStatus) MCP7940N_EnableOscillator();
 2039              		.loc 1 451 0 is_stmt 0 discriminator 1
 2040 004c FFF7FEFF 		bl	MCP7940N_EnableExternalOscillator
 2041              	.LVL192:
 2042 0050 F8BD     		pop	{r3, r4, r5, r6, r7, pc}
 2043              	.LVL193:
 2044              	.L191:
 452:rhea\drivers\MCP7940N/MCP7940N.c **** }
 2045              		.loc 1 452 0 is_stmt 1
 2046 0052 0FB1     		cbz	r7, .L187
 452:rhea\drivers\MCP7940N/MCP7940N.c **** }
 2047              		.loc 1 452 0 is_stmt 0 discriminator 1
 2048 0054 FFF7FEFF 		bl	MCP7940N_EnableOscillator
 2049              	.LVL194:
 2050              	.L187:
 2051 0058 F8BD     		pop	{r3, r4, r5, r6, r7, pc}
 2052              	.LVL195:
 2053              	.L195:
 2054 005a 00BF     		.align	2
 2055              	.L194:
 2056 005c 00000000 		.word	.LANCHOR0
 2057              		.cfi_endproc
 2058              	.LFE27:
 2059              		.size	MCP7940N_DisableBattery, .-MCP7940N_DisableBattery
 2060              		.section	.text.MCP7940N_ClearPowerFailed,"ax",%progbits
 2061              		.align	2
 2062              		.global	MCP7940N_ClearPowerFailed
 2063              		.thumb
 2064              		.thumb_func
 2065              		.type	MCP7940N_ClearPowerFailed, %function
 2066              	MCP7940N_ClearPowerFailed:
 2067              	.LFB30:
 473:rhea\drivers\MCP7940N/MCP7940N.c ****     
 2068              		.loc 1 473 0 is_stmt 1
 2069              		.cfi_startproc
 2070              		@ args = 0, pretend = 0, frame = 0
 2071              		@ frame_needed = 0, uses_anonymous_args = 0
ARM GAS  C:\Users\GYULAI~1\AppData\Local\Temp\ccG7iLma.s 			page 50


 2072 0000 F8B5     		push	{r3, r4, r5, r6, r7, lr}
 2073              		.cfi_def_cfa_offset 24
 2074              		.cfi_offset 3, -24
 2075              		.cfi_offset 4, -20
 2076              		.cfi_offset 5, -16
 2077              		.cfi_offset 6, -12
 2078              		.cfi_offset 7, -8
 2079              		.cfi_offset 14, -4
 476:rhea\drivers\MCP7940N/MCP7940N.c ****     uint8_t internalStatus = MCP7940N_IsOscillatorEnabled();
 2080              		.loc 1 476 0
 2081 0002 FFF7FEFF 		bl	MCP7940N_IsExternalOscillatorEnabled
 2082              	.LVL196:
 2083 0006 0546     		mov	r5, r0
 2084              	.LVL197:
 477:rhea\drivers\MCP7940N/MCP7940N.c ****     
 2085              		.loc 1 477 0
 2086 0008 FFF7FEFF 		bl	MCP7940N_IsOscillatorEnabled
 2087              	.LVL198:
 2088 000c 0746     		mov	r7, r0
 2089              	.LVL199:
 480:rhea\drivers\MCP7940N/MCP7940N.c ****     else if(internalStatus) MCP7940N_DisableOscillator();
 2090              		.loc 1 480 0
 2091 000e 15B1     		cbz	r5, .L197
 480:rhea\drivers\MCP7940N/MCP7940N.c ****     else if(internalStatus) MCP7940N_DisableOscillator();
 2092              		.loc 1 480 0 is_stmt 0 discriminator 1
 2093 0010 FFF7FEFF 		bl	MCP7940N_DisableExternalOscillator
 2094              	.LVL200:
 2095 0014 02E0     		b	.L199
 2096              	.LVL201:
 2097              	.L197:
 481:rhea\drivers\MCP7940N/MCP7940N.c ****     
 2098              		.loc 1 481 0 is_stmt 1
 2099 0016 08B1     		cbz	r0, .L199
 481:rhea\drivers\MCP7940N/MCP7940N.c ****     
 2100              		.loc 1 481 0 is_stmt 0 discriminator 1
 2101 0018 FFF7FEFF 		bl	MCP7940N_DisableOscillator
 2102              	.LVL202:
 2103              	.L199:
 484:rhea\drivers\MCP7940N/MCP7940N.c ****     
 2104              		.loc 1 484 0 is_stmt 1 discriminator 1
 2105 001c FFF7FEFF 		bl	MCP7940N_IsOscillatorRunning
 2106              	.LVL203:
 2107 0020 0028     		cmp	r0, #0
 2108 0022 FBD1     		bne	.L199
 487:rhea\drivers\MCP7940N/MCP7940N.c ****     
 2109              		.loc 1 487 0
 2110 0024 0D4C     		ldr	r4, .L203
 2111 0026 04F11306 		add	r6, r4, #19
 2112 002a 0123     		movs	r3, #1
 2113 002c 3246     		mov	r2, r6
 2114 002e 0321     		movs	r1, #3
 2115 0030 DE20     		movs	r0, #222
 2116 0032 FFF7FEFF 		bl	MCP7940N_I2CReader
 2117              	.LVL204:
 490:rhea\drivers\MCP7940N/MCP7940N.c ****     
 2118              		.loc 1 490 0
 2119 0036 E37C     		ldrb	r3, [r4, #19]	@ zero_extendqisi2
ARM GAS  C:\Users\GYULAI~1\AppData\Local\Temp\ccG7iLma.s 			page 51


 2120 0038 23F01003 		bic	r3, r3, #16
 2121 003c E374     		strb	r3, [r4, #19]
 493:rhea\drivers\MCP7940N/MCP7940N.c **** 
 2122              		.loc 1 493 0
 2123 003e 0123     		movs	r3, #1
 2124 0040 3246     		mov	r2, r6
 2125 0042 0321     		movs	r1, #3
 2126 0044 DE20     		movs	r0, #222
 2127 0046 FFF7FEFF 		bl	MCP7940N_I2CWriter
 2128              	.LVL205:
 496:rhea\drivers\MCP7940N/MCP7940N.c ****     else if(internalStatus) MCP7940N_EnableOscillator();
 2129              		.loc 1 496 0
 2130 004a 15B1     		cbz	r5, .L200
 496:rhea\drivers\MCP7940N/MCP7940N.c ****     else if(internalStatus) MCP7940N_EnableOscillator();
 2131              		.loc 1 496 0 is_stmt 0 discriminator 1
 2132 004c FFF7FEFF 		bl	MCP7940N_EnableExternalOscillator
 2133              	.LVL206:
 2134 0050 F8BD     		pop	{r3, r4, r5, r6, r7, pc}
 2135              	.LVL207:
 2136              	.L200:
 497:rhea\drivers\MCP7940N/MCP7940N.c **** }
 2137              		.loc 1 497 0 is_stmt 1
 2138 0052 0FB1     		cbz	r7, .L196
 497:rhea\drivers\MCP7940N/MCP7940N.c **** }
 2139              		.loc 1 497 0 is_stmt 0 discriminator 1
 2140 0054 FFF7FEFF 		bl	MCP7940N_EnableOscillator
 2141              	.LVL208:
 2142              	.L196:
 2143 0058 F8BD     		pop	{r3, r4, r5, r6, r7, pc}
 2144              	.LVL209:
 2145              	.L204:
 2146 005a 00BF     		.align	2
 2147              	.L203:
 2148 005c 00000000 		.word	.LANCHOR0
 2149              		.cfi_endproc
 2150              	.LFE30:
 2151              		.size	MCP7940N_ClearPowerFailed, .-MCP7940N_ClearPowerFailed
 2152              		.section	.text.MCP7940N_GetAlarmSeconds,"ax",%progbits
 2153              		.align	2
 2154              		.global	MCP7940N_GetAlarmSeconds
 2155              		.thumb
 2156              		.thumb_func
 2157              		.type	MCP7940N_GetAlarmSeconds, %function
 2158              	MCP7940N_GetAlarmSeconds:
 2159              	.LFB46:
 642:rhea\drivers\MCP7940N/MCP7940N.c **** 
 643:rhea\drivers\MCP7940N/MCP7940N.c **** MCP7940N_Datetime MCP7940N_GetAlarmDatetime(uint8_t id) {
 644:rhea\drivers\MCP7940N/MCP7940N.c **** 
 645:rhea\drivers\MCP7940N/MCP7940N.c ****     // Creating datetime structure to store the result
 646:rhea\drivers\MCP7940N/MCP7940N.c ****     MCP7940N_Datetime datetime;
 647:rhea\drivers\MCP7940N/MCP7940N.c ****     
 648:rhea\drivers\MCP7940N/MCP7940N.c ****     // Populating datetime structure
 649:rhea\drivers\MCP7940N/MCP7940N.c ****     datetime.month = MCP7940N_GetAlarmMonths(id);
 650:rhea\drivers\MCP7940N/MCP7940N.c ****     datetime.date = MCP7940N_GetAlarmDate(id);
 651:rhea\drivers\MCP7940N/MCP7940N.c ****     datetime.weekday = MCP7940N_GetAlarmWeekday(id);
 652:rhea\drivers\MCP7940N/MCP7940N.c ****     datetime.hour = MCP7940N_GetAlarmHours(id);
 653:rhea\drivers\MCP7940N/MCP7940N.c ****     datetime.minute = MCP7940N_GetAlarmMinutes(id);
ARM GAS  C:\Users\GYULAI~1\AppData\Local\Temp\ccG7iLma.s 			page 52


 654:rhea\drivers\MCP7940N/MCP7940N.c ****     datetime.second = MCP7940N_GetAlarmSeconds(id);
 655:rhea\drivers\MCP7940N/MCP7940N.c ****     
 656:rhea\drivers\MCP7940N/MCP7940N.c ****     return datetime;
 657:rhea\drivers\MCP7940N/MCP7940N.c **** }
 658:rhea\drivers\MCP7940N/MCP7940N.c **** 
 659:rhea\drivers\MCP7940N/MCP7940N.c **** uint8_t MCP7940N_GetAlarmSeconds(uint8_t id) {
 2160              		.loc 1 659 0 is_stmt 1
 2161              		.cfi_startproc
 2162              		@ args = 0, pretend = 0, frame = 0
 2163              		@ frame_needed = 0, uses_anonymous_args = 0
 2164              		@ link register save eliminated.
 2165              	.LVL210:
 660:rhea\drivers\MCP7940N/MCP7940N.c ****     
 661:rhea\drivers\MCP7940N/MCP7940N.c ****     // Reading ALMxSEC register
 662:rhea\drivers\MCP7940N/MCP7940N.c ****     uint8_t registerValue = 0;
 663:rhea\drivers\MCP7940N/MCP7940N.c ****     switch(id) {
 2166              		.loc 1 663 0
 2167 0000 10B1     		cbz	r0, .L207
 2168 0002 0128     		cmp	r0, #1
 2169 0004 03D0     		beq	.L208
 2170 0006 05E0     		b	.L210
 2171              	.L207:
 664:rhea\drivers\MCP7940N/MCP7940N.c ****     case MCP7940N_ALARM0: registerValue = MCP7940N_RegistersLocal.ALM0SEC; break;
 2172              		.loc 1 664 0
 2173 0008 084B     		ldr	r3, .L211
 2174 000a 5B7E     		ldrb	r3, [r3, #25]	@ zero_extendqisi2
 2175              	.LVL211:
 2176 000c 03E0     		b	.L206
 2177              	.LVL212:
 2178              	.L208:
 665:rhea\drivers\MCP7940N/MCP7940N.c ****     case MCP7940N_ALARM1: registerValue = MCP7940N_RegistersLocal.ALM1SEC; break;
 2179              		.loc 1 665 0
 2180 000e 074B     		ldr	r3, .L211
 2181 0010 DB7F     		ldrb	r3, [r3, #31]	@ zero_extendqisi2
 2182              	.LVL213:
 2183 0012 00E0     		b	.L206
 2184              	.LVL214:
 2185              	.L210:
 662:rhea\drivers\MCP7940N/MCP7940N.c ****     switch(id) {
 2186              		.loc 1 662 0
 2187 0014 0023     		movs	r3, #0
 2188              	.LVL215:
 2189              	.L206:
 666:rhea\drivers\MCP7940N/MCP7940N.c ****     default: break;
 667:rhea\drivers\MCP7940N/MCP7940N.c ****     };
 668:rhea\drivers\MCP7940N/MCP7940N.c ****     
 669:rhea\drivers\MCP7940N/MCP7940N.c ****     // Decoding BCD
 670:rhea\drivers\MCP7940N/MCP7940N.c ****     uint8_t ones = registerValue & MCP7940N_ALMxSEC_SECONE;
 2190              		.loc 1 670 0
 2191 0016 03F00F00 		and	r0, r3, #15
 2192              	.LVL216:
 671:rhea\drivers\MCP7940N/MCP7940N.c ****     uint8_t tens = registerValue & MCP7940N_ALMxSEC_SECTEN;
 672:rhea\drivers\MCP7940N/MCP7940N.c ****     tens = tens >> 4;
 2193              		.loc 1 672 0
 2194 001a C3F30213 		ubfx	r3, r3, #4, #3
 2195              	.LVL217:
 673:rhea\drivers\MCP7940N/MCP7940N.c ****     
ARM GAS  C:\Users\GYULAI~1\AppData\Local\Temp\ccG7iLma.s 			page 53


 674:rhea\drivers\MCP7940N/MCP7940N.c ****     // Returning result
 675:rhea\drivers\MCP7940N/MCP7940N.c ****     return tens * 10 + ones;
 2196              		.loc 1 675 0
 2197 001e 03EB8303 		add	r3, r3, r3, lsl #2
 2198              	.LVL218:
 2199 0022 5A00     		lsls	r2, r3, #1
 2200 0024 1044     		add	r0, r0, r2
 2201              	.LVL219:
 676:rhea\drivers\MCP7940N/MCP7940N.c **** }
 2202              		.loc 1 676 0
 2203 0026 C0B2     		uxtb	r0, r0
 2204 0028 7047     		bx	lr
 2205              	.L212:
 2206 002a 00BF     		.align	2
 2207              	.L211:
 2208 002c 00000000 		.word	.LANCHOR0
 2209              		.cfi_endproc
 2210              	.LFE46:
 2211              		.size	MCP7940N_GetAlarmSeconds, .-MCP7940N_GetAlarmSeconds
 2212              		.section	.text.MCP7940N_GetAlarmMinutes,"ax",%progbits
 2213              		.align	2
 2214              		.global	MCP7940N_GetAlarmMinutes
 2215              		.thumb
 2216              		.thumb_func
 2217              		.type	MCP7940N_GetAlarmMinutes, %function
 2218              	MCP7940N_GetAlarmMinutes:
 2219              	.LFB47:
 677:rhea\drivers\MCP7940N/MCP7940N.c **** 
 678:rhea\drivers\MCP7940N/MCP7940N.c **** uint8_t MCP7940N_GetAlarmMinutes(uint8_t id) {
 2220              		.loc 1 678 0
 2221              		.cfi_startproc
 2222              		@ args = 0, pretend = 0, frame = 0
 2223              		@ frame_needed = 0, uses_anonymous_args = 0
 2224              		@ link register save eliminated.
 2225              	.LVL220:
 679:rhea\drivers\MCP7940N/MCP7940N.c ****     
 680:rhea\drivers\MCP7940N/MCP7940N.c ****     // Reading ALMxMIN register
 681:rhea\drivers\MCP7940N/MCP7940N.c ****     uint8_t registerValue = 0;
 682:rhea\drivers\MCP7940N/MCP7940N.c ****     switch(id) {
 2226              		.loc 1 682 0
 2227 0000 10B1     		cbz	r0, .L215
 2228 0002 0128     		cmp	r0, #1
 2229 0004 03D0     		beq	.L216
 2230 0006 06E0     		b	.L218
 2231              	.L215:
 683:rhea\drivers\MCP7940N/MCP7940N.c ****     case MCP7940N_ALARM0: registerValue = MCP7940N_RegistersLocal.ALM0MIN; break;
 2232              		.loc 1 683 0
 2233 0008 084B     		ldr	r3, .L219
 2234 000a 9B7E     		ldrb	r3, [r3, #26]	@ zero_extendqisi2
 2235              	.LVL221:
 2236 000c 04E0     		b	.L214
 2237              	.LVL222:
 2238              	.L216:
 684:rhea\drivers\MCP7940N/MCP7940N.c ****     case MCP7940N_ALARM1: registerValue = MCP7940N_RegistersLocal.ALM1MIN; break;
 2239              		.loc 1 684 0
 2240 000e 074B     		ldr	r3, .L219
 2241 0010 93F82030 		ldrb	r3, [r3, #32]	@ zero_extendqisi2
ARM GAS  C:\Users\GYULAI~1\AppData\Local\Temp\ccG7iLma.s 			page 54


 2242              	.LVL223:
 2243 0014 00E0     		b	.L214
 2244              	.LVL224:
 2245              	.L218:
 681:rhea\drivers\MCP7940N/MCP7940N.c ****     switch(id) {
 2246              		.loc 1 681 0
 2247 0016 0023     		movs	r3, #0
 2248              	.LVL225:
 2249              	.L214:
 685:rhea\drivers\MCP7940N/MCP7940N.c ****     default: break;
 686:rhea\drivers\MCP7940N/MCP7940N.c ****     };
 687:rhea\drivers\MCP7940N/MCP7940N.c ****     
 688:rhea\drivers\MCP7940N/MCP7940N.c ****     // Decoding BCD
 689:rhea\drivers\MCP7940N/MCP7940N.c ****     uint8_t ones = registerValue & MCP7940N_ALMxMIN_MINONE;
 2250              		.loc 1 689 0
 2251 0018 03F00F00 		and	r0, r3, #15
 2252              	.LVL226:
 690:rhea\drivers\MCP7940N/MCP7940N.c ****     uint8_t tens = registerValue & MCP7940N_ALMxMIN_MINTEN;
 691:rhea\drivers\MCP7940N/MCP7940N.c ****     tens = tens >> 4;
 2253              		.loc 1 691 0
 2254 001c C3F30213 		ubfx	r3, r3, #4, #3
 2255              	.LVL227:
 692:rhea\drivers\MCP7940N/MCP7940N.c ****     
 693:rhea\drivers\MCP7940N/MCP7940N.c ****     // Returning result
 694:rhea\drivers\MCP7940N/MCP7940N.c ****     return tens * 10 + ones;
 2256              		.loc 1 694 0
 2257 0020 03EB8303 		add	r3, r3, r3, lsl #2
 2258              	.LVL228:
 2259 0024 5A00     		lsls	r2, r3, #1
 2260 0026 1044     		add	r0, r0, r2
 2261              	.LVL229:
 695:rhea\drivers\MCP7940N/MCP7940N.c **** }
 2262              		.loc 1 695 0
 2263 0028 C0B2     		uxtb	r0, r0
 2264 002a 7047     		bx	lr
 2265              	.L220:
 2266              		.align	2
 2267              	.L219:
 2268 002c 00000000 		.word	.LANCHOR0
 2269              		.cfi_endproc
 2270              	.LFE47:
 2271              		.size	MCP7940N_GetAlarmMinutes, .-MCP7940N_GetAlarmMinutes
 2272              		.section	.text.MCP7940N_GetAlarmHours,"ax",%progbits
 2273              		.align	2
 2274              		.global	MCP7940N_GetAlarmHours
 2275              		.thumb
 2276              		.thumb_func
 2277              		.type	MCP7940N_GetAlarmHours, %function
 2278              	MCP7940N_GetAlarmHours:
 2279              	.LFB48:
 696:rhea\drivers\MCP7940N/MCP7940N.c **** 
 697:rhea\drivers\MCP7940N/MCP7940N.c **** uint8_t MCP7940N_GetAlarmHours(uint8_t id) {
 2280              		.loc 1 697 0
 2281              		.cfi_startproc
 2282              		@ args = 0, pretend = 0, frame = 0
 2283              		@ frame_needed = 0, uses_anonymous_args = 0
 2284              		@ link register save eliminated.
ARM GAS  C:\Users\GYULAI~1\AppData\Local\Temp\ccG7iLma.s 			page 55


 2285              	.LVL230:
 698:rhea\drivers\MCP7940N/MCP7940N.c ****     
 699:rhea\drivers\MCP7940N/MCP7940N.c ****     // Reading ALMxHOUR register
 700:rhea\drivers\MCP7940N/MCP7940N.c ****     uint8_t registerValue = 0;
 701:rhea\drivers\MCP7940N/MCP7940N.c ****     switch(id) {
 2286              		.loc 1 701 0
 2287 0000 10B1     		cbz	r0, .L223
 2288 0002 0128     		cmp	r0, #1
 2289 0004 03D0     		beq	.L224
 2290 0006 06E0     		b	.L226
 2291              	.L223:
 702:rhea\drivers\MCP7940N/MCP7940N.c ****     case MCP7940N_ALARM0: registerValue = MCP7940N_RegistersLocal.ALM0HOUR; break;
 2292              		.loc 1 702 0
 2293 0008 084B     		ldr	r3, .L227
 2294 000a DB7E     		ldrb	r3, [r3, #27]	@ zero_extendqisi2
 2295              	.LVL231:
 2296 000c 04E0     		b	.L222
 2297              	.LVL232:
 2298              	.L224:
 703:rhea\drivers\MCP7940N/MCP7940N.c ****     case MCP7940N_ALARM1: registerValue = MCP7940N_RegistersLocal.ALM1HOUR; break;
 2299              		.loc 1 703 0
 2300 000e 074B     		ldr	r3, .L227
 2301 0010 93F82130 		ldrb	r3, [r3, #33]	@ zero_extendqisi2
 2302              	.LVL233:
 2303 0014 00E0     		b	.L222
 2304              	.LVL234:
 2305              	.L226:
 700:rhea\drivers\MCP7940N/MCP7940N.c ****     switch(id) {
 2306              		.loc 1 700 0
 2307 0016 0023     		movs	r3, #0
 2308              	.LVL235:
 2309              	.L222:
 704:rhea\drivers\MCP7940N/MCP7940N.c ****     default: break;
 705:rhea\drivers\MCP7940N/MCP7940N.c ****     };
 706:rhea\drivers\MCP7940N/MCP7940N.c ****     
 707:rhea\drivers\MCP7940N/MCP7940N.c ****     // Decoding BCD
 708:rhea\drivers\MCP7940N/MCP7940N.c ****     uint8_t ones = registerValue & MCP7940N_ALMxHOUR_HRONE;
 2310              		.loc 1 708 0
 2311 0018 03F00F00 		and	r0, r3, #15
 2312              	.LVL236:
 709:rhea\drivers\MCP7940N/MCP7940N.c ****     uint8_t tens = registerValue & MCP7940N_ALMxHOUR_HRTEN;
 710:rhea\drivers\MCP7940N/MCP7940N.c ****     tens = tens >> 4;
 2313              		.loc 1 710 0
 2314 001c C3F30113 		ubfx	r3, r3, #4, #2
 2315              	.LVL237:
 711:rhea\drivers\MCP7940N/MCP7940N.c ****     
 712:rhea\drivers\MCP7940N/MCP7940N.c ****     // Returning result
 713:rhea\drivers\MCP7940N/MCP7940N.c ****     return tens * 10 + ones;
 2316              		.loc 1 713 0
 2317 0020 03EB8303 		add	r3, r3, r3, lsl #2
 2318              	.LVL238:
 2319 0024 5A00     		lsls	r2, r3, #1
 2320 0026 1044     		add	r0, r0, r2
 2321              	.LVL239:
 714:rhea\drivers\MCP7940N/MCP7940N.c **** }
 2322              		.loc 1 714 0
 2323 0028 C0B2     		uxtb	r0, r0
ARM GAS  C:\Users\GYULAI~1\AppData\Local\Temp\ccG7iLma.s 			page 56


 2324 002a 7047     		bx	lr
 2325              	.L228:
 2326              		.align	2
 2327              	.L227:
 2328 002c 00000000 		.word	.LANCHOR0
 2329              		.cfi_endproc
 2330              	.LFE48:
 2331              		.size	MCP7940N_GetAlarmHours, .-MCP7940N_GetAlarmHours
 2332              		.section	.text.MCP7940N_GetAlarmWeekday,"ax",%progbits
 2333              		.align	2
 2334              		.global	MCP7940N_GetAlarmWeekday
 2335              		.thumb
 2336              		.thumb_func
 2337              		.type	MCP7940N_GetAlarmWeekday, %function
 2338              	MCP7940N_GetAlarmWeekday:
 2339              	.LFB49:
 715:rhea\drivers\MCP7940N/MCP7940N.c **** 
 716:rhea\drivers\MCP7940N/MCP7940N.c **** uint8_t MCP7940N_GetAlarmWeekday(uint8_t id) {
 2340              		.loc 1 716 0
 2341              		.cfi_startproc
 2342              		@ args = 0, pretend = 0, frame = 0
 2343              		@ frame_needed = 0, uses_anonymous_args = 0
 2344              		@ link register save eliminated.
 2345              	.LVL240:
 717:rhea\drivers\MCP7940N/MCP7940N.c ****     
 718:rhea\drivers\MCP7940N/MCP7940N.c ****     // Reading ALMxWKDAY register
 719:rhea\drivers\MCP7940N/MCP7940N.c ****     uint8_t registerValue = 0;
 720:rhea\drivers\MCP7940N/MCP7940N.c ****     switch(id) {
 2346              		.loc 1 720 0
 2347 0000 10B1     		cbz	r0, .L231
 2348 0002 0128     		cmp	r0, #1
 2349 0004 03D0     		beq	.L232
 2350 0006 06E0     		b	.L234
 2351              	.L231:
 721:rhea\drivers\MCP7940N/MCP7940N.c ****     case MCP7940N_ALARM0: registerValue = MCP7940N_RegistersLocal.ALM0WKDAY; break;
 2352              		.loc 1 721 0
 2353 0008 054B     		ldr	r3, .L235
 2354 000a 187F     		ldrb	r0, [r3, #28]	@ zero_extendqisi2
 2355              	.LVL241:
 2356 000c 04E0     		b	.L230
 2357              	.LVL242:
 2358              	.L232:
 722:rhea\drivers\MCP7940N/MCP7940N.c ****     case MCP7940N_ALARM1: registerValue = MCP7940N_RegistersLocal.ALM1WKDAY; break;
 2359              		.loc 1 722 0
 2360 000e 044B     		ldr	r3, .L235
 2361 0010 93F82200 		ldrb	r0, [r3, #34]	@ zero_extendqisi2
 2362              	.LVL243:
 2363 0014 00E0     		b	.L230
 2364              	.LVL244:
 2365              	.L234:
 719:rhea\drivers\MCP7940N/MCP7940N.c ****     switch(id) {
 2366              		.loc 1 719 0
 2367 0016 0020     		movs	r0, #0
 2368              	.LVL245:
 2369              	.L230:
 723:rhea\drivers\MCP7940N/MCP7940N.c ****     default: break;
 724:rhea\drivers\MCP7940N/MCP7940N.c ****     };
ARM GAS  C:\Users\GYULAI~1\AppData\Local\Temp\ccG7iLma.s 			page 57


 725:rhea\drivers\MCP7940N/MCP7940N.c ****     
 726:rhea\drivers\MCP7940N/MCP7940N.c ****     // Returning result
 727:rhea\drivers\MCP7940N/MCP7940N.c ****     return registerValue & MCP7940N_ALMxWKDAY_WKDAY;
 728:rhea\drivers\MCP7940N/MCP7940N.c **** }
 2370              		.loc 1 728 0
 2371 0018 00F00700 		and	r0, r0, #7
 2372              	.LVL246:
 2373 001c 7047     		bx	lr
 2374              	.L236:
 2375 001e 00BF     		.align	2
 2376              	.L235:
 2377 0020 00000000 		.word	.LANCHOR0
 2378              		.cfi_endproc
 2379              	.LFE49:
 2380              		.size	MCP7940N_GetAlarmWeekday, .-MCP7940N_GetAlarmWeekday
 2381              		.section	.text.MCP7940N_GetAlarmDate,"ax",%progbits
 2382              		.align	2
 2383              		.global	MCP7940N_GetAlarmDate
 2384              		.thumb
 2385              		.thumb_func
 2386              		.type	MCP7940N_GetAlarmDate, %function
 2387              	MCP7940N_GetAlarmDate:
 2388              	.LFB50:
 729:rhea\drivers\MCP7940N/MCP7940N.c **** 
 730:rhea\drivers\MCP7940N/MCP7940N.c **** uint8_t MCP7940N_GetAlarmDate(uint8_t id) {
 2389              		.loc 1 730 0
 2390              		.cfi_startproc
 2391              		@ args = 0, pretend = 0, frame = 0
 2392              		@ frame_needed = 0, uses_anonymous_args = 0
 2393              		@ link register save eliminated.
 2394              	.LVL247:
 731:rhea\drivers\MCP7940N/MCP7940N.c ****     
 732:rhea\drivers\MCP7940N/MCP7940N.c ****     // Reading ALMxDATE register
 733:rhea\drivers\MCP7940N/MCP7940N.c ****     uint8_t registerValue = 0;
 734:rhea\drivers\MCP7940N/MCP7940N.c ****     switch(id) {
 2395              		.loc 1 734 0
 2396 0000 10B1     		cbz	r0, .L239
 2397 0002 0128     		cmp	r0, #1
 2398 0004 03D0     		beq	.L240
 2399 0006 06E0     		b	.L242
 2400              	.L239:
 735:rhea\drivers\MCP7940N/MCP7940N.c ****     case MCP7940N_ALARM0: registerValue = MCP7940N_RegistersLocal.ALM0DATE; break;
 2401              		.loc 1 735 0
 2402 0008 084B     		ldr	r3, .L243
 2403 000a 5B7F     		ldrb	r3, [r3, #29]	@ zero_extendqisi2
 2404              	.LVL248:
 2405 000c 04E0     		b	.L238
 2406              	.LVL249:
 2407              	.L240:
 736:rhea\drivers\MCP7940N/MCP7940N.c ****     case MCP7940N_ALARM1: registerValue = MCP7940N_RegistersLocal.ALM1DATE; break;
 2408              		.loc 1 736 0
 2409 000e 074B     		ldr	r3, .L243
 2410 0010 93F82330 		ldrb	r3, [r3, #35]	@ zero_extendqisi2
 2411              	.LVL250:
 2412 0014 00E0     		b	.L238
 2413              	.LVL251:
 2414              	.L242:
ARM GAS  C:\Users\GYULAI~1\AppData\Local\Temp\ccG7iLma.s 			page 58


 733:rhea\drivers\MCP7940N/MCP7940N.c ****     switch(id) {
 2415              		.loc 1 733 0
 2416 0016 0023     		movs	r3, #0
 2417              	.LVL252:
 2418              	.L238:
 737:rhea\drivers\MCP7940N/MCP7940N.c ****     default: break;
 738:rhea\drivers\MCP7940N/MCP7940N.c ****     };
 739:rhea\drivers\MCP7940N/MCP7940N.c ****     
 740:rhea\drivers\MCP7940N/MCP7940N.c ****     // Decoding BCD
 741:rhea\drivers\MCP7940N/MCP7940N.c ****     uint8_t ones = registerValue & MCP7940N_ALMxDATE_DATEONE;
 2419              		.loc 1 741 0
 2420 0018 03F00F00 		and	r0, r3, #15
 2421              	.LVL253:
 742:rhea\drivers\MCP7940N/MCP7940N.c ****     uint8_t tens = registerValue & MCP7940N_ALMxDATE_DATETEN;
 743:rhea\drivers\MCP7940N/MCP7940N.c ****     tens = tens >> 4;
 2422              		.loc 1 743 0
 2423 001c C3F30113 		ubfx	r3, r3, #4, #2
 2424              	.LVL254:
 744:rhea\drivers\MCP7940N/MCP7940N.c ****     
 745:rhea\drivers\MCP7940N/MCP7940N.c ****     // Returning result
 746:rhea\drivers\MCP7940N/MCP7940N.c ****     return tens * 10 + ones;
 2425              		.loc 1 746 0
 2426 0020 03EB8303 		add	r3, r3, r3, lsl #2
 2427              	.LVL255:
 2428 0024 5A00     		lsls	r2, r3, #1
 2429 0026 1044     		add	r0, r0, r2
 2430              	.LVL256:
 747:rhea\drivers\MCP7940N/MCP7940N.c **** }
 2431              		.loc 1 747 0
 2432 0028 C0B2     		uxtb	r0, r0
 2433 002a 7047     		bx	lr
 2434              	.L244:
 2435              		.align	2
 2436              	.L243:
 2437 002c 00000000 		.word	.LANCHOR0
 2438              		.cfi_endproc
 2439              	.LFE50:
 2440              		.size	MCP7940N_GetAlarmDate, .-MCP7940N_GetAlarmDate
 2441              		.section	.text.MCP7940N_GetAlarmMonths,"ax",%progbits
 2442              		.align	2
 2443              		.global	MCP7940N_GetAlarmMonths
 2444              		.thumb
 2445              		.thumb_func
 2446              		.type	MCP7940N_GetAlarmMonths, %function
 2447              	MCP7940N_GetAlarmMonths:
 2448              	.LFB51:
 748:rhea\drivers\MCP7940N/MCP7940N.c **** 
 749:rhea\drivers\MCP7940N/MCP7940N.c **** uint8_t MCP7940N_GetAlarmMonths(uint8_t id) {
 2449              		.loc 1 749 0
 2450              		.cfi_startproc
 2451              		@ args = 0, pretend = 0, frame = 0
 2452              		@ frame_needed = 0, uses_anonymous_args = 0
 2453              		@ link register save eliminated.
 2454              	.LVL257:
 750:rhea\drivers\MCP7940N/MCP7940N.c ****     
 751:rhea\drivers\MCP7940N/MCP7940N.c ****     // Reading ALMxMTH register
 752:rhea\drivers\MCP7940N/MCP7940N.c ****     uint8_t registerValue = 0;
ARM GAS  C:\Users\GYULAI~1\AppData\Local\Temp\ccG7iLma.s 			page 59


 753:rhea\drivers\MCP7940N/MCP7940N.c ****     switch(id) {
 2455              		.loc 1 753 0
 2456 0000 10B1     		cbz	r0, .L247
 2457 0002 0128     		cmp	r0, #1
 2458 0004 03D0     		beq	.L248
 2459 0006 06E0     		b	.L250
 2460              	.L247:
 754:rhea\drivers\MCP7940N/MCP7940N.c ****     case MCP7940N_ALARM0: registerValue = MCP7940N_RegistersLocal.ALM0MTH; break;
 2461              		.loc 1 754 0
 2462 0008 084B     		ldr	r3, .L251
 2463 000a 9B7F     		ldrb	r3, [r3, #30]	@ zero_extendqisi2
 2464              	.LVL258:
 2465 000c 04E0     		b	.L246
 2466              	.LVL259:
 2467              	.L248:
 755:rhea\drivers\MCP7940N/MCP7940N.c ****     case MCP7940N_ALARM1: registerValue = MCP7940N_RegistersLocal.ALM1MTH; break;
 2468              		.loc 1 755 0
 2469 000e 074B     		ldr	r3, .L251
 2470 0010 93F82430 		ldrb	r3, [r3, #36]	@ zero_extendqisi2
 2471              	.LVL260:
 2472 0014 00E0     		b	.L246
 2473              	.LVL261:
 2474              	.L250:
 752:rhea\drivers\MCP7940N/MCP7940N.c ****     switch(id) {
 2475              		.loc 1 752 0
 2476 0016 0023     		movs	r3, #0
 2477              	.LVL262:
 2478              	.L246:
 756:rhea\drivers\MCP7940N/MCP7940N.c ****     default: break;
 757:rhea\drivers\MCP7940N/MCP7940N.c ****     };
 758:rhea\drivers\MCP7940N/MCP7940N.c ****     
 759:rhea\drivers\MCP7940N/MCP7940N.c ****     // Decoding BCD
 760:rhea\drivers\MCP7940N/MCP7940N.c ****     uint8_t ones = registerValue & MCP7940N_ALMxMTH_MTHONE;
 2479              		.loc 1 760 0
 2480 0018 03F00F00 		and	r0, r3, #15
 2481              	.LVL263:
 761:rhea\drivers\MCP7940N/MCP7940N.c ****     uint8_t tens = registerValue & MCP7940N_ALMxMTH_MTHTEN;
 762:rhea\drivers\MCP7940N/MCP7940N.c ****     tens = tens >> 4;
 2482              		.loc 1 762 0
 2483 001c C3F30013 		ubfx	r3, r3, #4, #1
 2484              	.LVL264:
 763:rhea\drivers\MCP7940N/MCP7940N.c ****     
 764:rhea\drivers\MCP7940N/MCP7940N.c ****     // Returning result
 765:rhea\drivers\MCP7940N/MCP7940N.c ****     return tens * 10 + ones;
 2485              		.loc 1 765 0
 2486 0020 9900     		lsls	r1, r3, #2
 2487 0022 0B44     		add	r3, r3, r1
 2488              	.LVL265:
 2489 0024 5A00     		lsls	r2, r3, #1
 2490 0026 1044     		add	r0, r0, r2
 2491              	.LVL266:
 766:rhea\drivers\MCP7940N/MCP7940N.c **** }
 2492              		.loc 1 766 0
 2493 0028 C0B2     		uxtb	r0, r0
 2494 002a 7047     		bx	lr
 2495              	.L252:
 2496              		.align	2
ARM GAS  C:\Users\GYULAI~1\AppData\Local\Temp\ccG7iLma.s 			page 60


 2497              	.L251:
 2498 002c 00000000 		.word	.LANCHOR0
 2499              		.cfi_endproc
 2500              	.LFE51:
 2501              		.size	MCP7940N_GetAlarmMonths, .-MCP7940N_GetAlarmMonths
 2502              		.section	.text.MCP7940N_GetAlarmDatetime,"ax",%progbits
 2503              		.align	2
 2504              		.global	MCP7940N_GetAlarmDatetime
 2505              		.thumb
 2506              		.thumb_func
 2507              		.type	MCP7940N_GetAlarmDatetime, %function
 2508              	MCP7940N_GetAlarmDatetime:
 2509              	.LFB45:
 643:rhea\drivers\MCP7940N/MCP7940N.c **** 
 2510              		.loc 1 643 0
 2511              		.cfi_startproc
 2512              		@ args = 0, pretend = 0, frame = 0
 2513              		@ frame_needed = 0, uses_anonymous_args = 0
 2514              	.LVL267:
 2515 0000 38B5     		push	{r3, r4, r5, lr}
 2516              		.cfi_def_cfa_offset 16
 2517              		.cfi_offset 3, -16
 2518              		.cfi_offset 4, -12
 2519              		.cfi_offset 5, -8
 2520              		.cfi_offset 14, -4
 2521 0002 0446     		mov	r4, r0
 2522 0004 0D46     		mov	r5, r1
 649:rhea\drivers\MCP7940N/MCP7940N.c ****     datetime.date = MCP7940N_GetAlarmDate(id);
 2523              		.loc 1 649 0
 2524 0006 0846     		mov	r0, r1
 2525              	.LVL268:
 2526 0008 FFF7FEFF 		bl	MCP7940N_GetAlarmMonths
 2527              	.LVL269:
 2528 000c A070     		strb	r0, [r4, #2]
 650:rhea\drivers\MCP7940N/MCP7940N.c ****     datetime.weekday = MCP7940N_GetAlarmWeekday(id);
 2529              		.loc 1 650 0
 2530 000e 2846     		mov	r0, r5
 2531 0010 FFF7FEFF 		bl	MCP7940N_GetAlarmDate
 2532              	.LVL270:
 2533 0014 E070     		strb	r0, [r4, #3]
 651:rhea\drivers\MCP7940N/MCP7940N.c ****     datetime.hour = MCP7940N_GetAlarmHours(id);
 2534              		.loc 1 651 0
 2535 0016 2846     		mov	r0, r5
 2536 0018 FFF7FEFF 		bl	MCP7940N_GetAlarmWeekday
 2537              	.LVL271:
 2538 001c 2071     		strb	r0, [r4, #4]
 652:rhea\drivers\MCP7940N/MCP7940N.c ****     datetime.minute = MCP7940N_GetAlarmMinutes(id);
 2539              		.loc 1 652 0
 2540 001e 2846     		mov	r0, r5
 2541 0020 FFF7FEFF 		bl	MCP7940N_GetAlarmHours
 2542              	.LVL272:
 2543 0024 6071     		strb	r0, [r4, #5]
 653:rhea\drivers\MCP7940N/MCP7940N.c ****     datetime.second = MCP7940N_GetAlarmSeconds(id);
 2544              		.loc 1 653 0
 2545 0026 2846     		mov	r0, r5
 2546 0028 FFF7FEFF 		bl	MCP7940N_GetAlarmMinutes
 2547              	.LVL273:
ARM GAS  C:\Users\GYULAI~1\AppData\Local\Temp\ccG7iLma.s 			page 61


 2548 002c A071     		strb	r0, [r4, #6]
 654:rhea\drivers\MCP7940N/MCP7940N.c ****     
 2549              		.loc 1 654 0
 2550 002e 2846     		mov	r0, r5
 2551 0030 FFF7FEFF 		bl	MCP7940N_GetAlarmSeconds
 2552              	.LVL274:
 2553 0034 E071     		strb	r0, [r4, #7]
 657:rhea\drivers\MCP7940N/MCP7940N.c **** 
 2554              		.loc 1 657 0
 2555 0036 2046     		mov	r0, r4
 2556 0038 38BD     		pop	{r3, r4, r5, pc}
 2557              		.cfi_endproc
 2558              	.LFE45:
 2559              		.size	MCP7940N_GetAlarmDatetime, .-MCP7940N_GetAlarmDatetime
 2560 003a 00BF     		.section	.text.MCP7940N_GetAlarmPolarity,"ax",%progbits
 2561              		.align	2
 2562              		.global	MCP7940N_GetAlarmPolarity
 2563              		.thumb
 2564              		.thumb_func
 2565              		.type	MCP7940N_GetAlarmPolarity, %function
 2566              	MCP7940N_GetAlarmPolarity:
 2567              	.LFB52:
 767:rhea\drivers\MCP7940N/MCP7940N.c **** 
 768:rhea\drivers\MCP7940N/MCP7940N.c **** uint8_t MCP7940N_GetAlarmPolarity(void) {
 2568              		.loc 1 768 0
 2569              		.cfi_startproc
 2570              		@ args = 0, pretend = 0, frame = 0
 2571              		@ frame_needed = 0, uses_anonymous_args = 0
 2572              		@ link register save eliminated.
 769:rhea\drivers\MCP7940N/MCP7940N.c ****     
 770:rhea\drivers\MCP7940N/MCP7940N.c ****     // Returning alarm polarity
 771:rhea\drivers\MCP7940N/MCP7940N.c ****     return MCP7940N_RegistersLocal.ALM0WKDAY & MCP7940N_ALMxWKDAY_ALMPOL;
 2573              		.loc 1 771 0
 2574 0000 024B     		ldr	r3, .L256
 2575 0002 187F     		ldrb	r0, [r3, #28]	@ zero_extendqisi2
 772:rhea\drivers\MCP7940N/MCP7940N.c **** }
 2576              		.loc 1 772 0
 2577 0004 00F08000 		and	r0, r0, #128
 2578 0008 7047     		bx	lr
 2579              	.L257:
 2580 000a 00BF     		.align	2
 2581              	.L256:
 2582 000c 00000000 		.word	.LANCHOR0
 2583              		.cfi_endproc
 2584              	.LFE52:
 2585              		.size	MCP7940N_GetAlarmPolarity, .-MCP7940N_GetAlarmPolarity
 2586              		.section	.text.MCP7940N_GetAlarmMode,"ax",%progbits
 2587              		.align	2
 2588              		.global	MCP7940N_GetAlarmMode
 2589              		.thumb
 2590              		.thumb_func
 2591              		.type	MCP7940N_GetAlarmMode, %function
 2592              	MCP7940N_GetAlarmMode:
 2593              	.LFB53:
 773:rhea\drivers\MCP7940N/MCP7940N.c **** 
 774:rhea\drivers\MCP7940N/MCP7940N.c **** uint8_t MCP7940N_GetAlarmMode(uint8_t id) {
 2594              		.loc 1 774 0
ARM GAS  C:\Users\GYULAI~1\AppData\Local\Temp\ccG7iLma.s 			page 62


 2595              		.cfi_startproc
 2596              		@ args = 0, pretend = 0, frame = 0
 2597              		@ frame_needed = 0, uses_anonymous_args = 0
 2598              		@ link register save eliminated.
 2599              	.LVL275:
 775:rhea\drivers\MCP7940N/MCP7940N.c ****     
 776:rhea\drivers\MCP7940N/MCP7940N.c ****     // Returning alarm mode mask
 777:rhea\drivers\MCP7940N/MCP7940N.c ****     switch(id) {
 2600              		.loc 1 777 0
 2601 0000 10B1     		cbz	r0, .L260
 2602 0002 0128     		cmp	r0, #1
 2603 0004 05D0     		beq	.L261
 2604 0006 0AE0     		b	.L263
 2605              	.L260:
 778:rhea\drivers\MCP7940N/MCP7940N.c ****     case MCP7940N_ALARM0: return MCP7940N_RegistersLocal.ALM0WKDAY & MCP7940N_ALMxWKDAY_ALMxMSK;
 2606              		.loc 1 778 0
 2607 0008 064B     		ldr	r3, .L264
 2608 000a 187F     		ldrb	r0, [r3, #28]	@ zero_extendqisi2
 2609              	.LVL276:
 2610 000c 00F07000 		and	r0, r0, #112
 2611 0010 7047     		bx	lr
 2612              	.LVL277:
 2613              	.L261:
 779:rhea\drivers\MCP7940N/MCP7940N.c ****     case MCP7940N_ALARM1: return MCP7940N_RegistersLocal.ALM1WKDAY & MCP7940N_ALMxWKDAY_ALMxMSK;
 2614              		.loc 1 779 0
 2615 0012 044B     		ldr	r3, .L264
 2616 0014 93F82200 		ldrb	r0, [r3, #34]	@ zero_extendqisi2
 2617              	.LVL278:
 2618 0018 00F07000 		and	r0, r0, #112
 2619 001c 7047     		bx	lr
 2620              	.LVL279:
 2621              	.L263:
 780:rhea\drivers\MCP7940N/MCP7940N.c ****     default:     return 0;
 2622              		.loc 1 780 0
 2623 001e 0020     		movs	r0, #0
 2624              	.LVL280:
 781:rhea\drivers\MCP7940N/MCP7940N.c ****     };
 782:rhea\drivers\MCP7940N/MCP7940N.c **** }
 2625              		.loc 1 782 0
 2626 0020 7047     		bx	lr
 2627              	.L265:
 2628 0022 00BF     		.align	2
 2629              	.L264:
 2630 0024 00000000 		.word	.LANCHOR0
 2631              		.cfi_endproc
 2632              	.LFE53:
 2633              		.size	MCP7940N_GetAlarmMode, .-MCP7940N_GetAlarmMode
 2634              		.section	.text.MCP7940N_IsAlarmEnabled,"ax",%progbits
 2635              		.align	2
 2636              		.global	MCP7940N_IsAlarmEnabled
 2637              		.thumb
 2638              		.thumb_func
 2639              		.type	MCP7940N_IsAlarmEnabled, %function
 2640              	MCP7940N_IsAlarmEnabled:
 2641              	.LFB54:
 783:rhea\drivers\MCP7940N/MCP7940N.c **** 
 784:rhea\drivers\MCP7940N/MCP7940N.c **** uint8_t MCP7940N_IsAlarmEnabled(uint8_t id) {
ARM GAS  C:\Users\GYULAI~1\AppData\Local\Temp\ccG7iLma.s 			page 63


 2642              		.loc 1 784 0
 2643              		.cfi_startproc
 2644              		@ args = 0, pretend = 0, frame = 0
 2645              		@ frame_needed = 0, uses_anonymous_args = 0
 2646              		@ link register save eliminated.
 2647              	.LVL281:
 785:rhea\drivers\MCP7940N/MCP7940N.c ****      
 786:rhea\drivers\MCP7940N/MCP7940N.c ****     // Returning whether ALMxEN flag is set
 787:rhea\drivers\MCP7940N/MCP7940N.c ****     switch(id) {
 2648              		.loc 1 787 0
 2649 0000 10B1     		cbz	r0, .L268
 2650 0002 0128     		cmp	r0, #1
 2651 0004 06D0     		beq	.L269
 2652 0006 0BE0     		b	.L271
 2653              	.L268:
 788:rhea\drivers\MCP7940N/MCP7940N.c ****     case MCP7940N_ALARM0: return MCP7940N_RegistersLocal.CONTROL & MCP7940N_CONTROL_ALM0EN;
 2654              		.loc 1 788 0
 2655 0008 064B     		ldr	r3, .L272
 2656 000a D87D     		ldrb	r0, [r3, #23]	@ zero_extendqisi2
 2657              	.LVL282:
 2658 000c 00F01000 		and	r0, r0, #16
 2659 0010 C0B2     		uxtb	r0, r0
 2660 0012 7047     		bx	lr
 2661              	.LVL283:
 2662              	.L269:
 789:rhea\drivers\MCP7940N/MCP7940N.c ****     case MCP7940N_ALARM1: return MCP7940N_RegistersLocal.CONTROL & MCP7940N_CONTROL_ALM1EN;
 2663              		.loc 1 789 0
 2664 0014 034B     		ldr	r3, .L272
 2665 0016 D87D     		ldrb	r0, [r3, #23]	@ zero_extendqisi2
 2666              	.LVL284:
 2667 0018 00F02000 		and	r0, r0, #32
 2668 001c C0B2     		uxtb	r0, r0
 2669 001e 7047     		bx	lr
 2670              	.LVL285:
 2671              	.L271:
 790:rhea\drivers\MCP7940N/MCP7940N.c ****     default:              return MCP7940N_ALARM_DISABLED;
 2672              		.loc 1 790 0
 2673 0020 0020     		movs	r0, #0
 2674              	.LVL286:
 791:rhea\drivers\MCP7940N/MCP7940N.c ****     };
 792:rhea\drivers\MCP7940N/MCP7940N.c **** }
 2675              		.loc 1 792 0
 2676 0022 7047     		bx	lr
 2677              	.L273:
 2678              		.align	2
 2679              	.L272:
 2680 0024 00000000 		.word	.LANCHOR0
 2681              		.cfi_endproc
 2682              	.LFE54:
 2683              		.size	MCP7940N_IsAlarmEnabled, .-MCP7940N_IsAlarmEnabled
 2684              		.section	.text.MCP7940N_HasAlarmFired,"ax",%progbits
 2685              		.align	2
 2686              		.global	MCP7940N_HasAlarmFired
 2687              		.thumb
 2688              		.thumb_func
 2689              		.type	MCP7940N_HasAlarmFired, %function
 2690              	MCP7940N_HasAlarmFired:
ARM GAS  C:\Users\GYULAI~1\AppData\Local\Temp\ccG7iLma.s 			page 64


 2691              	.LFB55:
 793:rhea\drivers\MCP7940N/MCP7940N.c **** 
 794:rhea\drivers\MCP7940N/MCP7940N.c **** uint8_t MCP7940N_HasAlarmFired(uint8_t id) {
 2692              		.loc 1 794 0
 2693              		.cfi_startproc
 2694              		@ args = 0, pretend = 0, frame = 0
 2695              		@ frame_needed = 0, uses_anonymous_args = 0
 2696              	.LVL287:
 2697 0000 38B5     		push	{r3, r4, r5, lr}
 2698              		.cfi_def_cfa_offset 16
 2699              		.cfi_offset 3, -16
 2700              		.cfi_offset 4, -12
 2701              		.cfi_offset 5, -8
 2702              		.cfi_offset 14, -4
 2703 0002 0546     		mov	r5, r0
 795:rhea\drivers\MCP7940N/MCP7940N.c ****     
 796:rhea\drivers\MCP7940N/MCP7940N.c ****     // Reading ALMxWKDAY registers
 797:rhea\drivers\MCP7940N/MCP7940N.c ****     MCP7940N_I2CReader(MCP7940N_I2C_ADDR, MCP7940N_ALM0WKDAY, (uint8_t*) &MCP7940N_RegistersLocal.A
 2704              		.loc 1 797 0
 2705 0004 104C     		ldr	r4, .L279
 2706 0006 0123     		movs	r3, #1
 2707 0008 04F11C02 		add	r2, r4, #28
 2708 000c 0D21     		movs	r1, #13
 2709 000e DE20     		movs	r0, #222
 2710              	.LVL288:
 2711 0010 FFF7FEFF 		bl	MCP7940N_I2CReader
 2712              	.LVL289:
 798:rhea\drivers\MCP7940N/MCP7940N.c ****     MCP7940N_I2CReader(MCP7940N_I2C_ADDR, MCP7940N_ALM1WKDAY, (uint8_t*) &MCP7940N_RegistersLocal.A
 2713              		.loc 1 798 0
 2714 0014 0123     		movs	r3, #1
 2715 0016 04F12202 		add	r2, r4, #34
 2716 001a 1421     		movs	r1, #20
 2717 001c DE20     		movs	r0, #222
 2718 001e FFF7FEFF 		bl	MCP7940N_I2CReader
 2719              	.LVL290:
 799:rhea\drivers\MCP7940N/MCP7940N.c ****     
 800:rhea\drivers\MCP7940N/MCP7940N.c ****     // Register value initialization
 801:rhea\drivers\MCP7940N/MCP7940N.c ****     uint8_t registerValue = MCP7940N_ALARM_NOT_FIRED;
 802:rhea\drivers\MCP7940N/MCP7940N.c ****     
 803:rhea\drivers\MCP7940N/MCP7940N.c ****     // Returning whether ALMxIF flag is set
 804:rhea\drivers\MCP7940N/MCP7940N.c ****     switch(id) {
 2720              		.loc 1 804 0
 2721 0022 15B1     		cbz	r5, .L276
 2722 0024 012D     		cmp	r5, #1
 2723 0026 05D0     		beq	.L277
 2724 0028 0BE0     		b	.L275
 2725              	.L276:
 805:rhea\drivers\MCP7940N/MCP7940N.c ****     case MCP7940N_ALARM0: registerValue = MCP7940N_RegistersLocal.ALM0WKDAY & MCP7940N_ALMxWKDAY_AL
 2726              		.loc 1 805 0
 2727 002a 074A     		ldr	r2, .L279
 2728 002c 137F     		ldrb	r3, [r2, #28]	@ zero_extendqisi2
 2729              	.LVL291:
 806:rhea\drivers\MCP7940N/MCP7940N.c ****                           MCP7940N_RegistersLocal.ALM0WKDAY &= ~MCP7940N_ALMxWKDAY_ALMxIF;
 2730              		.loc 1 806 0
 2731 002e 23F00803 		bic	r3, r3, #8
 2732              	.LVL292:
 2733 0032 1377     		strb	r3, [r2, #28]
ARM GAS  C:\Users\GYULAI~1\AppData\Local\Temp\ccG7iLma.s 			page 65


 2734              	.LVL293:
 2735              	.L277:
 807:rhea\drivers\MCP7940N/MCP7940N.c ****     case MCP7940N_ALARM1: registerValue = MCP7940N_RegistersLocal.ALM1WKDAY & MCP7940N_ALMxWKDAY_AL
 2736              		.loc 1 807 0
 2737 0034 044A     		ldr	r2, .L279
 2738 0036 92F82230 		ldrb	r3, [r2, #34]	@ zero_extendqisi2
 2739              	.LVL294:
 808:rhea\drivers\MCP7940N/MCP7940N.c ****                           MCP7940N_RegistersLocal.ALM1WKDAY &= ~MCP7940N_ALMxWKDAY_ALMxIF;
 2740              		.loc 1 808 0
 2741 003a 23F00803 		bic	r3, r3, #8
 2742              	.LVL295:
 2743 003e 82F82230 		strb	r3, [r2, #34]
 2744              	.LVL296:
 2745              	.L275:
 809:rhea\drivers\MCP7940N/MCP7940N.c ****     default:              registerValue = MCP7940N_ALARM_NOT_FIRED;
 810:rhea\drivers\MCP7940N/MCP7940N.c ****     };
 811:rhea\drivers\MCP7940N/MCP7940N.c ****     
 812:rhea\drivers\MCP7940N/MCP7940N.c ****     return registerValue;
 813:rhea\drivers\MCP7940N/MCP7940N.c **** }
 2746              		.loc 1 813 0
 2747 0042 0020     		movs	r0, #0
 2748 0044 38BD     		pop	{r3, r4, r5, pc}
 2749              	.L280:
 2750 0046 00BF     		.align	2
 2751              	.L279:
 2752 0048 00000000 		.word	.LANCHOR0
 2753              		.cfi_endproc
 2754              	.LFE55:
 2755              		.size	MCP7940N_HasAlarmFired, .-MCP7940N_HasAlarmFired
 2756              		.section	.text.MCP7940N_SetAlarmSeconds,"ax",%progbits
 2757              		.align	2
 2758              		.global	MCP7940N_SetAlarmSeconds
 2759              		.thumb
 2760              		.thumb_func
 2761              		.type	MCP7940N_SetAlarmSeconds, %function
 2762              	MCP7940N_SetAlarmSeconds:
 2763              	.LFB57:
 814:rhea\drivers\MCP7940N/MCP7940N.c **** 
 815:rhea\drivers\MCP7940N/MCP7940N.c **** void MCP7940N_SetAlarmDatetime(uint8_t id, MCP7940N_Datetime datetime) {
 816:rhea\drivers\MCP7940N/MCP7940N.c ****     
 817:rhea\drivers\MCP7940N/MCP7940N.c ****     // Setting alarm registers
 818:rhea\drivers\MCP7940N/MCP7940N.c ****     MCP7940N_SetAlarmSeconds(id, datetime.second);
 819:rhea\drivers\MCP7940N/MCP7940N.c ****     MCP7940N_SetAlarmMinutes(id, datetime.minute);
 820:rhea\drivers\MCP7940N/MCP7940N.c ****     MCP7940N_SetAlarmHours(id, datetime.hour);
 821:rhea\drivers\MCP7940N/MCP7940N.c ****     MCP7940N_SetAlarmWeekday(id, datetime.weekday);
 822:rhea\drivers\MCP7940N/MCP7940N.c ****     MCP7940N_SetAlarmDate(id, datetime.date);
 823:rhea\drivers\MCP7940N/MCP7940N.c ****     MCP7940N_SetAlarmMonths(id, datetime.month);
 824:rhea\drivers\MCP7940N/MCP7940N.c ****     
 825:rhea\drivers\MCP7940N/MCP7940N.c ****     // Writing changes to hardware
 826:rhea\drivers\MCP7940N/MCP7940N.c ****     if(id == MCP7940N_ALARM0) {
 827:rhea\drivers\MCP7940N/MCP7940N.c ****         MCP7940N_I2CWriter(MCP7940N_I2C_ADDR, MCP7940N_ALM0SEC, (uint8_t*) &MCP7940N_RegistersLocal
 828:rhea\drivers\MCP7940N/MCP7940N.c ****                            MCP7940N_ALM0MTH - MCP7940N_ALM0SEC + 1);
 829:rhea\drivers\MCP7940N/MCP7940N.c ****     }
 830:rhea\drivers\MCP7940N/MCP7940N.c ****     else if(id == MCP7940N_ALARM1) {
 831:rhea\drivers\MCP7940N/MCP7940N.c ****         MCP7940N_I2CWriter(MCP7940N_I2C_ADDR, MCP7940N_ALM0SEC, (uint8_t*) &MCP7940N_RegistersLocal
 832:rhea\drivers\MCP7940N/MCP7940N.c ****                            MCP7940N_ALM0MTH - MCP7940N_ALM0SEC + 1);
 833:rhea\drivers\MCP7940N/MCP7940N.c ****     }
ARM GAS  C:\Users\GYULAI~1\AppData\Local\Temp\ccG7iLma.s 			page 66


 834:rhea\drivers\MCP7940N/MCP7940N.c **** }
 835:rhea\drivers\MCP7940N/MCP7940N.c **** 
 836:rhea\drivers\MCP7940N/MCP7940N.c **** void MCP7940N_SetAlarmSeconds(uint8_t id, uint8_t seconds) {
 2764              		.loc 1 836 0
 2765              		.cfi_startproc
 2766              		@ args = 0, pretend = 0, frame = 0
 2767              		@ frame_needed = 0, uses_anonymous_args = 0
 2768              		@ link register save eliminated.
 2769              	.LVL297:
 2770 0000 10B4     		push	{r4}
 2771              		.cfi_def_cfa_offset 4
 2772              		.cfi_offset 4, -4
 837:rhea\drivers\MCP7940N/MCP7940N.c ****   
 838:rhea\drivers\MCP7940N/MCP7940N.c ****     // Encoding BCD
 839:rhea\drivers\MCP7940N/MCP7940N.c ****     uint8_t ones = seconds % 10;
 2773              		.loc 1 839 0
 2774 0002 0B4B     		ldr	r3, .L286
 2775 0004 A3FB0123 		umull	r2, r3, r3, r1
 2776 0008 DB08     		lsrs	r3, r3, #3
 2777 000a 03EB8304 		add	r4, r3, r3, lsl #2
 2778 000e 6200     		lsls	r2, r4, #1
 2779 0010 891A     		subs	r1, r1, r2
 2780              	.LVL298:
 2781 0012 C9B2     		uxtb	r1, r1
 2782              	.LVL299:
 840:rhea\drivers\MCP7940N/MCP7940N.c ****     uint8_t tens = seconds / 10;
 841:rhea\drivers\MCP7940N/MCP7940N.c ****     uint8_t registerValue = ones | tens << 4;
 2783              		.loc 1 841 0
 2784 0014 41EA0311 		orr	r1, r1, r3, lsl #4
 2785              	.LVL300:
 2786 0018 C9B2     		uxtb	r1, r1
 2787              	.LVL301:
 842:rhea\drivers\MCP7940N/MCP7940N.c ****     
 843:rhea\drivers\MCP7940N/MCP7940N.c ****     // Writing alarm seconds register
 844:rhea\drivers\MCP7940N/MCP7940N.c ****     switch(id) {
 2788              		.loc 1 844 0
 2789 001a 10B1     		cbz	r0, .L283
 2790 001c 0128     		cmp	r0, #1
 2791 001e 03D0     		beq	.L284
 2792 0020 04E0     		b	.L281
 2793              	.L283:
 845:rhea\drivers\MCP7940N/MCP7940N.c ****     case MCP7940N_ALARM0: MCP7940N_RegistersLocal.ALM0SEC = registerValue; return;
 2794              		.loc 1 845 0
 2795 0022 044B     		ldr	r3, .L286+4
 2796              	.LVL302:
 2797 0024 5976     		strb	r1, [r3, #25]
 2798 0026 01E0     		b	.L281
 2799              	.LVL303:
 2800              	.L284:
 846:rhea\drivers\MCP7940N/MCP7940N.c ****     case MCP7940N_ALARM1: MCP7940N_RegistersLocal.ALM1SEC = registerValue; return;
 2801              		.loc 1 846 0
 2802 0028 024B     		ldr	r3, .L286+4
 2803              	.LVL304:
 2804 002a D977     		strb	r1, [r3, #31]
 2805              	.L281:
 847:rhea\drivers\MCP7940N/MCP7940N.c ****     default: return;
 848:rhea\drivers\MCP7940N/MCP7940N.c ****     };
ARM GAS  C:\Users\GYULAI~1\AppData\Local\Temp\ccG7iLma.s 			page 67


 849:rhea\drivers\MCP7940N/MCP7940N.c **** }
 2806              		.loc 1 849 0
 2807 002c 10BC     		pop	{r4}
 2808              		.cfi_restore 4
 2809              		.cfi_def_cfa_offset 0
 2810 002e 7047     		bx	lr
 2811              	.L287:
 2812              		.align	2
 2813              	.L286:
 2814 0030 CDCCCCCC 		.word	-858993459
 2815 0034 00000000 		.word	.LANCHOR0
 2816              		.cfi_endproc
 2817              	.LFE57:
 2818              		.size	MCP7940N_SetAlarmSeconds, .-MCP7940N_SetAlarmSeconds
 2819              		.section	.text.MCP7940N_SetAlarmMinutes,"ax",%progbits
 2820              		.align	2
 2821              		.global	MCP7940N_SetAlarmMinutes
 2822              		.thumb
 2823              		.thumb_func
 2824              		.type	MCP7940N_SetAlarmMinutes, %function
 2825              	MCP7940N_SetAlarmMinutes:
 2826              	.LFB58:
 850:rhea\drivers\MCP7940N/MCP7940N.c **** 
 851:rhea\drivers\MCP7940N/MCP7940N.c **** void MCP7940N_SetAlarmMinutes(uint8_t id, uint8_t minutes) {
 2827              		.loc 1 851 0
 2828              		.cfi_startproc
 2829              		@ args = 0, pretend = 0, frame = 0
 2830              		@ frame_needed = 0, uses_anonymous_args = 0
 2831              		@ link register save eliminated.
 2832              	.LVL305:
 2833 0000 10B4     		push	{r4}
 2834              		.cfi_def_cfa_offset 4
 2835              		.cfi_offset 4, -4
 852:rhea\drivers\MCP7940N/MCP7940N.c **** 
 853:rhea\drivers\MCP7940N/MCP7940N.c ****     // Encoding BCD
 854:rhea\drivers\MCP7940N/MCP7940N.c ****     uint8_t ones = minutes % 10;
 2836              		.loc 1 854 0
 2837 0002 0C4B     		ldr	r3, .L293
 2838 0004 A3FB0123 		umull	r2, r3, r3, r1
 2839 0008 DB08     		lsrs	r3, r3, #3
 2840 000a 03EB8304 		add	r4, r3, r3, lsl #2
 2841 000e 6200     		lsls	r2, r4, #1
 2842 0010 891A     		subs	r1, r1, r2
 2843              	.LVL306:
 2844 0012 C9B2     		uxtb	r1, r1
 2845              	.LVL307:
 855:rhea\drivers\MCP7940N/MCP7940N.c ****     uint8_t tens = minutes / 10;
 856:rhea\drivers\MCP7940N/MCP7940N.c ****     uint8_t registerValue = ones | tens << 4;
 2846              		.loc 1 856 0
 2847 0014 41EA0311 		orr	r1, r1, r3, lsl #4
 2848              	.LVL308:
 2849 0018 C9B2     		uxtb	r1, r1
 2850              	.LVL309:
 857:rhea\drivers\MCP7940N/MCP7940N.c ****     
 858:rhea\drivers\MCP7940N/MCP7940N.c ****     // Writing alarm minute register
 859:rhea\drivers\MCP7940N/MCP7940N.c ****     switch(id) {
 2851              		.loc 1 859 0
ARM GAS  C:\Users\GYULAI~1\AppData\Local\Temp\ccG7iLma.s 			page 68


 2852 001a 10B1     		cbz	r0, .L290
 2853 001c 0128     		cmp	r0, #1
 2854 001e 03D0     		beq	.L291
 2855 0020 05E0     		b	.L288
 2856              	.L290:
 860:rhea\drivers\MCP7940N/MCP7940N.c ****     case MCP7940N_ALARM0: MCP7940N_RegistersLocal.ALM0MIN = registerValue; return;
 2857              		.loc 1 860 0
 2858 0022 054B     		ldr	r3, .L293+4
 2859              	.LVL310:
 2860 0024 9976     		strb	r1, [r3, #26]
 2861 0026 02E0     		b	.L288
 2862              	.LVL311:
 2863              	.L291:
 861:rhea\drivers\MCP7940N/MCP7940N.c ****     case MCP7940N_ALARM1: MCP7940N_RegistersLocal.ALM1MIN = registerValue; return;
 2864              		.loc 1 861 0
 2865 0028 034B     		ldr	r3, .L293+4
 2866              	.LVL312:
 2867 002a 83F82010 		strb	r1, [r3, #32]
 2868              	.L288:
 862:rhea\drivers\MCP7940N/MCP7940N.c ****     default: return;
 863:rhea\drivers\MCP7940N/MCP7940N.c ****     };
 864:rhea\drivers\MCP7940N/MCP7940N.c **** }
 2869              		.loc 1 864 0
 2870 002e 10BC     		pop	{r4}
 2871              		.cfi_restore 4
 2872              		.cfi_def_cfa_offset 0
 2873 0030 7047     		bx	lr
 2874              	.L294:
 2875 0032 00BF     		.align	2
 2876              	.L293:
 2877 0034 CDCCCCCC 		.word	-858993459
 2878 0038 00000000 		.word	.LANCHOR0
 2879              		.cfi_endproc
 2880              	.LFE58:
 2881              		.size	MCP7940N_SetAlarmMinutes, .-MCP7940N_SetAlarmMinutes
 2882              		.section	.text.MCP7940N_SetAlarmHours,"ax",%progbits
 2883              		.align	2
 2884              		.global	MCP7940N_SetAlarmHours
 2885              		.thumb
 2886              		.thumb_func
 2887              		.type	MCP7940N_SetAlarmHours, %function
 2888              	MCP7940N_SetAlarmHours:
 2889              	.LFB59:
 865:rhea\drivers\MCP7940N/MCP7940N.c **** 
 866:rhea\drivers\MCP7940N/MCP7940N.c **** void MCP7940N_SetAlarmHours(uint8_t id, uint8_t hours) {
 2890              		.loc 1 866 0
 2891              		.cfi_startproc
 2892              		@ args = 0, pretend = 0, frame = 0
 2893              		@ frame_needed = 0, uses_anonymous_args = 0
 2894              		@ link register save eliminated.
 2895              	.LVL313:
 2896 0000 10B4     		push	{r4}
 2897              		.cfi_def_cfa_offset 4
 2898              		.cfi_offset 4, -4
 867:rhea\drivers\MCP7940N/MCP7940N.c **** 
 868:rhea\drivers\MCP7940N/MCP7940N.c ****     // Encoding BCD
 869:rhea\drivers\MCP7940N/MCP7940N.c ****     uint8_t ones = hours % 10;
ARM GAS  C:\Users\GYULAI~1\AppData\Local\Temp\ccG7iLma.s 			page 69


 2899              		.loc 1 869 0
 2900 0002 0C4B     		ldr	r3, .L300
 2901 0004 A3FB0123 		umull	r2, r3, r3, r1
 2902 0008 DB08     		lsrs	r3, r3, #3
 2903 000a 03EB8304 		add	r4, r3, r3, lsl #2
 2904 000e 6200     		lsls	r2, r4, #1
 2905 0010 891A     		subs	r1, r1, r2
 2906              	.LVL314:
 2907 0012 C9B2     		uxtb	r1, r1
 2908              	.LVL315:
 870:rhea\drivers\MCP7940N/MCP7940N.c ****     uint8_t tens = hours / 10;
 871:rhea\drivers\MCP7940N/MCP7940N.c ****     uint8_t registerValue = ones | tens << 4;
 2909              		.loc 1 871 0
 2910 0014 41EA0311 		orr	r1, r1, r3, lsl #4
 2911              	.LVL316:
 2912 0018 C9B2     		uxtb	r1, r1
 2913              	.LVL317:
 872:rhea\drivers\MCP7940N/MCP7940N.c ****     
 873:rhea\drivers\MCP7940N/MCP7940N.c ****     // Writing alarm hour register
 874:rhea\drivers\MCP7940N/MCP7940N.c ****     switch(id) {
 2914              		.loc 1 874 0
 2915 001a 10B1     		cbz	r0, .L297
 2916 001c 0128     		cmp	r0, #1
 2917 001e 03D0     		beq	.L298
 2918 0020 05E0     		b	.L295
 2919              	.L297:
 875:rhea\drivers\MCP7940N/MCP7940N.c ****     case MCP7940N_ALARM0: MCP7940N_RegistersLocal.ALM0HOUR = registerValue; return;
 2920              		.loc 1 875 0
 2921 0022 054B     		ldr	r3, .L300+4
 2922              	.LVL318:
 2923 0024 D976     		strb	r1, [r3, #27]
 2924 0026 02E0     		b	.L295
 2925              	.LVL319:
 2926              	.L298:
 876:rhea\drivers\MCP7940N/MCP7940N.c ****     case MCP7940N_ALARM1: MCP7940N_RegistersLocal.ALM1HOUR = registerValue; return;
 2927              		.loc 1 876 0
 2928 0028 034B     		ldr	r3, .L300+4
 2929              	.LVL320:
 2930 002a 83F82110 		strb	r1, [r3, #33]
 2931              	.L295:
 877:rhea\drivers\MCP7940N/MCP7940N.c ****     default: return;
 878:rhea\drivers\MCP7940N/MCP7940N.c ****     };
 879:rhea\drivers\MCP7940N/MCP7940N.c **** }
 2932              		.loc 1 879 0
 2933 002e 10BC     		pop	{r4}
 2934              		.cfi_restore 4
 2935              		.cfi_def_cfa_offset 0
 2936 0030 7047     		bx	lr
 2937              	.L301:
 2938 0032 00BF     		.align	2
 2939              	.L300:
 2940 0034 CDCCCCCC 		.word	-858993459
 2941 0038 00000000 		.word	.LANCHOR0
 2942              		.cfi_endproc
 2943              	.LFE59:
 2944              		.size	MCP7940N_SetAlarmHours, .-MCP7940N_SetAlarmHours
 2945              		.section	.text.MCP7940N_SetAlarmWeekday,"ax",%progbits
ARM GAS  C:\Users\GYULAI~1\AppData\Local\Temp\ccG7iLma.s 			page 70


 2946              		.align	2
 2947              		.global	MCP7940N_SetAlarmWeekday
 2948              		.thumb
 2949              		.thumb_func
 2950              		.type	MCP7940N_SetAlarmWeekday, %function
 2951              	MCP7940N_SetAlarmWeekday:
 2952              	.LFB60:
 880:rhea\drivers\MCP7940N/MCP7940N.c **** 
 881:rhea\drivers\MCP7940N/MCP7940N.c **** void MCP7940N_SetAlarmWeekday(uint8_t id, uint8_t weekday) {
 2953              		.loc 1 881 0
 2954              		.cfi_startproc
 2955              		@ args = 0, pretend = 0, frame = 0
 2956              		@ frame_needed = 0, uses_anonymous_args = 0
 2957              		@ link register save eliminated.
 2958              	.LVL321:
 882:rhea\drivers\MCP7940N/MCP7940N.c ****     
 883:rhea\drivers\MCP7940N/MCP7940N.c ****     // Writing alarm weekday register
 884:rhea\drivers\MCP7940N/MCP7940N.c ****     switch(id) {
 2959              		.loc 1 884 0
 2960 0000 10B1     		cbz	r0, .L304
 2961 0002 0128     		cmp	r0, #1
 2962 0004 07D0     		beq	.L305
 2963 0006 7047     		bx	lr
 2964              	.L304:
 885:rhea\drivers\MCP7940N/MCP7940N.c ****     case MCP7940N_ALARM0:   MCP7940N_RegistersLocal.ALM0WKDAY &= ~MCP7940N_ALMxWKDAY_WKDAY;
 2965              		.loc 1 885 0
 2966 0008 074A     		ldr	r2, .L306
 2967 000a 137F     		ldrb	r3, [r2, #28]	@ zero_extendqisi2
 2968 000c 03F0F803 		and	r3, r3, #248
 886:rhea\drivers\MCP7940N/MCP7940N.c ****                             MCP7940N_RegistersLocal.ALM0WKDAY |= weekday; 
 2969              		.loc 1 886 0
 2970 0010 1943     		orrs	r1, r1, r3
 2971              	.LVL322:
 2972 0012 1177     		strb	r1, [r2, #28]
 887:rhea\drivers\MCP7940N/MCP7940N.c ****                             return;
 2973              		.loc 1 887 0
 2974 0014 7047     		bx	lr
 2975              	.LVL323:
 2976              	.L305:
 888:rhea\drivers\MCP7940N/MCP7940N.c ****     case MCP7940N_ALARM1:   MCP7940N_RegistersLocal.ALM1WKDAY &= ~MCP7940N_ALMxWKDAY_WKDAY;
 2977              		.loc 1 888 0
 2978 0016 044A     		ldr	r2, .L306
 2979 0018 92F82230 		ldrb	r3, [r2, #34]	@ zero_extendqisi2
 2980 001c 03F0F803 		and	r3, r3, #248
 889:rhea\drivers\MCP7940N/MCP7940N.c ****                             MCP7940N_RegistersLocal.ALM1WKDAY |= weekday; 
 2981              		.loc 1 889 0
 2982 0020 1943     		orrs	r1, r1, r3
 2983              	.LVL324:
 2984 0022 82F82210 		strb	r1, [r2, #34]
 2985 0026 7047     		bx	lr
 2986              	.L307:
 2987              		.align	2
 2988              	.L306:
 2989 0028 00000000 		.word	.LANCHOR0
 2990              		.cfi_endproc
 2991              	.LFE60:
 2992              		.size	MCP7940N_SetAlarmWeekday, .-MCP7940N_SetAlarmWeekday
ARM GAS  C:\Users\GYULAI~1\AppData\Local\Temp\ccG7iLma.s 			page 71


 2993              		.section	.text.MCP7940N_SetAlarmDate,"ax",%progbits
 2994              		.align	2
 2995              		.global	MCP7940N_SetAlarmDate
 2996              		.thumb
 2997              		.thumb_func
 2998              		.type	MCP7940N_SetAlarmDate, %function
 2999              	MCP7940N_SetAlarmDate:
 3000              	.LFB61:
 890:rhea\drivers\MCP7940N/MCP7940N.c ****                             return;
 891:rhea\drivers\MCP7940N/MCP7940N.c ****     default:                return;
 892:rhea\drivers\MCP7940N/MCP7940N.c ****     };
 893:rhea\drivers\MCP7940N/MCP7940N.c **** }
 894:rhea\drivers\MCP7940N/MCP7940N.c **** 
 895:rhea\drivers\MCP7940N/MCP7940N.c **** void MCP7940N_SetAlarmDate(uint8_t id, uint8_t date) {
 3001              		.loc 1 895 0
 3002              		.cfi_startproc
 3003              		@ args = 0, pretend = 0, frame = 0
 3004              		@ frame_needed = 0, uses_anonymous_args = 0
 3005              		@ link register save eliminated.
 3006              	.LVL325:
 3007 0000 10B4     		push	{r4}
 3008              		.cfi_def_cfa_offset 4
 3009              		.cfi_offset 4, -4
 896:rhea\drivers\MCP7940N/MCP7940N.c **** 
 897:rhea\drivers\MCP7940N/MCP7940N.c ****     // Encoding BCD
 898:rhea\drivers\MCP7940N/MCP7940N.c ****     uint8_t ones = date % 10;
 3010              		.loc 1 898 0
 3011 0002 0C4B     		ldr	r3, .L313
 3012 0004 A3FB0123 		umull	r2, r3, r3, r1
 3013 0008 DB08     		lsrs	r3, r3, #3
 3014 000a 03EB8304 		add	r4, r3, r3, lsl #2
 3015 000e 6200     		lsls	r2, r4, #1
 3016 0010 891A     		subs	r1, r1, r2
 3017              	.LVL326:
 3018 0012 C9B2     		uxtb	r1, r1
 3019              	.LVL327:
 899:rhea\drivers\MCP7940N/MCP7940N.c ****     uint8_t tens = date / 10;
 900:rhea\drivers\MCP7940N/MCP7940N.c ****     uint8_t registerValue = ones | tens << 4;
 3020              		.loc 1 900 0
 3021 0014 41EA0311 		orr	r1, r1, r3, lsl #4
 3022              	.LVL328:
 3023 0018 C9B2     		uxtb	r1, r1
 3024              	.LVL329:
 901:rhea\drivers\MCP7940N/MCP7940N.c ****     
 902:rhea\drivers\MCP7940N/MCP7940N.c ****     // Writing alarm date register
 903:rhea\drivers\MCP7940N/MCP7940N.c ****     switch(id) {
 3025              		.loc 1 903 0
 3026 001a 10B1     		cbz	r0, .L310
 3027 001c 0128     		cmp	r0, #1
 3028 001e 03D0     		beq	.L311
 3029 0020 05E0     		b	.L308
 3030              	.L310:
 904:rhea\drivers\MCP7940N/MCP7940N.c ****     case MCP7940N_ALARM0: MCP7940N_RegistersLocal.ALM0DATE = registerValue; return;
 3031              		.loc 1 904 0
 3032 0022 054B     		ldr	r3, .L313+4
 3033              	.LVL330:
 3034 0024 5977     		strb	r1, [r3, #29]
ARM GAS  C:\Users\GYULAI~1\AppData\Local\Temp\ccG7iLma.s 			page 72


 3035 0026 02E0     		b	.L308
 3036              	.LVL331:
 3037              	.L311:
 905:rhea\drivers\MCP7940N/MCP7940N.c ****     case MCP7940N_ALARM1: MCP7940N_RegistersLocal.ALM1DATE = registerValue; return;
 3038              		.loc 1 905 0
 3039 0028 034B     		ldr	r3, .L313+4
 3040              	.LVL332:
 3041 002a 83F82310 		strb	r1, [r3, #35]
 3042              	.L308:
 906:rhea\drivers\MCP7940N/MCP7940N.c ****     default: return;
 907:rhea\drivers\MCP7940N/MCP7940N.c ****     };
 908:rhea\drivers\MCP7940N/MCP7940N.c **** }
 3043              		.loc 1 908 0
 3044 002e 10BC     		pop	{r4}
 3045              		.cfi_restore 4
 3046              		.cfi_def_cfa_offset 0
 3047 0030 7047     		bx	lr
 3048              	.L314:
 3049 0032 00BF     		.align	2
 3050              	.L313:
 3051 0034 CDCCCCCC 		.word	-858993459
 3052 0038 00000000 		.word	.LANCHOR0
 3053              		.cfi_endproc
 3054              	.LFE61:
 3055              		.size	MCP7940N_SetAlarmDate, .-MCP7940N_SetAlarmDate
 3056              		.section	.text.MCP7940N_SetAlarmMonths,"ax",%progbits
 3057              		.align	2
 3058              		.global	MCP7940N_SetAlarmMonths
 3059              		.thumb
 3060              		.thumb_func
 3061              		.type	MCP7940N_SetAlarmMonths, %function
 3062              	MCP7940N_SetAlarmMonths:
 3063              	.LFB62:
 909:rhea\drivers\MCP7940N/MCP7940N.c **** 
 910:rhea\drivers\MCP7940N/MCP7940N.c **** void MCP7940N_SetAlarmMonths(uint8_t id, uint8_t months) {
 3064              		.loc 1 910 0
 3065              		.cfi_startproc
 3066              		@ args = 0, pretend = 0, frame = 0
 3067              		@ frame_needed = 0, uses_anonymous_args = 0
 3068              		@ link register save eliminated.
 3069              	.LVL333:
 3070 0000 10B4     		push	{r4}
 3071              		.cfi_def_cfa_offset 4
 3072              		.cfi_offset 4, -4
 911:rhea\drivers\MCP7940N/MCP7940N.c **** 
 912:rhea\drivers\MCP7940N/MCP7940N.c ****     // Encoding BCD
 913:rhea\drivers\MCP7940N/MCP7940N.c ****     uint8_t ones = months % 10;
 3073              		.loc 1 913 0
 3074 0002 0C4B     		ldr	r3, .L320
 3075 0004 A3FB0123 		umull	r2, r3, r3, r1
 3076 0008 DB08     		lsrs	r3, r3, #3
 3077 000a 03EB8304 		add	r4, r3, r3, lsl #2
 3078 000e 6200     		lsls	r2, r4, #1
 3079 0010 891A     		subs	r1, r1, r2
 3080              	.LVL334:
 3081 0012 C9B2     		uxtb	r1, r1
 3082              	.LVL335:
ARM GAS  C:\Users\GYULAI~1\AppData\Local\Temp\ccG7iLma.s 			page 73


 914:rhea\drivers\MCP7940N/MCP7940N.c ****     uint8_t tens = months / 10;
 915:rhea\drivers\MCP7940N/MCP7940N.c ****     uint8_t registerValue = ones | tens << 4;
 3083              		.loc 1 915 0
 3084 0014 41EA0311 		orr	r1, r1, r3, lsl #4
 3085              	.LVL336:
 3086 0018 C9B2     		uxtb	r1, r1
 3087              	.LVL337:
 916:rhea\drivers\MCP7940N/MCP7940N.c ****     
 917:rhea\drivers\MCP7940N/MCP7940N.c ****     // Writing alarm month register
 918:rhea\drivers\MCP7940N/MCP7940N.c ****     switch(id) {
 3088              		.loc 1 918 0
 3089 001a 10B1     		cbz	r0, .L317
 3090 001c 0128     		cmp	r0, #1
 3091 001e 03D0     		beq	.L318
 3092 0020 05E0     		b	.L315
 3093              	.L317:
 919:rhea\drivers\MCP7940N/MCP7940N.c ****     case MCP7940N_ALARM0: MCP7940N_RegistersLocal.ALM0MTH = registerValue; return;
 3094              		.loc 1 919 0
 3095 0022 054B     		ldr	r3, .L320+4
 3096              	.LVL338:
 3097 0024 9977     		strb	r1, [r3, #30]
 3098 0026 02E0     		b	.L315
 3099              	.LVL339:
 3100              	.L318:
 920:rhea\drivers\MCP7940N/MCP7940N.c ****     case MCP7940N_ALARM1: MCP7940N_RegistersLocal.ALM1MTH = registerValue; return;
 3101              		.loc 1 920 0
 3102 0028 034B     		ldr	r3, .L320+4
 3103              	.LVL340:
 3104 002a 83F82410 		strb	r1, [r3, #36]
 3105              	.L315:
 921:rhea\drivers\MCP7940N/MCP7940N.c ****     default: return;
 922:rhea\drivers\MCP7940N/MCP7940N.c ****     };
 923:rhea\drivers\MCP7940N/MCP7940N.c **** }
 3106              		.loc 1 923 0
 3107 002e 10BC     		pop	{r4}
 3108              		.cfi_restore 4
 3109              		.cfi_def_cfa_offset 0
 3110 0030 7047     		bx	lr
 3111              	.L321:
 3112 0032 00BF     		.align	2
 3113              	.L320:
 3114 0034 CDCCCCCC 		.word	-858993459
 3115 0038 00000000 		.word	.LANCHOR0
 3116              		.cfi_endproc
 3117              	.LFE62:
 3118              		.size	MCP7940N_SetAlarmMonths, .-MCP7940N_SetAlarmMonths
 3119              		.section	.text.MCP7940N_SetAlarmDatetime,"ax",%progbits
 3120              		.align	2
 3121              		.global	MCP7940N_SetAlarmDatetime
 3122              		.thumb
 3123              		.thumb_func
 3124              		.type	MCP7940N_SetAlarmDatetime, %function
 3125              	MCP7940N_SetAlarmDatetime:
 3126              	.LFB56:
 815:rhea\drivers\MCP7940N/MCP7940N.c ****     
 3127              		.loc 1 815 0
 3128              		.cfi_startproc
ARM GAS  C:\Users\GYULAI~1\AppData\Local\Temp\ccG7iLma.s 			page 74


 3129              		@ args = 0, pretend = 0, frame = 8
 3130              		@ frame_needed = 0, uses_anonymous_args = 0
 3131              	.LVL341:
 3132 0000 10B5     		push	{r4, lr}
 3133              		.cfi_def_cfa_offset 8
 3134              		.cfi_offset 4, -8
 3135              		.cfi_offset 14, -4
 3136 0002 82B0     		sub	sp, sp, #8
 3137              		.cfi_def_cfa_offset 16
 3138 0004 0446     		mov	r4, r0
 3139 0006 02AB     		add	r3, sp, #8
 3140 0008 03E90600 		stmdb	r3, {r1, r2}
 818:rhea\drivers\MCP7940N/MCP7940N.c ****     MCP7940N_SetAlarmMinutes(id, datetime.minute);
 3141              		.loc 1 818 0
 3142 000c 9DF80710 		ldrb	r1, [sp, #7]	@ zero_extendqisi2
 3143 0010 FFF7FEFF 		bl	MCP7940N_SetAlarmSeconds
 3144              	.LVL342:
 819:rhea\drivers\MCP7940N/MCP7940N.c ****     MCP7940N_SetAlarmHours(id, datetime.hour);
 3145              		.loc 1 819 0
 3146 0014 9DF80610 		ldrb	r1, [sp, #6]	@ zero_extendqisi2
 3147 0018 2046     		mov	r0, r4
 3148 001a FFF7FEFF 		bl	MCP7940N_SetAlarmMinutes
 3149              	.LVL343:
 820:rhea\drivers\MCP7940N/MCP7940N.c ****     MCP7940N_SetAlarmWeekday(id, datetime.weekday);
 3150              		.loc 1 820 0
 3151 001e 9DF80510 		ldrb	r1, [sp, #5]	@ zero_extendqisi2
 3152 0022 2046     		mov	r0, r4
 3153 0024 FFF7FEFF 		bl	MCP7940N_SetAlarmHours
 3154              	.LVL344:
 821:rhea\drivers\MCP7940N/MCP7940N.c ****     MCP7940N_SetAlarmDate(id, datetime.date);
 3155              		.loc 1 821 0
 3156 0028 9DF80410 		ldrb	r1, [sp, #4]	@ zero_extendqisi2
 3157 002c 2046     		mov	r0, r4
 3158 002e FFF7FEFF 		bl	MCP7940N_SetAlarmWeekday
 3159              	.LVL345:
 822:rhea\drivers\MCP7940N/MCP7940N.c ****     MCP7940N_SetAlarmMonths(id, datetime.month);
 3160              		.loc 1 822 0
 3161 0032 9DF80310 		ldrb	r1, [sp, #3]	@ zero_extendqisi2
 3162 0036 2046     		mov	r0, r4
 3163 0038 FFF7FEFF 		bl	MCP7940N_SetAlarmDate
 3164              	.LVL346:
 823:rhea\drivers\MCP7940N/MCP7940N.c ****     
 3165              		.loc 1 823 0
 3166 003c 9DF80210 		ldrb	r1, [sp, #2]	@ zero_extendqisi2
 3167 0040 2046     		mov	r0, r4
 3168 0042 FFF7FEFF 		bl	MCP7940N_SetAlarmMonths
 3169              	.LVL347:
 826:rhea\drivers\MCP7940N/MCP7940N.c ****         MCP7940N_I2CWriter(MCP7940N_I2C_ADDR, MCP7940N_ALM0SEC, (uint8_t*) &MCP7940N_RegistersLocal
 3170              		.loc 1 826 0
 3171 0046 34B9     		cbnz	r4, .L323
 827:rhea\drivers\MCP7940N/MCP7940N.c ****                            MCP7940N_ALM0MTH - MCP7940N_ALM0SEC + 1);
 3172              		.loc 1 827 0
 3173 0048 0623     		movs	r3, #6
 3174 004a 084A     		ldr	r2, .L326
 3175 004c 0A21     		movs	r1, #10
 3176 004e DE20     		movs	r0, #222
 3177 0050 FFF7FEFF 		bl	MCP7940N_I2CWriter
ARM GAS  C:\Users\GYULAI~1\AppData\Local\Temp\ccG7iLma.s 			page 75


 3178              	.LVL348:
 3179 0054 07E0     		b	.L322
 3180              	.L323:
 830:rhea\drivers\MCP7940N/MCP7940N.c ****         MCP7940N_I2CWriter(MCP7940N_I2C_ADDR, MCP7940N_ALM0SEC, (uint8_t*) &MCP7940N_RegistersLocal
 3181              		.loc 1 830 0
 3182 0056 012C     		cmp	r4, #1
 3183 0058 05D1     		bne	.L322
 831:rhea\drivers\MCP7940N/MCP7940N.c ****                            MCP7940N_ALM0MTH - MCP7940N_ALM0SEC + 1);
 3184              		.loc 1 831 0
 3185 005a 0623     		movs	r3, #6
 3186 005c 034A     		ldr	r2, .L326
 3187 005e 0A21     		movs	r1, #10
 3188 0060 DE20     		movs	r0, #222
 3189 0062 FFF7FEFF 		bl	MCP7940N_I2CWriter
 3190              	.LVL349:
 3191              	.L322:
 834:rhea\drivers\MCP7940N/MCP7940N.c **** 
 3192              		.loc 1 834 0
 3193 0066 02B0     		add	sp, sp, #8
 3194              		.cfi_def_cfa_offset 8
 3195              		@ sp needed
 3196 0068 10BD     		pop	{r4, pc}
 3197              	.L327:
 3198 006a 00BF     		.align	2
 3199              	.L326:
 3200 006c 19000000 		.word	.LANCHOR0+25
 3201              		.cfi_endproc
 3202              	.LFE56:
 3203              		.size	MCP7940N_SetAlarmDatetime, .-MCP7940N_SetAlarmDatetime
 3204              		.section	.text.MCP7940N_SetAlarmPolarity,"ax",%progbits
 3205              		.align	2
 3206              		.global	MCP7940N_SetAlarmPolarity
 3207              		.thumb
 3208              		.thumb_func
 3209              		.type	MCP7940N_SetAlarmPolarity, %function
 3210              	MCP7940N_SetAlarmPolarity:
 3211              	.LFB63:
 924:rhea\drivers\MCP7940N/MCP7940N.c **** 
 925:rhea\drivers\MCP7940N/MCP7940N.c **** void MCP7940N_SetAlarmPolarity(uint8_t polarity) {
 3212              		.loc 1 925 0
 3213              		.cfi_startproc
 3214              		@ args = 0, pretend = 0, frame = 0
 3215              		@ frame_needed = 0, uses_anonymous_args = 0
 3216              	.LVL350:
 3217 0000 08B5     		push	{r3, lr}
 3218              		.cfi_def_cfa_offset 8
 3219              		.cfi_offset 3, -8
 3220              		.cfi_offset 14, -4
 926:rhea\drivers\MCP7940N/MCP7940N.c ****     
 927:rhea\drivers\MCP7940N/MCP7940N.c ****     // Writing ALM0WKDAY register
 928:rhea\drivers\MCP7940N/MCP7940N.c ****     MCP7940N_RegistersLocal.ALM0WKDAY &= ~MCP7940N_ALMxWKDAY_ALMPOL;
 3221              		.loc 1 928 0
 3222 0002 064A     		ldr	r2, .L330
 3223 0004 137F     		ldrb	r3, [r2, #28]	@ zero_extendqisi2
 3224 0006 03F07F03 		and	r3, r3, #127
 929:rhea\drivers\MCP7940N/MCP7940N.c ****     MCP7940N_RegistersLocal.ALM0WKDAY |= polarity;
 3225              		.loc 1 929 0
ARM GAS  C:\Users\GYULAI~1\AppData\Local\Temp\ccG7iLma.s 			page 76


 3226 000a 1843     		orrs	r0, r0, r3
 3227              	.LVL351:
 3228 000c 02F81C0F 		strb	r0, [r2, #28]!
 930:rhea\drivers\MCP7940N/MCP7940N.c ****     
 931:rhea\drivers\MCP7940N/MCP7940N.c ****     // Writing changes to hardware
 932:rhea\drivers\MCP7940N/MCP7940N.c ****     MCP7940N_I2CWriter(MCP7940N_I2C_ADDR, MCP7940N_ALM0WKDAY, (uint8_t*) &MCP7940N_RegistersLocal.A
 3229              		.loc 1 932 0
 3230 0010 0123     		movs	r3, #1
 3231 0012 0D21     		movs	r1, #13
 3232 0014 DE20     		movs	r0, #222
 3233 0016 FFF7FEFF 		bl	MCP7940N_I2CWriter
 3234              	.LVL352:
 3235 001a 08BD     		pop	{r3, pc}
 3236              	.L331:
 3237              		.align	2
 3238              	.L330:
 3239 001c 00000000 		.word	.LANCHOR0
 3240              		.cfi_endproc
 3241              	.LFE63:
 3242              		.size	MCP7940N_SetAlarmPolarity, .-MCP7940N_SetAlarmPolarity
 3243              		.section	.text.MCP7940N_EnableAlarm,"ax",%progbits
 3244              		.align	2
 3245              		.global	MCP7940N_EnableAlarm
 3246              		.thumb
 3247              		.thumb_func
 3248              		.type	MCP7940N_EnableAlarm, %function
 3249              	MCP7940N_EnableAlarm:
 3250              	.LFB64:
 933:rhea\drivers\MCP7940N/MCP7940N.c **** }
 934:rhea\drivers\MCP7940N/MCP7940N.c **** 
 935:rhea\drivers\MCP7940N/MCP7940N.c **** void MCP7940N_EnableAlarm(uint8_t id, uint8_t mode) {
 3251              		.loc 1 935 0
 3252              		.cfi_startproc
 3253              		@ args = 0, pretend = 0, frame = 0
 3254              		@ frame_needed = 0, uses_anonymous_args = 0
 3255              		@ link register save eliminated.
 3256              	.LVL353:
 936:rhea\drivers\MCP7940N/MCP7940N.c ****     
 937:rhea\drivers\MCP7940N/MCP7940N.c ****     // Writing alarm weekday & CONTROL registers
 938:rhea\drivers\MCP7940N/MCP7940N.c ****     switch(id) {
 3257              		.loc 1 938 0
 3258 0000 10B1     		cbz	r0, .L334
 3259 0002 0128     		cmp	r0, #1
 3260 0004 0BD0     		beq	.L335
 3261 0006 7047     		bx	lr
 3262              	.L334:
 939:rhea\drivers\MCP7940N/MCP7940N.c ****     case MCP7940N_ALARM0:   MCP7940N_RegistersLocal.ALM0WKDAY &= ~MCP7940N_ALMxWKDAY_ALMxMSK;
 3263              		.loc 1 939 0
 3264 0008 0C4B     		ldr	r3, .L336
 3265 000a 1A7F     		ldrb	r2, [r3, #28]	@ zero_extendqisi2
 3266 000c 02F08F02 		and	r2, r2, #143
 940:rhea\drivers\MCP7940N/MCP7940N.c ****                             MCP7940N_RegistersLocal.ALM0WKDAY |= mode;
 3267              		.loc 1 940 0
 3268 0010 1143     		orrs	r1, r1, r2
 3269              	.LVL354:
 3270 0012 1977     		strb	r1, [r3, #28]
 941:rhea\drivers\MCP7940N/MCP7940N.c ****                             MCP7940N_RegistersLocal.CONTROL   |= MCP7940N_CONTROL_ALM0EN;
ARM GAS  C:\Users\GYULAI~1\AppData\Local\Temp\ccG7iLma.s 			page 77


 3271              		.loc 1 941 0
 3272 0014 DA7D     		ldrb	r2, [r3, #23]	@ zero_extendqisi2
 3273 0016 42F01002 		orr	r2, r2, #16
 3274 001a DA75     		strb	r2, [r3, #23]
 942:rhea\drivers\MCP7940N/MCP7940N.c ****                             return;
 3275              		.loc 1 942 0
 3276 001c 7047     		bx	lr
 3277              	.LVL355:
 3278              	.L335:
 943:rhea\drivers\MCP7940N/MCP7940N.c ****     case MCP7940N_ALARM1:   MCP7940N_RegistersLocal.ALM1WKDAY &= ~MCP7940N_ALMxWKDAY_ALMxMSK;
 3279              		.loc 1 943 0
 3280 001e 074B     		ldr	r3, .L336
 3281 0020 93F82220 		ldrb	r2, [r3, #34]	@ zero_extendqisi2
 3282 0024 22F07002 		bic	r2, r2, #112
 3283 0028 83F82220 		strb	r2, [r3, #34]
 944:rhea\drivers\MCP7940N/MCP7940N.c ****                             MCP7940N_RegistersLocal.ALM0WKDAY |= mode;
 3284              		.loc 1 944 0
 3285 002c 1A7F     		ldrb	r2, [r3, #28]	@ zero_extendqisi2
 3286 002e 1143     		orrs	r1, r1, r2
 3287              	.LVL356:
 3288 0030 1977     		strb	r1, [r3, #28]
 945:rhea\drivers\MCP7940N/MCP7940N.c ****                             MCP7940N_RegistersLocal.CONTROL   |= MCP7940N_CONTROL_ALM1EN;
 3289              		.loc 1 945 0
 3290 0032 DA7D     		ldrb	r2, [r3, #23]	@ zero_extendqisi2
 3291 0034 42F02002 		orr	r2, r2, #32
 3292 0038 DA75     		strb	r2, [r3, #23]
 3293 003a 7047     		bx	lr
 3294              	.L337:
 3295              		.align	2
 3296              	.L336:
 3297 003c 00000000 		.word	.LANCHOR0
 3298              		.cfi_endproc
 3299              	.LFE64:
 3300              		.size	MCP7940N_EnableAlarm, .-MCP7940N_EnableAlarm
 3301              		.section	.text.MCP7940N_DisableAlarm,"ax",%progbits
 3302              		.align	2
 3303              		.global	MCP7940N_DisableAlarm
 3304              		.thumb
 3305              		.thumb_func
 3306              		.type	MCP7940N_DisableAlarm, %function
 3307              	MCP7940N_DisableAlarm:
 3308              	.LFB65:
 946:rhea\drivers\MCP7940N/MCP7940N.c ****                             return;
 947:rhea\drivers\MCP7940N/MCP7940N.c ****     default:                return;
 948:rhea\drivers\MCP7940N/MCP7940N.c ****     };
 949:rhea\drivers\MCP7940N/MCP7940N.c ****     
 950:rhea\drivers\MCP7940N/MCP7940N.c ****     // Writing changes to hardware
 951:rhea\drivers\MCP7940N/MCP7940N.c ****     if(id == MCP7940N_ALARM0) {
 952:rhea\drivers\MCP7940N/MCP7940N.c ****         MCP7940N_I2CWriter(MCP7940N_I2C_ADDR, MCP7940N_ALM0WKDAY, (uint8_t*) &MCP7940N_RegistersLoc
 953:rhea\drivers\MCP7940N/MCP7940N.c ****     }
 954:rhea\drivers\MCP7940N/MCP7940N.c ****     else if(id == MCP7940N_ALARM1) {
 955:rhea\drivers\MCP7940N/MCP7940N.c ****         MCP7940N_I2CWriter(MCP7940N_I2C_ADDR, MCP7940N_ALM0WKDAY, (uint8_t*) &MCP7940N_RegistersLoc
 956:rhea\drivers\MCP7940N/MCP7940N.c ****     }
 957:rhea\drivers\MCP7940N/MCP7940N.c ****     MCP7940N_I2CWriter(MCP7940N_I2C_ADDR, MCP7940N_CONTROL, (uint8_t*) &MCP7940N_RegistersLocal.CON
 958:rhea\drivers\MCP7940N/MCP7940N.c **** }
 959:rhea\drivers\MCP7940N/MCP7940N.c **** 
 960:rhea\drivers\MCP7940N/MCP7940N.c **** void MCP7940N_DisableAlarm(uint8_t id) {
ARM GAS  C:\Users\GYULAI~1\AppData\Local\Temp\ccG7iLma.s 			page 78


 3309              		.loc 1 960 0
 3310              		.cfi_startproc
 3311              		@ args = 0, pretend = 0, frame = 0
 3312              		@ frame_needed = 0, uses_anonymous_args = 0
 3313              		@ link register save eliminated.
 3314              	.LVL357:
 961:rhea\drivers\MCP7940N/MCP7940N.c ****     
 962:rhea\drivers\MCP7940N/MCP7940N.c ****     // Clearing alarm enable bit of CONTROL register
 963:rhea\drivers\MCP7940N/MCP7940N.c ****     switch(id) {
 3315              		.loc 1 963 0
 3316 0000 10B1     		cbz	r0, .L340
 3317 0002 0128     		cmp	r0, #1
 3318 0004 06D0     		beq	.L341
 3319 0006 7047     		bx	lr
 3320              	.L340:
 964:rhea\drivers\MCP7940N/MCP7940N.c ****     case MCP7940N_ALARM0: MCP7940N_RegistersLocal.CONTROL &= ~MCP7940N_CONTROL_ALM0EN; return;
 3321              		.loc 1 964 0
 3322 0008 054A     		ldr	r2, .L342
 3323 000a D37D     		ldrb	r3, [r2, #23]	@ zero_extendqisi2
 3324 000c 23F01003 		bic	r3, r3, #16
 3325 0010 D375     		strb	r3, [r2, #23]
 3326 0012 7047     		bx	lr
 3327              	.L341:
 965:rhea\drivers\MCP7940N/MCP7940N.c ****     case MCP7940N_ALARM1: MCP7940N_RegistersLocal.CONTROL &= ~MCP7940N_CONTROL_ALM1EN; return;
 3328              		.loc 1 965 0
 3329 0014 024A     		ldr	r2, .L342
 3330 0016 D37D     		ldrb	r3, [r2, #23]	@ zero_extendqisi2
 3331 0018 23F02003 		bic	r3, r3, #32
 3332 001c D375     		strb	r3, [r2, #23]
 3333 001e 7047     		bx	lr
 3334              	.L343:
 3335              		.align	2
 3336              	.L342:
 3337 0020 00000000 		.word	.LANCHOR0
 3338              		.cfi_endproc
 3339              	.LFE65:
 3340              		.size	MCP7940N_DisableAlarm, .-MCP7940N_DisableAlarm
 3341              		.section	.text.MCP7940N_GetPowerFailMonth,"ax",%progbits
 3342              		.align	2
 3343              		.global	MCP7940N_GetPowerFailMonth
 3344              		.thumb
 3345              		.thumb_func
 3346              		.type	MCP7940N_GetPowerFailMonth, %function
 3347              	MCP7940N_GetPowerFailMonth:
 3348              	.LFB67:
 966:rhea\drivers\MCP7940N/MCP7940N.c ****     default: return;
 967:rhea\drivers\MCP7940N/MCP7940N.c ****     };  
 968:rhea\drivers\MCP7940N/MCP7940N.c ****     
 969:rhea\drivers\MCP7940N/MCP7940N.c ****     // Writing changes to hardware
 970:rhea\drivers\MCP7940N/MCP7940N.c ****     MCP7940N_I2CWriter(MCP7940N_I2C_ADDR, MCP7940N_CONTROL, (uint8_t*) &MCP7940N_RegistersLocal.CON
 971:rhea\drivers\MCP7940N/MCP7940N.c **** }
 972:rhea\drivers\MCP7940N/MCP7940N.c **** 
 973:rhea\drivers\MCP7940N/MCP7940N.c **** MCP7940N_Datetime MCP7940N_GetPowerFailDatetime(void) {
 974:rhea\drivers\MCP7940N/MCP7940N.c ****     
 975:rhea\drivers\MCP7940N/MCP7940N.c ****     // Reading power-fail timestamp registers
 976:rhea\drivers\MCP7940N/MCP7940N.c ****     MCP7940N_I2CReader(MCP7940N_I2C_ADDR, MCP7940N_PWRDNMIN, (uint8_t*) &MCP7940N_RegistersLocal.PW
 977:rhea\drivers\MCP7940N/MCP7940N.c ****                        MCP7940N_PWRDNMTH - MCP7940N_PWRDNMIN + 1);
ARM GAS  C:\Users\GYULAI~1\AppData\Local\Temp\ccG7iLma.s 			page 79


 978:rhea\drivers\MCP7940N/MCP7940N.c ****     
 979:rhea\drivers\MCP7940N/MCP7940N.c ****     // Creating datetime structure to store the result
 980:rhea\drivers\MCP7940N/MCP7940N.c ****     MCP7940N_Datetime datetime;
 981:rhea\drivers\MCP7940N/MCP7940N.c ****     
 982:rhea\drivers\MCP7940N/MCP7940N.c ****     // Populating datetime structure
 983:rhea\drivers\MCP7940N/MCP7940N.c ****     datetime.year = 0;
 984:rhea\drivers\MCP7940N/MCP7940N.c ****     datetime.month = MCP7940N_GetPowerFailMonth();
 985:rhea\drivers\MCP7940N/MCP7940N.c ****     datetime.date = MCP7940N_GetPowerFailDate();
 986:rhea\drivers\MCP7940N/MCP7940N.c ****     datetime.weekday = MCP7940N_GetPowerFailWeekday();
 987:rhea\drivers\MCP7940N/MCP7940N.c ****     datetime.hour = MCP7940N_GetPowerFailHour();
 988:rhea\drivers\MCP7940N/MCP7940N.c ****     datetime.minute = MCP7940N_GetPowerFailMinute();
 989:rhea\drivers\MCP7940N/MCP7940N.c ****     datetime.second = 0;
 990:rhea\drivers\MCP7940N/MCP7940N.c ****     
 991:rhea\drivers\MCP7940N/MCP7940N.c ****     return datetime;
 992:rhea\drivers\MCP7940N/MCP7940N.c **** }
 993:rhea\drivers\MCP7940N/MCP7940N.c **** 
 994:rhea\drivers\MCP7940N/MCP7940N.c **** uint8_t MCP7940N_GetPowerFailMonth(void) {
 3349              		.loc 1 994 0
 3350              		.cfi_startproc
 3351              		@ args = 0, pretend = 0, frame = 0
 3352              		@ frame_needed = 0, uses_anonymous_args = 0
 3353              		@ link register save eliminated.
 995:rhea\drivers\MCP7940N/MCP7940N.c ****     
 996:rhea\drivers\MCP7940N/MCP7940N.c ****     // Reading PWRDNMTH register
 997:rhea\drivers\MCP7940N/MCP7940N.c ****     uint8_t registerValue = MCP7940N_RegistersLocal.PWRDNMTH;
 3354              		.loc 1 997 0
 3355 0000 064B     		ldr	r3, .L345
 3356 0002 93F82830 		ldrb	r3, [r3, #40]	@ zero_extendqisi2
 3357              	.LVL358:
 998:rhea\drivers\MCP7940N/MCP7940N.c ****     
 999:rhea\drivers\MCP7940N/MCP7940N.c ****     // Decoding BCD
1000:rhea\drivers\MCP7940N/MCP7940N.c ****     uint8_t ones = registerValue & MCP7940N_PWRDNMTH_MTHONE;
 3358              		.loc 1 1000 0
 3359 0006 03F00F00 		and	r0, r3, #15
 3360              	.LVL359:
1001:rhea\drivers\MCP7940N/MCP7940N.c ****     uint8_t tens = registerValue & MCP7940N_PWRDNMTH_MTHTEN;
1002:rhea\drivers\MCP7940N/MCP7940N.c ****     tens = tens >> 4;
 3361              		.loc 1 1002 0
 3362 000a C3F30013 		ubfx	r3, r3, #4, #1
 3363              	.LVL360:
1003:rhea\drivers\MCP7940N/MCP7940N.c ****     
1004:rhea\drivers\MCP7940N/MCP7940N.c ****     // Returning result
1005:rhea\drivers\MCP7940N/MCP7940N.c ****     return tens * 10 + ones;
 3364              		.loc 1 1005 0
 3365 000e 9900     		lsls	r1, r3, #2
 3366 0010 0B44     		add	r3, r3, r1
 3367              	.LVL361:
 3368 0012 5A00     		lsls	r2, r3, #1
 3369 0014 1044     		add	r0, r0, r2
 3370              	.LVL362:
1006:rhea\drivers\MCP7940N/MCP7940N.c **** }
 3371              		.loc 1 1006 0
 3372 0016 C0B2     		uxtb	r0, r0
 3373 0018 7047     		bx	lr
 3374              	.L346:
 3375 001a 00BF     		.align	2
 3376              	.L345:
ARM GAS  C:\Users\GYULAI~1\AppData\Local\Temp\ccG7iLma.s 			page 80


 3377 001c 00000000 		.word	.LANCHOR0
 3378              		.cfi_endproc
 3379              	.LFE67:
 3380              		.size	MCP7940N_GetPowerFailMonth, .-MCP7940N_GetPowerFailMonth
 3381              		.section	.text.MCP7940N_GetPowerFailWeekday,"ax",%progbits
 3382              		.align	2
 3383              		.global	MCP7940N_GetPowerFailWeekday
 3384              		.thumb
 3385              		.thumb_func
 3386              		.type	MCP7940N_GetPowerFailWeekday, %function
 3387              	MCP7940N_GetPowerFailWeekday:
 3388              	.LFB68:
1007:rhea\drivers\MCP7940N/MCP7940N.c **** 
1008:rhea\drivers\MCP7940N/MCP7940N.c **** uint8_t MCP7940N_GetPowerFailWeekday(void) {
 3389              		.loc 1 1008 0
 3390              		.cfi_startproc
 3391              		@ args = 0, pretend = 0, frame = 0
 3392              		@ frame_needed = 0, uses_anonymous_args = 0
 3393              		@ link register save eliminated.
1009:rhea\drivers\MCP7940N/MCP7940N.c ****     
1010:rhea\drivers\MCP7940N/MCP7940N.c ****     // Return weekday bits of PWRDNMTH register
1011:rhea\drivers\MCP7940N/MCP7940N.c ****     return (MCP7940N_RegistersLocal.PWRDNMTH & MCP7940N_PWRDNMTH_WKDAY) >> 5;  
 3394              		.loc 1 1011 0
 3395 0000 024B     		ldr	r3, .L348
 3396 0002 93F82800 		ldrb	r0, [r3, #40]	@ zero_extendqisi2
1012:rhea\drivers\MCP7940N/MCP7940N.c **** }
 3397              		.loc 1 1012 0
 3398 0006 4009     		lsrs	r0, r0, #5
 3399 0008 7047     		bx	lr
 3400              	.L349:
 3401 000a 00BF     		.align	2
 3402              	.L348:
 3403 000c 00000000 		.word	.LANCHOR0
 3404              		.cfi_endproc
 3405              	.LFE68:
 3406              		.size	MCP7940N_GetPowerFailWeekday, .-MCP7940N_GetPowerFailWeekday
 3407              		.section	.text.MCP7940N_GetPowerFailDate,"ax",%progbits
 3408              		.align	2
 3409              		.global	MCP7940N_GetPowerFailDate
 3410              		.thumb
 3411              		.thumb_func
 3412              		.type	MCP7940N_GetPowerFailDate, %function
 3413              	MCP7940N_GetPowerFailDate:
 3414              	.LFB69:
1013:rhea\drivers\MCP7940N/MCP7940N.c **** 
1014:rhea\drivers\MCP7940N/MCP7940N.c **** uint8_t MCP7940N_GetPowerFailDate(void) {
 3415              		.loc 1 1014 0
 3416              		.cfi_startproc
 3417              		@ args = 0, pretend = 0, frame = 0
 3418              		@ frame_needed = 0, uses_anonymous_args = 0
 3419              		@ link register save eliminated.
1015:rhea\drivers\MCP7940N/MCP7940N.c ****     
1016:rhea\drivers\MCP7940N/MCP7940N.c ****     // Reading PWRDNDATE register
1017:rhea\drivers\MCP7940N/MCP7940N.c ****     uint8_t registerValue = MCP7940N_RegistersLocal.PWRDNDATE;
 3420              		.loc 1 1017 0
 3421 0000 064B     		ldr	r3, .L351
 3422 0002 93F82730 		ldrb	r3, [r3, #39]	@ zero_extendqisi2
ARM GAS  C:\Users\GYULAI~1\AppData\Local\Temp\ccG7iLma.s 			page 81


 3423              	.LVL363:
1018:rhea\drivers\MCP7940N/MCP7940N.c ****     
1019:rhea\drivers\MCP7940N/MCP7940N.c ****     // Decoding BCD
1020:rhea\drivers\MCP7940N/MCP7940N.c ****     uint8_t ones = registerValue & MCP7940N_PWRDNDATE_DATEONE;
 3424              		.loc 1 1020 0
 3425 0006 03F00F00 		and	r0, r3, #15
 3426              	.LVL364:
1021:rhea\drivers\MCP7940N/MCP7940N.c ****     uint8_t tens = registerValue & MCP7940N_PWRDNDATE_DATETEN;
1022:rhea\drivers\MCP7940N/MCP7940N.c ****     tens = tens >> 4;
 3427              		.loc 1 1022 0
 3428 000a C3F30113 		ubfx	r3, r3, #4, #2
 3429              	.LVL365:
1023:rhea\drivers\MCP7940N/MCP7940N.c ****     
1024:rhea\drivers\MCP7940N/MCP7940N.c ****     // Returning result
1025:rhea\drivers\MCP7940N/MCP7940N.c ****     return tens * 10 + ones;
 3430              		.loc 1 1025 0
 3431 000e 03EB8303 		add	r3, r3, r3, lsl #2
 3432              	.LVL366:
 3433 0012 5A00     		lsls	r2, r3, #1
 3434 0014 1044     		add	r0, r0, r2
 3435              	.LVL367:
1026:rhea\drivers\MCP7940N/MCP7940N.c **** }
 3436              		.loc 1 1026 0
 3437 0016 C0B2     		uxtb	r0, r0
 3438 0018 7047     		bx	lr
 3439              	.L352:
 3440 001a 00BF     		.align	2
 3441              	.L351:
 3442 001c 00000000 		.word	.LANCHOR0
 3443              		.cfi_endproc
 3444              	.LFE69:
 3445              		.size	MCP7940N_GetPowerFailDate, .-MCP7940N_GetPowerFailDate
 3446              		.section	.text.MCP7940N_GetPowerFailHour,"ax",%progbits
 3447              		.align	2
 3448              		.global	MCP7940N_GetPowerFailHour
 3449              		.thumb
 3450              		.thumb_func
 3451              		.type	MCP7940N_GetPowerFailHour, %function
 3452              	MCP7940N_GetPowerFailHour:
 3453              	.LFB70:
1027:rhea\drivers\MCP7940N/MCP7940N.c **** 
1028:rhea\drivers\MCP7940N/MCP7940N.c **** uint8_t MCP7940N_GetPowerFailHour(void) {
 3454              		.loc 1 1028 0
 3455              		.cfi_startproc
 3456              		@ args = 0, pretend = 0, frame = 0
 3457              		@ frame_needed = 0, uses_anonymous_args = 0
 3458              		@ link register save eliminated.
1029:rhea\drivers\MCP7940N/MCP7940N.c ****     
1030:rhea\drivers\MCP7940N/MCP7940N.c ****     // Reading PWRDNHOUR register
1031:rhea\drivers\MCP7940N/MCP7940N.c ****     uint8_t registerValue = MCP7940N_RegistersLocal.PWRDNHOUR;
 3459              		.loc 1 1031 0
 3460 0000 064B     		ldr	r3, .L354
 3461 0002 93F82630 		ldrb	r3, [r3, #38]	@ zero_extendqisi2
 3462              	.LVL368:
1032:rhea\drivers\MCP7940N/MCP7940N.c ****     
1033:rhea\drivers\MCP7940N/MCP7940N.c ****     // Decoding BCD
1034:rhea\drivers\MCP7940N/MCP7940N.c ****     uint8_t ones = registerValue & MCP7940N_PWRDNHOUR_HRONE;
ARM GAS  C:\Users\GYULAI~1\AppData\Local\Temp\ccG7iLma.s 			page 82


 3463              		.loc 1 1034 0
 3464 0006 03F00F00 		and	r0, r3, #15
 3465              	.LVL369:
1035:rhea\drivers\MCP7940N/MCP7940N.c ****     uint8_t tens = registerValue & MCP7940N_PWRDNHOUR_HRTEN;
1036:rhea\drivers\MCP7940N/MCP7940N.c ****     tens = tens >> 4;
 3466              		.loc 1 1036 0
 3467 000a C3F30113 		ubfx	r3, r3, #4, #2
 3468              	.LVL370:
1037:rhea\drivers\MCP7940N/MCP7940N.c ****     
1038:rhea\drivers\MCP7940N/MCP7940N.c ****     // Returning result
1039:rhea\drivers\MCP7940N/MCP7940N.c ****     return tens * 10 + ones;
 3469              		.loc 1 1039 0
 3470 000e 03EB8303 		add	r3, r3, r3, lsl #2
 3471              	.LVL371:
 3472 0012 5A00     		lsls	r2, r3, #1
 3473 0014 1044     		add	r0, r0, r2
 3474              	.LVL372:
1040:rhea\drivers\MCP7940N/MCP7940N.c **** }
 3475              		.loc 1 1040 0
 3476 0016 C0B2     		uxtb	r0, r0
 3477 0018 7047     		bx	lr
 3478              	.L355:
 3479 001a 00BF     		.align	2
 3480              	.L354:
 3481 001c 00000000 		.word	.LANCHOR0
 3482              		.cfi_endproc
 3483              	.LFE70:
 3484              		.size	MCP7940N_GetPowerFailHour, .-MCP7940N_GetPowerFailHour
 3485              		.section	.text.MCP7940N_GetPowerFailMinute,"ax",%progbits
 3486              		.align	2
 3487              		.global	MCP7940N_GetPowerFailMinute
 3488              		.thumb
 3489              		.thumb_func
 3490              		.type	MCP7940N_GetPowerFailMinute, %function
 3491              	MCP7940N_GetPowerFailMinute:
 3492              	.LFB71:
1041:rhea\drivers\MCP7940N/MCP7940N.c **** 
1042:rhea\drivers\MCP7940N/MCP7940N.c **** uint8_t MCP7940N_GetPowerFailMinute(void) {
 3493              		.loc 1 1042 0
 3494              		.cfi_startproc
 3495              		@ args = 0, pretend = 0, frame = 0
 3496              		@ frame_needed = 0, uses_anonymous_args = 0
 3497              		@ link register save eliminated.
1043:rhea\drivers\MCP7940N/MCP7940N.c ****     
1044:rhea\drivers\MCP7940N/MCP7940N.c ****     // Reading PWRDNMIN register
1045:rhea\drivers\MCP7940N/MCP7940N.c ****     uint8_t registerValue = MCP7940N_RegistersLocal.PWRDNMIN;
 3498              		.loc 1 1045 0
 3499 0000 064B     		ldr	r3, .L357
 3500 0002 93F82530 		ldrb	r3, [r3, #37]	@ zero_extendqisi2
 3501              	.LVL373:
1046:rhea\drivers\MCP7940N/MCP7940N.c ****     
1047:rhea\drivers\MCP7940N/MCP7940N.c ****     // Decoding BCD
1048:rhea\drivers\MCP7940N/MCP7940N.c ****     uint8_t ones = registerValue & MCP7940N_PWRDNMIN_MINONE;
 3502              		.loc 1 1048 0
 3503 0006 03F00F00 		and	r0, r3, #15
 3504              	.LVL374:
1049:rhea\drivers\MCP7940N/MCP7940N.c ****     uint8_t tens = registerValue & MCP7940N_PWRDNMIN_MINTEN;
ARM GAS  C:\Users\GYULAI~1\AppData\Local\Temp\ccG7iLma.s 			page 83


1050:rhea\drivers\MCP7940N/MCP7940N.c ****     tens = tens >> 4;
 3505              		.loc 1 1050 0
 3506 000a C3F30213 		ubfx	r3, r3, #4, #3
 3507              	.LVL375:
1051:rhea\drivers\MCP7940N/MCP7940N.c ****     
1052:rhea\drivers\MCP7940N/MCP7940N.c ****     // Returning result
1053:rhea\drivers\MCP7940N/MCP7940N.c ****     return tens * 10 + ones;
 3508              		.loc 1 1053 0
 3509 000e 03EB8303 		add	r3, r3, r3, lsl #2
 3510              	.LVL376:
 3511 0012 5A00     		lsls	r2, r3, #1
 3512 0014 1044     		add	r0, r0, r2
 3513              	.LVL377:
1054:rhea\drivers\MCP7940N/MCP7940N.c **** }
 3514              		.loc 1 1054 0
 3515 0016 C0B2     		uxtb	r0, r0
 3516 0018 7047     		bx	lr
 3517              	.L358:
 3518 001a 00BF     		.align	2
 3519              	.L357:
 3520 001c 00000000 		.word	.LANCHOR0
 3521              		.cfi_endproc
 3522              	.LFE71:
 3523              		.size	MCP7940N_GetPowerFailMinute, .-MCP7940N_GetPowerFailMinute
 3524              		.section	.text.MCP7940N_GetPowerFailDatetime,"ax",%progbits
 3525              		.align	2
 3526              		.global	MCP7940N_GetPowerFailDatetime
 3527              		.thumb
 3528              		.thumb_func
 3529              		.type	MCP7940N_GetPowerFailDatetime, %function
 3530              	MCP7940N_GetPowerFailDatetime:
 3531              	.LFB66:
 973:rhea\drivers\MCP7940N/MCP7940N.c ****     
 3532              		.loc 1 973 0
 3533              		.cfi_startproc
 3534              		@ args = 0, pretend = 0, frame = 0
 3535              		@ frame_needed = 0, uses_anonymous_args = 0
 3536              	.LVL378:
 3537 0000 38B5     		push	{r3, r4, r5, lr}
 3538              		.cfi_def_cfa_offset 16
 3539              		.cfi_offset 3, -16
 3540              		.cfi_offset 4, -12
 3541              		.cfi_offset 5, -8
 3542              		.cfi_offset 14, -4
 3543 0002 0446     		mov	r4, r0
 976:rhea\drivers\MCP7940N/MCP7940N.c ****                        MCP7940N_PWRDNMTH - MCP7940N_PWRDNMIN + 1);
 3544              		.loc 1 976 0
 3545 0004 0423     		movs	r3, #4
 3546 0006 0C4A     		ldr	r2, .L361
 3547 0008 1821     		movs	r1, #24
 3548 000a DE20     		movs	r0, #222
 3549              	.LVL379:
 3550 000c FFF7FEFF 		bl	MCP7940N_I2CReader
 3551              	.LVL380:
 983:rhea\drivers\MCP7940N/MCP7940N.c ****     datetime.month = MCP7940N_GetPowerFailMonth();
 3552              		.loc 1 983 0
 3553 0010 0025     		movs	r5, #0
ARM GAS  C:\Users\GYULAI~1\AppData\Local\Temp\ccG7iLma.s 			page 84


 3554 0012 2580     		strh	r5, [r4]	@ movhi
 984:rhea\drivers\MCP7940N/MCP7940N.c ****     datetime.date = MCP7940N_GetPowerFailDate();
 3555              		.loc 1 984 0
 3556 0014 FFF7FEFF 		bl	MCP7940N_GetPowerFailMonth
 3557              	.LVL381:
 3558 0018 A070     		strb	r0, [r4, #2]
 985:rhea\drivers\MCP7940N/MCP7940N.c ****     datetime.weekday = MCP7940N_GetPowerFailWeekday();
 3559              		.loc 1 985 0
 3560 001a FFF7FEFF 		bl	MCP7940N_GetPowerFailDate
 3561              	.LVL382:
 3562 001e E070     		strb	r0, [r4, #3]
 986:rhea\drivers\MCP7940N/MCP7940N.c ****     datetime.hour = MCP7940N_GetPowerFailHour();
 3563              		.loc 1 986 0
 3564 0020 FFF7FEFF 		bl	MCP7940N_GetPowerFailWeekday
 3565              	.LVL383:
 3566 0024 2071     		strb	r0, [r4, #4]
 987:rhea\drivers\MCP7940N/MCP7940N.c ****     datetime.minute = MCP7940N_GetPowerFailMinute();
 3567              		.loc 1 987 0
 3568 0026 FFF7FEFF 		bl	MCP7940N_GetPowerFailHour
 3569              	.LVL384:
 3570 002a 6071     		strb	r0, [r4, #5]
 988:rhea\drivers\MCP7940N/MCP7940N.c ****     datetime.second = 0;
 3571              		.loc 1 988 0
 3572 002c FFF7FEFF 		bl	MCP7940N_GetPowerFailMinute
 3573              	.LVL385:
 3574 0030 A071     		strb	r0, [r4, #6]
 989:rhea\drivers\MCP7940N/MCP7940N.c ****     
 3575              		.loc 1 989 0
 3576 0032 E571     		strb	r5, [r4, #7]
 992:rhea\drivers\MCP7940N/MCP7940N.c **** 
 3577              		.loc 1 992 0
 3578 0034 2046     		mov	r0, r4
 3579 0036 38BD     		pop	{r3, r4, r5, pc}
 3580              	.LVL386:
 3581              	.L362:
 3582              		.align	2
 3583              	.L361:
 3584 0038 25000000 		.word	.LANCHOR0+37
 3585              		.cfi_endproc
 3586              	.LFE66:
 3587              		.size	MCP7940N_GetPowerFailDatetime, .-MCP7940N_GetPowerFailDatetime
 3588              		.section	.text.MCP7940N_GetPowerUpMonth,"ax",%progbits
 3589              		.align	2
 3590              		.global	MCP7940N_GetPowerUpMonth
 3591              		.thumb
 3592              		.thumb_func
 3593              		.type	MCP7940N_GetPowerUpMonth, %function
 3594              	MCP7940N_GetPowerUpMonth:
 3595              	.LFB73:
1055:rhea\drivers\MCP7940N/MCP7940N.c **** 
1056:rhea\drivers\MCP7940N/MCP7940N.c **** MCP7940N_Datetime MCP7940N_GetPowerUpDatetime(void) {
1057:rhea\drivers\MCP7940N/MCP7940N.c ****     
1058:rhea\drivers\MCP7940N/MCP7940N.c ****     // Reading power-up timestamp registers
1059:rhea\drivers\MCP7940N/MCP7940N.c ****     MCP7940N_I2CReader(MCP7940N_I2C_ADDR, MCP7940N_PWRUPMIN, (uint8_t*) &MCP7940N_RegistersLocal.PW
1060:rhea\drivers\MCP7940N/MCP7940N.c ****                        MCP7940N_PWRUPMTH - MCP7940N_PWRUPMIN + 1);
1061:rhea\drivers\MCP7940N/MCP7940N.c ****     
1062:rhea\drivers\MCP7940N/MCP7940N.c ****     // Creating datetime structure to store the result
ARM GAS  C:\Users\GYULAI~1\AppData\Local\Temp\ccG7iLma.s 			page 85


1063:rhea\drivers\MCP7940N/MCP7940N.c ****     MCP7940N_Datetime datetime;
1064:rhea\drivers\MCP7940N/MCP7940N.c ****     
1065:rhea\drivers\MCP7940N/MCP7940N.c ****     // Populating datetime structure
1066:rhea\drivers\MCP7940N/MCP7940N.c ****     datetime.year = 0;
1067:rhea\drivers\MCP7940N/MCP7940N.c ****     datetime.month = MCP7940N_GetPowerUpMonth();
1068:rhea\drivers\MCP7940N/MCP7940N.c ****     datetime.date = MCP7940N_GetPowerUpDate();
1069:rhea\drivers\MCP7940N/MCP7940N.c ****     datetime.weekday = MCP7940N_GetPowerUpWeekday();
1070:rhea\drivers\MCP7940N/MCP7940N.c ****     datetime.hour = MCP7940N_GetPowerUpHour();
1071:rhea\drivers\MCP7940N/MCP7940N.c ****     datetime.minute = MCP7940N_GetPowerUpMinute();
1072:rhea\drivers\MCP7940N/MCP7940N.c ****     datetime.second = 0;
1073:rhea\drivers\MCP7940N/MCP7940N.c ****     
1074:rhea\drivers\MCP7940N/MCP7940N.c ****     return datetime;
1075:rhea\drivers\MCP7940N/MCP7940N.c **** }
1076:rhea\drivers\MCP7940N/MCP7940N.c **** 
1077:rhea\drivers\MCP7940N/MCP7940N.c **** uint8_t MCP7940N_GetPowerUpMonth(void) {
 3596              		.loc 1 1077 0
 3597              		.cfi_startproc
 3598              		@ args = 0, pretend = 0, frame = 0
 3599              		@ frame_needed = 0, uses_anonymous_args = 0
 3600              		@ link register save eliminated.
1078:rhea\drivers\MCP7940N/MCP7940N.c ****     
1079:rhea\drivers\MCP7940N/MCP7940N.c ****     // Reading PWRUPMTH register
1080:rhea\drivers\MCP7940N/MCP7940N.c ****     uint8_t registerValue = MCP7940N_RegistersLocal.PWRDNMTH;
 3601              		.loc 1 1080 0
 3602 0000 064B     		ldr	r3, .L364
 3603 0002 93F82830 		ldrb	r3, [r3, #40]	@ zero_extendqisi2
 3604              	.LVL387:
1081:rhea\drivers\MCP7940N/MCP7940N.c ****     
1082:rhea\drivers\MCP7940N/MCP7940N.c ****     // Decoding BCD
1083:rhea\drivers\MCP7940N/MCP7940N.c ****     uint8_t ones = registerValue & MCP7940N_PWRDNMTH_MTHONE;
 3605              		.loc 1 1083 0
 3606 0006 03F00F00 		and	r0, r3, #15
 3607              	.LVL388:
1084:rhea\drivers\MCP7940N/MCP7940N.c ****     uint8_t tens = registerValue & MCP7940N_PWRDNMTH_MTHTEN;
1085:rhea\drivers\MCP7940N/MCP7940N.c ****     tens = tens >> 4;
 3608              		.loc 1 1085 0
 3609 000a C3F30013 		ubfx	r3, r3, #4, #1
 3610              	.LVL389:
1086:rhea\drivers\MCP7940N/MCP7940N.c ****     
1087:rhea\drivers\MCP7940N/MCP7940N.c ****     // Returning result
1088:rhea\drivers\MCP7940N/MCP7940N.c ****     return tens * 10 + ones;
 3611              		.loc 1 1088 0
 3612 000e 9900     		lsls	r1, r3, #2
 3613 0010 0B44     		add	r3, r3, r1
 3614              	.LVL390:
 3615 0012 5A00     		lsls	r2, r3, #1
 3616 0014 1044     		add	r0, r0, r2
 3617              	.LVL391:
1089:rhea\drivers\MCP7940N/MCP7940N.c **** }
 3618              		.loc 1 1089 0
 3619 0016 C0B2     		uxtb	r0, r0
 3620 0018 7047     		bx	lr
 3621              	.L365:
 3622 001a 00BF     		.align	2
 3623              	.L364:
 3624 001c 00000000 		.word	.LANCHOR0
 3625              		.cfi_endproc
ARM GAS  C:\Users\GYULAI~1\AppData\Local\Temp\ccG7iLma.s 			page 86


 3626              	.LFE73:
 3627              		.size	MCP7940N_GetPowerUpMonth, .-MCP7940N_GetPowerUpMonth
 3628              		.section	.text.MCP7940N_GetPowerUpWeekday,"ax",%progbits
 3629              		.align	2
 3630              		.global	MCP7940N_GetPowerUpWeekday
 3631              		.thumb
 3632              		.thumb_func
 3633              		.type	MCP7940N_GetPowerUpWeekday, %function
 3634              	MCP7940N_GetPowerUpWeekday:
 3635              	.LFB74:
1090:rhea\drivers\MCP7940N/MCP7940N.c **** 
1091:rhea\drivers\MCP7940N/MCP7940N.c **** uint8_t MCP7940N_GetPowerUpWeekday(void) {
 3636              		.loc 1 1091 0
 3637              		.cfi_startproc
 3638              		@ args = 0, pretend = 0, frame = 0
 3639              		@ frame_needed = 0, uses_anonymous_args = 0
 3640              		@ link register save eliminated.
1092:rhea\drivers\MCP7940N/MCP7940N.c ****     
1093:rhea\drivers\MCP7940N/MCP7940N.c ****     // Return weekday bits of PWRDNMTH register
1094:rhea\drivers\MCP7940N/MCP7940N.c ****     return (MCP7940N_RegistersLocal.PWRUPMTH & MCP7940N_PWRUPMTH_WKDAY) >> 5; 
 3641              		.loc 1 1094 0
 3642 0000 024B     		ldr	r3, .L367
 3643 0002 93F82C00 		ldrb	r0, [r3, #44]	@ zero_extendqisi2
1095:rhea\drivers\MCP7940N/MCP7940N.c **** }
 3644              		.loc 1 1095 0
 3645 0006 4009     		lsrs	r0, r0, #5
 3646 0008 7047     		bx	lr
 3647              	.L368:
 3648 000a 00BF     		.align	2
 3649              	.L367:
 3650 000c 00000000 		.word	.LANCHOR0
 3651              		.cfi_endproc
 3652              	.LFE74:
 3653              		.size	MCP7940N_GetPowerUpWeekday, .-MCP7940N_GetPowerUpWeekday
 3654              		.section	.text.MCP7940N_GetPowerUpDate,"ax",%progbits
 3655              		.align	2
 3656              		.global	MCP7940N_GetPowerUpDate
 3657              		.thumb
 3658              		.thumb_func
 3659              		.type	MCP7940N_GetPowerUpDate, %function
 3660              	MCP7940N_GetPowerUpDate:
 3661              	.LFB75:
1096:rhea\drivers\MCP7940N/MCP7940N.c **** 
1097:rhea\drivers\MCP7940N/MCP7940N.c **** uint8_t MCP7940N_GetPowerUpDate(void) {
 3662              		.loc 1 1097 0
 3663              		.cfi_startproc
 3664              		@ args = 0, pretend = 0, frame = 0
 3665              		@ frame_needed = 0, uses_anonymous_args = 0
 3666              		@ link register save eliminated.
1098:rhea\drivers\MCP7940N/MCP7940N.c ****     
1099:rhea\drivers\MCP7940N/MCP7940N.c ****     // Reading PWRDNDATE register
1100:rhea\drivers\MCP7940N/MCP7940N.c ****     uint8_t registerValue = MCP7940N_RegistersLocal.PWRUPDATE;
 3667              		.loc 1 1100 0
 3668 0000 064B     		ldr	r3, .L370
 3669 0002 93F82B30 		ldrb	r3, [r3, #43]	@ zero_extendqisi2
 3670              	.LVL392:
1101:rhea\drivers\MCP7940N/MCP7940N.c ****     
ARM GAS  C:\Users\GYULAI~1\AppData\Local\Temp\ccG7iLma.s 			page 87


1102:rhea\drivers\MCP7940N/MCP7940N.c ****     // Decoding BCD
1103:rhea\drivers\MCP7940N/MCP7940N.c ****     uint8_t ones = registerValue & MCP7940N_PWRUPDATE_DATEONE;
 3671              		.loc 1 1103 0
 3672 0006 03F00F00 		and	r0, r3, #15
 3673              	.LVL393:
1104:rhea\drivers\MCP7940N/MCP7940N.c ****     uint8_t tens = registerValue & MCP7940N_PWRUPDATE_DATETEN;
1105:rhea\drivers\MCP7940N/MCP7940N.c ****     tens = tens >> 4;
 3674              		.loc 1 1105 0
 3675 000a C3F30113 		ubfx	r3, r3, #4, #2
 3676              	.LVL394:
1106:rhea\drivers\MCP7940N/MCP7940N.c ****     
1107:rhea\drivers\MCP7940N/MCP7940N.c ****     // Returning result
1108:rhea\drivers\MCP7940N/MCP7940N.c ****     return tens * 10 + ones;
 3677              		.loc 1 1108 0
 3678 000e 03EB8303 		add	r3, r3, r3, lsl #2
 3679              	.LVL395:
 3680 0012 5A00     		lsls	r2, r3, #1
 3681 0014 1044     		add	r0, r0, r2
 3682              	.LVL396:
1109:rhea\drivers\MCP7940N/MCP7940N.c **** }
 3683              		.loc 1 1109 0
 3684 0016 C0B2     		uxtb	r0, r0
 3685 0018 7047     		bx	lr
 3686              	.L371:
 3687 001a 00BF     		.align	2
 3688              	.L370:
 3689 001c 00000000 		.word	.LANCHOR0
 3690              		.cfi_endproc
 3691              	.LFE75:
 3692              		.size	MCP7940N_GetPowerUpDate, .-MCP7940N_GetPowerUpDate
 3693              		.section	.text.MCP7940N_GetPowerUpHour,"ax",%progbits
 3694              		.align	2
 3695              		.global	MCP7940N_GetPowerUpHour
 3696              		.thumb
 3697              		.thumb_func
 3698              		.type	MCP7940N_GetPowerUpHour, %function
 3699              	MCP7940N_GetPowerUpHour:
 3700              	.LFB76:
1110:rhea\drivers\MCP7940N/MCP7940N.c **** 
1111:rhea\drivers\MCP7940N/MCP7940N.c **** uint8_t MCP7940N_GetPowerUpHour(void) {
 3701              		.loc 1 1111 0
 3702              		.cfi_startproc
 3703              		@ args = 0, pretend = 0, frame = 0
 3704              		@ frame_needed = 0, uses_anonymous_args = 0
 3705              		@ link register save eliminated.
1112:rhea\drivers\MCP7940N/MCP7940N.c ****     
1113:rhea\drivers\MCP7940N/MCP7940N.c ****     // Reading PWRUPHOUR register
1114:rhea\drivers\MCP7940N/MCP7940N.c ****     uint8_t registerValue = MCP7940N_RegistersLocal.PWRUPHOUR;
 3706              		.loc 1 1114 0
 3707 0000 064B     		ldr	r3, .L373
 3708 0002 93F82A30 		ldrb	r3, [r3, #42]	@ zero_extendqisi2
 3709              	.LVL397:
1115:rhea\drivers\MCP7940N/MCP7940N.c ****     
1116:rhea\drivers\MCP7940N/MCP7940N.c ****     // Decoding BCD
1117:rhea\drivers\MCP7940N/MCP7940N.c ****     uint8_t ones = registerValue & MCP7940N_PWRUPHOUR_HRONE;
 3710              		.loc 1 1117 0
 3711 0006 03F00F00 		and	r0, r3, #15
ARM GAS  C:\Users\GYULAI~1\AppData\Local\Temp\ccG7iLma.s 			page 88


 3712              	.LVL398:
1118:rhea\drivers\MCP7940N/MCP7940N.c ****     uint8_t tens = registerValue & MCP7940N_PWRUPHOUR_HRTEN;
1119:rhea\drivers\MCP7940N/MCP7940N.c ****     tens = tens >> 4;
 3713              		.loc 1 1119 0
 3714 000a C3F30113 		ubfx	r3, r3, #4, #2
 3715              	.LVL399:
1120:rhea\drivers\MCP7940N/MCP7940N.c ****     
1121:rhea\drivers\MCP7940N/MCP7940N.c ****     // Returning result
1122:rhea\drivers\MCP7940N/MCP7940N.c ****     return tens * 10 + ones;
 3716              		.loc 1 1122 0
 3717 000e 03EB8303 		add	r3, r3, r3, lsl #2
 3718              	.LVL400:
 3719 0012 5A00     		lsls	r2, r3, #1
 3720 0014 1044     		add	r0, r0, r2
 3721              	.LVL401:
1123:rhea\drivers\MCP7940N/MCP7940N.c **** }
 3722              		.loc 1 1123 0
 3723 0016 C0B2     		uxtb	r0, r0
 3724 0018 7047     		bx	lr
 3725              	.L374:
 3726 001a 00BF     		.align	2
 3727              	.L373:
 3728 001c 00000000 		.word	.LANCHOR0
 3729              		.cfi_endproc
 3730              	.LFE76:
 3731              		.size	MCP7940N_GetPowerUpHour, .-MCP7940N_GetPowerUpHour
 3732              		.section	.text.MCP7940N_GetPowerUpMinute,"ax",%progbits
 3733              		.align	2
 3734              		.global	MCP7940N_GetPowerUpMinute
 3735              		.thumb
 3736              		.thumb_func
 3737              		.type	MCP7940N_GetPowerUpMinute, %function
 3738              	MCP7940N_GetPowerUpMinute:
 3739              	.LFB77:
1124:rhea\drivers\MCP7940N/MCP7940N.c **** 
1125:rhea\drivers\MCP7940N/MCP7940N.c **** uint8_t MCP7940N_GetPowerUpMinute(void) {
 3740              		.loc 1 1125 0
 3741              		.cfi_startproc
 3742              		@ args = 0, pretend = 0, frame = 0
 3743              		@ frame_needed = 0, uses_anonymous_args = 0
 3744              		@ link register save eliminated.
1126:rhea\drivers\MCP7940N/MCP7940N.c ****     
1127:rhea\drivers\MCP7940N/MCP7940N.c ****     // Reading PWRUPMIN register
1128:rhea\drivers\MCP7940N/MCP7940N.c ****     uint8_t registerValue = MCP7940N_RegistersLocal.PWRUPMIN;
 3745              		.loc 1 1128 0
 3746 0000 064B     		ldr	r3, .L376
 3747 0002 93F82930 		ldrb	r3, [r3, #41]	@ zero_extendqisi2
 3748              	.LVL402:
1129:rhea\drivers\MCP7940N/MCP7940N.c ****     
1130:rhea\drivers\MCP7940N/MCP7940N.c ****     // Decoding BCD
1131:rhea\drivers\MCP7940N/MCP7940N.c ****     uint8_t ones = registerValue & MCP7940N_PWRUPMIN_MINONE;
 3749              		.loc 1 1131 0
 3750 0006 03F00F00 		and	r0, r3, #15
 3751              	.LVL403:
1132:rhea\drivers\MCP7940N/MCP7940N.c ****     uint8_t tens = registerValue & MCP7940N_PWRUPMIN_MINTEN;
1133:rhea\drivers\MCP7940N/MCP7940N.c ****     tens = tens >> 4;
 3752              		.loc 1 1133 0
ARM GAS  C:\Users\GYULAI~1\AppData\Local\Temp\ccG7iLma.s 			page 89


 3753 000a C3F30213 		ubfx	r3, r3, #4, #3
 3754              	.LVL404:
1134:rhea\drivers\MCP7940N/MCP7940N.c ****     
1135:rhea\drivers\MCP7940N/MCP7940N.c ****     // Returning result
1136:rhea\drivers\MCP7940N/MCP7940N.c ****     return tens * 10 + ones;
 3755              		.loc 1 1136 0
 3756 000e 03EB8303 		add	r3, r3, r3, lsl #2
 3757              	.LVL405:
 3758 0012 5A00     		lsls	r2, r3, #1
 3759 0014 1044     		add	r0, r0, r2
 3760              	.LVL406:
1137:rhea\drivers\MCP7940N/MCP7940N.c **** }
 3761              		.loc 1 1137 0
 3762 0016 C0B2     		uxtb	r0, r0
 3763 0018 7047     		bx	lr
 3764              	.L377:
 3765 001a 00BF     		.align	2
 3766              	.L376:
 3767 001c 00000000 		.word	.LANCHOR0
 3768              		.cfi_endproc
 3769              	.LFE77:
 3770              		.size	MCP7940N_GetPowerUpMinute, .-MCP7940N_GetPowerUpMinute
 3771              		.section	.text.MCP7940N_GetPowerUpDatetime,"ax",%progbits
 3772              		.align	2
 3773              		.global	MCP7940N_GetPowerUpDatetime
 3774              		.thumb
 3775              		.thumb_func
 3776              		.type	MCP7940N_GetPowerUpDatetime, %function
 3777              	MCP7940N_GetPowerUpDatetime:
 3778              	.LFB72:
1056:rhea\drivers\MCP7940N/MCP7940N.c ****     
 3779              		.loc 1 1056 0
 3780              		.cfi_startproc
 3781              		@ args = 0, pretend = 0, frame = 0
 3782              		@ frame_needed = 0, uses_anonymous_args = 0
 3783              	.LVL407:
 3784 0000 38B5     		push	{r3, r4, r5, lr}
 3785              		.cfi_def_cfa_offset 16
 3786              		.cfi_offset 3, -16
 3787              		.cfi_offset 4, -12
 3788              		.cfi_offset 5, -8
 3789              		.cfi_offset 14, -4
 3790 0002 0446     		mov	r4, r0
1059:rhea\drivers\MCP7940N/MCP7940N.c ****                        MCP7940N_PWRUPMTH - MCP7940N_PWRUPMIN + 1);
 3791              		.loc 1 1059 0
 3792 0004 0423     		movs	r3, #4
 3793 0006 0C4A     		ldr	r2, .L380
 3794 0008 1C21     		movs	r1, #28
 3795 000a DE20     		movs	r0, #222
 3796              	.LVL408:
 3797 000c FFF7FEFF 		bl	MCP7940N_I2CReader
 3798              	.LVL409:
1066:rhea\drivers\MCP7940N/MCP7940N.c ****     datetime.month = MCP7940N_GetPowerUpMonth();
 3799              		.loc 1 1066 0
 3800 0010 0025     		movs	r5, #0
 3801 0012 2580     		strh	r5, [r4]	@ movhi
1067:rhea\drivers\MCP7940N/MCP7940N.c ****     datetime.date = MCP7940N_GetPowerUpDate();
ARM GAS  C:\Users\GYULAI~1\AppData\Local\Temp\ccG7iLma.s 			page 90


 3802              		.loc 1 1067 0
 3803 0014 FFF7FEFF 		bl	MCP7940N_GetPowerUpMonth
 3804              	.LVL410:
 3805 0018 A070     		strb	r0, [r4, #2]
1068:rhea\drivers\MCP7940N/MCP7940N.c ****     datetime.weekday = MCP7940N_GetPowerUpWeekday();
 3806              		.loc 1 1068 0
 3807 001a FFF7FEFF 		bl	MCP7940N_GetPowerUpDate
 3808              	.LVL411:
 3809 001e E070     		strb	r0, [r4, #3]
1069:rhea\drivers\MCP7940N/MCP7940N.c ****     datetime.hour = MCP7940N_GetPowerUpHour();
 3810              		.loc 1 1069 0
 3811 0020 FFF7FEFF 		bl	MCP7940N_GetPowerUpWeekday
 3812              	.LVL412:
 3813 0024 2071     		strb	r0, [r4, #4]
1070:rhea\drivers\MCP7940N/MCP7940N.c ****     datetime.minute = MCP7940N_GetPowerUpMinute();
 3814              		.loc 1 1070 0
 3815 0026 FFF7FEFF 		bl	MCP7940N_GetPowerUpHour
 3816              	.LVL413:
 3817 002a 6071     		strb	r0, [r4, #5]
1071:rhea\drivers\MCP7940N/MCP7940N.c ****     datetime.second = 0;
 3818              		.loc 1 1071 0
 3819 002c FFF7FEFF 		bl	MCP7940N_GetPowerUpMinute
 3820              	.LVL414:
 3821 0030 A071     		strb	r0, [r4, #6]
1072:rhea\drivers\MCP7940N/MCP7940N.c ****     
 3822              		.loc 1 1072 0
 3823 0032 E571     		strb	r5, [r4, #7]
1075:rhea\drivers\MCP7940N/MCP7940N.c **** 
 3824              		.loc 1 1075 0
 3825 0034 2046     		mov	r0, r4
 3826 0036 38BD     		pop	{r3, r4, r5, pc}
 3827              	.LVL415:
 3828              	.L381:
 3829              		.align	2
 3830              	.L380:
 3831 0038 29000000 		.word	.LANCHOR0+41
 3832              		.cfi_endproc
 3833              	.LFE72:
 3834              		.size	MCP7940N_GetPowerUpDatetime, .-MCP7940N_GetPowerUpDatetime
 3835              		.section	.text.MCP7940N_ReadSRAM,"ax",%progbits
 3836              		.align	2
 3837              		.global	MCP7940N_ReadSRAM
 3838              		.thumb
 3839              		.thumb_func
 3840              		.type	MCP7940N_ReadSRAM, %function
 3841              	MCP7940N_ReadSRAM:
 3842              	.LFB78:
1138:rhea\drivers\MCP7940N/MCP7940N.c **** 
1139:rhea\drivers\MCP7940N/MCP7940N.c **** void MCP7940N_ReadSRAM(uint8_t deviceAddress, unsigned char *buffer, uint8_t byteCount) {
 3843              		.loc 1 1139 0
 3844              		.cfi_startproc
 3845              		@ args = 0, pretend = 0, frame = 0
 3846              		@ frame_needed = 0, uses_anonymous_args = 0
 3847              	.LVL416:
 3848 0000 10B5     		push	{r4, lr}
 3849              		.cfi_def_cfa_offset 8
 3850              		.cfi_offset 4, -8
ARM GAS  C:\Users\GYULAI~1\AppData\Local\Temp\ccG7iLma.s 			page 91


 3851              		.cfi_offset 14, -4
1140:rhea\drivers\MCP7940N/MCP7940N.c ****     
1141:rhea\drivers\MCP7940N/MCP7940N.c ****     // Checking address & size
1142:rhea\drivers\MCP7940N/MCP7940N.c ****     if(deviceAddress < MCP7940N_SRAM_ADDRLOW || deviceAddress > MCP7940N_SRAM_ADDRHIGH ||
 3852              		.loc 1 1142 0
 3853 0002 A0F12004 		sub	r4, r0, #32
 3854 0006 E4B2     		uxtb	r4, r4
 3855 0008 3F2C     		cmp	r4, #63
 3856 000a 0AD8     		bhi	.L382
 3857              		.loc 1 1142 0 is_stmt 0 discriminator 1
 3858 000c 402A     		cmp	r2, #64
 3859 000e 08D8     		bhi	.L382
1143:rhea\drivers\MCP7940N/MCP7940N.c ****        byteCount > MCP7940N_SRAM_SIZE  || deviceAddress + byteCount > MCP7940N_SRAM_ADDRHIGH) retur
 3860              		.loc 1 1143 0 is_stmt 1
 3861 0010 8318     		adds	r3, r0, r2
 3862 0012 5F2B     		cmp	r3, #95
 3863 0014 05DC     		bgt	.L382
 3864 0016 1346     		mov	r3, r2
 3865 0018 0A46     		mov	r2, r1
 3866              	.LVL417:
 3867 001a 0146     		mov	r1, r0
 3868              	.LVL418:
1144:rhea\drivers\MCP7940N/MCP7940N.c ****         
1145:rhea\drivers\MCP7940N/MCP7940N.c ****     // Reading SRAM
1146:rhea\drivers\MCP7940N/MCP7940N.c ****     MCP7940N_I2CReader(MCP7940N_I2C_ADDR, deviceAddress, buffer, byteCount);
 3869              		.loc 1 1146 0
 3870 001c DE20     		movs	r0, #222
 3871              	.LVL419:
 3872 001e FFF7FEFF 		bl	MCP7940N_I2CReader
 3873              	.LVL420:
 3874              	.L382:
 3875 0022 10BD     		pop	{r4, pc}
 3876              		.cfi_endproc
 3877              	.LFE78:
 3878              		.size	MCP7940N_ReadSRAM, .-MCP7940N_ReadSRAM
 3879              		.section	.text.MCP7940N_WriteSRAM,"ax",%progbits
 3880              		.align	2
 3881              		.global	MCP7940N_WriteSRAM
 3882              		.thumb
 3883              		.thumb_func
 3884              		.type	MCP7940N_WriteSRAM, %function
 3885              	MCP7940N_WriteSRAM:
 3886              	.LFB79:
1147:rhea\drivers\MCP7940N/MCP7940N.c **** }
1148:rhea\drivers\MCP7940N/MCP7940N.c **** 
1149:rhea\drivers\MCP7940N/MCP7940N.c **** void MCP7940N_WriteSRAM(uint8_t deviceAddress, const unsigned char *buffer, uint8_t byteCount) {
 3887              		.loc 1 1149 0
 3888              		.cfi_startproc
 3889              		@ args = 0, pretend = 0, frame = 0
 3890              		@ frame_needed = 0, uses_anonymous_args = 0
 3891              	.LVL421:
 3892 0000 10B5     		push	{r4, lr}
 3893              		.cfi_def_cfa_offset 8
 3894              		.cfi_offset 4, -8
 3895              		.cfi_offset 14, -4
1150:rhea\drivers\MCP7940N/MCP7940N.c ****     
1151:rhea\drivers\MCP7940N/MCP7940N.c ****     // Checking address & size
ARM GAS  C:\Users\GYULAI~1\AppData\Local\Temp\ccG7iLma.s 			page 92


1152:rhea\drivers\MCP7940N/MCP7940N.c ****     if(deviceAddress < MCP7940N_SRAM_ADDRLOW || deviceAddress > MCP7940N_SRAM_ADDRHIGH ||
 3896              		.loc 1 1152 0
 3897 0002 A0F12004 		sub	r4, r0, #32
 3898 0006 E4B2     		uxtb	r4, r4
 3899 0008 3F2C     		cmp	r4, #63
 3900 000a 0AD8     		bhi	.L385
 3901              		.loc 1 1152 0 is_stmt 0 discriminator 1
 3902 000c 402A     		cmp	r2, #64
 3903 000e 08D8     		bhi	.L385
1153:rhea\drivers\MCP7940N/MCP7940N.c ****        byteCount > MCP7940N_SRAM_SIZE  || deviceAddress + byteCount > MCP7940N_SRAM_ADDRHIGH) retur
 3904              		.loc 1 1153 0 is_stmt 1
 3905 0010 8318     		adds	r3, r0, r2
 3906 0012 5F2B     		cmp	r3, #95
 3907 0014 05DC     		bgt	.L385
 3908 0016 1346     		mov	r3, r2
 3909 0018 0A46     		mov	r2, r1
 3910              	.LVL422:
 3911 001a 0146     		mov	r1, r0
 3912              	.LVL423:
1154:rhea\drivers\MCP7940N/MCP7940N.c ****     
1155:rhea\drivers\MCP7940N/MCP7940N.c ****     // Writing SRAM
1156:rhea\drivers\MCP7940N/MCP7940N.c ****     MCP7940N_I2CWriter(MCP7940N_I2C_ADDR, deviceAddress, buffer, byteCount);
 3913              		.loc 1 1156 0
 3914 001c DE20     		movs	r0, #222
 3915              	.LVL424:
 3916 001e FFF7FEFF 		bl	MCP7940N_I2CWriter
 3917              	.LVL425:
 3918              	.L385:
 3919 0022 10BD     		pop	{r4, pc}
 3920              		.cfi_endproc
 3921              	.LFE79:
 3922              		.size	MCP7940N_WriteSRAM, .-MCP7940N_WriteSRAM
 3923              		.bss
 3924              		.align	2
 3925              		.set	.LANCHOR0,. + 0
 3926              		.type	MCP7940N_I2CController, %object
 3927              		.size	MCP7940N_I2CController, 16
 3928              	MCP7940N_I2CController:
 3929 0000 00000000 		.space	16
 3929      00000000 
 3929      00000000 
 3929      00000000 
 3930              		.type	MCP7940N_RegistersLocal, %object
 3931              		.size	MCP7940N_RegistersLocal, 29
 3932              	MCP7940N_RegistersLocal:
 3933 0010 00000000 		.space	29
 3933      00000000 
 3933      00000000 
 3933      00000000 
 3933      00000000 
 3934              		.text
 3935              	.Letext0:
 3936              		.file 2 "e:\\cypress\\psoc creator\\4.2\\psoc creator\\import\\gnu\\arm\\5.4.1\\arm-none-eabi\\inc
 3937              		.file 3 "e:\\cypress\\psoc creator\\4.2\\psoc creator\\import\\gnu\\arm\\5.4.1\\arm-none-eabi\\inc
 3938              		.file 4 "rhea\\drivers\\MCP7940N\\MCP7940N.h"
 3939              		.section	.debug_info,"",%progbits
 3940              	.Ldebug_info0:
ARM GAS  C:\Users\GYULAI~1\AppData\Local\Temp\ccG7iLma.s 			page 93


 3941 0000 211E0000 		.4byte	0x1e21
 3942 0004 0400     		.2byte	0x4
 3943 0006 00000000 		.4byte	.Ldebug_abbrev0
 3944 000a 04       		.byte	0x4
 3945 000b 01       		.uleb128 0x1
 3946 000c EE070000 		.4byte	.LASF164
 3947 0010 0C       		.byte	0xc
 3948 0011 520B0000 		.4byte	.LASF165
 3949 0015 FB080000 		.4byte	.LASF166
 3950 0019 00000000 		.4byte	.Ldebug_ranges0+0
 3951 001d 00000000 		.4byte	0
 3952 0021 00000000 		.4byte	.Ldebug_line0
 3953 0025 02       		.uleb128 0x2
 3954 0026 04       		.byte	0x4
 3955 0027 07       		.byte	0x7
 3956 0028 12040000 		.4byte	.LASF0
 3957 002c 03       		.uleb128 0x3
 3958 002d 04       		.byte	0x4
 3959 002e 05       		.byte	0x5
 3960 002f 696E7400 		.ascii	"int\000"
 3961 0033 02       		.uleb128 0x2
 3962 0034 08       		.byte	0x8
 3963 0035 05       		.byte	0x5
 3964 0036 EF010000 		.4byte	.LASF1
 3965 003a 02       		.uleb128 0x2
 3966 003b 08       		.byte	0x8
 3967 003c 04       		.byte	0x4
 3968 003d 41060000 		.4byte	.LASF2
 3969 0041 04       		.uleb128 0x4
 3970 0042 54010000 		.4byte	.LASF4
 3971 0046 02       		.byte	0x2
 3972 0047 1B       		.byte	0x1b
 3973 0048 4C000000 		.4byte	0x4c
 3974 004c 02       		.uleb128 0x2
 3975 004d 01       		.byte	0x1
 3976 004e 06       		.byte	0x6
 3977 004f FD010000 		.4byte	.LASF3
 3978 0053 04       		.uleb128 0x4
 3979 0054 93000000 		.4byte	.LASF5
 3980 0058 02       		.byte	0x2
 3981 0059 1D       		.byte	0x1d
 3982 005a 5E000000 		.4byte	0x5e
 3983 005e 02       		.uleb128 0x2
 3984 005f 01       		.byte	0x1
 3985 0060 08       		.byte	0x8
 3986 0061 4D070000 		.4byte	.LASF6
 3987 0065 02       		.uleb128 0x2
 3988 0066 02       		.byte	0x2
 3989 0067 05       		.byte	0x5
 3990 0068 75070000 		.4byte	.LASF7
 3991 006c 04       		.uleb128 0x4
 3992 006d 99090000 		.4byte	.LASF8
 3993 0071 02       		.byte	0x2
 3994 0072 2B       		.byte	0x2b
 3995 0073 77000000 		.4byte	0x77
 3996 0077 02       		.uleb128 0x2
 3997 0078 02       		.byte	0x2
ARM GAS  C:\Users\GYULAI~1\AppData\Local\Temp\ccG7iLma.s 			page 94


 3998 0079 07       		.byte	0x7
 3999 007a FB040000 		.4byte	.LASF9
 4000 007e 02       		.uleb128 0x2
 4001 007f 04       		.byte	0x4
 4002 0080 05       		.byte	0x5
 4003 0081 93020000 		.4byte	.LASF10
 4004 0085 02       		.uleb128 0x2
 4005 0086 04       		.byte	0x4
 4006 0087 07       		.byte	0x7
 4007 0088 7F040000 		.4byte	.LASF11
 4008 008c 02       		.uleb128 0x2
 4009 008d 08       		.byte	0x8
 4010 008e 07       		.byte	0x7
 4011 008f F9000000 		.4byte	.LASF12
 4012 0093 02       		.uleb128 0x2
 4013 0094 04       		.byte	0x4
 4014 0095 07       		.byte	0x7
 4015 0096 38060000 		.4byte	.LASF13
 4016 009a 02       		.uleb128 0x2
 4017 009b 01       		.byte	0x1
 4018 009c 08       		.byte	0x8
 4019 009d 8F090000 		.4byte	.LASF14
 4020 00a1 05       		.uleb128 0x5
 4021 00a2 04       		.byte	0x4
 4022 00a3 A7000000 		.4byte	0xa7
 4023 00a7 06       		.uleb128 0x6
 4024 00a8 05       		.uleb128 0x5
 4025 00a9 04       		.byte	0x4
 4026 00aa 5E000000 		.4byte	0x5e
 4027 00ae 04       		.uleb128 0x4
 4028 00af 1E0A0000 		.4byte	.LASF15
 4029 00b3 03       		.byte	0x3
 4030 00b4 14       		.byte	0x14
 4031 00b5 41000000 		.4byte	0x41
 4032 00b9 04       		.uleb128 0x4
 4033 00ba C70A0000 		.4byte	.LASF16
 4034 00be 03       		.byte	0x3
 4035 00bf 18       		.byte	0x18
 4036 00c0 53000000 		.4byte	0x53
 4037 00c4 04       		.uleb128 0x4
 4038 00c5 00030000 		.4byte	.LASF17
 4039 00c9 03       		.byte	0x3
 4040 00ca 24       		.byte	0x24
 4041 00cb 6C000000 		.4byte	0x6c
 4042 00cf 07       		.uleb128 0x7
 4043 00d0 4A050000 		.4byte	.LASF25
 4044 00d4 08       		.byte	0x8
 4045 00d5 04       		.byte	0x4
 4046 00d6 2E       		.byte	0x2e
 4047 00d7 30010000 		.4byte	0x130
 4048 00db 08       		.uleb128 0x8
 4049 00dc 69020000 		.4byte	.LASF18
 4050 00e0 04       		.byte	0x4
 4051 00e1 2F       		.byte	0x2f
 4052 00e2 C4000000 		.4byte	0xc4
 4053 00e6 00       		.byte	0
 4054 00e7 08       		.uleb128 0x8
ARM GAS  C:\Users\GYULAI~1\AppData\Local\Temp\ccG7iLma.s 			page 95


 4055 00e8 0C040000 		.4byte	.LASF19
 4056 00ec 04       		.byte	0x4
 4057 00ed 30       		.byte	0x30
 4058 00ee B9000000 		.4byte	0xb9
 4059 00f2 02       		.byte	0x2
 4060 00f3 08       		.uleb128 0x8
 4061 00f4 0E050000 		.4byte	.LASF20
 4062 00f8 04       		.byte	0x4
 4063 00f9 31       		.byte	0x31
 4064 00fa B9000000 		.4byte	0xb9
 4065 00fe 03       		.byte	0x3
 4066 00ff 08       		.uleb128 0x8
 4067 0100 CB090000 		.4byte	.LASF21
 4068 0104 04       		.byte	0x4
 4069 0105 32       		.byte	0x32
 4070 0106 B9000000 		.4byte	0xb9
 4071 010a 04       		.byte	0x4
 4072 010b 08       		.uleb128 0x8
 4073 010c C7060000 		.4byte	.LASF22
 4074 0110 04       		.byte	0x4
 4075 0111 33       		.byte	0x33
 4076 0112 B9000000 		.4byte	0xb9
 4077 0116 05       		.byte	0x5
 4078 0117 08       		.uleb128 0x8
 4079 0118 4F0A0000 		.4byte	.LASF23
 4080 011c 04       		.byte	0x4
 4081 011d 34       		.byte	0x34
 4082 011e B9000000 		.4byte	0xb9
 4083 0122 06       		.byte	0x6
 4084 0123 08       		.uleb128 0x8
 4085 0124 62020000 		.4byte	.LASF24
 4086 0128 04       		.byte	0x4
 4087 0129 35       		.byte	0x35
 4088 012a B9000000 		.4byte	0xb9
 4089 012e 07       		.byte	0x7
 4090 012f 00       		.byte	0
 4091 0130 04       		.uleb128 0x4
 4092 0131 4A050000 		.4byte	.LASF25
 4093 0135 04       		.byte	0x4
 4094 0136 36       		.byte	0x36
 4095 0137 CF000000 		.4byte	0xcf
 4096 013b 07       		.uleb128 0x7
 4097 013c 32040000 		.4byte	.LASF26
 4098 0140 10       		.byte	0x10
 4099 0141 04       		.byte	0x4
 4100 0142 43       		.byte	0x43
 4101 0143 78010000 		.4byte	0x178
 4102 0147 08       		.uleb128 0x8
 4103 0148 BE0B0000 		.4byte	.LASF27
 4104 014c 04       		.byte	0x4
 4105 014d 4A       		.byte	0x4a
 4106 014e 88010000 		.4byte	0x188
 4107 0152 00       		.byte	0
 4108 0153 08       		.uleb128 0x8
 4109 0154 B8070000 		.4byte	.LASF28
 4110 0158 04       		.byte	0x4
 4111 0159 4F       		.byte	0x4f
ARM GAS  C:\Users\GYULAI~1\AppData\Local\Temp\ccG7iLma.s 			page 96


 4112 015a A1000000 		.4byte	0xa1
 4113 015e 04       		.byte	0x4
 4114 015f 08       		.uleb128 0x8
 4115 0160 3F0A0000 		.4byte	.LASF29
 4116 0164 04       		.byte	0x4
 4117 0165 55       		.byte	0x55
 4118 0166 99010000 		.4byte	0x199
 4119 016a 08       		.byte	0x8
 4120 016b 08       		.uleb128 0x8
 4121 016c 7D060000 		.4byte	.LASF30
 4122 0170 04       		.byte	0x4
 4123 0171 5C       		.byte	0x5c
 4124 0172 AE010000 		.4byte	0x1ae
 4125 0176 0C       		.byte	0xc
 4126 0177 00       		.byte	0
 4127 0178 09       		.uleb128 0x9
 4128 0179 88010000 		.4byte	0x188
 4129 017d 0A       		.uleb128 0xa
 4130 017e B9000000 		.4byte	0xb9
 4131 0182 0A       		.uleb128 0xa
 4132 0183 B9000000 		.4byte	0xb9
 4133 0187 00       		.byte	0
 4134 0188 05       		.uleb128 0x5
 4135 0189 04       		.byte	0x4
 4136 018a 78010000 		.4byte	0x178
 4137 018e 09       		.uleb128 0x9
 4138 018f 99010000 		.4byte	0x199
 4139 0193 0A       		.uleb128 0xa
 4140 0194 B9000000 		.4byte	0xb9
 4141 0198 00       		.byte	0
 4142 0199 05       		.uleb128 0x5
 4143 019a 04       		.byte	0x4
 4144 019b 8E010000 		.4byte	0x18e
 4145 019f 0B       		.uleb128 0xb
 4146 01a0 B9000000 		.4byte	0xb9
 4147 01a4 AE010000 		.4byte	0x1ae
 4148 01a8 0A       		.uleb128 0xa
 4149 01a9 B9000000 		.4byte	0xb9
 4150 01ad 00       		.byte	0
 4151 01ae 05       		.uleb128 0x5
 4152 01af 04       		.byte	0x4
 4153 01b0 9F010000 		.4byte	0x19f
 4154 01b4 04       		.uleb128 0x4
 4155 01b5 32040000 		.4byte	.LASF26
 4156 01b9 04       		.byte	0x4
 4157 01ba 5E       		.byte	0x5e
 4158 01bb 3B010000 		.4byte	0x13b
 4159 01bf 07       		.uleb128 0x7
 4160 01c0 19010000 		.4byte	.LASF31
 4161 01c4 1D       		.byte	0x1d
 4162 01c5 04       		.byte	0x4
 4163 01c6 76       		.byte	0x76
 4164 01c7 28030000 		.4byte	0x328
 4165 01cb 08       		.uleb128 0x8
 4166 01cc AD060000 		.4byte	.LASF32
 4167 01d0 04       		.byte	0x4
 4168 01d1 79       		.byte	0x79
ARM GAS  C:\Users\GYULAI~1\AppData\Local\Temp\ccG7iLma.s 			page 97


 4169 01d2 B9000000 		.4byte	0xb9
 4170 01d6 00       		.byte	0
 4171 01d7 08       		.uleb128 0x8
 4172 01d8 A4020000 		.4byte	.LASF33
 4173 01dc 04       		.byte	0x4
 4174 01dd 7A       		.byte	0x7a
 4175 01de B9000000 		.4byte	0xb9
 4176 01e2 01       		.byte	0x1
 4177 01e3 08       		.uleb128 0x8
 4178 01e4 560A0000 		.4byte	.LASF34
 4179 01e8 04       		.byte	0x4
 4180 01e9 7B       		.byte	0x7b
 4181 01ea B9000000 		.4byte	0xb9
 4182 01ee 02       		.byte	0x2
 4183 01ef 08       		.uleb128 0x8
 4184 01f0 10010000 		.4byte	.LASF35
 4185 01f4 04       		.byte	0x4
 4186 01f5 7C       		.byte	0x7c
 4187 01f6 B9000000 		.4byte	0xb9
 4188 01fa 03       		.byte	0x3
 4189 01fb 08       		.uleb128 0x8
 4190 01fc C7070000 		.4byte	.LASF36
 4191 0200 04       		.byte	0x4
 4192 0201 7D       		.byte	0x7d
 4193 0202 B9000000 		.4byte	0xb9
 4194 0206 04       		.byte	0x4
 4195 0207 08       		.uleb128 0x8
 4196 0208 46070000 		.4byte	.LASF37
 4197 020c 04       		.byte	0x4
 4198 020d 7E       		.byte	0x7e
 4199 020e B9000000 		.4byte	0xb9
 4200 0212 05       		.byte	0x5
 4201 0213 08       		.uleb128 0x8
 4202 0214 5A020000 		.4byte	.LASF38
 4203 0218 04       		.byte	0x4
 4204 0219 7F       		.byte	0x7f
 4205 021a B9000000 		.4byte	0xb9
 4206 021e 06       		.byte	0x6
 4207 021f 08       		.uleb128 0x8
 4208 0220 6E020000 		.4byte	.LASF39
 4209 0224 04       		.byte	0x4
 4210 0225 80       		.byte	0x80
 4211 0226 B9000000 		.4byte	0xb9
 4212 022a 07       		.byte	0x7
 4213 022b 08       		.uleb128 0x8
 4214 022c 87090000 		.4byte	.LASF40
 4215 0230 04       		.byte	0x4
 4216 0231 83       		.byte	0x83
 4217 0232 B9000000 		.4byte	0xb9
 4218 0236 08       		.byte	0x8
 4219 0237 08       		.uleb128 0x8
 4220 0238 F4030000 		.4byte	.LASF41
 4221 023c 04       		.byte	0x4
 4222 023d 87       		.byte	0x87
 4223 023e B9000000 		.4byte	0xb9
 4224 0242 09       		.byte	0x9
 4225 0243 08       		.uleb128 0x8
ARM GAS  C:\Users\GYULAI~1\AppData\Local\Temp\ccG7iLma.s 			page 98


 4226 0244 4A0B0000 		.4byte	.LASF42
 4227 0248 04       		.byte	0x4
 4228 0249 88       		.byte	0x88
 4229 024a B9000000 		.4byte	0xb9
 4230 024e 0A       		.byte	0xa
 4231 024f 08       		.uleb128 0x8
 4232 0250 F0000000 		.4byte	.LASF43
 4233 0254 04       		.byte	0x4
 4234 0255 89       		.byte	0x89
 4235 0256 B9000000 		.4byte	0xb9
 4236 025a 0B       		.byte	0xb
 4237 025b 08       		.uleb128 0x8
 4238 025c 9C080000 		.4byte	.LASF44
 4239 0260 04       		.byte	0x4
 4240 0261 8A       		.byte	0x8a
 4241 0262 B9000000 		.4byte	0xb9
 4242 0266 0C       		.byte	0xc
 4243 0267 08       		.uleb128 0x8
 4244 0268 AE050000 		.4byte	.LASF45
 4245 026c 04       		.byte	0x4
 4246 026d 8B       		.byte	0x8b
 4247 026e B9000000 		.4byte	0xb9
 4248 0272 0D       		.byte	0xd
 4249 0273 08       		.uleb128 0x8
 4250 0274 CA040000 		.4byte	.LASF46
 4251 0278 04       		.byte	0x4
 4252 0279 8C       		.byte	0x8c
 4253 027a B9000000 		.4byte	0xb9
 4254 027e 0E       		.byte	0xe
 4255 027f 08       		.uleb128 0x8
 4256 0280 9C020000 		.4byte	.LASF47
 4257 0284 04       		.byte	0x4
 4258 0285 8D       		.byte	0x8d
 4259 0286 B9000000 		.4byte	0xb9
 4260 028a 0F       		.byte	0xf
 4261 028b 08       		.uleb128 0x8
 4262 028c 010A0000 		.4byte	.LASF48
 4263 0290 04       		.byte	0x4
 4264 0291 8E       		.byte	0x8e
 4265 0292 B9000000 		.4byte	0xb9
 4266 0296 10       		.byte	0x10
 4267 0297 08       		.uleb128 0x8
 4268 0298 BD080000 		.4byte	.LASF49
 4269 029c 04       		.byte	0x4
 4270 029d 8F       		.byte	0x8f
 4271 029e B9000000 		.4byte	0xb9
 4272 02a2 11       		.byte	0x11
 4273 02a3 08       		.uleb128 0x8
 4274 02a4 C1010000 		.4byte	.LASF50
 4275 02a8 04       		.byte	0x4
 4276 02a9 90       		.byte	0x90
 4277 02aa B9000000 		.4byte	0xb9
 4278 02ae 12       		.byte	0x12
 4279 02af 08       		.uleb128 0x8
 4280 02b0 5D060000 		.4byte	.LASF51
 4281 02b4 04       		.byte	0x4
 4282 02b5 91       		.byte	0x91
ARM GAS  C:\Users\GYULAI~1\AppData\Local\Temp\ccG7iLma.s 			page 99


 4283 02b6 B9000000 		.4byte	0xb9
 4284 02ba 13       		.byte	0x13
 4285 02bb 08       		.uleb128 0x8
 4286 02bc 96030000 		.4byte	.LASF52
 4287 02c0 04       		.byte	0x4
 4288 02c1 92       		.byte	0x92
 4289 02c2 B9000000 		.4byte	0xb9
 4290 02c6 14       		.byte	0x14
 4291 02c7 08       		.uleb128 0x8
 4292 02c8 C6080000 		.4byte	.LASF53
 4293 02cc 04       		.byte	0x4
 4294 02cd 96       		.byte	0x96
 4295 02ce B9000000 		.4byte	0xb9
 4296 02d2 15       		.byte	0x15
 4297 02d3 08       		.uleb128 0x8
 4298 02d4 A8040000 		.4byte	.LASF54
 4299 02d8 04       		.byte	0x4
 4300 02d9 97       		.byte	0x97
 4301 02da B9000000 		.4byte	0xb9
 4302 02de 16       		.byte	0x16
 4303 02df 08       		.uleb128 0x8
 4304 02e0 50020000 		.4byte	.LASF55
 4305 02e4 04       		.byte	0x4
 4306 02e5 98       		.byte	0x98
 4307 02e6 B9000000 		.4byte	0xb9
 4308 02ea 17       		.byte	0x17
 4309 02eb 08       		.uleb128 0x8
 4310 02ec 21020000 		.4byte	.LASF56
 4311 02f0 04       		.byte	0x4
 4312 02f1 99       		.byte	0x99
 4313 02f2 B9000000 		.4byte	0xb9
 4314 02f6 18       		.byte	0x18
 4315 02f7 08       		.uleb128 0x8
 4316 02f8 00000000 		.4byte	.LASF57
 4317 02fc 04       		.byte	0x4
 4318 02fd 9A       		.byte	0x9a
 4319 02fe B9000000 		.4byte	0xb9
 4320 0302 19       		.byte	0x19
 4321 0303 08       		.uleb128 0x8
 4322 0304 14060000 		.4byte	.LASF58
 4323 0308 04       		.byte	0x4
 4324 0309 9B       		.byte	0x9b
 4325 030a B9000000 		.4byte	0xb9
 4326 030e 1A       		.byte	0x1a
 4327 030f 08       		.uleb128 0x8
 4328 0310 02040000 		.4byte	.LASF59
 4329 0314 04       		.byte	0x4
 4330 0315 9C       		.byte	0x9c
 4331 0316 B9000000 		.4byte	0xb9
 4332 031a 1B       		.byte	0x1b
 4333 031b 08       		.uleb128 0x8
 4334 031c 11070000 		.4byte	.LASF60
 4335 0320 04       		.byte	0x4
 4336 0321 9D       		.byte	0x9d
 4337 0322 B9000000 		.4byte	0xb9
 4338 0326 1C       		.byte	0x1c
 4339 0327 00       		.byte	0
ARM GAS  C:\Users\GYULAI~1\AppData\Local\Temp\ccG7iLma.s 			page 100


 4340 0328 04       		.uleb128 0x4
 4341 0329 19010000 		.4byte	.LASF31
 4342 032d 04       		.byte	0x4
 4343 032e A2       		.byte	0xa2
 4344 032f BF010000 		.4byte	0x1bf
 4345 0333 0C       		.uleb128 0xc
 4346 0334 B4060000 		.4byte	.LASF65
 4347 0338 01       		.byte	0x1
 4348 0339 32       		.byte	0x32
 4349 033a 00000000 		.4byte	.LFB0
 4350 033e 50000000 		.4byte	.LFE0-.LFB0
 4351 0342 01       		.uleb128 0x1
 4352 0343 9C       		.byte	0x9c
 4353 0344 F8030000 		.4byte	0x3f8
 4354 0348 0D       		.uleb128 0xd
 4355 0349 4D060000 		.4byte	.LASF61
 4356 034d 01       		.byte	0x1
 4357 034e 32       		.byte	0x32
 4358 034f B9000000 		.4byte	0xb9
 4359 0353 00000000 		.4byte	.LLST0
 4360 0357 0D       		.uleb128 0xd
 4361 0358 B2030000 		.4byte	.LASF62
 4362 035c 01       		.byte	0x1
 4363 035d 32       		.byte	0x32
 4364 035e B9000000 		.4byte	0xb9
 4365 0362 21000000 		.4byte	.LLST1
 4366 0366 0D       		.uleb128 0xd
 4367 0367 D3090000 		.4byte	.LASF63
 4368 036b 01       		.byte	0x1
 4369 036c 32       		.byte	0x32
 4370 036d A8000000 		.4byte	0xa8
 4371 0371 42000000 		.4byte	.LLST2
 4372 0375 0D       		.uleb128 0xd
 4373 0376 7C080000 		.4byte	.LASF64
 4374 037a 01       		.byte	0x1
 4375 037b 32       		.byte	0x32
 4376 037c B9000000 		.4byte	0xb9
 4377 0380 6E000000 		.4byte	.LLST3
 4378 0384 0E       		.uleb128 0xe
 4379 0385 22000000 		.4byte	.LBB2
 4380 0389 1E000000 		.4byte	.LBE2-.LBB2
 4381 038d C1030000 		.4byte	0x3c1
 4382 0391 0F       		.uleb128 0xf
 4383 0392 6900     		.ascii	"i\000"
 4384 0394 01       		.byte	0x1
 4385 0395 3E       		.byte	0x3e
 4386 0396 B9000000 		.4byte	0xb9
 4387 039a 8F000000 		.4byte	.LLST4
 4388 039e 10       		.uleb128 0x10
 4389 039f 36000000 		.4byte	.LVL7
 4390 03a3 11       		.uleb128 0x11
 4391 03a4 01       		.uleb128 0x1
 4392 03a5 50       		.byte	0x50
 4393 03a6 18       		.uleb128 0x18
 4394 03a7 31       		.byte	0x31
 4395 03a8 30       		.byte	0x30
 4396 03a9 75       		.byte	0x75
ARM GAS  C:\Users\GYULAI~1\AppData\Local\Temp\ccG7iLma.s 			page 101


 4397 03aa 7F       		.sleb128 -1
 4398 03ab 74       		.byte	0x74
 4399 03ac 00       		.sleb128 0
 4400 03ad 75       		.byte	0x75
 4401 03ae 7F       		.sleb128 -1
 4402 03af 2A       		.byte	0x2a
 4403 03b0 28       		.byte	0x28
 4404 03b1 0100     		.2byte	0x1
 4405 03b3 16       		.byte	0x16
 4406 03b4 13       		.byte	0x13
 4407 03b5 74       		.byte	0x74
 4408 03b6 00       		.sleb128 0
 4409 03b7 75       		.byte	0x75
 4410 03b8 7F       		.sleb128 -1
 4411 03b9 2D       		.byte	0x2d
 4412 03ba 28       		.byte	0x28
 4413 03bb 0100     		.2byte	0x1
 4414 03bd 16       		.byte	0x16
 4415 03be 13       		.byte	0x13
 4416 03bf 00       		.byte	0
 4417 03c0 00       		.byte	0
 4418 03c1 12       		.uleb128 0x12
 4419 03c2 14000000 		.4byte	.LVL3
 4420 03c6 D6030000 		.4byte	0x3d6
 4421 03ca 11       		.uleb128 0x11
 4422 03cb 01       		.uleb128 0x1
 4423 03cc 50       		.byte	0x50
 4424 03cd 02       		.uleb128 0x2
 4425 03ce 77       		.byte	0x77
 4426 03cf 00       		.sleb128 0
 4427 03d0 11       		.uleb128 0x11
 4428 03d1 01       		.uleb128 0x1
 4429 03d2 51       		.byte	0x51
 4430 03d3 01       		.uleb128 0x1
 4431 03d4 30       		.byte	0x30
 4432 03d5 00       		.byte	0
 4433 03d6 12       		.uleb128 0x12
 4434 03d7 1A000000 		.4byte	.LVL4
 4435 03db E6030000 		.4byte	0x3e6
 4436 03df 11       		.uleb128 0x11
 4437 03e0 01       		.uleb128 0x1
 4438 03e1 50       		.byte	0x50
 4439 03e2 02       		.uleb128 0x2
 4440 03e3 78       		.byte	0x78
 4441 03e4 00       		.sleb128 0
 4442 03e5 00       		.byte	0
 4443 03e6 10       		.uleb128 0x10
 4444 03e7 22000000 		.4byte	.LVL5
 4445 03eb 11       		.uleb128 0x11
 4446 03ec 01       		.uleb128 0x1
 4447 03ed 50       		.byte	0x50
 4448 03ee 02       		.uleb128 0x2
 4449 03ef 77       		.byte	0x77
 4450 03f0 00       		.sleb128 0
 4451 03f1 11       		.uleb128 0x11
 4452 03f2 01       		.uleb128 0x1
 4453 03f3 51       		.byte	0x51
ARM GAS  C:\Users\GYULAI~1\AppData\Local\Temp\ccG7iLma.s 			page 102


 4454 03f4 01       		.uleb128 0x1
 4455 03f5 31       		.byte	0x31
 4456 03f6 00       		.byte	0
 4457 03f7 00       		.byte	0
 4458 03f8 0C       		.uleb128 0xc
 4459 03f9 DA090000 		.4byte	.LASF66
 4460 03fd 01       		.byte	0x1
 4461 03fe 46       		.byte	0x46
 4462 03ff 00000000 		.4byte	.LFB1
 4463 0403 38000000 		.4byte	.LFE1-.LFB1
 4464 0407 01       		.uleb128 0x1
 4465 0408 9C       		.byte	0x9c
 4466 0409 80040000 		.4byte	0x480
 4467 040d 0D       		.uleb128 0xd
 4468 040e 4D060000 		.4byte	.LASF61
 4469 0412 01       		.byte	0x1
 4470 0413 46       		.byte	0x46
 4471 0414 B9000000 		.4byte	0xb9
 4472 0418 B9000000 		.4byte	.LLST5
 4473 041c 0D       		.uleb128 0xd
 4474 041d B2030000 		.4byte	.LASF62
 4475 0421 01       		.byte	0x1
 4476 0422 46       		.byte	0x46
 4477 0423 B9000000 		.4byte	0xb9
 4478 0427 DA000000 		.4byte	.LLST6
 4479 042b 0D       		.uleb128 0xd
 4480 042c D3090000 		.4byte	.LASF63
 4481 0430 01       		.byte	0x1
 4482 0431 46       		.byte	0x46
 4483 0432 80040000 		.4byte	0x480
 4484 0436 FB000000 		.4byte	.LLST7
 4485 043a 0D       		.uleb128 0xd
 4486 043b 7C080000 		.4byte	.LASF64
 4487 043f 01       		.byte	0x1
 4488 0440 46       		.byte	0x46
 4489 0441 B9000000 		.4byte	0xb9
 4490 0445 27010000 		.4byte	.LLST8
 4491 0449 0E       		.uleb128 0xe
 4492 044a 16000000 		.4byte	.LBB3
 4493 044e 14000000 		.4byte	.LBE3-.LBB3
 4494 0452 64040000 		.4byte	0x464
 4495 0456 0F       		.uleb128 0xf
 4496 0457 6900     		.ascii	"i\000"
 4497 0459 01       		.byte	0x1
 4498 045a 4F       		.byte	0x4f
 4499 045b B9000000 		.4byte	0xb9
 4500 045f 48010000 		.4byte	.LLST9
 4501 0463 00       		.byte	0
 4502 0464 12       		.uleb128 0x12
 4503 0465 10000000 		.4byte	.LVL15
 4504 0469 73040000 		.4byte	0x473
 4505 046d 11       		.uleb128 0x11
 4506 046e 01       		.uleb128 0x1
 4507 046f 51       		.byte	0x51
 4508 0470 01       		.uleb128 0x1
 4509 0471 30       		.byte	0x30
 4510 0472 00       		.byte	0
ARM GAS  C:\Users\GYULAI~1\AppData\Local\Temp\ccG7iLma.s 			page 103


 4511 0473 10       		.uleb128 0x10
 4512 0474 16000000 		.4byte	.LVL16
 4513 0478 11       		.uleb128 0x11
 4514 0479 01       		.uleb128 0x1
 4515 047a 50       		.byte	0x50
 4516 047b 02       		.uleb128 0x2
 4517 047c 77       		.byte	0x77
 4518 047d 00       		.sleb128 0
 4519 047e 00       		.byte	0
 4520 047f 00       		.byte	0
 4521 0480 05       		.uleb128 0x5
 4522 0481 04       		.byte	0x4
 4523 0482 86040000 		.4byte	0x486
 4524 0486 13       		.uleb128 0x13
 4525 0487 5E000000 		.4byte	0x5e
 4526 048b 14       		.uleb128 0x14
 4527 048c D6000000 		.4byte	.LASF67
 4528 0490 01       		.byte	0x1
 4529 0491 59       		.byte	0x59
 4530 0492 00000000 		.4byte	.LFB2
 4531 0496 1C000000 		.4byte	.LFE2-.LFB2
 4532 049a 01       		.uleb128 0x1
 4533 049b 9C       		.byte	0x9c
 4534 049c AF040000 		.4byte	0x4af
 4535 04a0 15       		.uleb128 0x15
 4536 04a1 E4010000 		.4byte	.LASF68
 4537 04a5 01       		.byte	0x1
 4538 04a6 59       		.byte	0x59
 4539 04a7 B4010000 		.4byte	0x1b4
 4540 04ab 02       		.uleb128 0x2
 4541 04ac 91       		.byte	0x91
 4542 04ad 68       		.sleb128 -24
 4543 04ae 00       		.byte	0
 4544 04af 14       		.uleb128 0x14
 4545 04b0 2A020000 		.4byte	.LASF69
 4546 04b4 01       		.byte	0x1
 4547 04b5 5D       		.byte	0x5d
 4548 04b6 00000000 		.4byte	.LFB3
 4549 04ba 14000000 		.4byte	.LFE3-.LFB3
 4550 04be 01       		.uleb128 0x1
 4551 04bf 9C       		.byte	0x9c
 4552 04c0 E9040000 		.4byte	0x4e9
 4553 04c4 16       		.uleb128 0x16
 4554 04c5 0E000000 		.4byte	.LVL23
 4555 04c9 33030000 		.4byte	0x333
 4556 04cd 11       		.uleb128 0x11
 4557 04ce 01       		.uleb128 0x1
 4558 04cf 50       		.byte	0x50
 4559 04d0 02       		.uleb128 0x2
 4560 04d1 09       		.byte	0x9
 4561 04d2 DE       		.byte	0xde
 4562 04d3 11       		.uleb128 0x11
 4563 04d4 01       		.uleb128 0x1
 4564 04d5 51       		.byte	0x51
 4565 04d6 01       		.uleb128 0x1
 4566 04d7 30       		.byte	0x30
 4567 04d8 11       		.uleb128 0x11
ARM GAS  C:\Users\GYULAI~1\AppData\Local\Temp\ccG7iLma.s 			page 104


 4568 04d9 01       		.uleb128 0x1
 4569 04da 52       		.byte	0x52
 4570 04db 05       		.uleb128 0x5
 4571 04dc 03       		.byte	0x3
 4572 04dd 10000000 		.4byte	.LANCHOR0+16
 4573 04e1 11       		.uleb128 0x11
 4574 04e2 01       		.uleb128 0x1
 4575 04e3 53       		.byte	0x53
 4576 04e4 02       		.uleb128 0x2
 4577 04e5 08       		.byte	0x8
 4578 04e6 20       		.byte	0x20
 4579 04e7 00       		.byte	0
 4580 04e8 00       		.byte	0
 4581 04e9 17       		.uleb128 0x17
 4582 04ea A30B0000 		.4byte	.LASF108
 4583 04ee 01       		.byte	0x1
 4584 04ef 7A       		.byte	0x7a
 4585 04f0 FE040000 		.4byte	0x4fe
 4586 04f4 00000000 		.4byte	.LFB5
 4587 04f8 08000000 		.4byte	.LFE5-.LFB5
 4588 04fc 01       		.uleb128 0x1
 4589 04fd 9C       		.byte	0x9c
 4590 04fe 05       		.uleb128 0x5
 4591 04ff 04       		.byte	0x4
 4592 0500 28030000 		.4byte	0x328
 4593 0504 18       		.uleb128 0x18
 4594 0505 79010000 		.4byte	.LASF73
 4595 0509 01       		.byte	0x1
 4596 050a 95       		.byte	0x95
 4597 050b B9000000 		.4byte	0xb9
 4598 050f 00000000 		.4byte	.LFB7
 4599 0513 1C000000 		.4byte	.LFE7-.LFB7
 4600 0517 01       		.uleb128 0x1
 4601 0518 9C       		.byte	0x9c
 4602 0519 4B050000 		.4byte	0x54b
 4603 051d 19       		.uleb128 0x19
 4604 051e 860A0000 		.4byte	.LASF70
 4605 0522 01       		.byte	0x1
 4606 0523 98       		.byte	0x98
 4607 0524 B9000000 		.4byte	0xb9
 4608 0528 72010000 		.4byte	.LLST10
 4609 052c 19       		.uleb128 0x19
 4610 052d 940A0000 		.4byte	.LASF71
 4611 0531 01       		.byte	0x1
 4612 0532 9B       		.byte	0x9b
 4613 0533 B9000000 		.4byte	0xb9
 4614 0537 94010000 		.4byte	.LLST11
 4615 053b 19       		.uleb128 0x19
 4616 053c A9050000 		.4byte	.LASF72
 4617 0540 01       		.byte	0x1
 4618 0541 9C       		.byte	0x9c
 4619 0542 B9000000 		.4byte	0xb9
 4620 0546 BB010000 		.4byte	.LLST12
 4621 054a 00       		.byte	0
 4622 054b 18       		.uleb128 0x18
 4623 054c 8D010000 		.4byte	.LASF74
 4624 0550 01       		.byte	0x1
ARM GAS  C:\Users\GYULAI~1\AppData\Local\Temp\ccG7iLma.s 			page 105


 4625 0551 A3       		.byte	0xa3
 4626 0552 B9000000 		.4byte	0xb9
 4627 0556 00000000 		.4byte	.LFB8
 4628 055a 1C000000 		.4byte	.LFE8-.LFB8
 4629 055e 01       		.uleb128 0x1
 4630 055f 9C       		.byte	0x9c
 4631 0560 92050000 		.4byte	0x592
 4632 0564 19       		.uleb128 0x19
 4633 0565 860A0000 		.4byte	.LASF70
 4634 0569 01       		.byte	0x1
 4635 056a A6       		.byte	0xa6
 4636 056b B9000000 		.4byte	0xb9
 4637 056f F8010000 		.4byte	.LLST13
 4638 0573 19       		.uleb128 0x19
 4639 0574 940A0000 		.4byte	.LASF71
 4640 0578 01       		.byte	0x1
 4641 0579 A9       		.byte	0xa9
 4642 057a B9000000 		.4byte	0xb9
 4643 057e 1A020000 		.4byte	.LLST14
 4644 0582 19       		.uleb128 0x19
 4645 0583 A9050000 		.4byte	.LASF72
 4646 0587 01       		.byte	0x1
 4647 0588 AA       		.byte	0xaa
 4648 0589 B9000000 		.4byte	0xb9
 4649 058d 41020000 		.4byte	.LLST15
 4650 0591 00       		.byte	0
 4651 0592 18       		.uleb128 0x18
 4652 0593 34070000 		.4byte	.LASF75
 4653 0597 01       		.byte	0x1
 4654 0598 B1       		.byte	0xb1
 4655 0599 B9000000 		.4byte	0xb9
 4656 059d 00000000 		.4byte	.LFB9
 4657 05a1 1C000000 		.4byte	.LFE9-.LFB9
 4658 05a5 01       		.uleb128 0x1
 4659 05a6 9C       		.byte	0x9c
 4660 05a7 D9050000 		.4byte	0x5d9
 4661 05ab 19       		.uleb128 0x19
 4662 05ac 860A0000 		.4byte	.LASF70
 4663 05b0 01       		.byte	0x1
 4664 05b1 B4       		.byte	0xb4
 4665 05b2 B9000000 		.4byte	0xb9
 4666 05b6 7E020000 		.4byte	.LLST16
 4667 05ba 19       		.uleb128 0x19
 4668 05bb 940A0000 		.4byte	.LASF71
 4669 05bf 01       		.byte	0x1
 4670 05c0 B7       		.byte	0xb7
 4671 05c1 B9000000 		.4byte	0xb9
 4672 05c5 A0020000 		.4byte	.LLST17
 4673 05c9 19       		.uleb128 0x19
 4674 05ca A9050000 		.4byte	.LASF72
 4675 05ce 01       		.byte	0x1
 4676 05cf B8       		.byte	0xb8
 4677 05d0 B9000000 		.4byte	0xb9
 4678 05d4 C7020000 		.4byte	.LLST18
 4679 05d8 00       		.byte	0
 4680 05d9 18       		.uleb128 0x18
 4681 05da CF0A0000 		.4byte	.LASF76
ARM GAS  C:\Users\GYULAI~1\AppData\Local\Temp\ccG7iLma.s 			page 106


 4682 05de 01       		.byte	0x1
 4683 05df BF       		.byte	0xbf
 4684 05e0 B9000000 		.4byte	0xb9
 4685 05e4 00000000 		.4byte	.LFB10
 4686 05e8 1C000000 		.4byte	.LFE10-.LFB10
 4687 05ec 01       		.uleb128 0x1
 4688 05ed 9C       		.byte	0x9c
 4689 05ee 20060000 		.4byte	0x620
 4690 05f2 19       		.uleb128 0x19
 4691 05f3 860A0000 		.4byte	.LASF70
 4692 05f7 01       		.byte	0x1
 4693 05f8 C2       		.byte	0xc2
 4694 05f9 B9000000 		.4byte	0xb9
 4695 05fd 04030000 		.4byte	.LLST19
 4696 0601 19       		.uleb128 0x19
 4697 0602 940A0000 		.4byte	.LASF71
 4698 0606 01       		.byte	0x1
 4699 0607 C5       		.byte	0xc5
 4700 0608 B9000000 		.4byte	0xb9
 4701 060c 26030000 		.4byte	.LLST20
 4702 0610 19       		.uleb128 0x19
 4703 0611 A9050000 		.4byte	.LASF72
 4704 0615 01       		.byte	0x1
 4705 0616 C6       		.byte	0xc6
 4706 0617 B9000000 		.4byte	0xb9
 4707 061b 4D030000 		.4byte	.LLST21
 4708 061f 00       		.byte	0
 4709 0620 18       		.uleb128 0x18
 4710 0621 F5060000 		.4byte	.LASF77
 4711 0625 01       		.byte	0x1
 4712 0626 CD       		.byte	0xcd
 4713 0627 B9000000 		.4byte	0xb9
 4714 062b 00000000 		.4byte	.LFB11
 4715 062f 10000000 		.4byte	.LFE11-.LFB11
 4716 0633 01       		.uleb128 0x1
 4717 0634 9C       		.byte	0x9c
 4718 0635 49060000 		.4byte	0x649
 4719 0639 19       		.uleb128 0x19
 4720 063a 860A0000 		.4byte	.LASF70
 4721 063e 01       		.byte	0x1
 4722 063f D0       		.byte	0xd0
 4723 0640 B9000000 		.4byte	0xb9
 4724 0644 8A030000 		.4byte	.LLST22
 4725 0648 00       		.byte	0
 4726 0649 18       		.uleb128 0x18
 4727 064a 370B0000 		.4byte	.LASF78
 4728 064e 01       		.byte	0x1
 4729 064f D6       		.byte	0xd6
 4730 0650 B9000000 		.4byte	0xb9
 4731 0654 00000000 		.4byte	.LFB12
 4732 0658 1C000000 		.4byte	.LFE12-.LFB12
 4733 065c 01       		.uleb128 0x1
 4734 065d 9C       		.byte	0x9c
 4735 065e 90060000 		.4byte	0x690
 4736 0662 19       		.uleb128 0x19
 4737 0663 860A0000 		.4byte	.LASF70
 4738 0667 01       		.byte	0x1
ARM GAS  C:\Users\GYULAI~1\AppData\Local\Temp\ccG7iLma.s 			page 107


 4739 0668 D9       		.byte	0xd9
 4740 0669 B9000000 		.4byte	0xb9
 4741 066d AC030000 		.4byte	.LLST23
 4742 0671 19       		.uleb128 0x19
 4743 0672 940A0000 		.4byte	.LASF71
 4744 0676 01       		.byte	0x1
 4745 0677 DC       		.byte	0xdc
 4746 0678 B9000000 		.4byte	0xb9
 4747 067c CE030000 		.4byte	.LLST24
 4748 0680 19       		.uleb128 0x19
 4749 0681 A9050000 		.4byte	.LASF72
 4750 0685 01       		.byte	0x1
 4751 0686 DD       		.byte	0xdd
 4752 0687 B9000000 		.4byte	0xb9
 4753 068b F5030000 		.4byte	.LLST25
 4754 068f 00       		.byte	0
 4755 0690 18       		.uleb128 0x18
 4756 0691 5D010000 		.4byte	.LASF79
 4757 0695 01       		.byte	0x1
 4758 0696 E4       		.byte	0xe4
 4759 0697 C4000000 		.4byte	0xc4
 4760 069b 00000000 		.4byte	.LFB13
 4761 069f 20000000 		.4byte	.LFE13-.LFB13
 4762 06a3 01       		.uleb128 0x1
 4763 06a4 9C       		.byte	0x9c
 4764 06a5 D5060000 		.4byte	0x6d5
 4765 06a9 19       		.uleb128 0x19
 4766 06aa 860A0000 		.4byte	.LASF70
 4767 06ae 01       		.byte	0x1
 4768 06af E7       		.byte	0xe7
 4769 06b0 B9000000 		.4byte	0xb9
 4770 06b4 31040000 		.4byte	.LLST26
 4771 06b8 1A       		.uleb128 0x1a
 4772 06b9 940A0000 		.4byte	.LASF71
 4773 06bd 01       		.byte	0x1
 4774 06be EA       		.byte	0xea
 4775 06bf B9000000 		.4byte	0xb9
 4776 06c3 01       		.uleb128 0x1
 4777 06c4 52       		.byte	0x52
 4778 06c5 19       		.uleb128 0x19
 4779 06c6 A9050000 		.4byte	.LASF72
 4780 06ca 01       		.byte	0x1
 4781 06cb EB       		.byte	0xeb
 4782 06cc B9000000 		.4byte	0xb9
 4783 06d0 53040000 		.4byte	.LLST27
 4784 06d4 00       		.byte	0
 4785 06d5 18       		.uleb128 0x18
 4786 06d6 B20A0000 		.4byte	.LASF80
 4787 06da 01       		.byte	0x1
 4788 06db 80       		.byte	0x80
 4789 06dc 30010000 		.4byte	0x130
 4790 06e0 00000000 		.4byte	.LFB6
 4791 06e4 44000000 		.4byte	.LFE6-.LFB6
 4792 06e8 01       		.uleb128 0x1
 4793 06e9 9C       		.byte	0x9c
 4794 06ea 64070000 		.4byte	0x764
 4795 06ee 19       		.uleb128 0x19
ARM GAS  C:\Users\GYULAI~1\AppData\Local\Temp\ccG7iLma.s 			page 108


 4796 06ef F9020000 		.4byte	.LASF81
 4797 06f3 01       		.byte	0x1
 4798 06f4 87       		.byte	0x87
 4799 06f5 30010000 		.4byte	0x130
 4800 06f9 7E040000 		.4byte	.LLST28
 4801 06fd 1B       		.uleb128 0x1b
 4802 06fe 10000000 		.4byte	.LVL56
 4803 0702 33030000 		.4byte	0x333
 4804 0706 24070000 		.4byte	0x724
 4805 070a 11       		.uleb128 0x11
 4806 070b 01       		.uleb128 0x1
 4807 070c 50       		.byte	0x50
 4808 070d 02       		.uleb128 0x2
 4809 070e 09       		.byte	0x9
 4810 070f DE       		.byte	0xde
 4811 0710 11       		.uleb128 0x11
 4812 0711 01       		.uleb128 0x1
 4813 0712 51       		.byte	0x51
 4814 0713 01       		.uleb128 0x1
 4815 0714 30       		.byte	0x30
 4816 0715 11       		.uleb128 0x11
 4817 0716 01       		.uleb128 0x1
 4818 0717 52       		.byte	0x52
 4819 0718 05       		.uleb128 0x5
 4820 0719 03       		.byte	0x3
 4821 071a 10000000 		.4byte	.LANCHOR0+16
 4822 071e 11       		.uleb128 0x11
 4823 071f 01       		.uleb128 0x1
 4824 0720 53       		.byte	0x53
 4825 0721 01       		.uleb128 0x1
 4826 0722 37       		.byte	0x37
 4827 0723 00       		.byte	0
 4828 0724 1C       		.uleb128 0x1c
 4829 0725 14000000 		.4byte	.LVL57
 4830 0729 90060000 		.4byte	0x690
 4831 072d 1C       		.uleb128 0x1c
 4832 072e 1A000000 		.4byte	.LVL58
 4833 0732 49060000 		.4byte	0x649
 4834 0736 1C       		.uleb128 0x1c
 4835 0737 20000000 		.4byte	.LVL59
 4836 073b D9050000 		.4byte	0x5d9
 4837 073f 1C       		.uleb128 0x1c
 4838 0740 26000000 		.4byte	.LVL60
 4839 0744 20060000 		.4byte	0x620
 4840 0748 1C       		.uleb128 0x1c
 4841 0749 2C000000 		.4byte	.LVL61
 4842 074d 92050000 		.4byte	0x592
 4843 0751 1C       		.uleb128 0x1c
 4844 0752 32000000 		.4byte	.LVL62
 4845 0756 4B050000 		.4byte	0x54b
 4846 075a 1C       		.uleb128 0x1c
 4847 075b 38000000 		.4byte	.LVL63
 4848 075f 04050000 		.4byte	0x504
 4849 0763 00       		.byte	0
 4850 0764 1D       		.uleb128 0x1d
 4851 0765 5E0A0000 		.4byte	.LASF82
 4852 0769 01       		.byte	0x1
ARM GAS  C:\Users\GYULAI~1\AppData\Local\Temp\ccG7iLma.s 			page 109


 4853 076a 1501     		.2byte	0x115
 4854 076c 00000000 		.4byte	.LFB15
 4855 0770 30000000 		.4byte	.LFE15-.LFB15
 4856 0774 01       		.uleb128 0x1
 4857 0775 9C       		.byte	0x9c
 4858 0776 BB070000 		.4byte	0x7bb
 4859 077a 1E       		.uleb128 0x1e
 4860 077b 55060000 		.4byte	.LASF83
 4861 077f 01       		.byte	0x1
 4862 0780 1501     		.2byte	0x115
 4863 0782 B9000000 		.4byte	0xb9
 4864 0786 AA040000 		.4byte	.LLST29
 4865 078a 1F       		.uleb128 0x1f
 4866 078b 940A0000 		.4byte	.LASF71
 4867 078f 01       		.byte	0x1
 4868 0790 1801     		.2byte	0x118
 4869 0792 B9000000 		.4byte	0xb9
 4870 0796 CB040000 		.4byte	.LLST30
 4871 079a 1F       		.uleb128 0x1f
 4872 079b A9050000 		.4byte	.LASF72
 4873 079f 01       		.byte	0x1
 4874 07a0 1901     		.2byte	0x119
 4875 07a2 B9000000 		.4byte	0xb9
 4876 07a6 DE040000 		.4byte	.LLST31
 4877 07aa 1F       		.uleb128 0x1f
 4878 07ab 860A0000 		.4byte	.LASF70
 4879 07af 01       		.byte	0x1
 4880 07b0 1A01     		.2byte	0x11a
 4881 07b2 B9000000 		.4byte	0xb9
 4882 07b6 F1040000 		.4byte	.LLST32
 4883 07ba 00       		.byte	0
 4884 07bb 1D       		.uleb128 0x1d
 4885 07bc 720A0000 		.4byte	.LASF84
 4886 07c0 01       		.byte	0x1
 4887 07c1 2301     		.2byte	0x123
 4888 07c3 00000000 		.4byte	.LFB16
 4889 07c7 24000000 		.4byte	.LFE16-.LFB16
 4890 07cb 01       		.uleb128 0x1
 4891 07cc 9C       		.byte	0x9c
 4892 07cd 10080000 		.4byte	0x810
 4893 07d1 1E       		.uleb128 0x1e
 4894 07d2 09070000 		.4byte	.LASF85
 4895 07d6 01       		.byte	0x1
 4896 07d7 2301     		.2byte	0x123
 4897 07d9 B9000000 		.4byte	0xb9
 4898 07dd 04050000 		.4byte	.LLST33
 4899 07e1 1F       		.uleb128 0x1f
 4900 07e2 940A0000 		.4byte	.LASF71
 4901 07e6 01       		.byte	0x1
 4902 07e7 2601     		.2byte	0x126
 4903 07e9 B9000000 		.4byte	0xb9
 4904 07ed 25050000 		.4byte	.LLST34
 4905 07f1 1F       		.uleb128 0x1f
 4906 07f2 A9050000 		.4byte	.LASF72
 4907 07f6 01       		.byte	0x1
 4908 07f7 2701     		.2byte	0x127
 4909 07f9 B9000000 		.4byte	0xb9
ARM GAS  C:\Users\GYULAI~1\AppData\Local\Temp\ccG7iLma.s 			page 110


 4910 07fd 38050000 		.4byte	.LLST35
 4911 0801 20       		.uleb128 0x20
 4912 0802 860A0000 		.4byte	.LASF70
 4913 0806 01       		.byte	0x1
 4914 0807 2801     		.2byte	0x128
 4915 0809 B9000000 		.4byte	0xb9
 4916 080d 01       		.uleb128 0x1
 4917 080e 50       		.byte	0x50
 4918 080f 00       		.byte	0
 4919 0810 1D       		.uleb128 0x1d
 4920 0811 E9040000 		.4byte	.LASF86
 4921 0815 01       		.byte	0x1
 4922 0816 2E01     		.2byte	0x12e
 4923 0818 00000000 		.4byte	.LFB17
 4924 081c 30000000 		.4byte	.LFE17-.LFB17
 4925 0820 01       		.uleb128 0x1
 4926 0821 9C       		.byte	0x9c
 4927 0822 67080000 		.4byte	0x867
 4928 0826 1E       		.uleb128 0x1e
 4929 0827 98070000 		.4byte	.LASF87
 4930 082b 01       		.byte	0x1
 4931 082c 2E01     		.2byte	0x12e
 4932 082e B9000000 		.4byte	0xb9
 4933 0832 4B050000 		.4byte	.LLST36
 4934 0836 1F       		.uleb128 0x1f
 4935 0837 940A0000 		.4byte	.LASF71
 4936 083b 01       		.byte	0x1
 4937 083c 3101     		.2byte	0x131
 4938 083e B9000000 		.4byte	0xb9
 4939 0842 6C050000 		.4byte	.LLST37
 4940 0846 1F       		.uleb128 0x1f
 4941 0847 A9050000 		.4byte	.LASF72
 4942 084b 01       		.byte	0x1
 4943 084c 3201     		.2byte	0x132
 4944 084e B9000000 		.4byte	0xb9
 4945 0852 7F050000 		.4byte	.LLST38
 4946 0856 1F       		.uleb128 0x1f
 4947 0857 860A0000 		.4byte	.LASF70
 4948 085b 01       		.byte	0x1
 4949 085c 3301     		.2byte	0x133
 4950 085e B9000000 		.4byte	0xb9
 4951 0862 92050000 		.4byte	.LLST39
 4952 0866 00       		.byte	0
 4953 0867 1D       		.uleb128 0x1d
 4954 0868 D8040000 		.4byte	.LASF88
 4955 086c 01       		.byte	0x1
 4956 086d 3C01     		.2byte	0x13c
 4957 086f 00000000 		.4byte	.LFB18
 4958 0873 28000000 		.4byte	.LFE18-.LFB18
 4959 0877 01       		.uleb128 0x1
 4960 0878 9C       		.byte	0x9c
 4961 0879 BA080000 		.4byte	0x8ba
 4962 087d 1E       		.uleb128 0x1e
 4963 087e 0E050000 		.4byte	.LASF20
 4964 0882 01       		.byte	0x1
 4965 0883 3C01     		.2byte	0x13c
 4966 0885 C4000000 		.4byte	0xc4
ARM GAS  C:\Users\GYULAI~1\AppData\Local\Temp\ccG7iLma.s 			page 111


 4967 0889 A5050000 		.4byte	.LLST40
 4968 088d 20       		.uleb128 0x20
 4969 088e 940A0000 		.4byte	.LASF71
 4970 0892 01       		.byte	0x1
 4971 0893 3F01     		.2byte	0x13f
 4972 0895 B9000000 		.4byte	0xb9
 4973 0899 01       		.uleb128 0x1
 4974 089a 50       		.byte	0x50
 4975 089b 1F       		.uleb128 0x1f
 4976 089c A9050000 		.4byte	.LASF72
 4977 08a0 01       		.byte	0x1
 4978 08a1 4001     		.2byte	0x140
 4979 08a3 B9000000 		.4byte	0xb9
 4980 08a7 C6050000 		.4byte	.LLST41
 4981 08ab 20       		.uleb128 0x20
 4982 08ac 860A0000 		.4byte	.LASF70
 4983 08b0 01       		.byte	0x1
 4984 08b1 4101     		.2byte	0x141
 4985 08b3 B9000000 		.4byte	0xb9
 4986 08b7 01       		.uleb128 0x1
 4987 08b8 53       		.byte	0x53
 4988 08b9 00       		.byte	0
 4989 08ba 1D       		.uleb128 0x1d
 4990 08bb 9E030000 		.4byte	.LASF89
 4991 08bf 01       		.byte	0x1
 4992 08c0 4701     		.2byte	0x147
 4993 08c2 00000000 		.4byte	.LFB19
 4994 08c6 14000000 		.4byte	.LFE19-.LFB19
 4995 08ca 01       		.uleb128 0x1
 4996 08cb 9C       		.byte	0x9c
 4997 08cc E1080000 		.4byte	0x8e1
 4998 08d0 1E       		.uleb128 0x1e
 4999 08d1 CB090000 		.4byte	.LASF21
 5000 08d5 01       		.byte	0x1
 5001 08d6 4701     		.2byte	0x147
 5002 08d8 B9000000 		.4byte	0xb9
 5003 08dc D9050000 		.4byte	.LLST42
 5004 08e0 00       		.byte	0
 5005 08e1 1D       		.uleb128 0x1d
 5006 08e2 E8080000 		.4byte	.LASF90
 5007 08e6 01       		.byte	0x1
 5008 08e7 5001     		.2byte	0x150
 5009 08e9 00000000 		.4byte	.LFB20
 5010 08ed 24000000 		.4byte	.LFE20-.LFB20
 5011 08f1 01       		.uleb128 0x1
 5012 08f2 9C       		.byte	0x9c
 5013 08f3 36090000 		.4byte	0x936
 5014 08f7 1E       		.uleb128 0x1e
 5015 08f8 75030000 		.4byte	.LASF91
 5016 08fc 01       		.byte	0x1
 5017 08fd 5001     		.2byte	0x150
 5018 08ff B9000000 		.4byte	0xb9
 5019 0903 FA050000 		.4byte	.LLST43
 5020 0907 1F       		.uleb128 0x1f
 5021 0908 940A0000 		.4byte	.LASF71
 5022 090c 01       		.byte	0x1
 5023 090d 5301     		.2byte	0x153
ARM GAS  C:\Users\GYULAI~1\AppData\Local\Temp\ccG7iLma.s 			page 112


 5024 090f B9000000 		.4byte	0xb9
 5025 0913 1B060000 		.4byte	.LLST44
 5026 0917 1F       		.uleb128 0x1f
 5027 0918 A9050000 		.4byte	.LASF72
 5028 091c 01       		.byte	0x1
 5029 091d 5401     		.2byte	0x154
 5030 091f B9000000 		.4byte	0xb9
 5031 0923 2E060000 		.4byte	.LLST45
 5032 0927 20       		.uleb128 0x20
 5033 0928 860A0000 		.4byte	.LASF70
 5034 092c 01       		.byte	0x1
 5035 092d 5501     		.2byte	0x155
 5036 092f B9000000 		.4byte	0xb9
 5037 0933 01       		.uleb128 0x1
 5038 0934 50       		.byte	0x50
 5039 0935 00       		.byte	0
 5040 0936 1D       		.uleb128 0x1d
 5041 0937 B9090000 		.4byte	.LASF92
 5042 093b 01       		.byte	0x1
 5043 093c 5B01     		.2byte	0x15b
 5044 093e 00000000 		.4byte	.LFB21
 5045 0942 2C000000 		.4byte	.LFE21-.LFB21
 5046 0946 01       		.uleb128 0x1
 5047 0947 9C       		.byte	0x9c
 5048 0948 8B090000 		.4byte	0x98b
 5049 094c 1E       		.uleb128 0x1e
 5050 094d D2040000 		.4byte	.LASF93
 5051 0951 01       		.byte	0x1
 5052 0952 5B01     		.2byte	0x15b
 5053 0954 C4000000 		.4byte	0xc4
 5054 0958 41060000 		.4byte	.LLST46
 5055 095c 1F       		.uleb128 0x1f
 5056 095d 940A0000 		.4byte	.LASF71
 5057 0961 01       		.byte	0x1
 5058 0962 5F01     		.2byte	0x15f
 5059 0964 B9000000 		.4byte	0xb9
 5060 0968 6D060000 		.4byte	.LLST47
 5061 096c 1F       		.uleb128 0x1f
 5062 096d A9050000 		.4byte	.LASF72
 5063 0971 01       		.byte	0x1
 5064 0972 6001     		.2byte	0x160
 5065 0974 B9000000 		.4byte	0xb9
 5066 0978 80060000 		.4byte	.LLST48
 5067 097c 20       		.uleb128 0x20
 5068 097d 860A0000 		.4byte	.LASF70
 5069 0981 01       		.byte	0x1
 5070 0982 6101     		.2byte	0x161
 5071 0984 B9000000 		.4byte	0xb9
 5072 0988 01       		.uleb128 0x1
 5073 0989 50       		.byte	0x50
 5074 098a 00       		.byte	0
 5075 098b 21       		.uleb128 0x21
 5076 098c 76020000 		.4byte	.LASF94
 5077 0990 01       		.byte	0x1
 5078 0991 6701     		.2byte	0x167
 5079 0993 B9000000 		.4byte	0xb9
 5080 0997 00000000 		.4byte	.LFB22
ARM GAS  C:\Users\GYULAI~1\AppData\Local\Temp\ccG7iLma.s 			page 113


 5081 099b 20000000 		.4byte	.LFE22-.LFB22
 5082 099f 01       		.uleb128 0x1
 5083 09a0 9C       		.byte	0x9c
 5084 09a1 C6090000 		.4byte	0x9c6
 5085 09a5 16       		.uleb128 0x16
 5086 09a6 12000000 		.4byte	.LVL104
 5087 09aa 33030000 		.4byte	0x333
 5088 09ae 11       		.uleb128 0x11
 5089 09af 01       		.uleb128 0x1
 5090 09b0 50       		.byte	0x50
 5091 09b1 02       		.uleb128 0x2
 5092 09b2 09       		.byte	0x9
 5093 09b3 DE       		.byte	0xde
 5094 09b4 11       		.uleb128 0x11
 5095 09b5 01       		.uleb128 0x1
 5096 09b6 51       		.byte	0x51
 5097 09b7 01       		.uleb128 0x1
 5098 09b8 30       		.byte	0x30
 5099 09b9 11       		.uleb128 0x11
 5100 09ba 01       		.uleb128 0x1
 5101 09bb 52       		.byte	0x52
 5102 09bc 02       		.uleb128 0x2
 5103 09bd 74       		.byte	0x74
 5104 09be 10       		.sleb128 16
 5105 09bf 11       		.uleb128 0x11
 5106 09c0 01       		.uleb128 0x1
 5107 09c1 53       		.byte	0x53
 5108 09c2 01       		.uleb128 0x1
 5109 09c3 31       		.byte	0x31
 5110 09c4 00       		.byte	0
 5111 09c5 00       		.byte	0
 5112 09c6 1D       		.uleb128 0x1d
 5113 09c7 B7050000 		.4byte	.LASF95
 5114 09cb 01       		.byte	0x1
 5115 09cc 7001     		.2byte	0x170
 5116 09ce 00000000 		.4byte	.LFB23
 5117 09d2 30000000 		.4byte	.LFE23-.LFB23
 5118 09d6 01       		.uleb128 0x1
 5119 09d7 9C       		.byte	0x9c
 5120 09d8 210A0000 		.4byte	0xa21
 5121 09dc 1B       		.uleb128 0x1b
 5122 09dd 14000000 		.4byte	.LVL105
 5123 09e1 33030000 		.4byte	0x333
 5124 09e5 000A0000 		.4byte	0xa00
 5125 09e9 11       		.uleb128 0x11
 5126 09ea 01       		.uleb128 0x1
 5127 09eb 50       		.byte	0x50
 5128 09ec 02       		.uleb128 0x2
 5129 09ed 09       		.byte	0x9
 5130 09ee DE       		.byte	0xde
 5131 09ef 11       		.uleb128 0x11
 5132 09f0 01       		.uleb128 0x1
 5133 09f1 51       		.byte	0x51
 5134 09f2 01       		.uleb128 0x1
 5135 09f3 30       		.byte	0x30
 5136 09f4 11       		.uleb128 0x11
 5137 09f5 01       		.uleb128 0x1
ARM GAS  C:\Users\GYULAI~1\AppData\Local\Temp\ccG7iLma.s 			page 114


 5138 09f6 52       		.byte	0x52
 5139 09f7 02       		.uleb128 0x2
 5140 09f8 75       		.byte	0x75
 5141 09f9 00       		.sleb128 0
 5142 09fa 11       		.uleb128 0x11
 5143 09fb 01       		.uleb128 0x1
 5144 09fc 53       		.byte	0x53
 5145 09fd 01       		.uleb128 0x1
 5146 09fe 31       		.byte	0x31
 5147 09ff 00       		.byte	0
 5148 0a00 16       		.uleb128 0x16
 5149 0a01 28000000 		.4byte	.LVL106
 5150 0a05 F8030000 		.4byte	0x3f8
 5151 0a09 11       		.uleb128 0x11
 5152 0a0a 01       		.uleb128 0x1
 5153 0a0b 50       		.byte	0x50
 5154 0a0c 02       		.uleb128 0x2
 5155 0a0d 09       		.byte	0x9
 5156 0a0e DE       		.byte	0xde
 5157 0a0f 11       		.uleb128 0x11
 5158 0a10 01       		.uleb128 0x1
 5159 0a11 51       		.byte	0x51
 5160 0a12 01       		.uleb128 0x1
 5161 0a13 30       		.byte	0x30
 5162 0a14 11       		.uleb128 0x11
 5163 0a15 01       		.uleb128 0x1
 5164 0a16 52       		.byte	0x52
 5165 0a17 02       		.uleb128 0x2
 5166 0a18 75       		.byte	0x75
 5167 0a19 00       		.sleb128 0
 5168 0a1a 11       		.uleb128 0x11
 5169 0a1b 01       		.uleb128 0x1
 5170 0a1c 53       		.byte	0x53
 5171 0a1d 01       		.uleb128 0x1
 5172 0a1e 31       		.byte	0x31
 5173 0a1f 00       		.byte	0
 5174 0a20 00       		.byte	0
 5175 0a21 1D       		.uleb128 0x1d
 5176 0a22 C0030000 		.4byte	.LASF96
 5177 0a26 01       		.byte	0x1
 5178 0a27 7C01     		.2byte	0x17c
 5179 0a29 00000000 		.4byte	.LFB24
 5180 0a2d 30000000 		.4byte	.LFE24-.LFB24
 5181 0a31 01       		.uleb128 0x1
 5182 0a32 9C       		.byte	0x9c
 5183 0a33 7C0A0000 		.4byte	0xa7c
 5184 0a37 1B       		.uleb128 0x1b
 5185 0a38 14000000 		.4byte	.LVL107
 5186 0a3c 33030000 		.4byte	0x333
 5187 0a40 5B0A0000 		.4byte	0xa5b
 5188 0a44 11       		.uleb128 0x11
 5189 0a45 01       		.uleb128 0x1
 5190 0a46 50       		.byte	0x50
 5191 0a47 02       		.uleb128 0x2
 5192 0a48 09       		.byte	0x9
 5193 0a49 DE       		.byte	0xde
 5194 0a4a 11       		.uleb128 0x11
ARM GAS  C:\Users\GYULAI~1\AppData\Local\Temp\ccG7iLma.s 			page 115


 5195 0a4b 01       		.uleb128 0x1
 5196 0a4c 51       		.byte	0x51
 5197 0a4d 01       		.uleb128 0x1
 5198 0a4e 30       		.byte	0x30
 5199 0a4f 11       		.uleb128 0x11
 5200 0a50 01       		.uleb128 0x1
 5201 0a51 52       		.byte	0x52
 5202 0a52 02       		.uleb128 0x2
 5203 0a53 75       		.byte	0x75
 5204 0a54 00       		.sleb128 0
 5205 0a55 11       		.uleb128 0x11
 5206 0a56 01       		.uleb128 0x1
 5207 0a57 53       		.byte	0x53
 5208 0a58 01       		.uleb128 0x1
 5209 0a59 31       		.byte	0x31
 5210 0a5a 00       		.byte	0
 5211 0a5b 16       		.uleb128 0x16
 5212 0a5c 28000000 		.4byte	.LVL108
 5213 0a60 F8030000 		.4byte	0x3f8
 5214 0a64 11       		.uleb128 0x11
 5215 0a65 01       		.uleb128 0x1
 5216 0a66 50       		.byte	0x50
 5217 0a67 02       		.uleb128 0x2
 5218 0a68 09       		.byte	0x9
 5219 0a69 DE       		.byte	0xde
 5220 0a6a 11       		.uleb128 0x11
 5221 0a6b 01       		.uleb128 0x1
 5222 0a6c 51       		.byte	0x51
 5223 0a6d 01       		.uleb128 0x1
 5224 0a6e 30       		.byte	0x30
 5225 0a6f 11       		.uleb128 0x11
 5226 0a70 01       		.uleb128 0x1
 5227 0a71 52       		.byte	0x52
 5228 0a72 02       		.uleb128 0x2
 5229 0a73 75       		.byte	0x75
 5230 0a74 00       		.sleb128 0
 5231 0a75 11       		.uleb128 0x11
 5232 0a76 01       		.uleb128 0x1
 5233 0a77 53       		.byte	0x53
 5234 0a78 01       		.uleb128 0x1
 5235 0a79 31       		.byte	0x31
 5236 0a7a 00       		.byte	0
 5237 0a7b 00       		.byte	0
 5238 0a7c 21       		.uleb128 0x21
 5239 0a7d 76000000 		.4byte	.LASF97
 5240 0a81 01       		.byte	0x1
 5241 0a82 8801     		.2byte	0x188
 5242 0a84 B9000000 		.4byte	0xb9
 5243 0a88 00000000 		.4byte	.LFB25
 5244 0a8c 20000000 		.4byte	.LFE25-.LFB25
 5245 0a90 01       		.uleb128 0x1
 5246 0a91 9C       		.byte	0x9c
 5247 0a92 B70A0000 		.4byte	0xab7
 5248 0a96 16       		.uleb128 0x16
 5249 0a97 12000000 		.4byte	.LVL109
 5250 0a9b 33030000 		.4byte	0x333
 5251 0a9f 11       		.uleb128 0x11
ARM GAS  C:\Users\GYULAI~1\AppData\Local\Temp\ccG7iLma.s 			page 116


 5252 0aa0 01       		.uleb128 0x1
 5253 0aa1 50       		.byte	0x50
 5254 0aa2 02       		.uleb128 0x2
 5255 0aa3 09       		.byte	0x9
 5256 0aa4 DE       		.byte	0xde
 5257 0aa5 11       		.uleb128 0x11
 5258 0aa6 01       		.uleb128 0x1
 5259 0aa7 51       		.byte	0x51
 5260 0aa8 01       		.uleb128 0x1
 5261 0aa9 33       		.byte	0x33
 5262 0aaa 11       		.uleb128 0x11
 5263 0aab 01       		.uleb128 0x1
 5264 0aac 52       		.byte	0x52
 5265 0aad 02       		.uleb128 0x2
 5266 0aae 74       		.byte	0x74
 5267 0aaf 13       		.sleb128 19
 5268 0ab0 11       		.uleb128 0x11
 5269 0ab1 01       		.uleb128 0x1
 5270 0ab2 53       		.byte	0x53
 5271 0ab3 01       		.uleb128 0x1
 5272 0ab4 31       		.byte	0x31
 5273 0ab5 00       		.byte	0
 5274 0ab6 00       		.byte	0
 5275 0ab7 21       		.uleb128 0x21
 5276 0ab8 9E070000 		.4byte	.LASF98
 5277 0abc 01       		.byte	0x1
 5278 0abd C701     		.2byte	0x1c7
 5279 0abf B9000000 		.4byte	0xb9
 5280 0ac3 00000000 		.4byte	.LFB28
 5281 0ac7 20000000 		.4byte	.LFE28-.LFB28
 5282 0acb 01       		.uleb128 0x1
 5283 0acc 9C       		.byte	0x9c
 5284 0acd F20A0000 		.4byte	0xaf2
 5285 0ad1 16       		.uleb128 0x16
 5286 0ad2 12000000 		.4byte	.LVL110
 5287 0ad6 33030000 		.4byte	0x333
 5288 0ada 11       		.uleb128 0x11
 5289 0adb 01       		.uleb128 0x1
 5290 0adc 50       		.byte	0x50
 5291 0add 02       		.uleb128 0x2
 5292 0ade 09       		.byte	0x9
 5293 0adf DE       		.byte	0xde
 5294 0ae0 11       		.uleb128 0x11
 5295 0ae1 01       		.uleb128 0x1
 5296 0ae2 51       		.byte	0x51
 5297 0ae3 01       		.uleb128 0x1
 5298 0ae4 33       		.byte	0x33
 5299 0ae5 11       		.uleb128 0x11
 5300 0ae6 01       		.uleb128 0x1
 5301 0ae7 52       		.byte	0x52
 5302 0ae8 02       		.uleb128 0x2
 5303 0ae9 74       		.byte	0x74
 5304 0aea 13       		.sleb128 19
 5305 0aeb 11       		.uleb128 0x11
 5306 0aec 01       		.uleb128 0x1
 5307 0aed 53       		.byte	0x53
 5308 0aee 01       		.uleb128 0x1
ARM GAS  C:\Users\GYULAI~1\AppData\Local\Temp\ccG7iLma.s 			page 117


 5309 0aef 31       		.byte	0x31
 5310 0af0 00       		.byte	0
 5311 0af1 00       		.byte	0
 5312 0af2 21       		.uleb128 0x21
 5313 0af3 4F040000 		.4byte	.LASF99
 5314 0af7 01       		.byte	0x1
 5315 0af8 D001     		.2byte	0x1d0
 5316 0afa B9000000 		.4byte	0xb9
 5317 0afe 00000000 		.4byte	.LFB29
 5318 0b02 20000000 		.4byte	.LFE29-.LFB29
 5319 0b06 01       		.uleb128 0x1
 5320 0b07 9C       		.byte	0x9c
 5321 0b08 2D0B0000 		.4byte	0xb2d
 5322 0b0c 16       		.uleb128 0x16
 5323 0b0d 12000000 		.4byte	.LVL111
 5324 0b11 33030000 		.4byte	0x333
 5325 0b15 11       		.uleb128 0x11
 5326 0b16 01       		.uleb128 0x1
 5327 0b17 50       		.byte	0x50
 5328 0b18 02       		.uleb128 0x2
 5329 0b19 09       		.byte	0x9
 5330 0b1a DE       		.byte	0xde
 5331 0b1b 11       		.uleb128 0x11
 5332 0b1c 01       		.uleb128 0x1
 5333 0b1d 51       		.byte	0x51
 5334 0b1e 01       		.uleb128 0x1
 5335 0b1f 33       		.byte	0x33
 5336 0b20 11       		.uleb128 0x11
 5337 0b21 01       		.uleb128 0x1
 5338 0b22 52       		.byte	0x52
 5339 0b23 02       		.uleb128 0x2
 5340 0b24 74       		.byte	0x74
 5341 0b25 13       		.sleb128 19
 5342 0b26 11       		.uleb128 0x11
 5343 0b27 01       		.uleb128 0x1
 5344 0b28 53       		.byte	0x53
 5345 0b29 01       		.uleb128 0x1
 5346 0b2a 31       		.byte	0x31
 5347 0b2b 00       		.byte	0
 5348 0b2c 00       		.byte	0
 5349 0b2d 21       		.uleb128 0x21
 5350 0b2e 25050000 		.4byte	.LASF100
 5351 0b32 01       		.byte	0x1
 5352 0b33 F401     		.2byte	0x1f4
 5353 0b35 B9000000 		.4byte	0xb9
 5354 0b39 00000000 		.4byte	.LFB31
 5355 0b3d 20000000 		.4byte	.LFE31-.LFB31
 5356 0b41 01       		.uleb128 0x1
 5357 0b42 9C       		.byte	0x9c
 5358 0b43 680B0000 		.4byte	0xb68
 5359 0b47 16       		.uleb128 0x16
 5360 0b48 12000000 		.4byte	.LVL112
 5361 0b4c 33030000 		.4byte	0x333
 5362 0b50 11       		.uleb128 0x11
 5363 0b51 01       		.uleb128 0x1
 5364 0b52 50       		.byte	0x50
 5365 0b53 02       		.uleb128 0x2
ARM GAS  C:\Users\GYULAI~1\AppData\Local\Temp\ccG7iLma.s 			page 118


 5366 0b54 09       		.byte	0x9
 5367 0b55 DE       		.byte	0xde
 5368 0b56 11       		.uleb128 0x11
 5369 0b57 01       		.uleb128 0x1
 5370 0b58 51       		.byte	0x51
 5371 0b59 01       		.uleb128 0x1
 5372 0b5a 33       		.byte	0x33
 5373 0b5b 11       		.uleb128 0x11
 5374 0b5c 01       		.uleb128 0x1
 5375 0b5d 52       		.byte	0x52
 5376 0b5e 02       		.uleb128 0x2
 5377 0b5f 74       		.byte	0x74
 5378 0b60 13       		.sleb128 19
 5379 0b61 11       		.uleb128 0x11
 5380 0b62 01       		.uleb128 0x1
 5381 0b63 53       		.byte	0x53
 5382 0b64 01       		.uleb128 0x1
 5383 0b65 31       		.byte	0x31
 5384 0b66 00       		.byte	0
 5385 0b67 00       		.byte	0
 5386 0b68 1D       		.uleb128 0x1d
 5387 0b69 28090000 		.4byte	.LASF101
 5388 0b6d 01       		.byte	0x1
 5389 0b6e FD01     		.2byte	0x1fd
 5390 0b70 00000000 		.4byte	.LFB32
 5391 0b74 4C000000 		.4byte	.LFE32-.LFB32
 5392 0b78 01       		.uleb128 0x1
 5393 0b79 9C       		.byte	0x9c
 5394 0b7a B20B0000 		.4byte	0xbb2
 5395 0b7e 1E       		.uleb128 0x1e
 5396 0b7f 94090000 		.4byte	.LASF102
 5397 0b83 01       		.byte	0x1
 5398 0b84 FD01     		.2byte	0x1fd
 5399 0b86 B9000000 		.4byte	0xb9
 5400 0b8a 93060000 		.4byte	.LLST49
 5401 0b8e 16       		.uleb128 0x16
 5402 0b8f 40000000 		.4byte	.LVL115
 5403 0b93 F8030000 		.4byte	0x3f8
 5404 0b97 11       		.uleb128 0x11
 5405 0b98 01       		.uleb128 0x1
 5406 0b99 50       		.byte	0x50
 5407 0b9a 02       		.uleb128 0x2
 5408 0b9b 09       		.byte	0x9
 5409 0b9c DE       		.byte	0xde
 5410 0b9d 11       		.uleb128 0x11
 5411 0b9e 01       		.uleb128 0x1
 5412 0b9f 51       		.byte	0x51
 5413 0ba0 01       		.uleb128 0x1
 5414 0ba1 37       		.byte	0x37
 5415 0ba2 11       		.uleb128 0x11
 5416 0ba3 01       		.uleb128 0x1
 5417 0ba4 52       		.byte	0x52
 5418 0ba5 05       		.uleb128 0x5
 5419 0ba6 03       		.byte	0x3
 5420 0ba7 17000000 		.4byte	.LANCHOR0+23
 5421 0bab 11       		.uleb128 0x11
 5422 0bac 01       		.uleb128 0x1
ARM GAS  C:\Users\GYULAI~1\AppData\Local\Temp\ccG7iLma.s 			page 119


 5423 0bad 53       		.byte	0x53
 5424 0bae 01       		.uleb128 0x1
 5425 0baf 31       		.byte	0x31
 5426 0bb0 00       		.byte	0
 5427 0bb1 00       		.byte	0
 5428 0bb2 22       		.uleb128 0x22
 5429 0bb3 ED090000 		.4byte	.LASF103
 5430 0bb7 01       		.byte	0x1
 5431 0bb8 0A02     		.2byte	0x20a
 5432 0bba B9000000 		.4byte	0xb9
 5433 0bbe 00000000 		.4byte	.LFB33
 5434 0bc2 3C000000 		.4byte	.LFE33-.LFB33
 5435 0bc6 01       		.uleb128 0x1
 5436 0bc7 9C       		.byte	0x9c
 5437 0bc8 DD0B0000 		.4byte	0xbdd
 5438 0bcc 1F       		.uleb128 0x1f
 5439 0bcd 860A0000 		.4byte	.LASF70
 5440 0bd1 01       		.byte	0x1
 5441 0bd2 0D02     		.2byte	0x20d
 5442 0bd4 B9000000 		.4byte	0xb9
 5443 0bd8 B4060000 		.4byte	.LLST50
 5444 0bdc 00       		.byte	0
 5445 0bdd 1D       		.uleb128 0x1d
 5446 0bde 39050000 		.4byte	.LASF104
 5447 0be2 01       		.byte	0x1
 5448 0be3 2002     		.2byte	0x220
 5449 0be5 00000000 		.4byte	.LFB34
 5450 0be9 20000000 		.4byte	.LFE34-.LFB34
 5451 0bed 01       		.uleb128 0x1
 5452 0bee 9C       		.byte	0x9c
 5453 0bef 270C0000 		.4byte	0xc27
 5454 0bf3 1E       		.uleb128 0x1e
 5455 0bf4 FC030000 		.4byte	.LASF105
 5456 0bf8 01       		.byte	0x1
 5457 0bf9 2002     		.2byte	0x220
 5458 0bfb B9000000 		.4byte	0xb9
 5459 0bff D6060000 		.4byte	.LLST51
 5460 0c03 16       		.uleb128 0x16
 5461 0c04 1A000000 		.4byte	.LVL120
 5462 0c08 F8030000 		.4byte	0x3f8
 5463 0c0c 11       		.uleb128 0x11
 5464 0c0d 01       		.uleb128 0x1
 5465 0c0e 50       		.byte	0x50
 5466 0c0f 02       		.uleb128 0x2
 5467 0c10 09       		.byte	0x9
 5468 0c11 DE       		.byte	0xde
 5469 0c12 11       		.uleb128 0x11
 5470 0c13 01       		.uleb128 0x1
 5471 0c14 51       		.byte	0x51
 5472 0c15 01       		.uleb128 0x1
 5473 0c16 37       		.byte	0x37
 5474 0c17 11       		.uleb128 0x11
 5475 0c18 01       		.uleb128 0x1
 5476 0c19 52       		.byte	0x52
 5477 0c1a 05       		.uleb128 0x5
 5478 0c1b 03       		.byte	0x3
 5479 0c1c 17000000 		.4byte	.LANCHOR0+23
ARM GAS  C:\Users\GYULAI~1\AppData\Local\Temp\ccG7iLma.s 			page 120


 5480 0c20 11       		.uleb128 0x11
 5481 0c21 01       		.uleb128 0x1
 5482 0c22 53       		.byte	0x53
 5483 0c23 01       		.uleb128 0x1
 5484 0c24 31       		.byte	0x31
 5485 0c25 00       		.byte	0
 5486 0c26 00       		.byte	0
 5487 0c27 1D       		.uleb128 0x1d
 5488 0c28 F6050000 		.4byte	.LASF106
 5489 0c2c 01       		.byte	0x1
 5490 0c2d 2A02     		.2byte	0x22a
 5491 0c2f 00000000 		.4byte	.LFB35
 5492 0c33 20000000 		.4byte	.LFE35-.LFB35
 5493 0c37 01       		.uleb128 0x1
 5494 0c38 9C       		.byte	0x9c
 5495 0c39 610C0000 		.4byte	0xc61
 5496 0c3d 16       		.uleb128 0x16
 5497 0c3e 18000000 		.4byte	.LVL121
 5498 0c42 F8030000 		.4byte	0x3f8
 5499 0c46 11       		.uleb128 0x11
 5500 0c47 01       		.uleb128 0x1
 5501 0c48 50       		.byte	0x50
 5502 0c49 02       		.uleb128 0x2
 5503 0c4a 09       		.byte	0x9
 5504 0c4b DE       		.byte	0xde
 5505 0c4c 11       		.uleb128 0x11
 5506 0c4d 01       		.uleb128 0x1
 5507 0c4e 51       		.byte	0x51
 5508 0c4f 01       		.uleb128 0x1
 5509 0c50 37       		.byte	0x37
 5510 0c51 11       		.uleb128 0x11
 5511 0c52 01       		.uleb128 0x1
 5512 0c53 52       		.byte	0x52
 5513 0c54 05       		.uleb128 0x5
 5514 0c55 03       		.byte	0x3
 5515 0c56 17000000 		.4byte	.LANCHOR0+23
 5516 0c5a 11       		.uleb128 0x11
 5517 0c5b 01       		.uleb128 0x1
 5518 0c5c 53       		.byte	0x53
 5519 0c5d 01       		.uleb128 0x1
 5520 0c5e 31       		.byte	0x31
 5521 0c5f 00       		.byte	0
 5522 0c60 00       		.byte	0
 5523 0c61 1D       		.uleb128 0x1d
 5524 0c62 CF070000 		.4byte	.LASF107
 5525 0c66 01       		.byte	0x1
 5526 0c67 3302     		.2byte	0x233
 5527 0c69 00000000 		.4byte	.LFB36
 5528 0c6d 20000000 		.4byte	.LFE36-.LFB36
 5529 0c71 01       		.uleb128 0x1
 5530 0c72 9C       		.byte	0x9c
 5531 0c73 9B0C0000 		.4byte	0xc9b
 5532 0c77 16       		.uleb128 0x16
 5533 0c78 18000000 		.4byte	.LVL122
 5534 0c7c F8030000 		.4byte	0x3f8
 5535 0c80 11       		.uleb128 0x11
 5536 0c81 01       		.uleb128 0x1
ARM GAS  C:\Users\GYULAI~1\AppData\Local\Temp\ccG7iLma.s 			page 121


 5537 0c82 50       		.byte	0x50
 5538 0c83 02       		.uleb128 0x2
 5539 0c84 09       		.byte	0x9
 5540 0c85 DE       		.byte	0xde
 5541 0c86 11       		.uleb128 0x11
 5542 0c87 01       		.uleb128 0x1
 5543 0c88 51       		.byte	0x51
 5544 0c89 01       		.uleb128 0x1
 5545 0c8a 37       		.byte	0x37
 5546 0c8b 11       		.uleb128 0x11
 5547 0c8c 01       		.uleb128 0x1
 5548 0c8d 52       		.byte	0x52
 5549 0c8e 05       		.uleb128 0x5
 5550 0c8f 03       		.byte	0x3
 5551 0c90 17000000 		.4byte	.LANCHOR0+23
 5552 0c94 11       		.uleb128 0x11
 5553 0c95 01       		.uleb128 0x1
 5554 0c96 53       		.byte	0x53
 5555 0c97 01       		.uleb128 0x1
 5556 0c98 31       		.byte	0x31
 5557 0c99 00       		.byte	0
 5558 0c9a 00       		.byte	0
 5559 0c9b 23       		.uleb128 0x23
 5560 0c9c 8C060000 		.4byte	.LASF109
 5561 0ca0 01       		.byte	0x1
 5562 0ca1 3C02     		.2byte	0x23c
 5563 0ca3 B9000000 		.4byte	0xb9
 5564 0ca7 00000000 		.4byte	.LFB37
 5565 0cab 10000000 		.4byte	.LFE37-.LFB37
 5566 0caf 01       		.uleb128 0x1
 5567 0cb0 9C       		.byte	0x9c
 5568 0cb1 1D       		.uleb128 0x1d
 5569 0cb2 DF020000 		.4byte	.LASF110
 5570 0cb6 01       		.byte	0x1
 5571 0cb7 4202     		.2byte	0x242
 5572 0cb9 00000000 		.4byte	.LFB38
 5573 0cbd 40000000 		.4byte	.LFE38-.LFB38
 5574 0cc1 01       		.uleb128 0x1
 5575 0cc2 9C       		.byte	0x9c
 5576 0cc3 FB0C0000 		.4byte	0xcfb
 5577 0cc7 1E       		.uleb128 0x1e
 5578 0cc8 FC030000 		.4byte	.LASF105
 5579 0ccc 01       		.byte	0x1
 5580 0ccd 4202     		.2byte	0x242
 5581 0ccf AE000000 		.4byte	0xae
 5582 0cd3 F7060000 		.4byte	.LLST52
 5583 0cd7 16       		.uleb128 0x16
 5584 0cd8 3A000000 		.4byte	.LVL125
 5585 0cdc F8030000 		.4byte	0x3f8
 5586 0ce0 11       		.uleb128 0x11
 5587 0ce1 01       		.uleb128 0x1
 5588 0ce2 50       		.byte	0x50
 5589 0ce3 02       		.uleb128 0x2
 5590 0ce4 09       		.byte	0x9
 5591 0ce5 DE       		.byte	0xde
 5592 0ce6 11       		.uleb128 0x11
 5593 0ce7 01       		.uleb128 0x1
ARM GAS  C:\Users\GYULAI~1\AppData\Local\Temp\ccG7iLma.s 			page 122


 5594 0ce8 51       		.byte	0x51
 5595 0ce9 01       		.uleb128 0x1
 5596 0cea 37       		.byte	0x37
 5597 0ceb 11       		.uleb128 0x11
 5598 0cec 01       		.uleb128 0x1
 5599 0ced 52       		.byte	0x52
 5600 0cee 05       		.uleb128 0x5
 5601 0cef 03       		.byte	0x3
 5602 0cf0 17000000 		.4byte	.LANCHOR0+23
 5603 0cf4 11       		.uleb128 0x11
 5604 0cf5 01       		.uleb128 0x1
 5605 0cf6 53       		.byte	0x53
 5606 0cf7 01       		.uleb128 0x1
 5607 0cf8 31       		.byte	0x31
 5608 0cf9 00       		.byte	0
 5609 0cfa 00       		.byte	0
 5610 0cfb 21       		.uleb128 0x21
 5611 0cfc 3C090000 		.4byte	.LASF111
 5612 0d00 01       		.byte	0x1
 5613 0d01 5002     		.2byte	0x250
 5614 0d03 AE000000 		.4byte	0xae
 5615 0d07 00000000 		.4byte	.LFB39
 5616 0d0b 1C000000 		.4byte	.LFE39-.LFB39
 5617 0d0f 01       		.uleb128 0x1
 5618 0d10 9C       		.byte	0x9c
 5619 0d11 260D0000 		.4byte	0xd26
 5620 0d15 1F       		.uleb128 0x1f
 5621 0d16 860A0000 		.4byte	.LASF70
 5622 0d1a 01       		.byte	0x1
 5623 0d1b 5302     		.2byte	0x253
 5624 0d1d B9000000 		.4byte	0xb9
 5625 0d21 18070000 		.4byte	.LLST53
 5626 0d25 00       		.byte	0
 5627 0d26 23       		.uleb128 0x23
 5628 0d27 D5060000 		.4byte	.LASF112
 5629 0d2b 01       		.byte	0x1
 5630 0d2c 5902     		.2byte	0x259
 5631 0d2e B9000000 		.4byte	0xb9
 5632 0d32 00000000 		.4byte	.LFB40
 5633 0d36 10000000 		.4byte	.LFE40-.LFB40
 5634 0d3a 01       		.uleb128 0x1
 5635 0d3b 9C       		.byte	0x9c
 5636 0d3c 1D       		.uleb128 0x1d
 5637 0d3d A1010000 		.4byte	.LASF113
 5638 0d41 01       		.byte	0x1
 5639 0d42 5F02     		.2byte	0x25f
 5640 0d44 00000000 		.4byte	.LFB41
 5641 0d48 20000000 		.4byte	.LFE41-.LFB41
 5642 0d4c 01       		.uleb128 0x1
 5643 0d4d 9C       		.byte	0x9c
 5644 0d4e 860D0000 		.4byte	0xd86
 5645 0d52 1E       		.uleb128 0x1e
 5646 0d53 6F010000 		.4byte	.LASF114
 5647 0d57 01       		.byte	0x1
 5648 0d58 5F02     		.2byte	0x25f
 5649 0d5a B9000000 		.4byte	0xb9
 5650 0d5e 54070000 		.4byte	.LLST54
ARM GAS  C:\Users\GYULAI~1\AppData\Local\Temp\ccG7iLma.s 			page 123


 5651 0d62 16       		.uleb128 0x16
 5652 0d63 1A000000 		.4byte	.LVL132
 5653 0d67 F8030000 		.4byte	0x3f8
 5654 0d6b 11       		.uleb128 0x11
 5655 0d6c 01       		.uleb128 0x1
 5656 0d6d 50       		.byte	0x50
 5657 0d6e 02       		.uleb128 0x2
 5658 0d6f 09       		.byte	0x9
 5659 0d70 DE       		.byte	0xde
 5660 0d71 11       		.uleb128 0x11
 5661 0d72 01       		.uleb128 0x1
 5662 0d73 51       		.byte	0x51
 5663 0d74 01       		.uleb128 0x1
 5664 0d75 37       		.byte	0x37
 5665 0d76 11       		.uleb128 0x11
 5666 0d77 01       		.uleb128 0x1
 5667 0d78 52       		.byte	0x52
 5668 0d79 05       		.uleb128 0x5
 5669 0d7a 03       		.byte	0x3
 5670 0d7b 17000000 		.4byte	.LANCHOR0+23
 5671 0d7f 11       		.uleb128 0x11
 5672 0d80 01       		.uleb128 0x1
 5673 0d81 53       		.byte	0x53
 5674 0d82 01       		.uleb128 0x1
 5675 0d83 31       		.byte	0x31
 5676 0d84 00       		.byte	0
 5677 0d85 00       		.byte	0
 5678 0d86 1D       		.uleb128 0x1d
 5679 0d87 B4000000 		.4byte	.LASF115
 5680 0d8b 01       		.byte	0x1
 5681 0d8c 6B02     		.2byte	0x26b
 5682 0d8e 00000000 		.4byte	.LFB42
 5683 0d92 20000000 		.4byte	.LFE42-.LFB42
 5684 0d96 01       		.uleb128 0x1
 5685 0d97 9C       		.byte	0x9c
 5686 0d98 C00D0000 		.4byte	0xdc0
 5687 0d9c 16       		.uleb128 0x16
 5688 0d9d 18000000 		.4byte	.LVL133
 5689 0da1 F8030000 		.4byte	0x3f8
 5690 0da5 11       		.uleb128 0x11
 5691 0da6 01       		.uleb128 0x1
 5692 0da7 50       		.byte	0x50
 5693 0da8 02       		.uleb128 0x2
 5694 0da9 09       		.byte	0x9
 5695 0daa DE       		.byte	0xde
 5696 0dab 11       		.uleb128 0x11
 5697 0dac 01       		.uleb128 0x1
 5698 0dad 51       		.byte	0x51
 5699 0dae 01       		.uleb128 0x1
 5700 0daf 37       		.byte	0x37
 5701 0db0 11       		.uleb128 0x11
 5702 0db1 01       		.uleb128 0x1
 5703 0db2 52       		.byte	0x52
 5704 0db3 05       		.uleb128 0x5
 5705 0db4 03       		.byte	0x3
 5706 0db5 17000000 		.4byte	.LANCHOR0+23
 5707 0db9 11       		.uleb128 0x11
ARM GAS  C:\Users\GYULAI~1\AppData\Local\Temp\ccG7iLma.s 			page 124


 5708 0dba 01       		.uleb128 0x1
 5709 0dbb 53       		.byte	0x53
 5710 0dbc 01       		.uleb128 0x1
 5711 0dbd 31       		.byte	0x31
 5712 0dbe 00       		.byte	0
 5713 0dbf 00       		.byte	0
 5714 0dc0 1D       		.uleb128 0x1d
 5715 0dc1 31010000 		.4byte	.LASF116
 5716 0dc5 01       		.byte	0x1
 5717 0dc6 7402     		.2byte	0x274
 5718 0dc8 00000000 		.4byte	.LFB43
 5719 0dcc 20000000 		.4byte	.LFE43-.LFB43
 5720 0dd0 01       		.uleb128 0x1
 5721 0dd1 9C       		.byte	0x9c
 5722 0dd2 FA0D0000 		.4byte	0xdfa
 5723 0dd6 16       		.uleb128 0x16
 5724 0dd7 18000000 		.4byte	.LVL134
 5725 0ddb F8030000 		.4byte	0x3f8
 5726 0ddf 11       		.uleb128 0x11
 5727 0de0 01       		.uleb128 0x1
 5728 0de1 50       		.byte	0x50
 5729 0de2 02       		.uleb128 0x2
 5730 0de3 09       		.byte	0x9
 5731 0de4 DE       		.byte	0xde
 5732 0de5 11       		.uleb128 0x11
 5733 0de6 01       		.uleb128 0x1
 5734 0de7 51       		.byte	0x51
 5735 0de8 01       		.uleb128 0x1
 5736 0de9 37       		.byte	0x37
 5737 0dea 11       		.uleb128 0x11
 5738 0deb 01       		.uleb128 0x1
 5739 0dec 52       		.byte	0x52
 5740 0ded 05       		.uleb128 0x5
 5741 0dee 03       		.byte	0x3
 5742 0def 17000000 		.4byte	.LANCHOR0+23
 5743 0df3 11       		.uleb128 0x11
 5744 0df4 01       		.uleb128 0x1
 5745 0df5 53       		.byte	0x53
 5746 0df6 01       		.uleb128 0x1
 5747 0df7 31       		.byte	0x31
 5748 0df8 00       		.byte	0
 5749 0df9 00       		.byte	0
 5750 0dfa 23       		.uleb128 0x23
 5751 0dfb 21030000 		.4byte	.LASF117
 5752 0dff 01       		.byte	0x1
 5753 0e00 7D02     		.2byte	0x27d
 5754 0e02 B9000000 		.4byte	0xb9
 5755 0e06 00000000 		.4byte	.LFB44
 5756 0e0a 10000000 		.4byte	.LFE44-.LFB44
 5757 0e0e 01       		.uleb128 0x1
 5758 0e0f 9C       		.byte	0x9c
 5759 0e10 14       		.uleb128 0x14
 5760 0e11 67040000 		.4byte	.LASF118
 5761 0e15 01       		.byte	0x1
 5762 0e16 64       		.byte	0x64
 5763 0e17 00000000 		.4byte	.LFB4
 5764 0e1b 44000000 		.4byte	.LFE4-.LFB4
ARM GAS  C:\Users\GYULAI~1\AppData\Local\Temp\ccG7iLma.s 			page 125


 5765 0e1f 01       		.uleb128 0x1
 5766 0e20 9C       		.byte	0x9c
 5767 0e21 AB0E0000 		.4byte	0xeab
 5768 0e25 19       		.uleb128 0x19
 5769 0e26 E7050000 		.4byte	.LASF119
 5770 0e2a 01       		.byte	0x1
 5771 0e2b 67       		.byte	0x67
 5772 0e2c B9000000 		.4byte	0xb9
 5773 0e30 75070000 		.4byte	.LLST55
 5774 0e34 19       		.uleb128 0x19
 5775 0e35 41020000 		.4byte	.LASF120
 5776 0e39 01       		.byte	0x1
 5777 0e3a 68       		.byte	0x68
 5778 0e3b B9000000 		.4byte	0xb9
 5779 0e3f 88070000 		.4byte	.LLST56
 5780 0e43 1C       		.uleb128 0x1c
 5781 0e44 06000000 		.4byte	.LVL135
 5782 0e48 FA0D0000 		.4byte	0xdfa
 5783 0e4c 1C       		.uleb128 0x1c
 5784 0e4d 0C000000 		.4byte	.LVL137
 5785 0e51 8B090000 		.4byte	0x98b
 5786 0e55 1C       		.uleb128 0x1c
 5787 0e56 14000000 		.4byte	.LVL139
 5788 0e5a C00D0000 		.4byte	0xdc0
 5789 0e5e 1C       		.uleb128 0x1c
 5790 0e5f 1C000000 		.4byte	.LVL141
 5791 0e63 210A0000 		.4byte	0xa21
 5792 0e67 1C       		.uleb128 0x1c
 5793 0e68 20000000 		.4byte	.LVL142
 5794 0e6c 7C0A0000 		.4byte	0xa7c
 5795 0e70 1B       		.uleb128 0x1b
 5796 0e71 30000000 		.4byte	.LVL143
 5797 0e75 F8030000 		.4byte	0x3f8
 5798 0e79 980E0000 		.4byte	0xe98
 5799 0e7d 11       		.uleb128 0x11
 5800 0e7e 01       		.uleb128 0x1
 5801 0e7f 50       		.byte	0x50
 5802 0e80 02       		.uleb128 0x2
 5803 0e81 09       		.byte	0x9
 5804 0e82 DE       		.byte	0xde
 5805 0e83 11       		.uleb128 0x11
 5806 0e84 01       		.uleb128 0x1
 5807 0e85 51       		.byte	0x51
 5808 0e86 01       		.uleb128 0x1
 5809 0e87 30       		.byte	0x30
 5810 0e88 11       		.uleb128 0x11
 5811 0e89 01       		.uleb128 0x1
 5812 0e8a 52       		.byte	0x52
 5813 0e8b 05       		.uleb128 0x5
 5814 0e8c 03       		.byte	0x3
 5815 0e8d 10000000 		.4byte	.LANCHOR0+16
 5816 0e91 11       		.uleb128 0x11
 5817 0e92 01       		.uleb128 0x1
 5818 0e93 53       		.byte	0x53
 5819 0e94 02       		.uleb128 0x2
 5820 0e95 08       		.byte	0x8
 5821 0e96 20       		.byte	0x20
ARM GAS  C:\Users\GYULAI~1\AppData\Local\Temp\ccG7iLma.s 			page 126


 5822 0e97 00       		.byte	0
 5823 0e98 1C       		.uleb128 0x1c
 5824 0e99 36000000 		.4byte	.LVL144
 5825 0e9d 860D0000 		.4byte	0xd86
 5826 0ea1 1C       		.uleb128 0x1c
 5827 0ea2 3E000000 		.4byte	.LVL146
 5828 0ea6 C6090000 		.4byte	0x9c6
 5829 0eaa 00       		.byte	0
 5830 0eab 14       		.uleb128 0x14
 5831 0eac A4090000 		.4byte	.LASF121
 5832 0eb0 01       		.byte	0x1
 5833 0eb1 F2       		.byte	0xf2
 5834 0eb2 00000000 		.4byte	.LFB14
 5835 0eb6 94000000 		.4byte	.LFE14-.LFB14
 5836 0eba 01       		.uleb128 0x1
 5837 0ebb 9C       		.byte	0x9c
 5838 0ebc 11100000 		.4byte	0x1011
 5839 0ec0 15       		.uleb128 0x15
 5840 0ec1 E00A0000 		.4byte	.LASF122
 5841 0ec5 01       		.byte	0x1
 5842 0ec6 F2       		.byte	0xf2
 5843 0ec7 30010000 		.4byte	0x130
 5844 0ecb 02       		.uleb128 0x2
 5845 0ecc 91       		.byte	0x91
 5846 0ecd 68       		.sleb128 -24
 5847 0ece 19       		.uleb128 0x19
 5848 0ecf E7050000 		.4byte	.LASF119
 5849 0ed3 01       		.byte	0x1
 5850 0ed4 F5       		.byte	0xf5
 5851 0ed5 B9000000 		.4byte	0xb9
 5852 0ed9 A6070000 		.4byte	.LLST57
 5853 0edd 19       		.uleb128 0x19
 5854 0ede 41020000 		.4byte	.LASF120
 5855 0ee2 01       		.byte	0x1
 5856 0ee3 F6       		.byte	0xf6
 5857 0ee4 B9000000 		.4byte	0xb9
 5858 0ee8 B9070000 		.4byte	.LLST58
 5859 0eec 1C       		.uleb128 0x1c
 5860 0eed 0E000000 		.4byte	.LVL148
 5861 0ef1 FA0D0000 		.4byte	0xdfa
 5862 0ef5 1C       		.uleb128 0x1c
 5863 0ef6 14000000 		.4byte	.LVL150
 5864 0efa 8B090000 		.4byte	0x98b
 5865 0efe 1C       		.uleb128 0x1c
 5866 0eff 1C000000 		.4byte	.LVL152
 5867 0f03 C00D0000 		.4byte	0xdc0
 5868 0f07 1C       		.uleb128 0x1c
 5869 0f08 24000000 		.4byte	.LVL154
 5870 0f0c 210A0000 		.4byte	0xa21
 5871 0f10 1C       		.uleb128 0x1c
 5872 0f11 28000000 		.4byte	.LVL155
 5873 0f15 7C0A0000 		.4byte	0xa7c
 5874 0f19 1B       		.uleb128 0x1b
 5875 0f1a 3A000000 		.4byte	.LVL156
 5876 0f1e 33030000 		.4byte	0x333
 5877 0f22 3D0F0000 		.4byte	0xf3d
 5878 0f26 11       		.uleb128 0x11
ARM GAS  C:\Users\GYULAI~1\AppData\Local\Temp\ccG7iLma.s 			page 127


 5879 0f27 01       		.uleb128 0x1
 5880 0f28 50       		.byte	0x50
 5881 0f29 02       		.uleb128 0x2
 5882 0f2a 09       		.byte	0x9
 5883 0f2b DE       		.byte	0xde
 5884 0f2c 11       		.uleb128 0x11
 5885 0f2d 01       		.uleb128 0x1
 5886 0f2e 51       		.byte	0x51
 5887 0f2f 01       		.uleb128 0x1
 5888 0f30 30       		.byte	0x30
 5889 0f31 11       		.uleb128 0x11
 5890 0f32 01       		.uleb128 0x1
 5891 0f33 52       		.byte	0x52
 5892 0f34 02       		.uleb128 0x2
 5893 0f35 75       		.byte	0x75
 5894 0f36 00       		.sleb128 0
 5895 0f37 11       		.uleb128 0x11
 5896 0f38 01       		.uleb128 0x1
 5897 0f39 53       		.byte	0x53
 5898 0f3a 01       		.uleb128 0x1
 5899 0f3b 37       		.byte	0x37
 5900 0f3c 00       		.byte	0
 5901 0f3d 1B       		.uleb128 0x1b
 5902 0f3e 42000000 		.4byte	.LVL157
 5903 0f42 36090000 		.4byte	0x936
 5904 0f46 530F0000 		.4byte	0xf53
 5905 0f4a 11       		.uleb128 0x11
 5906 0f4b 01       		.uleb128 0x1
 5907 0f4c 50       		.byte	0x50
 5908 0f4d 04       		.uleb128 0x4
 5909 0f4e 7D       		.byte	0x7d
 5910 0f4f 00       		.sleb128 0
 5911 0f50 94       		.byte	0x94
 5912 0f51 02       		.byte	0x2
 5913 0f52 00       		.byte	0
 5914 0f53 1B       		.uleb128 0x1b
 5915 0f54 4A000000 		.4byte	.LVL158
 5916 0f58 E1080000 		.4byte	0x8e1
 5917 0f5c 690F0000 		.4byte	0xf69
 5918 0f60 11       		.uleb128 0x11
 5919 0f61 01       		.uleb128 0x1
 5920 0f62 50       		.byte	0x50
 5921 0f63 04       		.uleb128 0x4
 5922 0f64 91       		.byte	0x91
 5923 0f65 6A       		.sleb128 -22
 5924 0f66 94       		.byte	0x94
 5925 0f67 01       		.byte	0x1
 5926 0f68 00       		.byte	0
 5927 0f69 1B       		.uleb128 0x1b
 5928 0f6a 52000000 		.4byte	.LVL159
 5929 0f6e 67080000 		.4byte	0x867
 5930 0f72 820F0000 		.4byte	0xf82
 5931 0f76 11       		.uleb128 0x11
 5932 0f77 01       		.uleb128 0x1
 5933 0f78 50       		.byte	0x50
 5934 0f79 07       		.uleb128 0x7
 5935 0f7a 91       		.byte	0x91
ARM GAS  C:\Users\GYULAI~1\AppData\Local\Temp\ccG7iLma.s 			page 128


 5936 0f7b 6B       		.sleb128 -21
 5937 0f7c 94       		.byte	0x94
 5938 0f7d 01       		.byte	0x1
 5939 0f7e 08       		.byte	0x8
 5940 0f7f FF       		.byte	0xff
 5941 0f80 1A       		.byte	0x1a
 5942 0f81 00       		.byte	0
 5943 0f82 1B       		.uleb128 0x1b
 5944 0f83 5A000000 		.4byte	.LVL160
 5945 0f87 BA080000 		.4byte	0x8ba
 5946 0f8b 980F0000 		.4byte	0xf98
 5947 0f8f 11       		.uleb128 0x11
 5948 0f90 01       		.uleb128 0x1
 5949 0f91 50       		.byte	0x50
 5950 0f92 04       		.uleb128 0x4
 5951 0f93 91       		.byte	0x91
 5952 0f94 6C       		.sleb128 -20
 5953 0f95 94       		.byte	0x94
 5954 0f96 01       		.byte	0x1
 5955 0f97 00       		.byte	0
 5956 0f98 1B       		.uleb128 0x1b
 5957 0f99 62000000 		.4byte	.LVL161
 5958 0f9d 10080000 		.4byte	0x810
 5959 0fa1 AE0F0000 		.4byte	0xfae
 5960 0fa5 11       		.uleb128 0x11
 5961 0fa6 01       		.uleb128 0x1
 5962 0fa7 50       		.byte	0x50
 5963 0fa8 04       		.uleb128 0x4
 5964 0fa9 91       		.byte	0x91
 5965 0faa 6D       		.sleb128 -19
 5966 0fab 94       		.byte	0x94
 5967 0fac 01       		.byte	0x1
 5968 0fad 00       		.byte	0
 5969 0fae 1B       		.uleb128 0x1b
 5970 0faf 6A000000 		.4byte	.LVL162
 5971 0fb3 BB070000 		.4byte	0x7bb
 5972 0fb7 C40F0000 		.4byte	0xfc4
 5973 0fbb 11       		.uleb128 0x11
 5974 0fbc 01       		.uleb128 0x1
 5975 0fbd 50       		.byte	0x50
 5976 0fbe 04       		.uleb128 0x4
 5977 0fbf 91       		.byte	0x91
 5978 0fc0 6E       		.sleb128 -18
 5979 0fc1 94       		.byte	0x94
 5980 0fc2 01       		.byte	0x1
 5981 0fc3 00       		.byte	0
 5982 0fc4 1B       		.uleb128 0x1b
 5983 0fc5 72000000 		.4byte	.LVL163
 5984 0fc9 64070000 		.4byte	0x764
 5985 0fcd DA0F0000 		.4byte	0xfda
 5986 0fd1 11       		.uleb128 0x11
 5987 0fd2 01       		.uleb128 0x1
 5988 0fd3 50       		.byte	0x50
 5989 0fd4 04       		.uleb128 0x4
 5990 0fd5 91       		.byte	0x91
 5991 0fd6 6F       		.sleb128 -17
 5992 0fd7 94       		.byte	0x94
ARM GAS  C:\Users\GYULAI~1\AppData\Local\Temp\ccG7iLma.s 			page 129


 5993 0fd8 01       		.byte	0x1
 5994 0fd9 00       		.byte	0
 5995 0fda 1B       		.uleb128 0x1b
 5996 0fdb 7E000000 		.4byte	.LVL164
 5997 0fdf F8030000 		.4byte	0x3f8
 5998 0fe3 FE0F0000 		.4byte	0xffe
 5999 0fe7 11       		.uleb128 0x11
 6000 0fe8 01       		.uleb128 0x1
 6001 0fe9 50       		.byte	0x50
 6002 0fea 02       		.uleb128 0x2
 6003 0feb 09       		.byte	0x9
 6004 0fec DE       		.byte	0xde
 6005 0fed 11       		.uleb128 0x11
 6006 0fee 01       		.uleb128 0x1
 6007 0fef 51       		.byte	0x51
 6008 0ff0 01       		.uleb128 0x1
 6009 0ff1 30       		.byte	0x30
 6010 0ff2 11       		.uleb128 0x11
 6011 0ff3 01       		.uleb128 0x1
 6012 0ff4 52       		.byte	0x52
 6013 0ff5 02       		.uleb128 0x2
 6014 0ff6 75       		.byte	0x75
 6015 0ff7 00       		.sleb128 0
 6016 0ff8 11       		.uleb128 0x11
 6017 0ff9 01       		.uleb128 0x1
 6018 0ffa 53       		.byte	0x53
 6019 0ffb 01       		.uleb128 0x1
 6020 0ffc 37       		.byte	0x37
 6021 0ffd 00       		.byte	0
 6022 0ffe 1C       		.uleb128 0x1c
 6023 0fff 84000000 		.4byte	.LVL165
 6024 1003 860D0000 		.4byte	0xd86
 6025 1007 1C       		.uleb128 0x1c
 6026 1008 8C000000 		.4byte	.LVL166
 6027 100c C6090000 		.4byte	0x9c6
 6028 1010 00       		.byte	0
 6029 1011 1D       		.uleb128 0x1d
 6030 1012 5C050000 		.4byte	.LASF123
 6031 1016 01       		.byte	0x1
 6032 1017 9101     		.2byte	0x191
 6033 1019 00000000 		.4byte	.LFB26
 6034 101d 60000000 		.4byte	.LFE26-.LFB26
 6035 1021 01       		.uleb128 0x1
 6036 1022 9C       		.byte	0x9c
 6037 1023 CF100000 		.4byte	0x10cf
 6038 1027 1F       		.uleb128 0x1f
 6039 1028 E7050000 		.4byte	.LASF119
 6040 102c 01       		.byte	0x1
 6041 102d 9401     		.2byte	0x194
 6042 102f B9000000 		.4byte	0xb9
 6043 1033 D7070000 		.4byte	.LLST59
 6044 1037 1F       		.uleb128 0x1f
 6045 1038 41020000 		.4byte	.LASF120
 6046 103c 01       		.byte	0x1
 6047 103d 9501     		.2byte	0x195
 6048 103f B9000000 		.4byte	0xb9
 6049 1043 EA070000 		.4byte	.LLST60
ARM GAS  C:\Users\GYULAI~1\AppData\Local\Temp\ccG7iLma.s 			page 130


 6050 1047 1C       		.uleb128 0x1c
 6051 1048 06000000 		.4byte	.LVL168
 6052 104c FA0D0000 		.4byte	0xdfa
 6053 1050 1C       		.uleb128 0x1c
 6054 1051 0C000000 		.4byte	.LVL170
 6055 1055 8B090000 		.4byte	0x98b
 6056 1059 1C       		.uleb128 0x1c
 6057 105a 14000000 		.4byte	.LVL172
 6058 105e C00D0000 		.4byte	0xdc0
 6059 1062 1C       		.uleb128 0x1c
 6060 1063 1C000000 		.4byte	.LVL174
 6061 1067 210A0000 		.4byte	0xa21
 6062 106b 1C       		.uleb128 0x1c
 6063 106c 20000000 		.4byte	.LVL175
 6064 1070 7C0A0000 		.4byte	0xa7c
 6065 1074 1B       		.uleb128 0x1b
 6066 1075 36000000 		.4byte	.LVL176
 6067 1079 33030000 		.4byte	0x333
 6068 107d 98100000 		.4byte	0x1098
 6069 1081 11       		.uleb128 0x11
 6070 1082 01       		.uleb128 0x1
 6071 1083 50       		.byte	0x50
 6072 1084 02       		.uleb128 0x2
 6073 1085 09       		.byte	0x9
 6074 1086 DE       		.byte	0xde
 6075 1087 11       		.uleb128 0x11
 6076 1088 01       		.uleb128 0x1
 6077 1089 51       		.byte	0x51
 6078 108a 01       		.uleb128 0x1
 6079 108b 33       		.byte	0x33
 6080 108c 11       		.uleb128 0x11
 6081 108d 01       		.uleb128 0x1
 6082 108e 52       		.byte	0x52
 6083 108f 02       		.uleb128 0x2
 6084 1090 76       		.byte	0x76
 6085 1091 00       		.sleb128 0
 6086 1092 11       		.uleb128 0x11
 6087 1093 01       		.uleb128 0x1
 6088 1094 53       		.byte	0x53
 6089 1095 01       		.uleb128 0x1
 6090 1096 31       		.byte	0x31
 6091 1097 00       		.byte	0
 6092 1098 1B       		.uleb128 0x1b
 6093 1099 4A000000 		.4byte	.LVL177
 6094 109d F8030000 		.4byte	0x3f8
 6095 10a1 BC100000 		.4byte	0x10bc
 6096 10a5 11       		.uleb128 0x11
 6097 10a6 01       		.uleb128 0x1
 6098 10a7 50       		.byte	0x50
 6099 10a8 02       		.uleb128 0x2
 6100 10a9 09       		.byte	0x9
 6101 10aa DE       		.byte	0xde
 6102 10ab 11       		.uleb128 0x11
 6103 10ac 01       		.uleb128 0x1
 6104 10ad 51       		.byte	0x51
 6105 10ae 01       		.uleb128 0x1
 6106 10af 33       		.byte	0x33
ARM GAS  C:\Users\GYULAI~1\AppData\Local\Temp\ccG7iLma.s 			page 131


 6107 10b0 11       		.uleb128 0x11
 6108 10b1 01       		.uleb128 0x1
 6109 10b2 52       		.byte	0x52
 6110 10b3 02       		.uleb128 0x2
 6111 10b4 76       		.byte	0x76
 6112 10b5 00       		.sleb128 0
 6113 10b6 11       		.uleb128 0x11
 6114 10b7 01       		.uleb128 0x1
 6115 10b8 53       		.byte	0x53
 6116 10b9 01       		.uleb128 0x1
 6117 10ba 31       		.byte	0x31
 6118 10bb 00       		.byte	0
 6119 10bc 1C       		.uleb128 0x1c
 6120 10bd 50000000 		.4byte	.LVL178
 6121 10c1 860D0000 		.4byte	0xd86
 6122 10c5 1C       		.uleb128 0x1c
 6123 10c6 58000000 		.4byte	.LVL180
 6124 10ca C6090000 		.4byte	0x9c6
 6125 10ce 00       		.byte	0
 6126 10cf 1D       		.uleb128 0x1d
 6127 10d0 44000000 		.4byte	.LASF124
 6128 10d4 01       		.byte	0x1
 6129 10d5 AC01     		.2byte	0x1ac
 6130 10d7 00000000 		.4byte	.LFB27
 6131 10db 60000000 		.4byte	.LFE27-.LFB27
 6132 10df 01       		.uleb128 0x1
 6133 10e0 9C       		.byte	0x9c
 6134 10e1 8D110000 		.4byte	0x118d
 6135 10e5 1F       		.uleb128 0x1f
 6136 10e6 E7050000 		.4byte	.LASF119
 6137 10ea 01       		.byte	0x1
 6138 10eb AF01     		.2byte	0x1af
 6139 10ed B9000000 		.4byte	0xb9
 6140 10f1 08080000 		.4byte	.LLST61
 6141 10f5 1F       		.uleb128 0x1f
 6142 10f6 41020000 		.4byte	.LASF120
 6143 10fa 01       		.byte	0x1
 6144 10fb B001     		.2byte	0x1b0
 6145 10fd B9000000 		.4byte	0xb9
 6146 1101 1B080000 		.4byte	.LLST62
 6147 1105 1C       		.uleb128 0x1c
 6148 1106 06000000 		.4byte	.LVL182
 6149 110a FA0D0000 		.4byte	0xdfa
 6150 110e 1C       		.uleb128 0x1c
 6151 110f 0C000000 		.4byte	.LVL184
 6152 1113 8B090000 		.4byte	0x98b
 6153 1117 1C       		.uleb128 0x1c
 6154 1118 14000000 		.4byte	.LVL186
 6155 111c C00D0000 		.4byte	0xdc0
 6156 1120 1C       		.uleb128 0x1c
 6157 1121 1C000000 		.4byte	.LVL188
 6158 1125 210A0000 		.4byte	0xa21
 6159 1129 1C       		.uleb128 0x1c
 6160 112a 20000000 		.4byte	.LVL189
 6161 112e 7C0A0000 		.4byte	0xa7c
 6162 1132 1B       		.uleb128 0x1b
 6163 1133 36000000 		.4byte	.LVL190
ARM GAS  C:\Users\GYULAI~1\AppData\Local\Temp\ccG7iLma.s 			page 132


 6164 1137 33030000 		.4byte	0x333
 6165 113b 56110000 		.4byte	0x1156
 6166 113f 11       		.uleb128 0x11
 6167 1140 01       		.uleb128 0x1
 6168 1141 50       		.byte	0x50
 6169 1142 02       		.uleb128 0x2
 6170 1143 09       		.byte	0x9
 6171 1144 DE       		.byte	0xde
 6172 1145 11       		.uleb128 0x11
 6173 1146 01       		.uleb128 0x1
 6174 1147 51       		.byte	0x51
 6175 1148 01       		.uleb128 0x1
 6176 1149 33       		.byte	0x33
 6177 114a 11       		.uleb128 0x11
 6178 114b 01       		.uleb128 0x1
 6179 114c 52       		.byte	0x52
 6180 114d 02       		.uleb128 0x2
 6181 114e 76       		.byte	0x76
 6182 114f 00       		.sleb128 0
 6183 1150 11       		.uleb128 0x11
 6184 1151 01       		.uleb128 0x1
 6185 1152 53       		.byte	0x53
 6186 1153 01       		.uleb128 0x1
 6187 1154 31       		.byte	0x31
 6188 1155 00       		.byte	0
 6189 1156 1B       		.uleb128 0x1b
 6190 1157 4A000000 		.4byte	.LVL191
 6191 115b F8030000 		.4byte	0x3f8
 6192 115f 7A110000 		.4byte	0x117a
 6193 1163 11       		.uleb128 0x11
 6194 1164 01       		.uleb128 0x1
 6195 1165 50       		.byte	0x50
 6196 1166 02       		.uleb128 0x2
 6197 1167 09       		.byte	0x9
 6198 1168 DE       		.byte	0xde
 6199 1169 11       		.uleb128 0x11
 6200 116a 01       		.uleb128 0x1
 6201 116b 51       		.byte	0x51
 6202 116c 01       		.uleb128 0x1
 6203 116d 33       		.byte	0x33
 6204 116e 11       		.uleb128 0x11
 6205 116f 01       		.uleb128 0x1
 6206 1170 52       		.byte	0x52
 6207 1171 02       		.uleb128 0x2
 6208 1172 76       		.byte	0x76
 6209 1173 00       		.sleb128 0
 6210 1174 11       		.uleb128 0x11
 6211 1175 01       		.uleb128 0x1
 6212 1176 53       		.byte	0x53
 6213 1177 01       		.uleb128 0x1
 6214 1178 31       		.byte	0x31
 6215 1179 00       		.byte	0
 6216 117a 1C       		.uleb128 0x1c
 6217 117b 50000000 		.4byte	.LVL192
 6218 117f 860D0000 		.4byte	0xd86
 6219 1183 1C       		.uleb128 0x1c
 6220 1184 58000000 		.4byte	.LVL194
ARM GAS  C:\Users\GYULAI~1\AppData\Local\Temp\ccG7iLma.s 			page 133


 6221 1188 C6090000 		.4byte	0x9c6
 6222 118c 00       		.byte	0
 6223 118d 1D       		.uleb128 0x1d
 6224 118e 1A070000 		.4byte	.LASF125
 6225 1192 01       		.byte	0x1
 6226 1193 D901     		.2byte	0x1d9
 6227 1195 00000000 		.4byte	.LFB30
 6228 1199 60000000 		.4byte	.LFE30-.LFB30
 6229 119d 01       		.uleb128 0x1
 6230 119e 9C       		.byte	0x9c
 6231 119f 4B120000 		.4byte	0x124b
 6232 11a3 1F       		.uleb128 0x1f
 6233 11a4 E7050000 		.4byte	.LASF119
 6234 11a8 01       		.byte	0x1
 6235 11a9 DC01     		.2byte	0x1dc
 6236 11ab B9000000 		.4byte	0xb9
 6237 11af 39080000 		.4byte	.LLST63
 6238 11b3 1F       		.uleb128 0x1f
 6239 11b4 41020000 		.4byte	.LASF120
 6240 11b8 01       		.byte	0x1
 6241 11b9 DD01     		.2byte	0x1dd
 6242 11bb B9000000 		.4byte	0xb9
 6243 11bf 4C080000 		.4byte	.LLST64
 6244 11c3 1C       		.uleb128 0x1c
 6245 11c4 06000000 		.4byte	.LVL196
 6246 11c8 FA0D0000 		.4byte	0xdfa
 6247 11cc 1C       		.uleb128 0x1c
 6248 11cd 0C000000 		.4byte	.LVL198
 6249 11d1 8B090000 		.4byte	0x98b
 6250 11d5 1C       		.uleb128 0x1c
 6251 11d6 14000000 		.4byte	.LVL200
 6252 11da C00D0000 		.4byte	0xdc0
 6253 11de 1C       		.uleb128 0x1c
 6254 11df 1C000000 		.4byte	.LVL202
 6255 11e3 210A0000 		.4byte	0xa21
 6256 11e7 1C       		.uleb128 0x1c
 6257 11e8 20000000 		.4byte	.LVL203
 6258 11ec 7C0A0000 		.4byte	0xa7c
 6259 11f0 1B       		.uleb128 0x1b
 6260 11f1 36000000 		.4byte	.LVL204
 6261 11f5 33030000 		.4byte	0x333
 6262 11f9 14120000 		.4byte	0x1214
 6263 11fd 11       		.uleb128 0x11
 6264 11fe 01       		.uleb128 0x1
 6265 11ff 50       		.byte	0x50
 6266 1200 02       		.uleb128 0x2
 6267 1201 09       		.byte	0x9
 6268 1202 DE       		.byte	0xde
 6269 1203 11       		.uleb128 0x11
 6270 1204 01       		.uleb128 0x1
 6271 1205 51       		.byte	0x51
 6272 1206 01       		.uleb128 0x1
 6273 1207 33       		.byte	0x33
 6274 1208 11       		.uleb128 0x11
 6275 1209 01       		.uleb128 0x1
 6276 120a 52       		.byte	0x52
 6277 120b 02       		.uleb128 0x2
ARM GAS  C:\Users\GYULAI~1\AppData\Local\Temp\ccG7iLma.s 			page 134


 6278 120c 76       		.byte	0x76
 6279 120d 00       		.sleb128 0
 6280 120e 11       		.uleb128 0x11
 6281 120f 01       		.uleb128 0x1
 6282 1210 53       		.byte	0x53
 6283 1211 01       		.uleb128 0x1
 6284 1212 31       		.byte	0x31
 6285 1213 00       		.byte	0
 6286 1214 1B       		.uleb128 0x1b
 6287 1215 4A000000 		.4byte	.LVL205
 6288 1219 F8030000 		.4byte	0x3f8
 6289 121d 38120000 		.4byte	0x1238
 6290 1221 11       		.uleb128 0x11
 6291 1222 01       		.uleb128 0x1
 6292 1223 50       		.byte	0x50
 6293 1224 02       		.uleb128 0x2
 6294 1225 09       		.byte	0x9
 6295 1226 DE       		.byte	0xde
 6296 1227 11       		.uleb128 0x11
 6297 1228 01       		.uleb128 0x1
 6298 1229 51       		.byte	0x51
 6299 122a 01       		.uleb128 0x1
 6300 122b 33       		.byte	0x33
 6301 122c 11       		.uleb128 0x11
 6302 122d 01       		.uleb128 0x1
 6303 122e 52       		.byte	0x52
 6304 122f 02       		.uleb128 0x2
 6305 1230 76       		.byte	0x76
 6306 1231 00       		.sleb128 0
 6307 1232 11       		.uleb128 0x11
 6308 1233 01       		.uleb128 0x1
 6309 1234 53       		.byte	0x53
 6310 1235 01       		.uleb128 0x1
 6311 1236 31       		.byte	0x31
 6312 1237 00       		.byte	0
 6313 1238 1C       		.uleb128 0x1c
 6314 1239 50000000 		.4byte	.LVL206
 6315 123d 860D0000 		.4byte	0xd86
 6316 1241 1C       		.uleb128 0x1c
 6317 1242 58000000 		.4byte	.LVL208
 6318 1246 C6090000 		.4byte	0x9c6
 6319 124a 00       		.byte	0
 6320 124b 21       		.uleb128 0x21
 6321 124c DB030000 		.4byte	.LASF126
 6322 1250 01       		.byte	0x1
 6323 1251 9302     		.2byte	0x293
 6324 1253 B9000000 		.4byte	0xb9
 6325 1257 00000000 		.4byte	.LFB46
 6326 125b 30000000 		.4byte	.LFE46-.LFB46
 6327 125f 01       		.uleb128 0x1
 6328 1260 9C       		.byte	0x9c
 6329 1261 A5120000 		.4byte	0x12a5
 6330 1265 24       		.uleb128 0x24
 6331 1266 696400   		.ascii	"id\000"
 6332 1269 01       		.byte	0x1
 6333 126a 9302     		.2byte	0x293
 6334 126c B9000000 		.4byte	0xb9
ARM GAS  C:\Users\GYULAI~1\AppData\Local\Temp\ccG7iLma.s 			page 135


 6335 1270 6A080000 		.4byte	.LLST65
 6336 1274 1F       		.uleb128 0x1f
 6337 1275 860A0000 		.4byte	.LASF70
 6338 1279 01       		.byte	0x1
 6339 127a 9602     		.2byte	0x296
 6340 127c B9000000 		.4byte	0xb9
 6341 1280 8B080000 		.4byte	.LLST66
 6342 1284 1F       		.uleb128 0x1f
 6343 1285 940A0000 		.4byte	.LASF71
 6344 1289 01       		.byte	0x1
 6345 128a 9E02     		.2byte	0x29e
 6346 128c B9000000 		.4byte	0xb9
 6347 1290 D8080000 		.4byte	.LLST67
 6348 1294 1F       		.uleb128 0x1f
 6349 1295 A9050000 		.4byte	.LASF72
 6350 1299 01       		.byte	0x1
 6351 129a 9F02     		.2byte	0x29f
 6352 129c B9000000 		.4byte	0xb9
 6353 12a0 EB080000 		.4byte	.LLST68
 6354 12a4 00       		.byte	0
 6355 12a5 21       		.uleb128 0x21
 6356 12a6 5C030000 		.4byte	.LASF127
 6357 12aa 01       		.byte	0x1
 6358 12ab A602     		.2byte	0x2a6
 6359 12ad B9000000 		.4byte	0xb9
 6360 12b1 00000000 		.4byte	.LFB47
 6361 12b5 30000000 		.4byte	.LFE47-.LFB47
 6362 12b9 01       		.uleb128 0x1
 6363 12ba 9C       		.byte	0x9c
 6364 12bb FF120000 		.4byte	0x12ff
 6365 12bf 24       		.uleb128 0x24
 6366 12c0 696400   		.ascii	"id\000"
 6367 12c3 01       		.byte	0x1
 6368 12c4 A602     		.2byte	0x2a6
 6369 12c6 B9000000 		.4byte	0xb9
 6370 12ca 0E090000 		.4byte	.LLST69
 6371 12ce 1F       		.uleb128 0x1f
 6372 12cf 860A0000 		.4byte	.LASF70
 6373 12d3 01       		.byte	0x1
 6374 12d4 A902     		.2byte	0x2a9
 6375 12d6 B9000000 		.4byte	0xb9
 6376 12da 2F090000 		.4byte	.LLST70
 6377 12de 1F       		.uleb128 0x1f
 6378 12df 940A0000 		.4byte	.LASF71
 6379 12e3 01       		.byte	0x1
 6380 12e4 B102     		.2byte	0x2b1
 6381 12e6 B9000000 		.4byte	0xb9
 6382 12ea 7C090000 		.4byte	.LLST71
 6383 12ee 1F       		.uleb128 0x1f
 6384 12ef A9050000 		.4byte	.LASF72
 6385 12f3 01       		.byte	0x1
 6386 12f4 B202     		.2byte	0x2b2
 6387 12f6 B9000000 		.4byte	0xb9
 6388 12fa 8F090000 		.4byte	.LLST72
 6389 12fe 00       		.byte	0
 6390 12ff 21       		.uleb128 0x21
 6391 1300 66060000 		.4byte	.LASF128
ARM GAS  C:\Users\GYULAI~1\AppData\Local\Temp\ccG7iLma.s 			page 136


 6392 1304 01       		.byte	0x1
 6393 1305 B902     		.2byte	0x2b9
 6394 1307 B9000000 		.4byte	0xb9
 6395 130b 00000000 		.4byte	.LFB48
 6396 130f 30000000 		.4byte	.LFE48-.LFB48
 6397 1313 01       		.uleb128 0x1
 6398 1314 9C       		.byte	0x9c
 6399 1315 59130000 		.4byte	0x1359
 6400 1319 24       		.uleb128 0x24
 6401 131a 696400   		.ascii	"id\000"
 6402 131d 01       		.byte	0x1
 6403 131e B902     		.2byte	0x2b9
 6404 1320 B9000000 		.4byte	0xb9
 6405 1324 B2090000 		.4byte	.LLST73
 6406 1328 1F       		.uleb128 0x1f
 6407 1329 860A0000 		.4byte	.LASF70
 6408 132d 01       		.byte	0x1
 6409 132e BC02     		.2byte	0x2bc
 6410 1330 B9000000 		.4byte	0xb9
 6411 1334 D3090000 		.4byte	.LLST74
 6412 1338 1F       		.uleb128 0x1f
 6413 1339 940A0000 		.4byte	.LASF71
 6414 133d 01       		.byte	0x1
 6415 133e C402     		.2byte	0x2c4
 6416 1340 B9000000 		.4byte	0xb9
 6417 1344 200A0000 		.4byte	.LLST75
 6418 1348 1F       		.uleb128 0x1f
 6419 1349 A9050000 		.4byte	.LASF72
 6420 134d 01       		.byte	0x1
 6421 134e C502     		.2byte	0x2c5
 6422 1350 B9000000 		.4byte	0xb9
 6423 1354 330A0000 		.4byte	.LLST76
 6424 1358 00       		.byte	0
 6425 1359 21       		.uleb128 0x21
 6426 135a CB010000 		.4byte	.LASF129
 6427 135e 01       		.byte	0x1
 6428 135f CC02     		.2byte	0x2cc
 6429 1361 B9000000 		.4byte	0xb9
 6430 1365 00000000 		.4byte	.LFB49
 6431 1369 24000000 		.4byte	.LFE49-.LFB49
 6432 136d 01       		.uleb128 0x1
 6433 136e 9C       		.byte	0x9c
 6434 136f 93130000 		.4byte	0x1393
 6435 1373 24       		.uleb128 0x24
 6436 1374 696400   		.ascii	"id\000"
 6437 1377 01       		.byte	0x1
 6438 1378 CC02     		.2byte	0x2cc
 6439 137a B9000000 		.4byte	0xb9
 6440 137e 560A0000 		.4byte	.LLST77
 6441 1382 1F       		.uleb128 0x1f
 6442 1383 860A0000 		.4byte	.LASF70
 6443 1387 01       		.byte	0x1
 6444 1388 CF02     		.2byte	0x2cf
 6445 138a B9000000 		.4byte	0xb9
 6446 138e A90A0000 		.4byte	.LLST78
 6447 1392 00       		.byte	0
 6448 1393 21       		.uleb128 0x21
ARM GAS  C:\Users\GYULAI~1\AppData\Local\Temp\ccG7iLma.s 			page 137


 6449 1394 46030000 		.4byte	.LASF130
 6450 1398 01       		.byte	0x1
 6451 1399 DA02     		.2byte	0x2da
 6452 139b B9000000 		.4byte	0xb9
 6453 139f 00000000 		.4byte	.LFB50
 6454 13a3 30000000 		.4byte	.LFE50-.LFB50
 6455 13a7 01       		.uleb128 0x1
 6456 13a8 9C       		.byte	0x9c
 6457 13a9 ED130000 		.4byte	0x13ed
 6458 13ad 24       		.uleb128 0x24
 6459 13ae 696400   		.ascii	"id\000"
 6460 13b1 01       		.byte	0x1
 6461 13b2 DA02     		.2byte	0x2da
 6462 13b4 B9000000 		.4byte	0xb9
 6463 13b8 F60A0000 		.4byte	.LLST79
 6464 13bc 1F       		.uleb128 0x1f
 6465 13bd 860A0000 		.4byte	.LASF70
 6466 13c1 01       		.byte	0x1
 6467 13c2 DD02     		.2byte	0x2dd
 6468 13c4 B9000000 		.4byte	0xb9
 6469 13c8 170B0000 		.4byte	.LLST80
 6470 13cc 1F       		.uleb128 0x1f
 6471 13cd 940A0000 		.4byte	.LASF71
 6472 13d1 01       		.byte	0x1
 6473 13d2 E502     		.2byte	0x2e5
 6474 13d4 B9000000 		.4byte	0xb9
 6475 13d8 640B0000 		.4byte	.LLST81
 6476 13dc 1F       		.uleb128 0x1f
 6477 13dd A9050000 		.4byte	.LASF72
 6478 13e1 01       		.byte	0x1
 6479 13e2 E602     		.2byte	0x2e6
 6480 13e4 B9000000 		.4byte	0xb9
 6481 13e8 770B0000 		.4byte	.LLST82
 6482 13ec 00       		.byte	0
 6483 13ed 21       		.uleb128 0x21
 6484 13ee 09030000 		.4byte	.LASF131
 6485 13f2 01       		.byte	0x1
 6486 13f3 ED02     		.2byte	0x2ed
 6487 13f5 B9000000 		.4byte	0xb9
 6488 13f9 00000000 		.4byte	.LFB51
 6489 13fd 30000000 		.4byte	.LFE51-.LFB51
 6490 1401 01       		.uleb128 0x1
 6491 1402 9C       		.byte	0x9c
 6492 1403 47140000 		.4byte	0x1447
 6493 1407 24       		.uleb128 0x24
 6494 1408 696400   		.ascii	"id\000"
 6495 140b 01       		.byte	0x1
 6496 140c ED02     		.2byte	0x2ed
 6497 140e B9000000 		.4byte	0xb9
 6498 1412 9A0B0000 		.4byte	.LLST83
 6499 1416 1F       		.uleb128 0x1f
 6500 1417 860A0000 		.4byte	.LASF70
 6501 141b 01       		.byte	0x1
 6502 141c F002     		.2byte	0x2f0
 6503 141e B9000000 		.4byte	0xb9
 6504 1422 BB0B0000 		.4byte	.LLST84
 6505 1426 1F       		.uleb128 0x1f
ARM GAS  C:\Users\GYULAI~1\AppData\Local\Temp\ccG7iLma.s 			page 138


 6506 1427 940A0000 		.4byte	.LASF71
 6507 142b 01       		.byte	0x1
 6508 142c F802     		.2byte	0x2f8
 6509 142e B9000000 		.4byte	0xb9
 6510 1432 080C0000 		.4byte	.LLST85
 6511 1436 1F       		.uleb128 0x1f
 6512 1437 A9050000 		.4byte	.LASF72
 6513 143b 01       		.byte	0x1
 6514 143c F902     		.2byte	0x2f9
 6515 143e B9000000 		.4byte	0xb9
 6516 1442 1B0C0000 		.4byte	.LLST86
 6517 1446 00       		.byte	0
 6518 1447 21       		.uleb128 0x21
 6519 1448 7C030000 		.4byte	.LASF132
 6520 144c 01       		.byte	0x1
 6521 144d 8302     		.2byte	0x283
 6522 144f 30010000 		.4byte	0x130
 6523 1453 00000000 		.4byte	.LFB45
 6524 1457 3A000000 		.4byte	.LFE45-.LFB45
 6525 145b 01       		.uleb128 0x1
 6526 145c 9C       		.byte	0x9c
 6527 145d F5140000 		.4byte	0x14f5
 6528 1461 24       		.uleb128 0x24
 6529 1462 696400   		.ascii	"id\000"
 6530 1465 01       		.byte	0x1
 6531 1466 8302     		.2byte	0x283
 6532 1468 B9000000 		.4byte	0xb9
 6533 146c 3D0C0000 		.4byte	.LLST87
 6534 1470 1F       		.uleb128 0x1f
 6535 1471 E00A0000 		.4byte	.LASF122
 6536 1475 01       		.byte	0x1
 6537 1476 8602     		.2byte	0x286
 6538 1478 30010000 		.4byte	0x130
 6539 147c 5E0C0000 		.4byte	.LLST88
 6540 1480 1B       		.uleb128 0x1b
 6541 1481 0C000000 		.4byte	.LVL269
 6542 1485 ED130000 		.4byte	0x13ed
 6543 1489 94140000 		.4byte	0x1494
 6544 148d 11       		.uleb128 0x11
 6545 148e 01       		.uleb128 0x1
 6546 148f 50       		.byte	0x50
 6547 1490 02       		.uleb128 0x2
 6548 1491 75       		.byte	0x75
 6549 1492 00       		.sleb128 0
 6550 1493 00       		.byte	0
 6551 1494 1B       		.uleb128 0x1b
 6552 1495 14000000 		.4byte	.LVL270
 6553 1499 93130000 		.4byte	0x1393
 6554 149d A8140000 		.4byte	0x14a8
 6555 14a1 11       		.uleb128 0x11
 6556 14a2 01       		.uleb128 0x1
 6557 14a3 50       		.byte	0x50
 6558 14a4 02       		.uleb128 0x2
 6559 14a5 75       		.byte	0x75
 6560 14a6 00       		.sleb128 0
 6561 14a7 00       		.byte	0
 6562 14a8 1B       		.uleb128 0x1b
ARM GAS  C:\Users\GYULAI~1\AppData\Local\Temp\ccG7iLma.s 			page 139


 6563 14a9 1C000000 		.4byte	.LVL271
 6564 14ad 59130000 		.4byte	0x1359
 6565 14b1 BC140000 		.4byte	0x14bc
 6566 14b5 11       		.uleb128 0x11
 6567 14b6 01       		.uleb128 0x1
 6568 14b7 50       		.byte	0x50
 6569 14b8 02       		.uleb128 0x2
 6570 14b9 75       		.byte	0x75
 6571 14ba 00       		.sleb128 0
 6572 14bb 00       		.byte	0
 6573 14bc 1B       		.uleb128 0x1b
 6574 14bd 24000000 		.4byte	.LVL272
 6575 14c1 FF120000 		.4byte	0x12ff
 6576 14c5 D0140000 		.4byte	0x14d0
 6577 14c9 11       		.uleb128 0x11
 6578 14ca 01       		.uleb128 0x1
 6579 14cb 50       		.byte	0x50
 6580 14cc 02       		.uleb128 0x2
 6581 14cd 75       		.byte	0x75
 6582 14ce 00       		.sleb128 0
 6583 14cf 00       		.byte	0
 6584 14d0 1B       		.uleb128 0x1b
 6585 14d1 2C000000 		.4byte	.LVL273
 6586 14d5 A5120000 		.4byte	0x12a5
 6587 14d9 E4140000 		.4byte	0x14e4
 6588 14dd 11       		.uleb128 0x11
 6589 14de 01       		.uleb128 0x1
 6590 14df 50       		.byte	0x50
 6591 14e0 02       		.uleb128 0x2
 6592 14e1 75       		.byte	0x75
 6593 14e2 00       		.sleb128 0
 6594 14e3 00       		.byte	0
 6595 14e4 16       		.uleb128 0x16
 6596 14e5 34000000 		.4byte	.LVL274
 6597 14e9 4B120000 		.4byte	0x124b
 6598 14ed 11       		.uleb128 0x11
 6599 14ee 01       		.uleb128 0x1
 6600 14ef 50       		.byte	0x50
 6601 14f0 02       		.uleb128 0x2
 6602 14f1 75       		.byte	0x75
 6603 14f2 00       		.sleb128 0
 6604 14f3 00       		.byte	0
 6605 14f4 00       		.byte	0
 6606 14f5 23       		.uleb128 0x23
 6607 14f6 8F050000 		.4byte	.LASF133
 6608 14fa 01       		.byte	0x1
 6609 14fb 0003     		.2byte	0x300
 6610 14fd B9000000 		.4byte	0xb9
 6611 1501 00000000 		.4byte	.LFB52
 6612 1505 10000000 		.4byte	.LFE52-.LFB52
 6613 1509 01       		.uleb128 0x1
 6614 150a 9C       		.byte	0x9c
 6615 150b 21       		.uleb128 0x21
 6616 150c D1050000 		.4byte	.LASF134
 6617 1510 01       		.byte	0x1
 6618 1511 0603     		.2byte	0x306
 6619 1513 B9000000 		.4byte	0xb9
ARM GAS  C:\Users\GYULAI~1\AppData\Local\Temp\ccG7iLma.s 			page 140


 6620 1517 00000000 		.4byte	.LFB53
 6621 151b 28000000 		.4byte	.LFE53-.LFB53
 6622 151f 01       		.uleb128 0x1
 6623 1520 9C       		.byte	0x9c
 6624 1521 35150000 		.4byte	0x1535
 6625 1525 24       		.uleb128 0x24
 6626 1526 696400   		.ascii	"id\000"
 6627 1529 01       		.byte	0x1
 6628 152a 0603     		.2byte	0x306
 6629 152c B9000000 		.4byte	0xb9
 6630 1530 7E0C0000 		.4byte	.LLST89
 6631 1534 00       		.byte	0
 6632 1535 21       		.uleb128 0x21
 6633 1536 B2040000 		.4byte	.LASF135
 6634 153a 01       		.byte	0x1
 6635 153b 1003     		.2byte	0x310
 6636 153d B9000000 		.4byte	0xb9
 6637 1541 00000000 		.4byte	.LFB54
 6638 1545 28000000 		.4byte	.LFE54-.LFB54
 6639 1549 01       		.uleb128 0x1
 6640 154a 9C       		.byte	0x9c
 6641 154b 5F150000 		.4byte	0x155f
 6642 154f 24       		.uleb128 0x24
 6643 1550 696400   		.ascii	"id\000"
 6644 1553 01       		.byte	0x1
 6645 1554 1003     		.2byte	0x310
 6646 1556 B9000000 		.4byte	0xb9
 6647 155a D10C0000 		.4byte	.LLST90
 6648 155e 00       		.byte	0
 6649 155f 21       		.uleb128 0x21
 6650 1560 91040000 		.4byte	.LASF136
 6651 1564 01       		.byte	0x1
 6652 1565 1A03     		.2byte	0x31a
 6653 1567 B9000000 		.4byte	0xb9
 6654 156b 00000000 		.4byte	.LFB55
 6655 156f 4C000000 		.4byte	.LFE55-.LFB55
 6656 1573 01       		.uleb128 0x1
 6657 1574 9C       		.byte	0x9c
 6658 1575 DD150000 		.4byte	0x15dd
 6659 1579 24       		.uleb128 0x24
 6660 157a 696400   		.ascii	"id\000"
 6661 157d 01       		.byte	0x1
 6662 157e 1A03     		.2byte	0x31a
 6663 1580 B9000000 		.4byte	0xb9
 6664 1584 240D0000 		.4byte	.LLST91
 6665 1588 1F       		.uleb128 0x1f
 6666 1589 860A0000 		.4byte	.LASF70
 6667 158d 01       		.byte	0x1
 6668 158e 2103     		.2byte	0x321
 6669 1590 B9000000 		.4byte	0xb9
 6670 1594 450D0000 		.4byte	.LLST92
 6671 1598 1B       		.uleb128 0x1b
 6672 1599 14000000 		.4byte	.LVL289
 6673 159d 33030000 		.4byte	0x333
 6674 15a1 BC150000 		.4byte	0x15bc
 6675 15a5 11       		.uleb128 0x11
 6676 15a6 01       		.uleb128 0x1
ARM GAS  C:\Users\GYULAI~1\AppData\Local\Temp\ccG7iLma.s 			page 141


 6677 15a7 50       		.byte	0x50
 6678 15a8 02       		.uleb128 0x2
 6679 15a9 09       		.byte	0x9
 6680 15aa DE       		.byte	0xde
 6681 15ab 11       		.uleb128 0x11
 6682 15ac 01       		.uleb128 0x1
 6683 15ad 51       		.byte	0x51
 6684 15ae 01       		.uleb128 0x1
 6685 15af 3D       		.byte	0x3d
 6686 15b0 11       		.uleb128 0x11
 6687 15b1 01       		.uleb128 0x1
 6688 15b2 52       		.byte	0x52
 6689 15b3 02       		.uleb128 0x2
 6690 15b4 74       		.byte	0x74
 6691 15b5 1C       		.sleb128 28
 6692 15b6 11       		.uleb128 0x11
 6693 15b7 01       		.uleb128 0x1
 6694 15b8 53       		.byte	0x53
 6695 15b9 01       		.uleb128 0x1
 6696 15ba 31       		.byte	0x31
 6697 15bb 00       		.byte	0
 6698 15bc 16       		.uleb128 0x16
 6699 15bd 22000000 		.4byte	.LVL290
 6700 15c1 33030000 		.4byte	0x333
 6701 15c5 11       		.uleb128 0x11
 6702 15c6 01       		.uleb128 0x1
 6703 15c7 50       		.byte	0x50
 6704 15c8 02       		.uleb128 0x2
 6705 15c9 09       		.byte	0x9
 6706 15ca DE       		.byte	0xde
 6707 15cb 11       		.uleb128 0x11
 6708 15cc 01       		.uleb128 0x1
 6709 15cd 51       		.byte	0x51
 6710 15ce 01       		.uleb128 0x1
 6711 15cf 44       		.byte	0x44
 6712 15d0 11       		.uleb128 0x11
 6713 15d1 01       		.uleb128 0x1
 6714 15d2 52       		.byte	0x52
 6715 15d3 02       		.uleb128 0x2
 6716 15d4 74       		.byte	0x74
 6717 15d5 22       		.sleb128 34
 6718 15d6 11       		.uleb128 0x11
 6719 15d7 01       		.uleb128 0x1
 6720 15d8 53       		.byte	0x53
 6721 15d9 01       		.uleb128 0x1
 6722 15da 31       		.byte	0x31
 6723 15db 00       		.byte	0
 6724 15dc 00       		.byte	0
 6725 15dd 1D       		.uleb128 0x1d
 6726 15de CF080000 		.4byte	.LASF137
 6727 15e2 01       		.byte	0x1
 6728 15e3 4403     		.2byte	0x344
 6729 15e5 00000000 		.4byte	.LFB57
 6730 15e9 38000000 		.4byte	.LFE57-.LFB57
 6731 15ed 01       		.uleb128 0x1
 6732 15ee 9C       		.byte	0x9c
 6733 15ef 3F160000 		.4byte	0x163f
ARM GAS  C:\Users\GYULAI~1\AppData\Local\Temp\ccG7iLma.s 			page 142


 6734 15f3 25       		.uleb128 0x25
 6735 15f4 696400   		.ascii	"id\000"
 6736 15f7 01       		.byte	0x1
 6737 15f8 4403     		.2byte	0x344
 6738 15fa B9000000 		.4byte	0xb9
 6739 15fe 01       		.uleb128 0x1
 6740 15ff 50       		.byte	0x50
 6741 1600 1E       		.uleb128 0x1e
 6742 1601 55060000 		.4byte	.LASF83
 6743 1605 01       		.byte	0x1
 6744 1606 4403     		.2byte	0x344
 6745 1608 B9000000 		.4byte	0xb9
 6746 160c AB0D0000 		.4byte	.LLST93
 6747 1610 1F       		.uleb128 0x1f
 6748 1611 940A0000 		.4byte	.LASF71
 6749 1615 01       		.byte	0x1
 6750 1616 4703     		.2byte	0x347
 6751 1618 B9000000 		.4byte	0xb9
 6752 161c CC0D0000 		.4byte	.LLST94
 6753 1620 1F       		.uleb128 0x1f
 6754 1621 A9050000 		.4byte	.LASF72
 6755 1625 01       		.byte	0x1
 6756 1626 4803     		.2byte	0x348
 6757 1628 B9000000 		.4byte	0xb9
 6758 162c DF0D0000 		.4byte	.LLST95
 6759 1630 20       		.uleb128 0x20
 6760 1631 860A0000 		.4byte	.LASF70
 6761 1635 01       		.byte	0x1
 6762 1636 4903     		.2byte	0x349
 6763 1638 B9000000 		.4byte	0xb9
 6764 163c 01       		.uleb128 0x1
 6765 163d 51       		.byte	0x51
 6766 163e 00       		.byte	0
 6767 163f 1D       		.uleb128 0x1d
 6768 1640 7F070000 		.4byte	.LASF138
 6769 1644 01       		.byte	0x1
 6770 1645 5303     		.2byte	0x353
 6771 1647 00000000 		.4byte	.LFB58
 6772 164b 3C000000 		.4byte	.LFE58-.LFB58
 6773 164f 01       		.uleb128 0x1
 6774 1650 9C       		.byte	0x9c
 6775 1651 A1160000 		.4byte	0x16a1
 6776 1655 25       		.uleb128 0x25
 6777 1656 696400   		.ascii	"id\000"
 6778 1659 01       		.byte	0x1
 6779 165a 5303     		.2byte	0x353
 6780 165c B9000000 		.4byte	0xb9
 6781 1660 01       		.uleb128 0x1
 6782 1661 50       		.byte	0x50
 6783 1662 1E       		.uleb128 0x1e
 6784 1663 09070000 		.4byte	.LASF85
 6785 1667 01       		.byte	0x1
 6786 1668 5303     		.2byte	0x353
 6787 166a B9000000 		.4byte	0xb9
 6788 166e FD0D0000 		.4byte	.LLST96
 6789 1672 1F       		.uleb128 0x1f
 6790 1673 940A0000 		.4byte	.LASF71
ARM GAS  C:\Users\GYULAI~1\AppData\Local\Temp\ccG7iLma.s 			page 143


 6791 1677 01       		.byte	0x1
 6792 1678 5603     		.2byte	0x356
 6793 167a B9000000 		.4byte	0xb9
 6794 167e 1E0E0000 		.4byte	.LLST97
 6795 1682 1F       		.uleb128 0x1f
 6796 1683 A9050000 		.4byte	.LASF72
 6797 1687 01       		.byte	0x1
 6798 1688 5703     		.2byte	0x357
 6799 168a B9000000 		.4byte	0xb9
 6800 168e 310E0000 		.4byte	.LLST98
 6801 1692 20       		.uleb128 0x20
 6802 1693 860A0000 		.4byte	.LASF70
 6803 1697 01       		.byte	0x1
 6804 1698 5803     		.2byte	0x358
 6805 169a B9000000 		.4byte	0xb9
 6806 169e 01       		.uleb128 0x1
 6807 169f 51       		.byte	0x51
 6808 16a0 00       		.byte	0
 6809 16a1 1D       		.uleb128 0x1d
 6810 16a2 A6080000 		.4byte	.LASF139
 6811 16a6 01       		.byte	0x1
 6812 16a7 6203     		.2byte	0x362
 6813 16a9 00000000 		.4byte	.LFB59
 6814 16ad 3C000000 		.4byte	.LFE59-.LFB59
 6815 16b1 01       		.uleb128 0x1
 6816 16b2 9C       		.byte	0x9c
 6817 16b3 03170000 		.4byte	0x1703
 6818 16b7 25       		.uleb128 0x25
 6819 16b8 696400   		.ascii	"id\000"
 6820 16bb 01       		.byte	0x1
 6821 16bc 6203     		.2byte	0x362
 6822 16be B9000000 		.4byte	0xb9
 6823 16c2 01       		.uleb128 0x1
 6824 16c3 50       		.byte	0x50
 6825 16c4 1E       		.uleb128 0x1e
 6826 16c5 98070000 		.4byte	.LASF87
 6827 16c9 01       		.byte	0x1
 6828 16ca 6203     		.2byte	0x362
 6829 16cc B9000000 		.4byte	0xb9
 6830 16d0 4F0E0000 		.4byte	.LLST99
 6831 16d4 1F       		.uleb128 0x1f
 6832 16d5 940A0000 		.4byte	.LASF71
 6833 16d9 01       		.byte	0x1
 6834 16da 6503     		.2byte	0x365
 6835 16dc B9000000 		.4byte	0xb9
 6836 16e0 700E0000 		.4byte	.LLST100
 6837 16e4 1F       		.uleb128 0x1f
 6838 16e5 A9050000 		.4byte	.LASF72
 6839 16e9 01       		.byte	0x1
 6840 16ea 6603     		.2byte	0x366
 6841 16ec B9000000 		.4byte	0xb9
 6842 16f0 830E0000 		.4byte	.LLST101
 6843 16f4 20       		.uleb128 0x20
 6844 16f5 860A0000 		.4byte	.LASF70
 6845 16f9 01       		.byte	0x1
 6846 16fa 6703     		.2byte	0x367
 6847 16fc B9000000 		.4byte	0xb9
ARM GAS  C:\Users\GYULAI~1\AppData\Local\Temp\ccG7iLma.s 			page 144


 6848 1700 01       		.uleb128 0x1
 6849 1701 51       		.byte	0x51
 6850 1702 00       		.byte	0
 6851 1703 1D       		.uleb128 0x1d
 6852 1704 AB020000 		.4byte	.LASF140
 6853 1708 01       		.byte	0x1
 6854 1709 7103     		.2byte	0x371
 6855 170b 00000000 		.4byte	.LFB60
 6856 170f 2C000000 		.4byte	.LFE60-.LFB60
 6857 1713 01       		.uleb128 0x1
 6858 1714 9C       		.byte	0x9c
 6859 1715 37170000 		.4byte	0x1737
 6860 1719 25       		.uleb128 0x25
 6861 171a 696400   		.ascii	"id\000"
 6862 171d 01       		.byte	0x1
 6863 171e 7103     		.2byte	0x371
 6864 1720 B9000000 		.4byte	0xb9
 6865 1724 01       		.uleb128 0x1
 6866 1725 50       		.byte	0x50
 6867 1726 1E       		.uleb128 0x1e
 6868 1727 CB090000 		.4byte	.LASF21
 6869 172b 01       		.byte	0x1
 6870 172c 7103     		.2byte	0x371
 6871 172e B9000000 		.4byte	0xb9
 6872 1732 A10E0000 		.4byte	.LLST102
 6873 1736 00       		.byte	0
 6874 1737 1D       		.uleb128 0x1d
 6875 1738 86080000 		.4byte	.LASF141
 6876 173c 01       		.byte	0x1
 6877 173d 7F03     		.2byte	0x37f
 6878 173f 00000000 		.4byte	.LFB61
 6879 1743 3C000000 		.4byte	.LFE61-.LFB61
 6880 1747 01       		.uleb128 0x1
 6881 1748 9C       		.byte	0x9c
 6882 1749 99170000 		.4byte	0x1799
 6883 174d 25       		.uleb128 0x25
 6884 174e 696400   		.ascii	"id\000"
 6885 1751 01       		.byte	0x1
 6886 1752 7F03     		.2byte	0x37f
 6887 1754 B9000000 		.4byte	0xb9
 6888 1758 01       		.uleb128 0x1
 6889 1759 50       		.byte	0x50
 6890 175a 1E       		.uleb128 0x1e
 6891 175b 0E050000 		.4byte	.LASF20
 6892 175f 01       		.byte	0x1
 6893 1760 7F03     		.2byte	0x37f
 6894 1762 B9000000 		.4byte	0xb9
 6895 1766 DB0E0000 		.4byte	.LLST103
 6896 176a 1F       		.uleb128 0x1f
 6897 176b 940A0000 		.4byte	.LASF71
 6898 176f 01       		.byte	0x1
 6899 1770 8203     		.2byte	0x382
 6900 1772 B9000000 		.4byte	0xb9
 6901 1776 FC0E0000 		.4byte	.LLST104
 6902 177a 1F       		.uleb128 0x1f
 6903 177b A9050000 		.4byte	.LASF72
 6904 177f 01       		.byte	0x1
ARM GAS  C:\Users\GYULAI~1\AppData\Local\Temp\ccG7iLma.s 			page 145


 6905 1780 8303     		.2byte	0x383
 6906 1782 B9000000 		.4byte	0xb9
 6907 1786 0F0F0000 		.4byte	.LLST105
 6908 178a 20       		.uleb128 0x20
 6909 178b 860A0000 		.4byte	.LASF70
 6910 178f 01       		.byte	0x1
 6911 1790 8403     		.2byte	0x384
 6912 1792 B9000000 		.4byte	0xb9
 6913 1796 01       		.uleb128 0x1
 6914 1797 51       		.byte	0x51
 6915 1798 00       		.byte	0
 6916 1799 1D       		.uleb128 0x1d
 6917 179a 8B0B0000 		.4byte	.LASF142
 6918 179e 01       		.byte	0x1
 6919 179f 8E03     		.2byte	0x38e
 6920 17a1 00000000 		.4byte	.LFB62
 6921 17a5 3C000000 		.4byte	.LFE62-.LFB62
 6922 17a9 01       		.uleb128 0x1
 6923 17aa 9C       		.byte	0x9c
 6924 17ab FB170000 		.4byte	0x17fb
 6925 17af 25       		.uleb128 0x25
 6926 17b0 696400   		.ascii	"id\000"
 6927 17b3 01       		.byte	0x1
 6928 17b4 8E03     		.2byte	0x38e
 6929 17b6 B9000000 		.4byte	0xb9
 6930 17ba 01       		.uleb128 0x1
 6931 17bb 50       		.byte	0x50
 6932 17bc 1E       		.uleb128 0x1e
 6933 17bd 75030000 		.4byte	.LASF91
 6934 17c1 01       		.byte	0x1
 6935 17c2 8E03     		.2byte	0x38e
 6936 17c4 B9000000 		.4byte	0xb9
 6937 17c8 2D0F0000 		.4byte	.LLST106
 6938 17cc 1F       		.uleb128 0x1f
 6939 17cd 940A0000 		.4byte	.LASF71
 6940 17d1 01       		.byte	0x1
 6941 17d2 9103     		.2byte	0x391
 6942 17d4 B9000000 		.4byte	0xb9
 6943 17d8 4E0F0000 		.4byte	.LLST107
 6944 17dc 1F       		.uleb128 0x1f
 6945 17dd A9050000 		.4byte	.LASF72
 6946 17e1 01       		.byte	0x1
 6947 17e2 9203     		.2byte	0x392
 6948 17e4 B9000000 		.4byte	0xb9
 6949 17e8 610F0000 		.4byte	.LLST108
 6950 17ec 20       		.uleb128 0x20
 6951 17ed 860A0000 		.4byte	.LASF70
 6952 17f1 01       		.byte	0x1
 6953 17f2 9303     		.2byte	0x393
 6954 17f4 B9000000 		.4byte	0xb9
 6955 17f8 01       		.uleb128 0x1
 6956 17f9 51       		.byte	0x51
 6957 17fa 00       		.byte	0
 6958 17fb 1D       		.uleb128 0x1d
 6959 17fc 5B070000 		.4byte	.LASF143
 6960 1800 01       		.byte	0x1
 6961 1801 2F03     		.2byte	0x32f
ARM GAS  C:\Users\GYULAI~1\AppData\Local\Temp\ccG7iLma.s 			page 146


 6962 1803 00000000 		.4byte	.LFB56
 6963 1807 70000000 		.4byte	.LFE56-.LFB56
 6964 180b 01       		.uleb128 0x1
 6965 180c 9C       		.byte	0x9c
 6966 180d 22190000 		.4byte	0x1922
 6967 1811 24       		.uleb128 0x24
 6968 1812 696400   		.ascii	"id\000"
 6969 1815 01       		.byte	0x1
 6970 1816 2F03     		.2byte	0x32f
 6971 1818 B9000000 		.4byte	0xb9
 6972 181c 7F0F0000 		.4byte	.LLST109
 6973 1820 26       		.uleb128 0x26
 6974 1821 E00A0000 		.4byte	.LASF122
 6975 1825 01       		.byte	0x1
 6976 1826 2F03     		.2byte	0x32f
 6977 1828 30010000 		.4byte	0x130
 6978 182c 02       		.uleb128 0x2
 6979 182d 91       		.byte	0x91
 6980 182e 70       		.sleb128 -16
 6981 182f 1B       		.uleb128 0x1b
 6982 1830 14000000 		.4byte	.LVL342
 6983 1834 DD150000 		.4byte	0x15dd
 6984 1838 4B180000 		.4byte	0x184b
 6985 183c 11       		.uleb128 0x11
 6986 183d 01       		.uleb128 0x1
 6987 183e 50       		.byte	0x50
 6988 183f 02       		.uleb128 0x2
 6989 1840 74       		.byte	0x74
 6990 1841 00       		.sleb128 0
 6991 1842 11       		.uleb128 0x11
 6992 1843 01       		.uleb128 0x1
 6993 1844 51       		.byte	0x51
 6994 1845 04       		.uleb128 0x4
 6995 1846 91       		.byte	0x91
 6996 1847 77       		.sleb128 -9
 6997 1848 94       		.byte	0x94
 6998 1849 01       		.byte	0x1
 6999 184a 00       		.byte	0
 7000 184b 1B       		.uleb128 0x1b
 7001 184c 1E000000 		.4byte	.LVL343
 7002 1850 3F160000 		.4byte	0x163f
 7003 1854 67180000 		.4byte	0x1867
 7004 1858 11       		.uleb128 0x11
 7005 1859 01       		.uleb128 0x1
 7006 185a 50       		.byte	0x50
 7007 185b 02       		.uleb128 0x2
 7008 185c 74       		.byte	0x74
 7009 185d 00       		.sleb128 0
 7010 185e 11       		.uleb128 0x11
 7011 185f 01       		.uleb128 0x1
 7012 1860 51       		.byte	0x51
 7013 1861 04       		.uleb128 0x4
 7014 1862 91       		.byte	0x91
 7015 1863 76       		.sleb128 -10
 7016 1864 94       		.byte	0x94
 7017 1865 01       		.byte	0x1
 7018 1866 00       		.byte	0
ARM GAS  C:\Users\GYULAI~1\AppData\Local\Temp\ccG7iLma.s 			page 147


 7019 1867 1B       		.uleb128 0x1b
 7020 1868 28000000 		.4byte	.LVL344
 7021 186c A1160000 		.4byte	0x16a1
 7022 1870 83180000 		.4byte	0x1883
 7023 1874 11       		.uleb128 0x11
 7024 1875 01       		.uleb128 0x1
 7025 1876 50       		.byte	0x50
 7026 1877 02       		.uleb128 0x2
 7027 1878 74       		.byte	0x74
 7028 1879 00       		.sleb128 0
 7029 187a 11       		.uleb128 0x11
 7030 187b 01       		.uleb128 0x1
 7031 187c 51       		.byte	0x51
 7032 187d 04       		.uleb128 0x4
 7033 187e 91       		.byte	0x91
 7034 187f 75       		.sleb128 -11
 7035 1880 94       		.byte	0x94
 7036 1881 01       		.byte	0x1
 7037 1882 00       		.byte	0
 7038 1883 1B       		.uleb128 0x1b
 7039 1884 32000000 		.4byte	.LVL345
 7040 1888 03170000 		.4byte	0x1703
 7041 188c 9F180000 		.4byte	0x189f
 7042 1890 11       		.uleb128 0x11
 7043 1891 01       		.uleb128 0x1
 7044 1892 50       		.byte	0x50
 7045 1893 02       		.uleb128 0x2
 7046 1894 74       		.byte	0x74
 7047 1895 00       		.sleb128 0
 7048 1896 11       		.uleb128 0x11
 7049 1897 01       		.uleb128 0x1
 7050 1898 51       		.byte	0x51
 7051 1899 04       		.uleb128 0x4
 7052 189a 91       		.byte	0x91
 7053 189b 74       		.sleb128 -12
 7054 189c 94       		.byte	0x94
 7055 189d 01       		.byte	0x1
 7056 189e 00       		.byte	0
 7057 189f 1B       		.uleb128 0x1b
 7058 18a0 3C000000 		.4byte	.LVL346
 7059 18a4 37170000 		.4byte	0x1737
 7060 18a8 BB180000 		.4byte	0x18bb
 7061 18ac 11       		.uleb128 0x11
 7062 18ad 01       		.uleb128 0x1
 7063 18ae 50       		.byte	0x50
 7064 18af 02       		.uleb128 0x2
 7065 18b0 74       		.byte	0x74
 7066 18b1 00       		.sleb128 0
 7067 18b2 11       		.uleb128 0x11
 7068 18b3 01       		.uleb128 0x1
 7069 18b4 51       		.byte	0x51
 7070 18b5 04       		.uleb128 0x4
 7071 18b6 91       		.byte	0x91
 7072 18b7 73       		.sleb128 -13
 7073 18b8 94       		.byte	0x94
 7074 18b9 01       		.byte	0x1
 7075 18ba 00       		.byte	0
ARM GAS  C:\Users\GYULAI~1\AppData\Local\Temp\ccG7iLma.s 			page 148


 7076 18bb 1B       		.uleb128 0x1b
 7077 18bc 46000000 		.4byte	.LVL347
 7078 18c0 99170000 		.4byte	0x1799
 7079 18c4 D7180000 		.4byte	0x18d7
 7080 18c8 11       		.uleb128 0x11
 7081 18c9 01       		.uleb128 0x1
 7082 18ca 50       		.byte	0x50
 7083 18cb 02       		.uleb128 0x2
 7084 18cc 74       		.byte	0x74
 7085 18cd 00       		.sleb128 0
 7086 18ce 11       		.uleb128 0x11
 7087 18cf 01       		.uleb128 0x1
 7088 18d0 51       		.byte	0x51
 7089 18d1 04       		.uleb128 0x4
 7090 18d2 91       		.byte	0x91
 7091 18d3 72       		.sleb128 -14
 7092 18d4 94       		.byte	0x94
 7093 18d5 01       		.byte	0x1
 7094 18d6 00       		.byte	0
 7095 18d7 1B       		.uleb128 0x1b
 7096 18d8 54000000 		.4byte	.LVL348
 7097 18dc F8030000 		.4byte	0x3f8
 7098 18e0 FE180000 		.4byte	0x18fe
 7099 18e4 11       		.uleb128 0x11
 7100 18e5 01       		.uleb128 0x1
 7101 18e6 50       		.byte	0x50
 7102 18e7 02       		.uleb128 0x2
 7103 18e8 09       		.byte	0x9
 7104 18e9 DE       		.byte	0xde
 7105 18ea 11       		.uleb128 0x11
 7106 18eb 01       		.uleb128 0x1
 7107 18ec 51       		.byte	0x51
 7108 18ed 01       		.uleb128 0x1
 7109 18ee 3A       		.byte	0x3a
 7110 18ef 11       		.uleb128 0x11
 7111 18f0 01       		.uleb128 0x1
 7112 18f1 52       		.byte	0x52
 7113 18f2 05       		.uleb128 0x5
 7114 18f3 03       		.byte	0x3
 7115 18f4 19000000 		.4byte	.LANCHOR0+25
 7116 18f8 11       		.uleb128 0x11
 7117 18f9 01       		.uleb128 0x1
 7118 18fa 53       		.byte	0x53
 7119 18fb 01       		.uleb128 0x1
 7120 18fc 36       		.byte	0x36
 7121 18fd 00       		.byte	0
 7122 18fe 16       		.uleb128 0x16
 7123 18ff 66000000 		.4byte	.LVL349
 7124 1903 F8030000 		.4byte	0x3f8
 7125 1907 11       		.uleb128 0x11
 7126 1908 01       		.uleb128 0x1
 7127 1909 50       		.byte	0x50
 7128 190a 02       		.uleb128 0x2
 7129 190b 09       		.byte	0x9
 7130 190c DE       		.byte	0xde
 7131 190d 11       		.uleb128 0x11
 7132 190e 01       		.uleb128 0x1
ARM GAS  C:\Users\GYULAI~1\AppData\Local\Temp\ccG7iLma.s 			page 149


 7133 190f 51       		.byte	0x51
 7134 1910 01       		.uleb128 0x1
 7135 1911 3A       		.byte	0x3a
 7136 1912 11       		.uleb128 0x11
 7137 1913 01       		.uleb128 0x1
 7138 1914 52       		.byte	0x52
 7139 1915 05       		.uleb128 0x5
 7140 1916 03       		.byte	0x3
 7141 1917 19000000 		.4byte	.LANCHOR0+25
 7142 191b 11       		.uleb128 0x11
 7143 191c 01       		.uleb128 0x1
 7144 191d 53       		.byte	0x53
 7145 191e 01       		.uleb128 0x1
 7146 191f 36       		.byte	0x36
 7147 1920 00       		.byte	0
 7148 1921 00       		.byte	0
 7149 1922 1D       		.uleb128 0x1d
 7150 1923 1D0B0000 		.4byte	.LASF144
 7151 1927 01       		.byte	0x1
 7152 1928 9D03     		.2byte	0x39d
 7153 192a 00000000 		.4byte	.LFB63
 7154 192e 20000000 		.4byte	.LFE63-.LFB63
 7155 1932 01       		.uleb128 0x1
 7156 1933 9C       		.byte	0x9c
 7157 1934 6C190000 		.4byte	0x196c
 7158 1938 1E       		.uleb128 0x1e
 7159 1939 CC060000 		.4byte	.LASF145
 7160 193d 01       		.byte	0x1
 7161 193e 9D03     		.2byte	0x39d
 7162 1940 B9000000 		.4byte	0xb9
 7163 1944 A00F0000 		.4byte	.LLST110
 7164 1948 16       		.uleb128 0x16
 7165 1949 1A000000 		.4byte	.LVL352
 7166 194d F8030000 		.4byte	0x3f8
 7167 1951 11       		.uleb128 0x11
 7168 1952 01       		.uleb128 0x1
 7169 1953 50       		.byte	0x50
 7170 1954 02       		.uleb128 0x2
 7171 1955 09       		.byte	0x9
 7172 1956 DE       		.byte	0xde
 7173 1957 11       		.uleb128 0x11
 7174 1958 01       		.uleb128 0x1
 7175 1959 51       		.byte	0x51
 7176 195a 01       		.uleb128 0x1
 7177 195b 3D       		.byte	0x3d
 7178 195c 11       		.uleb128 0x11
 7179 195d 01       		.uleb128 0x1
 7180 195e 52       		.byte	0x52
 7181 195f 05       		.uleb128 0x5
 7182 1960 03       		.byte	0x3
 7183 1961 1C000000 		.4byte	.LANCHOR0+28
 7184 1965 11       		.uleb128 0x11
 7185 1966 01       		.uleb128 0x1
 7186 1967 53       		.byte	0x53
 7187 1968 01       		.uleb128 0x1
 7188 1969 31       		.byte	0x31
 7189 196a 00       		.byte	0
ARM GAS  C:\Users\GYULAI~1\AppData\Local\Temp\ccG7iLma.s 			page 150


 7190 196b 00       		.byte	0
 7191 196c 1D       		.uleb128 0x1d
 7192 196d 090A0000 		.4byte	.LASF146
 7193 1971 01       		.byte	0x1
 7194 1972 A703     		.2byte	0x3a7
 7195 1974 00000000 		.4byte	.LFB64
 7196 1978 40000000 		.4byte	.LFE64-.LFB64
 7197 197c 01       		.uleb128 0x1
 7198 197d 9C       		.byte	0x9c
 7199 197e A0190000 		.4byte	0x19a0
 7200 1982 25       		.uleb128 0x25
 7201 1983 696400   		.ascii	"id\000"
 7202 1986 01       		.byte	0x1
 7203 1987 A703     		.2byte	0x3a7
 7204 1989 B9000000 		.4byte	0xb9
 7205 198d 01       		.uleb128 0x1
 7206 198e 50       		.byte	0x50
 7207 198f 1E       		.uleb128 0x1e
 7208 1990 94090000 		.4byte	.LASF102
 7209 1994 01       		.byte	0x1
 7210 1995 A703     		.2byte	0x3a7
 7211 1997 B9000000 		.4byte	0xb9
 7212 199b C10F0000 		.4byte	.LLST111
 7213 199f 00       		.byte	0
 7214 19a0 1D       		.uleb128 0x1d
 7215 19a1 56090000 		.4byte	.LASF147
 7216 19a5 01       		.byte	0x1
 7217 19a6 C003     		.2byte	0x3c0
 7218 19a8 00000000 		.4byte	.LFB65
 7219 19ac 24000000 		.4byte	.LFE65-.LFB65
 7220 19b0 01       		.uleb128 0x1
 7221 19b1 9C       		.byte	0x9c
 7222 19b2 C4190000 		.4byte	0x19c4
 7223 19b6 25       		.uleb128 0x25
 7224 19b7 696400   		.ascii	"id\000"
 7225 19ba 01       		.byte	0x1
 7226 19bb C003     		.2byte	0x3c0
 7227 19bd B9000000 		.4byte	0xb9
 7228 19c1 01       		.uleb128 0x1
 7229 19c2 50       		.byte	0x50
 7230 19c3 00       		.byte	0
 7231 19c4 21       		.uleb128 0x21
 7232 19c5 6C090000 		.4byte	.LASF148
 7233 19c9 01       		.byte	0x1
 7234 19ca E203     		.2byte	0x3e2
 7235 19cc B9000000 		.4byte	0xb9
 7236 19d0 00000000 		.4byte	.LFB67
 7237 19d4 20000000 		.4byte	.LFE67-.LFB67
 7238 19d8 01       		.uleb128 0x1
 7239 19d9 9C       		.byte	0x9c
 7240 19da 0F1A0000 		.4byte	0x1a0f
 7241 19de 1F       		.uleb128 0x1f
 7242 19df 860A0000 		.4byte	.LASF70
 7243 19e3 01       		.byte	0x1
 7244 19e4 E503     		.2byte	0x3e5
 7245 19e6 B9000000 		.4byte	0xb9
 7246 19ea FB0F0000 		.4byte	.LLST112
ARM GAS  C:\Users\GYULAI~1\AppData\Local\Temp\ccG7iLma.s 			page 151


 7247 19ee 1F       		.uleb128 0x1f
 7248 19ef 940A0000 		.4byte	.LASF71
 7249 19f3 01       		.byte	0x1
 7250 19f4 E803     		.2byte	0x3e8
 7251 19f6 B9000000 		.4byte	0xb9
 7252 19fa 1D100000 		.4byte	.LLST113
 7253 19fe 1F       		.uleb128 0x1f
 7254 19ff A9050000 		.4byte	.LASF72
 7255 1a03 01       		.byte	0x1
 7256 1a04 E903     		.2byte	0x3e9
 7257 1a06 B9000000 		.4byte	0xb9
 7258 1a0a 44100000 		.4byte	.LLST114
 7259 1a0e 00       		.byte	0
 7260 1a0f 23       		.uleb128 0x23
 7261 1a10 27000000 		.4byte	.LASF149
 7262 1a14 01       		.byte	0x1
 7263 1a15 F003     		.2byte	0x3f0
 7264 1a17 B9000000 		.4byte	0xb9
 7265 1a1b 00000000 		.4byte	.LFB68
 7266 1a1f 10000000 		.4byte	.LFE68-.LFB68
 7267 1a23 01       		.uleb128 0x1
 7268 1a24 9C       		.byte	0x9c
 7269 1a25 21       		.uleb128 0x21
 7270 1a26 5C000000 		.4byte	.LASF150
 7271 1a2a 01       		.byte	0x1
 7272 1a2b F603     		.2byte	0x3f6
 7273 1a2d B9000000 		.4byte	0xb9
 7274 1a31 00000000 		.4byte	.LFB69
 7275 1a35 20000000 		.4byte	.LFE69-.LFB69
 7276 1a39 01       		.uleb128 0x1
 7277 1a3a 9C       		.byte	0x9c
 7278 1a3b 701A0000 		.4byte	0x1a70
 7279 1a3f 1F       		.uleb128 0x1f
 7280 1a40 860A0000 		.4byte	.LASF70
 7281 1a44 01       		.byte	0x1
 7282 1a45 F903     		.2byte	0x3f9
 7283 1a47 B9000000 		.4byte	0xb9
 7284 1a4b 80100000 		.4byte	.LLST115
 7285 1a4f 1F       		.uleb128 0x1f
 7286 1a50 940A0000 		.4byte	.LASF71
 7287 1a54 01       		.byte	0x1
 7288 1a55 FC03     		.2byte	0x3fc
 7289 1a57 B9000000 		.4byte	0xb9
 7290 1a5b A2100000 		.4byte	.LLST116
 7291 1a5f 1F       		.uleb128 0x1f
 7292 1a60 A9050000 		.4byte	.LASF72
 7293 1a64 01       		.byte	0x1
 7294 1a65 FD03     		.2byte	0x3fd
 7295 1a67 B9000000 		.4byte	0xb9
 7296 1a6b C9100000 		.4byte	.LLST117
 7297 1a6f 00       		.byte	0
 7298 1a70 21       		.uleb128 0x21
 7299 1a71 250A0000 		.4byte	.LASF151
 7300 1a75 01       		.byte	0x1
 7301 1a76 0404     		.2byte	0x404
 7302 1a78 B9000000 		.4byte	0xb9
 7303 1a7c 00000000 		.4byte	.LFB70
ARM GAS  C:\Users\GYULAI~1\AppData\Local\Temp\ccG7iLma.s 			page 152


 7304 1a80 20000000 		.4byte	.LFE70-.LFB70
 7305 1a84 01       		.uleb128 0x1
 7306 1a85 9C       		.byte	0x9c
 7307 1a86 BB1A0000 		.4byte	0x1abb
 7308 1a8a 1F       		.uleb128 0x1f
 7309 1a8b 860A0000 		.4byte	.LASF70
 7310 1a8f 01       		.byte	0x1
 7311 1a90 0704     		.2byte	0x407
 7312 1a92 B9000000 		.4byte	0xb9
 7313 1a96 06110000 		.4byte	.LLST118
 7314 1a9a 1F       		.uleb128 0x1f
 7315 1a9b 940A0000 		.4byte	.LASF71
 7316 1a9f 01       		.byte	0x1
 7317 1aa0 0A04     		.2byte	0x40a
 7318 1aa2 B9000000 		.4byte	0xb9
 7319 1aa6 28110000 		.4byte	.LLST119
 7320 1aaa 1F       		.uleb128 0x1f
 7321 1aab A9050000 		.4byte	.LASF72
 7322 1aaf 01       		.byte	0x1
 7323 1ab0 0B04     		.2byte	0x40b
 7324 1ab2 B9000000 		.4byte	0xb9
 7325 1ab6 4F110000 		.4byte	.LLST120
 7326 1aba 00       		.byte	0
 7327 1abb 21       		.uleb128 0x21
 7328 1abc 73050000 		.4byte	.LASF152
 7329 1ac0 01       		.byte	0x1
 7330 1ac1 1204     		.2byte	0x412
 7331 1ac3 B9000000 		.4byte	0xb9
 7332 1ac7 00000000 		.4byte	.LFB71
 7333 1acb 20000000 		.4byte	.LFE71-.LFB71
 7334 1acf 01       		.uleb128 0x1
 7335 1ad0 9C       		.byte	0x9c
 7336 1ad1 061B0000 		.4byte	0x1b06
 7337 1ad5 1F       		.uleb128 0x1f
 7338 1ad6 860A0000 		.4byte	.LASF70
 7339 1ada 01       		.byte	0x1
 7340 1adb 1504     		.2byte	0x415
 7341 1add B9000000 		.4byte	0xb9
 7342 1ae1 8C110000 		.4byte	.LLST121
 7343 1ae5 1F       		.uleb128 0x1f
 7344 1ae6 940A0000 		.4byte	.LASF71
 7345 1aea 01       		.byte	0x1
 7346 1aeb 1804     		.2byte	0x418
 7347 1aed B9000000 		.4byte	0xb9
 7348 1af1 AE110000 		.4byte	.LLST122
 7349 1af5 1F       		.uleb128 0x1f
 7350 1af6 A9050000 		.4byte	.LASF72
 7351 1afa 01       		.byte	0x1
 7352 1afb 1904     		.2byte	0x419
 7353 1afd B9000000 		.4byte	0xb9
 7354 1b01 D5110000 		.4byte	.LLST123
 7355 1b05 00       		.byte	0
 7356 1b06 21       		.uleb128 0x21
 7357 1b07 09000000 		.4byte	.LASF153
 7358 1b0b 01       		.byte	0x1
 7359 1b0c CD03     		.2byte	0x3cd
 7360 1b0e 30010000 		.4byte	0x130
ARM GAS  C:\Users\GYULAI~1\AppData\Local\Temp\ccG7iLma.s 			page 153


 7361 1b12 00000000 		.4byte	.LFB66
 7362 1b16 3C000000 		.4byte	.LFE66-.LFB66
 7363 1b1a 01       		.uleb128 0x1
 7364 1b1b 9C       		.byte	0x9c
 7365 1b1c 851B0000 		.4byte	0x1b85
 7366 1b20 1F       		.uleb128 0x1f
 7367 1b21 E00A0000 		.4byte	.LASF122
 7368 1b25 01       		.byte	0x1
 7369 1b26 D403     		.2byte	0x3d4
 7370 1b28 30010000 		.4byte	0x130
 7371 1b2c 12120000 		.4byte	.LLST124
 7372 1b30 1B       		.uleb128 0x1b
 7373 1b31 10000000 		.4byte	.LVL380
 7374 1b35 33030000 		.4byte	0x333
 7375 1b39 571B0000 		.4byte	0x1b57
 7376 1b3d 11       		.uleb128 0x11
 7377 1b3e 01       		.uleb128 0x1
 7378 1b3f 50       		.byte	0x50
 7379 1b40 02       		.uleb128 0x2
 7380 1b41 09       		.byte	0x9
 7381 1b42 DE       		.byte	0xde
 7382 1b43 11       		.uleb128 0x11
 7383 1b44 01       		.uleb128 0x1
 7384 1b45 51       		.byte	0x51
 7385 1b46 01       		.uleb128 0x1
 7386 1b47 48       		.byte	0x48
 7387 1b48 11       		.uleb128 0x11
 7388 1b49 01       		.uleb128 0x1
 7389 1b4a 52       		.byte	0x52
 7390 1b4b 05       		.uleb128 0x5
 7391 1b4c 03       		.byte	0x3
 7392 1b4d 25000000 		.4byte	.LANCHOR0+37
 7393 1b51 11       		.uleb128 0x11
 7394 1b52 01       		.uleb128 0x1
 7395 1b53 53       		.byte	0x53
 7396 1b54 01       		.uleb128 0x1
 7397 1b55 34       		.byte	0x34
 7398 1b56 00       		.byte	0
 7399 1b57 1C       		.uleb128 0x1c
 7400 1b58 18000000 		.4byte	.LVL381
 7401 1b5c C4190000 		.4byte	0x19c4
 7402 1b60 1C       		.uleb128 0x1c
 7403 1b61 1E000000 		.4byte	.LVL382
 7404 1b65 251A0000 		.4byte	0x1a25
 7405 1b69 1C       		.uleb128 0x1c
 7406 1b6a 24000000 		.4byte	.LVL383
 7407 1b6e 0F1A0000 		.4byte	0x1a0f
 7408 1b72 1C       		.uleb128 0x1c
 7409 1b73 2A000000 		.4byte	.LVL384
 7410 1b77 701A0000 		.4byte	0x1a70
 7411 1b7b 1C       		.uleb128 0x1c
 7412 1b7c 30000000 		.4byte	.LVL385
 7413 1b80 BB1A0000 		.4byte	0x1abb
 7414 1b84 00       		.byte	0
 7415 1b85 21       		.uleb128 0x21
 7416 1b86 990A0000 		.4byte	.LASF154
 7417 1b8a 01       		.byte	0x1
ARM GAS  C:\Users\GYULAI~1\AppData\Local\Temp\ccG7iLma.s 			page 154


 7418 1b8b 3504     		.2byte	0x435
 7419 1b8d B9000000 		.4byte	0xb9
 7420 1b91 00000000 		.4byte	.LFB73
 7421 1b95 20000000 		.4byte	.LFE73-.LFB73
 7422 1b99 01       		.uleb128 0x1
 7423 1b9a 9C       		.byte	0x9c
 7424 1b9b D01B0000 		.4byte	0x1bd0
 7425 1b9f 1F       		.uleb128 0x1f
 7426 1ba0 860A0000 		.4byte	.LASF70
 7427 1ba4 01       		.byte	0x1
 7428 1ba5 3804     		.2byte	0x438
 7429 1ba7 B9000000 		.4byte	0xb9
 7430 1bab 3E120000 		.4byte	.LLST125
 7431 1baf 1F       		.uleb128 0x1f
 7432 1bb0 940A0000 		.4byte	.LASF71
 7433 1bb4 01       		.byte	0x1
 7434 1bb5 3B04     		.2byte	0x43b
 7435 1bb7 B9000000 		.4byte	0xb9
 7436 1bbb 60120000 		.4byte	.LLST126
 7437 1bbf 1F       		.uleb128 0x1f
 7438 1bc0 A9050000 		.4byte	.LASF72
 7439 1bc4 01       		.byte	0x1
 7440 1bc5 3C04     		.2byte	0x43c
 7441 1bc7 B9000000 		.4byte	0xb9
 7442 1bcb 87120000 		.4byte	.LLST127
 7443 1bcf 00       		.byte	0
 7444 1bd0 23       		.uleb128 0x23
 7445 1bd1 C4020000 		.4byte	.LASF155
 7446 1bd5 01       		.byte	0x1
 7447 1bd6 4304     		.2byte	0x443
 7448 1bd8 B9000000 		.4byte	0xb9
 7449 1bdc 00000000 		.4byte	.LFB74
 7450 1be0 10000000 		.4byte	.LFE74-.LFB74
 7451 1be4 01       		.uleb128 0x1
 7452 1be5 9C       		.byte	0x9c
 7453 1be6 21       		.uleb128 0x21
 7454 1be7 730B0000 		.4byte	.LASF156
 7455 1beb 01       		.byte	0x1
 7456 1bec 4904     		.2byte	0x449
 7457 1bee B9000000 		.4byte	0xb9
 7458 1bf2 00000000 		.4byte	.LFB75
 7459 1bf6 20000000 		.4byte	.LFE75-.LFB75
 7460 1bfa 01       		.uleb128 0x1
 7461 1bfb 9C       		.byte	0x9c
 7462 1bfc 311C0000 		.4byte	0x1c31
 7463 1c00 1F       		.uleb128 0x1f
 7464 1c01 860A0000 		.4byte	.LASF70
 7465 1c05 01       		.byte	0x1
 7466 1c06 4C04     		.2byte	0x44c
 7467 1c08 B9000000 		.4byte	0xb9
 7468 1c0c C3120000 		.4byte	.LLST128
 7469 1c10 1F       		.uleb128 0x1f
 7470 1c11 940A0000 		.4byte	.LASF71
 7471 1c15 01       		.byte	0x1
 7472 1c16 4F04     		.2byte	0x44f
 7473 1c18 B9000000 		.4byte	0xb9
 7474 1c1c E5120000 		.4byte	.LLST129
ARM GAS  C:\Users\GYULAI~1\AppData\Local\Temp\ccG7iLma.s 			page 155


 7475 1c20 1F       		.uleb128 0x1f
 7476 1c21 A9050000 		.4byte	.LASF72
 7477 1c25 01       		.byte	0x1
 7478 1c26 5004     		.2byte	0x450
 7479 1c28 B9000000 		.4byte	0xb9
 7480 1c2c 0C130000 		.4byte	.LLST130
 7481 1c30 00       		.byte	0
 7482 1c31 21       		.uleb128 0x21
 7483 1c32 09020000 		.4byte	.LASF157
 7484 1c36 01       		.byte	0x1
 7485 1c37 5704     		.2byte	0x457
 7486 1c39 B9000000 		.4byte	0xb9
 7487 1c3d 00000000 		.4byte	.LFB76
 7488 1c41 20000000 		.4byte	.LFE76-.LFB76
 7489 1c45 01       		.uleb128 0x1
 7490 1c46 9C       		.byte	0x9c
 7491 1c47 7C1C0000 		.4byte	0x1c7c
 7492 1c4b 1F       		.uleb128 0x1f
 7493 1c4c 860A0000 		.4byte	.LASF70
 7494 1c50 01       		.byte	0x1
 7495 1c51 5A04     		.2byte	0x45a
 7496 1c53 B9000000 		.4byte	0xb9
 7497 1c57 49130000 		.4byte	.LLST131
 7498 1c5b 1F       		.uleb128 0x1f
 7499 1c5c 940A0000 		.4byte	.LASF71
 7500 1c60 01       		.byte	0x1
 7501 1c61 5D04     		.2byte	0x45d
 7502 1c63 B9000000 		.4byte	0xb9
 7503 1c67 6B130000 		.4byte	.LLST132
 7504 1c6b 1F       		.uleb128 0x1f
 7505 1c6c A9050000 		.4byte	.LASF72
 7506 1c70 01       		.byte	0x1
 7507 1c71 5E04     		.2byte	0x45e
 7508 1c73 B9000000 		.4byte	0xb9
 7509 1c77 92130000 		.4byte	.LLST133
 7510 1c7b 00       		.byte	0
 7511 1c7c 21       		.uleb128 0x21
 7512 1c7d 1E060000 		.4byte	.LASF158
 7513 1c81 01       		.byte	0x1
 7514 1c82 6504     		.2byte	0x465
 7515 1c84 B9000000 		.4byte	0xb9
 7516 1c88 00000000 		.4byte	.LFB77
 7517 1c8c 20000000 		.4byte	.LFE77-.LFB77
 7518 1c90 01       		.uleb128 0x1
 7519 1c91 9C       		.byte	0x9c
 7520 1c92 C71C0000 		.4byte	0x1cc7
 7521 1c96 1F       		.uleb128 0x1f
 7522 1c97 860A0000 		.4byte	.LASF70
 7523 1c9b 01       		.byte	0x1
 7524 1c9c 6804     		.2byte	0x468
 7525 1c9e B9000000 		.4byte	0xb9
 7526 1ca2 CF130000 		.4byte	.LLST134
 7527 1ca6 1F       		.uleb128 0x1f
 7528 1ca7 940A0000 		.4byte	.LASF71
 7529 1cab 01       		.byte	0x1
 7530 1cac 6B04     		.2byte	0x46b
 7531 1cae B9000000 		.4byte	0xb9
ARM GAS  C:\Users\GYULAI~1\AppData\Local\Temp\ccG7iLma.s 			page 156


 7532 1cb2 F1130000 		.4byte	.LLST135
 7533 1cb6 1F       		.uleb128 0x1f
 7534 1cb7 A9050000 		.4byte	.LASF72
 7535 1cbb 01       		.byte	0x1
 7536 1cbc 6C04     		.2byte	0x46c
 7537 1cbe B9000000 		.4byte	0xb9
 7538 1cc2 18140000 		.4byte	.LLST136
 7539 1cc6 00       		.byte	0
 7540 1cc7 21       		.uleb128 0x21
 7541 1cc8 E90A0000 		.4byte	.LASF159
 7542 1ccc 01       		.byte	0x1
 7543 1ccd 2004     		.2byte	0x420
 7544 1ccf 30010000 		.4byte	0x130
 7545 1cd3 00000000 		.4byte	.LFB72
 7546 1cd7 3C000000 		.4byte	.LFE72-.LFB72
 7547 1cdb 01       		.uleb128 0x1
 7548 1cdc 9C       		.byte	0x9c
 7549 1cdd 461D0000 		.4byte	0x1d46
 7550 1ce1 1F       		.uleb128 0x1f
 7551 1ce2 E00A0000 		.4byte	.LASF122
 7552 1ce6 01       		.byte	0x1
 7553 1ce7 2704     		.2byte	0x427
 7554 1ce9 30010000 		.4byte	0x130
 7555 1ced 55140000 		.4byte	.LLST137
 7556 1cf1 1B       		.uleb128 0x1b
 7557 1cf2 10000000 		.4byte	.LVL409
 7558 1cf6 33030000 		.4byte	0x333
 7559 1cfa 181D0000 		.4byte	0x1d18
 7560 1cfe 11       		.uleb128 0x11
 7561 1cff 01       		.uleb128 0x1
 7562 1d00 50       		.byte	0x50
 7563 1d01 02       		.uleb128 0x2
 7564 1d02 09       		.byte	0x9
 7565 1d03 DE       		.byte	0xde
 7566 1d04 11       		.uleb128 0x11
 7567 1d05 01       		.uleb128 0x1
 7568 1d06 51       		.byte	0x51
 7569 1d07 01       		.uleb128 0x1
 7570 1d08 4C       		.byte	0x4c
 7571 1d09 11       		.uleb128 0x11
 7572 1d0a 01       		.uleb128 0x1
 7573 1d0b 52       		.byte	0x52
 7574 1d0c 05       		.uleb128 0x5
 7575 1d0d 03       		.byte	0x3
 7576 1d0e 29000000 		.4byte	.LANCHOR0+41
 7577 1d12 11       		.uleb128 0x11
 7578 1d13 01       		.uleb128 0x1
 7579 1d14 53       		.byte	0x53
 7580 1d15 01       		.uleb128 0x1
 7581 1d16 34       		.byte	0x34
 7582 1d17 00       		.byte	0
 7583 1d18 1C       		.uleb128 0x1c
 7584 1d19 18000000 		.4byte	.LVL410
 7585 1d1d 851B0000 		.4byte	0x1b85
 7586 1d21 1C       		.uleb128 0x1c
 7587 1d22 1E000000 		.4byte	.LVL411
 7588 1d26 E61B0000 		.4byte	0x1be6
ARM GAS  C:\Users\GYULAI~1\AppData\Local\Temp\ccG7iLma.s 			page 157


 7589 1d2a 1C       		.uleb128 0x1c
 7590 1d2b 24000000 		.4byte	.LVL412
 7591 1d2f D01B0000 		.4byte	0x1bd0
 7592 1d33 1C       		.uleb128 0x1c
 7593 1d34 2A000000 		.4byte	.LVL413
 7594 1d38 311C0000 		.4byte	0x1c31
 7595 1d3c 1C       		.uleb128 0x1c
 7596 1d3d 30000000 		.4byte	.LVL414
 7597 1d41 7C1C0000 		.4byte	0x1c7c
 7598 1d45 00       		.byte	0
 7599 1d46 1D       		.uleb128 0x1d
 7600 1d47 13050000 		.4byte	.LASF160
 7601 1d4b 01       		.byte	0x1
 7602 1d4c 7304     		.2byte	0x473
 7603 1d4e 00000000 		.4byte	.LFB78
 7604 1d52 24000000 		.4byte	.LFE78-.LFB78
 7605 1d56 01       		.uleb128 0x1
 7606 1d57 9C       		.byte	0x9c
 7607 1d58 A41D0000 		.4byte	0x1da4
 7608 1d5c 1E       		.uleb128 0x1e
 7609 1d5d B2030000 		.4byte	.LASF62
 7610 1d61 01       		.byte	0x1
 7611 1d62 7304     		.2byte	0x473
 7612 1d64 B9000000 		.4byte	0xb9
 7613 1d68 81140000 		.4byte	.LLST138
 7614 1d6c 1E       		.uleb128 0x1e
 7615 1d6d D3090000 		.4byte	.LASF63
 7616 1d71 01       		.byte	0x1
 7617 1d72 7304     		.2byte	0x473
 7618 1d74 A8000000 		.4byte	0xa8
 7619 1d78 A2140000 		.4byte	.LLST139
 7620 1d7c 1E       		.uleb128 0x1e
 7621 1d7d 7C080000 		.4byte	.LASF64
 7622 1d81 01       		.byte	0x1
 7623 1d82 7304     		.2byte	0x473
 7624 1d84 B9000000 		.4byte	0xb9
 7625 1d88 CE140000 		.4byte	.LLST140
 7626 1d8c 16       		.uleb128 0x16
 7627 1d8d 22000000 		.4byte	.LVL420
 7628 1d91 33030000 		.4byte	0x333
 7629 1d95 11       		.uleb128 0x11
 7630 1d96 01       		.uleb128 0x1
 7631 1d97 50       		.byte	0x50
 7632 1d98 02       		.uleb128 0x2
 7633 1d99 09       		.byte	0x9
 7634 1d9a DE       		.byte	0xde
 7635 1d9b 11       		.uleb128 0x11
 7636 1d9c 01       		.uleb128 0x1
 7637 1d9d 52       		.byte	0x52
 7638 1d9e 03       		.uleb128 0x3
 7639 1d9f F3       		.byte	0xf3
 7640 1da0 01       		.uleb128 0x1
 7641 1da1 51       		.byte	0x51
 7642 1da2 00       		.byte	0
 7643 1da3 00       		.byte	0
 7644 1da4 1D       		.uleb128 0x1d
 7645 1da5 1F040000 		.4byte	.LASF161
ARM GAS  C:\Users\GYULAI~1\AppData\Local\Temp\ccG7iLma.s 			page 158


 7646 1da9 01       		.byte	0x1
 7647 1daa 7D04     		.2byte	0x47d
 7648 1dac 00000000 		.4byte	.LFB79
 7649 1db0 24000000 		.4byte	.LFE79-.LFB79
 7650 1db4 01       		.uleb128 0x1
 7651 1db5 9C       		.byte	0x9c
 7652 1db6 021E0000 		.4byte	0x1e02
 7653 1dba 1E       		.uleb128 0x1e
 7654 1dbb B2030000 		.4byte	.LASF62
 7655 1dbf 01       		.byte	0x1
 7656 1dc0 7D04     		.2byte	0x47d
 7657 1dc2 B9000000 		.4byte	0xb9
 7658 1dc6 EF140000 		.4byte	.LLST141
 7659 1dca 1E       		.uleb128 0x1e
 7660 1dcb D3090000 		.4byte	.LASF63
 7661 1dcf 01       		.byte	0x1
 7662 1dd0 7D04     		.2byte	0x47d
 7663 1dd2 80040000 		.4byte	0x480
 7664 1dd6 10150000 		.4byte	.LLST142
 7665 1dda 1E       		.uleb128 0x1e
 7666 1ddb 7C080000 		.4byte	.LASF64
 7667 1ddf 01       		.byte	0x1
 7668 1de0 7D04     		.2byte	0x47d
 7669 1de2 B9000000 		.4byte	0xb9
 7670 1de6 3C150000 		.4byte	.LLST143
 7671 1dea 16       		.uleb128 0x16
 7672 1deb 22000000 		.4byte	.LVL425
 7673 1def F8030000 		.4byte	0x3f8
 7674 1df3 11       		.uleb128 0x11
 7675 1df4 01       		.uleb128 0x1
 7676 1df5 50       		.byte	0x50
 7677 1df6 02       		.uleb128 0x2
 7678 1df7 09       		.byte	0x9
 7679 1df8 DE       		.byte	0xde
 7680 1df9 11       		.uleb128 0x11
 7681 1dfa 01       		.uleb128 0x1
 7682 1dfb 52       		.byte	0x52
 7683 1dfc 03       		.uleb128 0x3
 7684 1dfd F3       		.byte	0xf3
 7685 1dfe 01       		.uleb128 0x1
 7686 1dff 51       		.byte	0x51
 7687 1e00 00       		.byte	0
 7688 1e01 00       		.byte	0
 7689 1e02 1A       		.uleb128 0x1a
 7690 1e03 050B0000 		.4byte	.LASF162
 7691 1e07 01       		.byte	0x1
 7692 1e08 2D       		.byte	0x2d
 7693 1e09 28030000 		.4byte	0x328
 7694 1e0d 05       		.uleb128 0x5
 7695 1e0e 03       		.byte	0x3
 7696 1e0f 10000000 		.4byte	MCP7940N_RegistersLocal
 7697 1e13 1A       		.uleb128 0x1a
 7698 1e14 9D000000 		.4byte	.LASF163
 7699 1e18 01       		.byte	0x1
 7700 1e19 30       		.byte	0x30
 7701 1e1a B4010000 		.4byte	0x1b4
 7702 1e1e 05       		.uleb128 0x5
ARM GAS  C:\Users\GYULAI~1\AppData\Local\Temp\ccG7iLma.s 			page 159


 7703 1e1f 03       		.byte	0x3
 7704 1e20 00000000 		.4byte	MCP7940N_I2CController
 7705 1e24 00       		.byte	0
 7706              		.section	.debug_abbrev,"",%progbits
 7707              	.Ldebug_abbrev0:
 7708 0000 01       		.uleb128 0x1
 7709 0001 11       		.uleb128 0x11
 7710 0002 01       		.byte	0x1
 7711 0003 25       		.uleb128 0x25
 7712 0004 0E       		.uleb128 0xe
 7713 0005 13       		.uleb128 0x13
 7714 0006 0B       		.uleb128 0xb
 7715 0007 03       		.uleb128 0x3
 7716 0008 0E       		.uleb128 0xe
 7717 0009 1B       		.uleb128 0x1b
 7718 000a 0E       		.uleb128 0xe
 7719 000b 55       		.uleb128 0x55
 7720 000c 17       		.uleb128 0x17
 7721 000d 11       		.uleb128 0x11
 7722 000e 01       		.uleb128 0x1
 7723 000f 10       		.uleb128 0x10
 7724 0010 17       		.uleb128 0x17
 7725 0011 00       		.byte	0
 7726 0012 00       		.byte	0
 7727 0013 02       		.uleb128 0x2
 7728 0014 24       		.uleb128 0x24
 7729 0015 00       		.byte	0
 7730 0016 0B       		.uleb128 0xb
 7731 0017 0B       		.uleb128 0xb
 7732 0018 3E       		.uleb128 0x3e
 7733 0019 0B       		.uleb128 0xb
 7734 001a 03       		.uleb128 0x3
 7735 001b 0E       		.uleb128 0xe
 7736 001c 00       		.byte	0
 7737 001d 00       		.byte	0
 7738 001e 03       		.uleb128 0x3
 7739 001f 24       		.uleb128 0x24
 7740 0020 00       		.byte	0
 7741 0021 0B       		.uleb128 0xb
 7742 0022 0B       		.uleb128 0xb
 7743 0023 3E       		.uleb128 0x3e
 7744 0024 0B       		.uleb128 0xb
 7745 0025 03       		.uleb128 0x3
 7746 0026 08       		.uleb128 0x8
 7747 0027 00       		.byte	0
 7748 0028 00       		.byte	0
 7749 0029 04       		.uleb128 0x4
 7750 002a 16       		.uleb128 0x16
 7751 002b 00       		.byte	0
 7752 002c 03       		.uleb128 0x3
 7753 002d 0E       		.uleb128 0xe
 7754 002e 3A       		.uleb128 0x3a
 7755 002f 0B       		.uleb128 0xb
 7756 0030 3B       		.uleb128 0x3b
 7757 0031 0B       		.uleb128 0xb
 7758 0032 49       		.uleb128 0x49
 7759 0033 13       		.uleb128 0x13
ARM GAS  C:\Users\GYULAI~1\AppData\Local\Temp\ccG7iLma.s 			page 160


 7760 0034 00       		.byte	0
 7761 0035 00       		.byte	0
 7762 0036 05       		.uleb128 0x5
 7763 0037 0F       		.uleb128 0xf
 7764 0038 00       		.byte	0
 7765 0039 0B       		.uleb128 0xb
 7766 003a 0B       		.uleb128 0xb
 7767 003b 49       		.uleb128 0x49
 7768 003c 13       		.uleb128 0x13
 7769 003d 00       		.byte	0
 7770 003e 00       		.byte	0
 7771 003f 06       		.uleb128 0x6
 7772 0040 15       		.uleb128 0x15
 7773 0041 00       		.byte	0
 7774 0042 27       		.uleb128 0x27
 7775 0043 19       		.uleb128 0x19
 7776 0044 00       		.byte	0
 7777 0045 00       		.byte	0
 7778 0046 07       		.uleb128 0x7
 7779 0047 13       		.uleb128 0x13
 7780 0048 01       		.byte	0x1
 7781 0049 03       		.uleb128 0x3
 7782 004a 0E       		.uleb128 0xe
 7783 004b 0B       		.uleb128 0xb
 7784 004c 0B       		.uleb128 0xb
 7785 004d 3A       		.uleb128 0x3a
 7786 004e 0B       		.uleb128 0xb
 7787 004f 3B       		.uleb128 0x3b
 7788 0050 0B       		.uleb128 0xb
 7789 0051 01       		.uleb128 0x1
 7790 0052 13       		.uleb128 0x13
 7791 0053 00       		.byte	0
 7792 0054 00       		.byte	0
 7793 0055 08       		.uleb128 0x8
 7794 0056 0D       		.uleb128 0xd
 7795 0057 00       		.byte	0
 7796 0058 03       		.uleb128 0x3
 7797 0059 0E       		.uleb128 0xe
 7798 005a 3A       		.uleb128 0x3a
 7799 005b 0B       		.uleb128 0xb
 7800 005c 3B       		.uleb128 0x3b
 7801 005d 0B       		.uleb128 0xb
 7802 005e 49       		.uleb128 0x49
 7803 005f 13       		.uleb128 0x13
 7804 0060 38       		.uleb128 0x38
 7805 0061 0B       		.uleb128 0xb
 7806 0062 00       		.byte	0
 7807 0063 00       		.byte	0
 7808 0064 09       		.uleb128 0x9
 7809 0065 15       		.uleb128 0x15
 7810 0066 01       		.byte	0x1
 7811 0067 27       		.uleb128 0x27
 7812 0068 19       		.uleb128 0x19
 7813 0069 01       		.uleb128 0x1
 7814 006a 13       		.uleb128 0x13
 7815 006b 00       		.byte	0
 7816 006c 00       		.byte	0
ARM GAS  C:\Users\GYULAI~1\AppData\Local\Temp\ccG7iLma.s 			page 161


 7817 006d 0A       		.uleb128 0xa
 7818 006e 05       		.uleb128 0x5
 7819 006f 00       		.byte	0
 7820 0070 49       		.uleb128 0x49
 7821 0071 13       		.uleb128 0x13
 7822 0072 00       		.byte	0
 7823 0073 00       		.byte	0
 7824 0074 0B       		.uleb128 0xb
 7825 0075 15       		.uleb128 0x15
 7826 0076 01       		.byte	0x1
 7827 0077 27       		.uleb128 0x27
 7828 0078 19       		.uleb128 0x19
 7829 0079 49       		.uleb128 0x49
 7830 007a 13       		.uleb128 0x13
 7831 007b 01       		.uleb128 0x1
 7832 007c 13       		.uleb128 0x13
 7833 007d 00       		.byte	0
 7834 007e 00       		.byte	0
 7835 007f 0C       		.uleb128 0xc
 7836 0080 2E       		.uleb128 0x2e
 7837 0081 01       		.byte	0x1
 7838 0082 3F       		.uleb128 0x3f
 7839 0083 19       		.uleb128 0x19
 7840 0084 03       		.uleb128 0x3
 7841 0085 0E       		.uleb128 0xe
 7842 0086 3A       		.uleb128 0x3a
 7843 0087 0B       		.uleb128 0xb
 7844 0088 3B       		.uleb128 0x3b
 7845 0089 0B       		.uleb128 0xb
 7846 008a 27       		.uleb128 0x27
 7847 008b 19       		.uleb128 0x19
 7848 008c 11       		.uleb128 0x11
 7849 008d 01       		.uleb128 0x1
 7850 008e 12       		.uleb128 0x12
 7851 008f 06       		.uleb128 0x6
 7852 0090 40       		.uleb128 0x40
 7853 0091 18       		.uleb128 0x18
 7854 0092 9642     		.uleb128 0x2116
 7855 0094 19       		.uleb128 0x19
 7856 0095 01       		.uleb128 0x1
 7857 0096 13       		.uleb128 0x13
 7858 0097 00       		.byte	0
 7859 0098 00       		.byte	0
 7860 0099 0D       		.uleb128 0xd
 7861 009a 05       		.uleb128 0x5
 7862 009b 00       		.byte	0
 7863 009c 03       		.uleb128 0x3
 7864 009d 0E       		.uleb128 0xe
 7865 009e 3A       		.uleb128 0x3a
 7866 009f 0B       		.uleb128 0xb
 7867 00a0 3B       		.uleb128 0x3b
 7868 00a1 0B       		.uleb128 0xb
 7869 00a2 49       		.uleb128 0x49
 7870 00a3 13       		.uleb128 0x13
 7871 00a4 02       		.uleb128 0x2
 7872 00a5 17       		.uleb128 0x17
 7873 00a6 00       		.byte	0
ARM GAS  C:\Users\GYULAI~1\AppData\Local\Temp\ccG7iLma.s 			page 162


 7874 00a7 00       		.byte	0
 7875 00a8 0E       		.uleb128 0xe
 7876 00a9 0B       		.uleb128 0xb
 7877 00aa 01       		.byte	0x1
 7878 00ab 11       		.uleb128 0x11
 7879 00ac 01       		.uleb128 0x1
 7880 00ad 12       		.uleb128 0x12
 7881 00ae 06       		.uleb128 0x6
 7882 00af 01       		.uleb128 0x1
 7883 00b0 13       		.uleb128 0x13
 7884 00b1 00       		.byte	0
 7885 00b2 00       		.byte	0
 7886 00b3 0F       		.uleb128 0xf
 7887 00b4 34       		.uleb128 0x34
 7888 00b5 00       		.byte	0
 7889 00b6 03       		.uleb128 0x3
 7890 00b7 08       		.uleb128 0x8
 7891 00b8 3A       		.uleb128 0x3a
 7892 00b9 0B       		.uleb128 0xb
 7893 00ba 3B       		.uleb128 0x3b
 7894 00bb 0B       		.uleb128 0xb
 7895 00bc 49       		.uleb128 0x49
 7896 00bd 13       		.uleb128 0x13
 7897 00be 02       		.uleb128 0x2
 7898 00bf 17       		.uleb128 0x17
 7899 00c0 00       		.byte	0
 7900 00c1 00       		.byte	0
 7901 00c2 10       		.uleb128 0x10
 7902 00c3 898201   		.uleb128 0x4109
 7903 00c6 01       		.byte	0x1
 7904 00c7 11       		.uleb128 0x11
 7905 00c8 01       		.uleb128 0x1
 7906 00c9 00       		.byte	0
 7907 00ca 00       		.byte	0
 7908 00cb 11       		.uleb128 0x11
 7909 00cc 8A8201   		.uleb128 0x410a
 7910 00cf 00       		.byte	0
 7911 00d0 02       		.uleb128 0x2
 7912 00d1 18       		.uleb128 0x18
 7913 00d2 9142     		.uleb128 0x2111
 7914 00d4 18       		.uleb128 0x18
 7915 00d5 00       		.byte	0
 7916 00d6 00       		.byte	0
 7917 00d7 12       		.uleb128 0x12
 7918 00d8 898201   		.uleb128 0x4109
 7919 00db 01       		.byte	0x1
 7920 00dc 11       		.uleb128 0x11
 7921 00dd 01       		.uleb128 0x1
 7922 00de 01       		.uleb128 0x1
 7923 00df 13       		.uleb128 0x13
 7924 00e0 00       		.byte	0
 7925 00e1 00       		.byte	0
 7926 00e2 13       		.uleb128 0x13
 7927 00e3 26       		.uleb128 0x26
 7928 00e4 00       		.byte	0
 7929 00e5 49       		.uleb128 0x49
 7930 00e6 13       		.uleb128 0x13
ARM GAS  C:\Users\GYULAI~1\AppData\Local\Temp\ccG7iLma.s 			page 163


 7931 00e7 00       		.byte	0
 7932 00e8 00       		.byte	0
 7933 00e9 14       		.uleb128 0x14
 7934 00ea 2E       		.uleb128 0x2e
 7935 00eb 01       		.byte	0x1
 7936 00ec 3F       		.uleb128 0x3f
 7937 00ed 19       		.uleb128 0x19
 7938 00ee 03       		.uleb128 0x3
 7939 00ef 0E       		.uleb128 0xe
 7940 00f0 3A       		.uleb128 0x3a
 7941 00f1 0B       		.uleb128 0xb
 7942 00f2 3B       		.uleb128 0x3b
 7943 00f3 0B       		.uleb128 0xb
 7944 00f4 27       		.uleb128 0x27
 7945 00f5 19       		.uleb128 0x19
 7946 00f6 11       		.uleb128 0x11
 7947 00f7 01       		.uleb128 0x1
 7948 00f8 12       		.uleb128 0x12
 7949 00f9 06       		.uleb128 0x6
 7950 00fa 40       		.uleb128 0x40
 7951 00fb 18       		.uleb128 0x18
 7952 00fc 9742     		.uleb128 0x2117
 7953 00fe 19       		.uleb128 0x19
 7954 00ff 01       		.uleb128 0x1
 7955 0100 13       		.uleb128 0x13
 7956 0101 00       		.byte	0
 7957 0102 00       		.byte	0
 7958 0103 15       		.uleb128 0x15
 7959 0104 05       		.uleb128 0x5
 7960 0105 00       		.byte	0
 7961 0106 03       		.uleb128 0x3
 7962 0107 0E       		.uleb128 0xe
 7963 0108 3A       		.uleb128 0x3a
 7964 0109 0B       		.uleb128 0xb
 7965 010a 3B       		.uleb128 0x3b
 7966 010b 0B       		.uleb128 0xb
 7967 010c 49       		.uleb128 0x49
 7968 010d 13       		.uleb128 0x13
 7969 010e 02       		.uleb128 0x2
 7970 010f 18       		.uleb128 0x18
 7971 0110 00       		.byte	0
 7972 0111 00       		.byte	0
 7973 0112 16       		.uleb128 0x16
 7974 0113 898201   		.uleb128 0x4109
 7975 0116 01       		.byte	0x1
 7976 0117 11       		.uleb128 0x11
 7977 0118 01       		.uleb128 0x1
 7978 0119 31       		.uleb128 0x31
 7979 011a 13       		.uleb128 0x13
 7980 011b 00       		.byte	0
 7981 011c 00       		.byte	0
 7982 011d 17       		.uleb128 0x17
 7983 011e 2E       		.uleb128 0x2e
 7984 011f 00       		.byte	0
 7985 0120 3F       		.uleb128 0x3f
 7986 0121 19       		.uleb128 0x19
 7987 0122 03       		.uleb128 0x3
ARM GAS  C:\Users\GYULAI~1\AppData\Local\Temp\ccG7iLma.s 			page 164


 7988 0123 0E       		.uleb128 0xe
 7989 0124 3A       		.uleb128 0x3a
 7990 0125 0B       		.uleb128 0xb
 7991 0126 3B       		.uleb128 0x3b
 7992 0127 0B       		.uleb128 0xb
 7993 0128 27       		.uleb128 0x27
 7994 0129 19       		.uleb128 0x19
 7995 012a 49       		.uleb128 0x49
 7996 012b 13       		.uleb128 0x13
 7997 012c 11       		.uleb128 0x11
 7998 012d 01       		.uleb128 0x1
 7999 012e 12       		.uleb128 0x12
 8000 012f 06       		.uleb128 0x6
 8001 0130 40       		.uleb128 0x40
 8002 0131 18       		.uleb128 0x18
 8003 0132 9742     		.uleb128 0x2117
 8004 0134 19       		.uleb128 0x19
 8005 0135 00       		.byte	0
 8006 0136 00       		.byte	0
 8007 0137 18       		.uleb128 0x18
 8008 0138 2E       		.uleb128 0x2e
 8009 0139 01       		.byte	0x1
 8010 013a 3F       		.uleb128 0x3f
 8011 013b 19       		.uleb128 0x19
 8012 013c 03       		.uleb128 0x3
 8013 013d 0E       		.uleb128 0xe
 8014 013e 3A       		.uleb128 0x3a
 8015 013f 0B       		.uleb128 0xb
 8016 0140 3B       		.uleb128 0x3b
 8017 0141 0B       		.uleb128 0xb
 8018 0142 27       		.uleb128 0x27
 8019 0143 19       		.uleb128 0x19
 8020 0144 49       		.uleb128 0x49
 8021 0145 13       		.uleb128 0x13
 8022 0146 11       		.uleb128 0x11
 8023 0147 01       		.uleb128 0x1
 8024 0148 12       		.uleb128 0x12
 8025 0149 06       		.uleb128 0x6
 8026 014a 40       		.uleb128 0x40
 8027 014b 18       		.uleb128 0x18
 8028 014c 9742     		.uleb128 0x2117
 8029 014e 19       		.uleb128 0x19
 8030 014f 01       		.uleb128 0x1
 8031 0150 13       		.uleb128 0x13
 8032 0151 00       		.byte	0
 8033 0152 00       		.byte	0
 8034 0153 19       		.uleb128 0x19
 8035 0154 34       		.uleb128 0x34
 8036 0155 00       		.byte	0
 8037 0156 03       		.uleb128 0x3
 8038 0157 0E       		.uleb128 0xe
 8039 0158 3A       		.uleb128 0x3a
 8040 0159 0B       		.uleb128 0xb
 8041 015a 3B       		.uleb128 0x3b
 8042 015b 0B       		.uleb128 0xb
 8043 015c 49       		.uleb128 0x49
 8044 015d 13       		.uleb128 0x13
ARM GAS  C:\Users\GYULAI~1\AppData\Local\Temp\ccG7iLma.s 			page 165


 8045 015e 02       		.uleb128 0x2
 8046 015f 17       		.uleb128 0x17
 8047 0160 00       		.byte	0
 8048 0161 00       		.byte	0
 8049 0162 1A       		.uleb128 0x1a
 8050 0163 34       		.uleb128 0x34
 8051 0164 00       		.byte	0
 8052 0165 03       		.uleb128 0x3
 8053 0166 0E       		.uleb128 0xe
 8054 0167 3A       		.uleb128 0x3a
 8055 0168 0B       		.uleb128 0xb
 8056 0169 3B       		.uleb128 0x3b
 8057 016a 0B       		.uleb128 0xb
 8058 016b 49       		.uleb128 0x49
 8059 016c 13       		.uleb128 0x13
 8060 016d 02       		.uleb128 0x2
 8061 016e 18       		.uleb128 0x18
 8062 016f 00       		.byte	0
 8063 0170 00       		.byte	0
 8064 0171 1B       		.uleb128 0x1b
 8065 0172 898201   		.uleb128 0x4109
 8066 0175 01       		.byte	0x1
 8067 0176 11       		.uleb128 0x11
 8068 0177 01       		.uleb128 0x1
 8069 0178 31       		.uleb128 0x31
 8070 0179 13       		.uleb128 0x13
 8071 017a 01       		.uleb128 0x1
 8072 017b 13       		.uleb128 0x13
 8073 017c 00       		.byte	0
 8074 017d 00       		.byte	0
 8075 017e 1C       		.uleb128 0x1c
 8076 017f 898201   		.uleb128 0x4109
 8077 0182 00       		.byte	0
 8078 0183 11       		.uleb128 0x11
 8079 0184 01       		.uleb128 0x1
 8080 0185 31       		.uleb128 0x31
 8081 0186 13       		.uleb128 0x13
 8082 0187 00       		.byte	0
 8083 0188 00       		.byte	0
 8084 0189 1D       		.uleb128 0x1d
 8085 018a 2E       		.uleb128 0x2e
 8086 018b 01       		.byte	0x1
 8087 018c 3F       		.uleb128 0x3f
 8088 018d 19       		.uleb128 0x19
 8089 018e 03       		.uleb128 0x3
 8090 018f 0E       		.uleb128 0xe
 8091 0190 3A       		.uleb128 0x3a
 8092 0191 0B       		.uleb128 0xb
 8093 0192 3B       		.uleb128 0x3b
 8094 0193 05       		.uleb128 0x5
 8095 0194 27       		.uleb128 0x27
 8096 0195 19       		.uleb128 0x19
 8097 0196 11       		.uleb128 0x11
 8098 0197 01       		.uleb128 0x1
 8099 0198 12       		.uleb128 0x12
 8100 0199 06       		.uleb128 0x6
 8101 019a 40       		.uleb128 0x40
ARM GAS  C:\Users\GYULAI~1\AppData\Local\Temp\ccG7iLma.s 			page 166


 8102 019b 18       		.uleb128 0x18
 8103 019c 9742     		.uleb128 0x2117
 8104 019e 19       		.uleb128 0x19
 8105 019f 01       		.uleb128 0x1
 8106 01a0 13       		.uleb128 0x13
 8107 01a1 00       		.byte	0
 8108 01a2 00       		.byte	0
 8109 01a3 1E       		.uleb128 0x1e
 8110 01a4 05       		.uleb128 0x5
 8111 01a5 00       		.byte	0
 8112 01a6 03       		.uleb128 0x3
 8113 01a7 0E       		.uleb128 0xe
 8114 01a8 3A       		.uleb128 0x3a
 8115 01a9 0B       		.uleb128 0xb
 8116 01aa 3B       		.uleb128 0x3b
 8117 01ab 05       		.uleb128 0x5
 8118 01ac 49       		.uleb128 0x49
 8119 01ad 13       		.uleb128 0x13
 8120 01ae 02       		.uleb128 0x2
 8121 01af 17       		.uleb128 0x17
 8122 01b0 00       		.byte	0
 8123 01b1 00       		.byte	0
 8124 01b2 1F       		.uleb128 0x1f
 8125 01b3 34       		.uleb128 0x34
 8126 01b4 00       		.byte	0
 8127 01b5 03       		.uleb128 0x3
 8128 01b6 0E       		.uleb128 0xe
 8129 01b7 3A       		.uleb128 0x3a
 8130 01b8 0B       		.uleb128 0xb
 8131 01b9 3B       		.uleb128 0x3b
 8132 01ba 05       		.uleb128 0x5
 8133 01bb 49       		.uleb128 0x49
 8134 01bc 13       		.uleb128 0x13
 8135 01bd 02       		.uleb128 0x2
 8136 01be 17       		.uleb128 0x17
 8137 01bf 00       		.byte	0
 8138 01c0 00       		.byte	0
 8139 01c1 20       		.uleb128 0x20
 8140 01c2 34       		.uleb128 0x34
 8141 01c3 00       		.byte	0
 8142 01c4 03       		.uleb128 0x3
 8143 01c5 0E       		.uleb128 0xe
 8144 01c6 3A       		.uleb128 0x3a
 8145 01c7 0B       		.uleb128 0xb
 8146 01c8 3B       		.uleb128 0x3b
 8147 01c9 05       		.uleb128 0x5
 8148 01ca 49       		.uleb128 0x49
 8149 01cb 13       		.uleb128 0x13
 8150 01cc 02       		.uleb128 0x2
 8151 01cd 18       		.uleb128 0x18
 8152 01ce 00       		.byte	0
 8153 01cf 00       		.byte	0
 8154 01d0 21       		.uleb128 0x21
 8155 01d1 2E       		.uleb128 0x2e
 8156 01d2 01       		.byte	0x1
 8157 01d3 3F       		.uleb128 0x3f
 8158 01d4 19       		.uleb128 0x19
ARM GAS  C:\Users\GYULAI~1\AppData\Local\Temp\ccG7iLma.s 			page 167


 8159 01d5 03       		.uleb128 0x3
 8160 01d6 0E       		.uleb128 0xe
 8161 01d7 3A       		.uleb128 0x3a
 8162 01d8 0B       		.uleb128 0xb
 8163 01d9 3B       		.uleb128 0x3b
 8164 01da 05       		.uleb128 0x5
 8165 01db 27       		.uleb128 0x27
 8166 01dc 19       		.uleb128 0x19
 8167 01dd 49       		.uleb128 0x49
 8168 01de 13       		.uleb128 0x13
 8169 01df 11       		.uleb128 0x11
 8170 01e0 01       		.uleb128 0x1
 8171 01e1 12       		.uleb128 0x12
 8172 01e2 06       		.uleb128 0x6
 8173 01e3 40       		.uleb128 0x40
 8174 01e4 18       		.uleb128 0x18
 8175 01e5 9742     		.uleb128 0x2117
 8176 01e7 19       		.uleb128 0x19
 8177 01e8 01       		.uleb128 0x1
 8178 01e9 13       		.uleb128 0x13
 8179 01ea 00       		.byte	0
 8180 01eb 00       		.byte	0
 8181 01ec 22       		.uleb128 0x22
 8182 01ed 2E       		.uleb128 0x2e
 8183 01ee 01       		.byte	0x1
 8184 01ef 3F       		.uleb128 0x3f
 8185 01f0 19       		.uleb128 0x19
 8186 01f1 03       		.uleb128 0x3
 8187 01f2 0E       		.uleb128 0xe
 8188 01f3 3A       		.uleb128 0x3a
 8189 01f4 0B       		.uleb128 0xb
 8190 01f5 3B       		.uleb128 0x3b
 8191 01f6 05       		.uleb128 0x5
 8192 01f7 49       		.uleb128 0x49
 8193 01f8 13       		.uleb128 0x13
 8194 01f9 11       		.uleb128 0x11
 8195 01fa 01       		.uleb128 0x1
 8196 01fb 12       		.uleb128 0x12
 8197 01fc 06       		.uleb128 0x6
 8198 01fd 40       		.uleb128 0x40
 8199 01fe 18       		.uleb128 0x18
 8200 01ff 9742     		.uleb128 0x2117
 8201 0201 19       		.uleb128 0x19
 8202 0202 01       		.uleb128 0x1
 8203 0203 13       		.uleb128 0x13
 8204 0204 00       		.byte	0
 8205 0205 00       		.byte	0
 8206 0206 23       		.uleb128 0x23
 8207 0207 2E       		.uleb128 0x2e
 8208 0208 00       		.byte	0
 8209 0209 3F       		.uleb128 0x3f
 8210 020a 19       		.uleb128 0x19
 8211 020b 03       		.uleb128 0x3
 8212 020c 0E       		.uleb128 0xe
 8213 020d 3A       		.uleb128 0x3a
 8214 020e 0B       		.uleb128 0xb
 8215 020f 3B       		.uleb128 0x3b
ARM GAS  C:\Users\GYULAI~1\AppData\Local\Temp\ccG7iLma.s 			page 168


 8216 0210 05       		.uleb128 0x5
 8217 0211 27       		.uleb128 0x27
 8218 0212 19       		.uleb128 0x19
 8219 0213 49       		.uleb128 0x49
 8220 0214 13       		.uleb128 0x13
 8221 0215 11       		.uleb128 0x11
 8222 0216 01       		.uleb128 0x1
 8223 0217 12       		.uleb128 0x12
 8224 0218 06       		.uleb128 0x6
 8225 0219 40       		.uleb128 0x40
 8226 021a 18       		.uleb128 0x18
 8227 021b 9742     		.uleb128 0x2117
 8228 021d 19       		.uleb128 0x19
 8229 021e 00       		.byte	0
 8230 021f 00       		.byte	0
 8231 0220 24       		.uleb128 0x24
 8232 0221 05       		.uleb128 0x5
 8233 0222 00       		.byte	0
 8234 0223 03       		.uleb128 0x3
 8235 0224 08       		.uleb128 0x8
 8236 0225 3A       		.uleb128 0x3a
 8237 0226 0B       		.uleb128 0xb
 8238 0227 3B       		.uleb128 0x3b
 8239 0228 05       		.uleb128 0x5
 8240 0229 49       		.uleb128 0x49
 8241 022a 13       		.uleb128 0x13
 8242 022b 02       		.uleb128 0x2
 8243 022c 17       		.uleb128 0x17
 8244 022d 00       		.byte	0
 8245 022e 00       		.byte	0
 8246 022f 25       		.uleb128 0x25
 8247 0230 05       		.uleb128 0x5
 8248 0231 00       		.byte	0
 8249 0232 03       		.uleb128 0x3
 8250 0233 08       		.uleb128 0x8
 8251 0234 3A       		.uleb128 0x3a
 8252 0235 0B       		.uleb128 0xb
 8253 0236 3B       		.uleb128 0x3b
 8254 0237 05       		.uleb128 0x5
 8255 0238 49       		.uleb128 0x49
 8256 0239 13       		.uleb128 0x13
 8257 023a 02       		.uleb128 0x2
 8258 023b 18       		.uleb128 0x18
 8259 023c 00       		.byte	0
 8260 023d 00       		.byte	0
 8261 023e 26       		.uleb128 0x26
 8262 023f 05       		.uleb128 0x5
 8263 0240 00       		.byte	0
 8264 0241 03       		.uleb128 0x3
 8265 0242 0E       		.uleb128 0xe
 8266 0243 3A       		.uleb128 0x3a
 8267 0244 0B       		.uleb128 0xb
 8268 0245 3B       		.uleb128 0x3b
 8269 0246 05       		.uleb128 0x5
 8270 0247 49       		.uleb128 0x49
 8271 0248 13       		.uleb128 0x13
 8272 0249 02       		.uleb128 0x2
ARM GAS  C:\Users\GYULAI~1\AppData\Local\Temp\ccG7iLma.s 			page 169


 8273 024a 18       		.uleb128 0x18
 8274 024b 00       		.byte	0
 8275 024c 00       		.byte	0
 8276 024d 00       		.byte	0
 8277              		.section	.debug_loc,"",%progbits
 8278              	.Ldebug_loc0:
 8279              	.LLST0:
 8280 0000 00000000 		.4byte	.LVL0
 8281 0004 13000000 		.4byte	.LVL3-1
 8282 0008 0100     		.2byte	0x1
 8283 000a 50       		.byte	0x50
 8284 000b 13000000 		.4byte	.LVL3-1
 8285 000f 50000000 		.4byte	.LFE0
 8286 0013 0400     		.2byte	0x4
 8287 0015 F3       		.byte	0xf3
 8288 0016 01       		.uleb128 0x1
 8289 0017 50       		.byte	0x50
 8290 0018 9F       		.byte	0x9f
 8291 0019 00000000 		.4byte	0
 8292 001d 00000000 		.4byte	0
 8293              	.LLST1:
 8294 0021 00000000 		.4byte	.LVL0
 8295 0025 12000000 		.4byte	.LVL2
 8296 0029 0100     		.2byte	0x1
 8297 002b 51       		.byte	0x51
 8298 002c 12000000 		.4byte	.LVL2
 8299 0030 50000000 		.4byte	.LFE0
 8300 0034 0400     		.2byte	0x4
 8301 0036 F3       		.byte	0xf3
 8302 0037 01       		.uleb128 0x1
 8303 0038 51       		.byte	0x51
 8304 0039 9F       		.byte	0x9f
 8305 003a 00000000 		.4byte	0
 8306 003e 00000000 		.4byte	0
 8307              	.LLST2:
 8308 0042 00000000 		.4byte	.LVL0
 8309 0046 13000000 		.4byte	.LVL3-1
 8310 004a 0100     		.2byte	0x1
 8311 004c 52       		.byte	0x52
 8312 004d 13000000 		.4byte	.LVL3-1
 8313 0051 4A000000 		.4byte	.LVL11
 8314 0055 0100     		.2byte	0x1
 8315 0057 56       		.byte	0x56
 8316 0058 4A000000 		.4byte	.LVL11
 8317 005c 50000000 		.4byte	.LFE0
 8318 0060 0400     		.2byte	0x4
 8319 0062 F3       		.byte	0xf3
 8320 0063 01       		.uleb128 0x1
 8321 0064 52       		.byte	0x52
 8322 0065 9F       		.byte	0x9f
 8323 0066 00000000 		.4byte	0
 8324 006a 00000000 		.4byte	0
 8325              	.LLST3:
 8326 006e 00000000 		.4byte	.LVL0
 8327 0072 10000000 		.4byte	.LVL1
 8328 0076 0100     		.2byte	0x1
 8329 0078 53       		.byte	0x53
ARM GAS  C:\Users\GYULAI~1\AppData\Local\Temp\ccG7iLma.s 			page 170


 8330 0079 10000000 		.4byte	.LVL1
 8331 007d 50000000 		.4byte	.LFE0
 8332 0081 0400     		.2byte	0x4
 8333 0083 F3       		.byte	0xf3
 8334 0084 01       		.uleb128 0x1
 8335 0085 53       		.byte	0x53
 8336 0086 9F       		.byte	0x9f
 8337 0087 00000000 		.4byte	0
 8338 008b 00000000 		.4byte	0
 8339              	.LLST4:
 8340 008f 22000000 		.4byte	.LVL5
 8341 0093 26000000 		.4byte	.LVL6
 8342 0097 0200     		.2byte	0x2
 8343 0099 30       		.byte	0x30
 8344 009a 9F       		.byte	0x9f
 8345 009b 26000000 		.4byte	.LVL6
 8346 009f 3A000000 		.4byte	.LVL8
 8347 00a3 0100     		.2byte	0x1
 8348 00a5 54       		.byte	0x54
 8349 00a6 3C000000 		.4byte	.LVL9
 8350 00aa 4A000000 		.4byte	.LVL11
 8351 00ae 0100     		.2byte	0x1
 8352 00b0 54       		.byte	0x54
 8353 00b1 00000000 		.4byte	0
 8354 00b5 00000000 		.4byte	0
 8355              	.LLST5:
 8356 00b9 00000000 		.4byte	.LVL12
 8357 00bd 0F000000 		.4byte	.LVL15-1
 8358 00c1 0100     		.2byte	0x1
 8359 00c3 50       		.byte	0x50
 8360 00c4 0F000000 		.4byte	.LVL15-1
 8361 00c8 38000000 		.4byte	.LFE1
 8362 00cc 0400     		.2byte	0x4
 8363 00ce F3       		.byte	0xf3
 8364 00cf 01       		.uleb128 0x1
 8365 00d0 50       		.byte	0x50
 8366 00d1 9F       		.byte	0x9f
 8367 00d2 00000000 		.4byte	0
 8368 00d6 00000000 		.4byte	0
 8369              	.LLST6:
 8370 00da 00000000 		.4byte	.LVL12
 8371 00de 0E000000 		.4byte	.LVL14
 8372 00e2 0100     		.2byte	0x1
 8373 00e4 51       		.byte	0x51
 8374 00e5 0E000000 		.4byte	.LVL14
 8375 00e9 38000000 		.4byte	.LFE1
 8376 00ed 0400     		.2byte	0x4
 8377 00ef F3       		.byte	0xf3
 8378 00f0 01       		.uleb128 0x1
 8379 00f1 51       		.byte	0x51
 8380 00f2 9F       		.byte	0x9f
 8381 00f3 00000000 		.4byte	0
 8382 00f7 00000000 		.4byte	0
 8383              	.LLST7:
 8384 00fb 00000000 		.4byte	.LVL12
 8385 00ff 0F000000 		.4byte	.LVL15-1
 8386 0103 0100     		.2byte	0x1
ARM GAS  C:\Users\GYULAI~1\AppData\Local\Temp\ccG7iLma.s 			page 171


 8387 0105 52       		.byte	0x52
 8388 0106 0F000000 		.4byte	.LVL15-1
 8389 010a 32000000 		.4byte	.LVL22
 8390 010e 0100     		.2byte	0x1
 8391 0110 56       		.byte	0x56
 8392 0111 32000000 		.4byte	.LVL22
 8393 0115 38000000 		.4byte	.LFE1
 8394 0119 0400     		.2byte	0x4
 8395 011b F3       		.byte	0xf3
 8396 011c 01       		.uleb128 0x1
 8397 011d 52       		.byte	0x52
 8398 011e 9F       		.byte	0x9f
 8399 011f 00000000 		.4byte	0
 8400 0123 00000000 		.4byte	0
 8401              	.LLST8:
 8402 0127 00000000 		.4byte	.LVL12
 8403 012b 0C000000 		.4byte	.LVL13
 8404 012f 0100     		.2byte	0x1
 8405 0131 53       		.byte	0x53
 8406 0132 0C000000 		.4byte	.LVL13
 8407 0136 38000000 		.4byte	.LFE1
 8408 013a 0400     		.2byte	0x4
 8409 013c F3       		.byte	0xf3
 8410 013d 01       		.uleb128 0x1
 8411 013e 53       		.byte	0x53
 8412 013f 9F       		.byte	0x9f
 8413 0140 00000000 		.4byte	0
 8414 0144 00000000 		.4byte	0
 8415              	.LLST9:
 8416 0148 16000000 		.4byte	.LVL16
 8417 014c 1A000000 		.4byte	.LVL17
 8418 0150 0200     		.2byte	0x2
 8419 0152 30       		.byte	0x30
 8420 0153 9F       		.byte	0x9f
 8421 0154 1A000000 		.4byte	.LVL17
 8422 0158 24000000 		.4byte	.LVL19
 8423 015c 0100     		.2byte	0x1
 8424 015e 54       		.byte	0x54
 8425 015f 26000000 		.4byte	.LVL20
 8426 0163 32000000 		.4byte	.LVL22
 8427 0167 0100     		.2byte	0x1
 8428 0169 54       		.byte	0x54
 8429 016a 00000000 		.4byte	0
 8430 016e 00000000 		.4byte	0
 8431              	.LLST10:
 8432 0172 04000000 		.4byte	.LVL24
 8433 0176 0C000000 		.4byte	.LVL26
 8434 017a 0100     		.2byte	0x1
 8435 017c 53       		.byte	0x53
 8436 017d 0C000000 		.4byte	.LVL26
 8437 0181 1C000000 		.4byte	.LFE7
 8438 0185 0500     		.2byte	0x5
 8439 0187 03       		.byte	0x3
 8440 0188 10000000 		.4byte	MCP7940N_RegistersLocal
 8441 018c 00000000 		.4byte	0
 8442 0190 00000000 		.4byte	0
 8443              	.LLST11:
ARM GAS  C:\Users\GYULAI~1\AppData\Local\Temp\ccG7iLma.s 			page 172


 8444 0194 08000000 		.4byte	.LVL25
 8445 0198 14000000 		.4byte	.LVL28
 8446 019c 0100     		.2byte	0x1
 8447 019e 50       		.byte	0x50
 8448 019f 14000000 		.4byte	.LVL28
 8449 01a3 1C000000 		.4byte	.LFE7
 8450 01a7 0A00     		.2byte	0xa
 8451 01a9 03       		.byte	0x3
 8452 01aa 10000000 		.4byte	MCP7940N_RegistersLocal
 8453 01ae 94       		.byte	0x94
 8454 01af 01       		.byte	0x1
 8455 01b0 3F       		.byte	0x3f
 8456 01b1 1A       		.byte	0x1a
 8457 01b2 9F       		.byte	0x9f
 8458 01b3 00000000 		.4byte	0
 8459 01b7 00000000 		.4byte	0
 8460              	.LLST12:
 8461 01bb 08000000 		.4byte	.LVL25
 8462 01bf 0C000000 		.4byte	.LVL26
 8463 01c3 0600     		.2byte	0x6
 8464 01c5 73       		.byte	0x73
 8465 01c6 00       		.sleb128 0
 8466 01c7 08       		.byte	0x8
 8467 01c8 70       		.byte	0x70
 8468 01c9 1A       		.byte	0x1a
 8469 01ca 9F       		.byte	0x9f
 8470 01cb 0C000000 		.4byte	.LVL26
 8471 01cf 10000000 		.4byte	.LVL27
 8472 01d3 0100     		.2byte	0x1
 8473 01d5 53       		.byte	0x53
 8474 01d6 10000000 		.4byte	.LVL27
 8475 01da 1C000000 		.4byte	.LFE7
 8476 01de 1000     		.2byte	0x10
 8477 01e0 03       		.byte	0x3
 8478 01e1 10000000 		.4byte	MCP7940N_RegistersLocal
 8479 01e5 94       		.byte	0x94
 8480 01e6 01       		.byte	0x1
 8481 01e7 08       		.byte	0x8
 8482 01e8 FF       		.byte	0xff
 8483 01e9 1A       		.byte	0x1a
 8484 01ea 09       		.byte	0x9
 8485 01eb FD       		.byte	0xfd
 8486 01ec 24       		.byte	0x24
 8487 01ed 31       		.byte	0x31
 8488 01ee 25       		.byte	0x25
 8489 01ef 9F       		.byte	0x9f
 8490 01f0 00000000 		.4byte	0
 8491 01f4 00000000 		.4byte	0
 8492              	.LLST13:
 8493 01f8 04000000 		.4byte	.LVL29
 8494 01fc 0C000000 		.4byte	.LVL31
 8495 0200 0100     		.2byte	0x1
 8496 0202 53       		.byte	0x53
 8497 0203 0C000000 		.4byte	.LVL31
 8498 0207 1C000000 		.4byte	.LFE8
 8499 020b 0500     		.2byte	0x5
 8500 020d 03       		.byte	0x3
ARM GAS  C:\Users\GYULAI~1\AppData\Local\Temp\ccG7iLma.s 			page 173


 8501 020e 11000000 		.4byte	MCP7940N_RegistersLocal+1
 8502 0212 00000000 		.4byte	0
 8503 0216 00000000 		.4byte	0
 8504              	.LLST14:
 8505 021a 08000000 		.4byte	.LVL30
 8506 021e 14000000 		.4byte	.LVL33
 8507 0222 0100     		.2byte	0x1
 8508 0224 50       		.byte	0x50
 8509 0225 14000000 		.4byte	.LVL33
 8510 0229 1C000000 		.4byte	.LFE8
 8511 022d 0A00     		.2byte	0xa
 8512 022f 03       		.byte	0x3
 8513 0230 11000000 		.4byte	MCP7940N_RegistersLocal+1
 8514 0234 94       		.byte	0x94
 8515 0235 01       		.byte	0x1
 8516 0236 3F       		.byte	0x3f
 8517 0237 1A       		.byte	0x1a
 8518 0238 9F       		.byte	0x9f
 8519 0239 00000000 		.4byte	0
 8520 023d 00000000 		.4byte	0
 8521              	.LLST15:
 8522 0241 08000000 		.4byte	.LVL30
 8523 0245 0C000000 		.4byte	.LVL31
 8524 0249 0600     		.2byte	0x6
 8525 024b 73       		.byte	0x73
 8526 024c 00       		.sleb128 0
 8527 024d 08       		.byte	0x8
 8528 024e 70       		.byte	0x70
 8529 024f 1A       		.byte	0x1a
 8530 0250 9F       		.byte	0x9f
 8531 0251 0C000000 		.4byte	.LVL31
 8532 0255 10000000 		.4byte	.LVL32
 8533 0259 0100     		.2byte	0x1
 8534 025b 53       		.byte	0x53
 8535 025c 10000000 		.4byte	.LVL32
 8536 0260 1C000000 		.4byte	.LFE8
 8537 0264 1000     		.2byte	0x10
 8538 0266 03       		.byte	0x3
 8539 0267 11000000 		.4byte	MCP7940N_RegistersLocal+1
 8540 026b 94       		.byte	0x94
 8541 026c 01       		.byte	0x1
 8542 026d 08       		.byte	0x8
 8543 026e FF       		.byte	0xff
 8544 026f 1A       		.byte	0x1a
 8545 0270 09       		.byte	0x9
 8546 0271 FD       		.byte	0xfd
 8547 0272 24       		.byte	0x24
 8548 0273 31       		.byte	0x31
 8549 0274 25       		.byte	0x25
 8550 0275 9F       		.byte	0x9f
 8551 0276 00000000 		.4byte	0
 8552 027a 00000000 		.4byte	0
 8553              	.LLST16:
 8554 027e 04000000 		.4byte	.LVL34
 8555 0282 0C000000 		.4byte	.LVL36
 8556 0286 0100     		.2byte	0x1
 8557 0288 53       		.byte	0x53
ARM GAS  C:\Users\GYULAI~1\AppData\Local\Temp\ccG7iLma.s 			page 174


 8558 0289 0C000000 		.4byte	.LVL36
 8559 028d 1C000000 		.4byte	.LFE9
 8560 0291 0500     		.2byte	0x5
 8561 0293 03       		.byte	0x3
 8562 0294 12000000 		.4byte	MCP7940N_RegistersLocal+2
 8563 0298 00000000 		.4byte	0
 8564 029c 00000000 		.4byte	0
 8565              	.LLST17:
 8566 02a0 08000000 		.4byte	.LVL35
 8567 02a4 14000000 		.4byte	.LVL38
 8568 02a8 0100     		.2byte	0x1
 8569 02aa 50       		.byte	0x50
 8570 02ab 14000000 		.4byte	.LVL38
 8571 02af 1C000000 		.4byte	.LFE9
 8572 02b3 0A00     		.2byte	0xa
 8573 02b5 03       		.byte	0x3
 8574 02b6 12000000 		.4byte	MCP7940N_RegistersLocal+2
 8575 02ba 94       		.byte	0x94
 8576 02bb 01       		.byte	0x1
 8577 02bc 3F       		.byte	0x3f
 8578 02bd 1A       		.byte	0x1a
 8579 02be 9F       		.byte	0x9f
 8580 02bf 00000000 		.4byte	0
 8581 02c3 00000000 		.4byte	0
 8582              	.LLST18:
 8583 02c7 08000000 		.4byte	.LVL35
 8584 02cb 0C000000 		.4byte	.LVL36
 8585 02cf 0600     		.2byte	0x6
 8586 02d1 73       		.byte	0x73
 8587 02d2 00       		.sleb128 0
 8588 02d3 08       		.byte	0x8
 8589 02d4 30       		.byte	0x30
 8590 02d5 1A       		.byte	0x1a
 8591 02d6 9F       		.byte	0x9f
 8592 02d7 0C000000 		.4byte	.LVL36
 8593 02db 10000000 		.4byte	.LVL37
 8594 02df 0100     		.2byte	0x1
 8595 02e1 53       		.byte	0x53
 8596 02e2 10000000 		.4byte	.LVL37
 8597 02e6 1C000000 		.4byte	.LFE9
 8598 02ea 1000     		.2byte	0x10
 8599 02ec 03       		.byte	0x3
 8600 02ed 12000000 		.4byte	MCP7940N_RegistersLocal+2
 8601 02f1 94       		.byte	0x94
 8602 02f2 01       		.byte	0x1
 8603 02f3 08       		.byte	0x8
 8604 02f4 FF       		.byte	0xff
 8605 02f5 1A       		.byte	0x1a
 8606 02f6 09       		.byte	0x9
 8607 02f7 FE       		.byte	0xfe
 8608 02f8 24       		.byte	0x24
 8609 02f9 32       		.byte	0x32
 8610 02fa 25       		.byte	0x25
 8611 02fb 9F       		.byte	0x9f
 8612 02fc 00000000 		.4byte	0
 8613 0300 00000000 		.4byte	0
 8614              	.LLST19:
ARM GAS  C:\Users\GYULAI~1\AppData\Local\Temp\ccG7iLma.s 			page 175


 8615 0304 04000000 		.4byte	.LVL39
 8616 0308 0C000000 		.4byte	.LVL41
 8617 030c 0100     		.2byte	0x1
 8618 030e 53       		.byte	0x53
 8619 030f 0C000000 		.4byte	.LVL41
 8620 0313 1C000000 		.4byte	.LFE10
 8621 0317 0500     		.2byte	0x5
 8622 0319 03       		.byte	0x3
 8623 031a 14000000 		.4byte	MCP7940N_RegistersLocal+4
 8624 031e 00000000 		.4byte	0
 8625 0322 00000000 		.4byte	0
 8626              	.LLST20:
 8627 0326 08000000 		.4byte	.LVL40
 8628 032a 14000000 		.4byte	.LVL43
 8629 032e 0100     		.2byte	0x1
 8630 0330 50       		.byte	0x50
 8631 0331 14000000 		.4byte	.LVL43
 8632 0335 1C000000 		.4byte	.LFE10
 8633 0339 0A00     		.2byte	0xa
 8634 033b 03       		.byte	0x3
 8635 033c 14000000 		.4byte	MCP7940N_RegistersLocal+4
 8636 0340 94       		.byte	0x94
 8637 0341 01       		.byte	0x1
 8638 0342 3F       		.byte	0x3f
 8639 0343 1A       		.byte	0x1a
 8640 0344 9F       		.byte	0x9f
 8641 0345 00000000 		.4byte	0
 8642 0349 00000000 		.4byte	0
 8643              	.LLST21:
 8644 034d 08000000 		.4byte	.LVL40
 8645 0351 0C000000 		.4byte	.LVL41
 8646 0355 0600     		.2byte	0x6
 8647 0357 73       		.byte	0x73
 8648 0358 00       		.sleb128 0
 8649 0359 08       		.byte	0x8
 8650 035a 30       		.byte	0x30
 8651 035b 1A       		.byte	0x1a
 8652 035c 9F       		.byte	0x9f
 8653 035d 0C000000 		.4byte	.LVL41
 8654 0361 10000000 		.4byte	.LVL42
 8655 0365 0100     		.2byte	0x1
 8656 0367 53       		.byte	0x53
 8657 0368 10000000 		.4byte	.LVL42
 8658 036c 1C000000 		.4byte	.LFE10
 8659 0370 1000     		.2byte	0x10
 8660 0372 03       		.byte	0x3
 8661 0373 14000000 		.4byte	MCP7940N_RegistersLocal+4
 8662 0377 94       		.byte	0x94
 8663 0378 01       		.byte	0x1
 8664 0379 08       		.byte	0x8
 8665 037a FF       		.byte	0xff
 8666 037b 1A       		.byte	0x1a
 8667 037c 09       		.byte	0x9
 8668 037d FE       		.byte	0xfe
 8669 037e 24       		.byte	0x24
 8670 037f 32       		.byte	0x32
 8671 0380 25       		.byte	0x25
ARM GAS  C:\Users\GYULAI~1\AppData\Local\Temp\ccG7iLma.s 			page 176


 8672 0381 9F       		.byte	0x9f
 8673 0382 00000000 		.4byte	0
 8674 0386 00000000 		.4byte	0
 8675              	.LLST22:
 8676 038a 04000000 		.4byte	.LVL44
 8677 038e 08000000 		.4byte	.LVL45
 8678 0392 0100     		.2byte	0x1
 8679 0394 50       		.byte	0x50
 8680 0395 08000000 		.4byte	.LVL45
 8681 0399 10000000 		.4byte	.LFE11
 8682 039d 0500     		.2byte	0x5
 8683 039f 03       		.byte	0x3
 8684 03a0 13000000 		.4byte	MCP7940N_RegistersLocal+3
 8685 03a4 00000000 		.4byte	0
 8686 03a8 00000000 		.4byte	0
 8687              	.LLST23:
 8688 03ac 04000000 		.4byte	.LVL46
 8689 03b0 0C000000 		.4byte	.LVL48
 8690 03b4 0100     		.2byte	0x1
 8691 03b6 53       		.byte	0x53
 8692 03b7 0C000000 		.4byte	.LVL48
 8693 03bb 1C000000 		.4byte	.LFE12
 8694 03bf 0500     		.2byte	0x5
 8695 03c1 03       		.byte	0x3
 8696 03c2 15000000 		.4byte	MCP7940N_RegistersLocal+5
 8697 03c6 00000000 		.4byte	0
 8698 03ca 00000000 		.4byte	0
 8699              	.LLST24:
 8700 03ce 08000000 		.4byte	.LVL47
 8701 03d2 14000000 		.4byte	.LVL50
 8702 03d6 0100     		.2byte	0x1
 8703 03d8 50       		.byte	0x50
 8704 03d9 14000000 		.4byte	.LVL50
 8705 03dd 1C000000 		.4byte	.LFE12
 8706 03e1 0A00     		.2byte	0xa
 8707 03e3 03       		.byte	0x3
 8708 03e4 15000000 		.4byte	MCP7940N_RegistersLocal+5
 8709 03e8 94       		.byte	0x94
 8710 03e9 01       		.byte	0x1
 8711 03ea 3F       		.byte	0x3f
 8712 03eb 1A       		.byte	0x1a
 8713 03ec 9F       		.byte	0x9f
 8714 03ed 00000000 		.4byte	0
 8715 03f1 00000000 		.4byte	0
 8716              	.LLST25:
 8717 03f5 08000000 		.4byte	.LVL47
 8718 03f9 0C000000 		.4byte	.LVL48
 8719 03fd 0500     		.2byte	0x5
 8720 03ff 73       		.byte	0x73
 8721 0400 00       		.sleb128 0
 8722 0401 40       		.byte	0x40
 8723 0402 1A       		.byte	0x1a
 8724 0403 9F       		.byte	0x9f
 8725 0404 0C000000 		.4byte	.LVL48
 8726 0408 10000000 		.4byte	.LVL49
 8727 040c 0100     		.2byte	0x1
 8728 040e 53       		.byte	0x53
ARM GAS  C:\Users\GYULAI~1\AppData\Local\Temp\ccG7iLma.s 			page 177


 8729 040f 10000000 		.4byte	.LVL49
 8730 0413 1C000000 		.4byte	.LFE12
 8731 0417 1000     		.2byte	0x10
 8732 0419 03       		.byte	0x3
 8733 041a 15000000 		.4byte	MCP7940N_RegistersLocal+5
 8734 041e 94       		.byte	0x94
 8735 041f 01       		.byte	0x1
 8736 0420 08       		.byte	0x8
 8737 0421 FF       		.byte	0xff
 8738 0422 1A       		.byte	0x1a
 8739 0423 09       		.byte	0x9
 8740 0424 FF       		.byte	0xff
 8741 0425 24       		.byte	0x24
 8742 0426 33       		.byte	0x33
 8743 0427 25       		.byte	0x25
 8744 0428 9F       		.byte	0x9f
 8745 0429 00000000 		.4byte	0
 8746 042d 00000000 		.4byte	0
 8747              	.LLST26:
 8748 0431 04000000 		.4byte	.LVL51
 8749 0435 0A000000 		.4byte	.LVL53
 8750 0439 0100     		.2byte	0x1
 8751 043b 53       		.byte	0x53
 8752 043c 0A000000 		.4byte	.LVL53
 8753 0440 20000000 		.4byte	.LFE13
 8754 0444 0500     		.2byte	0x5
 8755 0446 03       		.byte	0x3
 8756 0447 16000000 		.4byte	MCP7940N_RegistersLocal+6
 8757 044b 00000000 		.4byte	0
 8758 044f 00000000 		.4byte	0
 8759              	.LLST27:
 8760 0453 08000000 		.4byte	.LVL52
 8761 0457 0A000000 		.4byte	.LVL53
 8762 045b 0500     		.2byte	0x5
 8763 045d 73       		.byte	0x73
 8764 045e 00       		.sleb128 0
 8765 045f 34       		.byte	0x34
 8766 0460 25       		.byte	0x25
 8767 0461 9F       		.byte	0x9f
 8768 0462 0A000000 		.4byte	.LVL53
 8769 0466 20000000 		.4byte	.LFE13
 8770 046a 0A00     		.2byte	0xa
 8771 046c 03       		.byte	0x3
 8772 046d 16000000 		.4byte	MCP7940N_RegistersLocal+6
 8773 0471 94       		.byte	0x94
 8774 0472 01       		.byte	0x1
 8775 0473 34       		.byte	0x34
 8776 0474 25       		.byte	0x25
 8777 0475 9F       		.byte	0x9f
 8778 0476 00000000 		.4byte	0
 8779 047a 00000000 		.4byte	0
 8780              	.LLST28:
 8781 047e 00000000 		.4byte	.LVL54
 8782 0482 0C000000 		.4byte	.LVL55
 8783 0486 0200     		.2byte	0x2
 8784 0488 70       		.byte	0x70
 8785 0489 00       		.sleb128 0
ARM GAS  C:\Users\GYULAI~1\AppData\Local\Temp\ccG7iLma.s 			page 178


 8786 048a 0C000000 		.4byte	.LVL55
 8787 048e 3E000000 		.4byte	.LVL64
 8788 0492 0200     		.2byte	0x2
 8789 0494 74       		.byte	0x74
 8790 0495 00       		.sleb128 0
 8791 0496 3E000000 		.4byte	.LVL64
 8792 049a 44000000 		.4byte	.LFE6
 8793 049e 0200     		.2byte	0x2
 8794 04a0 70       		.byte	0x70
 8795 04a1 00       		.sleb128 0
 8796 04a2 00000000 		.4byte	0
 8797 04a6 00000000 		.4byte	0
 8798              	.LLST29:
 8799 04aa 00000000 		.4byte	.LVL65
 8800 04ae 10000000 		.4byte	.LVL66
 8801 04b2 0100     		.2byte	0x1
 8802 04b4 50       		.byte	0x50
 8803 04b5 10000000 		.4byte	.LVL66
 8804 04b9 30000000 		.4byte	.LFE15
 8805 04bd 0400     		.2byte	0x4
 8806 04bf F3       		.byte	0xf3
 8807 04c0 01       		.uleb128 0x1
 8808 04c1 50       		.byte	0x50
 8809 04c2 9F       		.byte	0x9f
 8810 04c3 00000000 		.4byte	0
 8811 04c7 00000000 		.4byte	0
 8812              	.LLST30:
 8813 04cb 12000000 		.4byte	.LVL67
 8814 04cf 16000000 		.4byte	.LVL68
 8815 04d3 0100     		.2byte	0x1
 8816 04d5 50       		.byte	0x50
 8817 04d6 00000000 		.4byte	0
 8818 04da 00000000 		.4byte	0
 8819              	.LLST31:
 8820 04de 12000000 		.4byte	.LVL67
 8821 04e2 1C000000 		.4byte	.LVL70
 8822 04e6 0100     		.2byte	0x1
 8823 04e8 53       		.byte	0x53
 8824 04e9 00000000 		.4byte	0
 8825 04ed 00000000 		.4byte	0
 8826              	.LLST32:
 8827 04f1 18000000 		.4byte	.LVL69
 8828 04f5 22000000 		.4byte	.LVL71
 8829 04f9 0100     		.2byte	0x1
 8830 04fb 50       		.byte	0x50
 8831 04fc 00000000 		.4byte	0
 8832 0500 00000000 		.4byte	0
 8833              	.LLST33:
 8834 0504 00000000 		.4byte	.LVL72
 8835 0508 10000000 		.4byte	.LVL73
 8836 050c 0100     		.2byte	0x1
 8837 050e 50       		.byte	0x50
 8838 050f 10000000 		.4byte	.LVL73
 8839 0513 24000000 		.4byte	.LFE16
 8840 0517 0400     		.2byte	0x4
 8841 0519 F3       		.byte	0xf3
 8842 051a 01       		.uleb128 0x1
ARM GAS  C:\Users\GYULAI~1\AppData\Local\Temp\ccG7iLma.s 			page 179


 8843 051b 50       		.byte	0x50
 8844 051c 9F       		.byte	0x9f
 8845 051d 00000000 		.4byte	0
 8846 0521 00000000 		.4byte	0
 8847              	.LLST34:
 8848 0525 12000000 		.4byte	.LVL74
 8849 0529 16000000 		.4byte	.LVL75
 8850 052d 0100     		.2byte	0x1
 8851 052f 50       		.byte	0x50
 8852 0530 00000000 		.4byte	0
 8853 0534 00000000 		.4byte	0
 8854              	.LLST35:
 8855 0538 12000000 		.4byte	.LVL74
 8856 053c 18000000 		.4byte	.LVL76
 8857 0540 0100     		.2byte	0x1
 8858 0542 53       		.byte	0x53
 8859 0543 00000000 		.4byte	0
 8860 0547 00000000 		.4byte	0
 8861              	.LLST36:
 8862 054b 00000000 		.4byte	.LVL77
 8863 054f 10000000 		.4byte	.LVL78
 8864 0553 0100     		.2byte	0x1
 8865 0555 50       		.byte	0x50
 8866 0556 10000000 		.4byte	.LVL78
 8867 055a 30000000 		.4byte	.LFE17
 8868 055e 0400     		.2byte	0x4
 8869 0560 F3       		.byte	0xf3
 8870 0561 01       		.uleb128 0x1
 8871 0562 50       		.byte	0x50
 8872 0563 9F       		.byte	0x9f
 8873 0564 00000000 		.4byte	0
 8874 0568 00000000 		.4byte	0
 8875              	.LLST37:
 8876 056c 12000000 		.4byte	.LVL79
 8877 0570 16000000 		.4byte	.LVL80
 8878 0574 0100     		.2byte	0x1
 8879 0576 50       		.byte	0x50
 8880 0577 00000000 		.4byte	0
 8881 057b 00000000 		.4byte	0
 8882              	.LLST38:
 8883 057f 12000000 		.4byte	.LVL79
 8884 0583 1C000000 		.4byte	.LVL82
 8885 0587 0100     		.2byte	0x1
 8886 0589 53       		.byte	0x53
 8887 058a 00000000 		.4byte	0
 8888 058e 00000000 		.4byte	0
 8889              	.LLST39:
 8890 0592 18000000 		.4byte	.LVL81
 8891 0596 22000000 		.4byte	.LVL83
 8892 059a 0100     		.2byte	0x1
 8893 059c 50       		.byte	0x50
 8894 059d 00000000 		.4byte	0
 8895 05a1 00000000 		.4byte	0
 8896              	.LLST40:
 8897 05a5 00000000 		.4byte	.LVL84
 8898 05a9 10000000 		.4byte	.LVL85
 8899 05ad 0100     		.2byte	0x1
ARM GAS  C:\Users\GYULAI~1\AppData\Local\Temp\ccG7iLma.s 			page 180


 8900 05af 50       		.byte	0x50
 8901 05b0 10000000 		.4byte	.LVL85
 8902 05b4 28000000 		.4byte	.LFE18
 8903 05b8 0400     		.2byte	0x4
 8904 05ba F3       		.byte	0xf3
 8905 05bb 01       		.uleb128 0x1
 8906 05bc 50       		.byte	0x50
 8907 05bd 9F       		.byte	0x9f
 8908 05be 00000000 		.4byte	0
 8909 05c2 00000000 		.4byte	0
 8910              	.LLST41:
 8911 05c6 14000000 		.4byte	.LVL87
 8912 05ca 18000000 		.4byte	.LVL88
 8913 05ce 0100     		.2byte	0x1
 8914 05d0 53       		.byte	0x53
 8915 05d1 00000000 		.4byte	0
 8916 05d5 00000000 		.4byte	0
 8917              	.LLST42:
 8918 05d9 00000000 		.4byte	.LVL89
 8919 05dd 0A000000 		.4byte	.LVL90
 8920 05e1 0100     		.2byte	0x1
 8921 05e3 50       		.byte	0x50
 8922 05e4 0A000000 		.4byte	.LVL90
 8923 05e8 14000000 		.4byte	.LFE19
 8924 05ec 0400     		.2byte	0x4
 8925 05ee F3       		.byte	0xf3
 8926 05ef 01       		.uleb128 0x1
 8927 05f0 50       		.byte	0x50
 8928 05f1 9F       		.byte	0x9f
 8929 05f2 00000000 		.4byte	0
 8930 05f6 00000000 		.4byte	0
 8931              	.LLST43:
 8932 05fa 00000000 		.4byte	.LVL91
 8933 05fe 10000000 		.4byte	.LVL92
 8934 0602 0100     		.2byte	0x1
 8935 0604 50       		.byte	0x50
 8936 0605 10000000 		.4byte	.LVL92
 8937 0609 24000000 		.4byte	.LFE20
 8938 060d 0400     		.2byte	0x4
 8939 060f F3       		.byte	0xf3
 8940 0610 01       		.uleb128 0x1
 8941 0611 50       		.byte	0x50
 8942 0612 9F       		.byte	0x9f
 8943 0613 00000000 		.4byte	0
 8944 0617 00000000 		.4byte	0
 8945              	.LLST44:
 8946 061b 12000000 		.4byte	.LVL93
 8947 061f 16000000 		.4byte	.LVL94
 8948 0623 0100     		.2byte	0x1
 8949 0625 50       		.byte	0x50
 8950 0626 00000000 		.4byte	0
 8951 062a 00000000 		.4byte	0
 8952              	.LLST45:
 8953 062e 12000000 		.4byte	.LVL93
 8954 0632 18000000 		.4byte	.LVL95
 8955 0636 0100     		.2byte	0x1
 8956 0638 53       		.byte	0x53
ARM GAS  C:\Users\GYULAI~1\AppData\Local\Temp\ccG7iLma.s 			page 181


 8957 0639 00000000 		.4byte	0
 8958 063d 00000000 		.4byte	0
 8959              	.LLST46:
 8960 0641 00000000 		.4byte	.LVL96
 8961 0645 04000000 		.4byte	.LVL97
 8962 0649 0100     		.2byte	0x1
 8963 064b 50       		.byte	0x50
 8964 064c 04000000 		.4byte	.LVL97
 8965 0650 06000000 		.4byte	.LVL98
 8966 0654 0400     		.2byte	0x4
 8967 0656 F3       		.byte	0xf3
 8968 0657 01       		.uleb128 0x1
 8969 0658 50       		.byte	0x50
 8970 0659 9F       		.byte	0x9f
 8971 065a 06000000 		.4byte	.LVL98
 8972 065e 16000000 		.4byte	.LVL99
 8973 0662 0100     		.2byte	0x1
 8974 0664 50       		.byte	0x50
 8975 0665 00000000 		.4byte	0
 8976 0669 00000000 		.4byte	0
 8977              	.LLST47:
 8978 066d 18000000 		.4byte	.LVL100
 8979 0671 1E000000 		.4byte	.LVL102
 8980 0675 0100     		.2byte	0x1
 8981 0677 50       		.byte	0x50
 8982 0678 00000000 		.4byte	0
 8983 067c 00000000 		.4byte	0
 8984              	.LLST48:
 8985 0680 1A000000 		.4byte	.LVL101
 8986 0684 20000000 		.4byte	.LVL103
 8987 0688 0100     		.2byte	0x1
 8988 068a 53       		.byte	0x53
 8989 068b 00000000 		.4byte	0
 8990 068f 00000000 		.4byte	0
 8991              	.LLST49:
 8992 0693 00000000 		.4byte	.LVL113
 8993 0697 3C000000 		.4byte	.LVL114
 8994 069b 0100     		.2byte	0x1
 8995 069d 50       		.byte	0x50
 8996 069e 3C000000 		.4byte	.LVL114
 8997 06a2 4C000000 		.4byte	.LFE32
 8998 06a6 0400     		.2byte	0x4
 8999 06a8 F3       		.byte	0xf3
 9000 06a9 01       		.uleb128 0x1
 9001 06aa 50       		.byte	0x50
 9002 06ab 9F       		.byte	0x9f
 9003 06ac 00000000 		.4byte	0
 9004 06b0 00000000 		.4byte	0
 9005              	.LLST50:
 9006 06b4 04000000 		.4byte	.LVL116
 9007 06b8 08000000 		.4byte	.LVL117
 9008 06bc 0100     		.2byte	0x1
 9009 06be 53       		.byte	0x53
 9010 06bf 08000000 		.4byte	.LVL117
 9011 06c3 3C000000 		.4byte	.LFE33
 9012 06c7 0500     		.2byte	0x5
 9013 06c9 03       		.byte	0x3
ARM GAS  C:\Users\GYULAI~1\AppData\Local\Temp\ccG7iLma.s 			page 182


 9014 06ca 17000000 		.4byte	MCP7940N_RegistersLocal+7
 9015 06ce 00000000 		.4byte	0
 9016 06d2 00000000 		.4byte	0
 9017              	.LLST51:
 9018 06d6 00000000 		.4byte	.LVL118
 9019 06da 0C000000 		.4byte	.LVL119
 9020 06de 0100     		.2byte	0x1
 9021 06e0 50       		.byte	0x50
 9022 06e1 0C000000 		.4byte	.LVL119
 9023 06e5 20000000 		.4byte	.LFE34
 9024 06e9 0400     		.2byte	0x4
 9025 06eb F3       		.byte	0xf3
 9026 06ec 01       		.uleb128 0x1
 9027 06ed 50       		.byte	0x50
 9028 06ee 9F       		.byte	0x9f
 9029 06ef 00000000 		.4byte	0
 9030 06f3 00000000 		.4byte	0
 9031              	.LLST52:
 9032 06f7 00000000 		.4byte	.LVL123
 9033 06fb 04000000 		.4byte	.LVL124
 9034 06ff 0100     		.2byte	0x1
 9035 0701 50       		.byte	0x50
 9036 0702 04000000 		.4byte	.LVL124
 9037 0706 40000000 		.4byte	.LFE38
 9038 070a 0400     		.2byte	0x4
 9039 070c F3       		.byte	0xf3
 9040 070d 01       		.uleb128 0x1
 9041 070e 50       		.byte	0x50
 9042 070f 9F       		.byte	0x9f
 9043 0710 00000000 		.4byte	0
 9044 0714 00000000 		.4byte	0
 9045              	.LLST53:
 9046 0718 08000000 		.4byte	.LVL126
 9047 071c 10000000 		.4byte	.LVL127
 9048 0720 0100     		.2byte	0x1
 9049 0722 50       		.byte	0x50
 9050 0723 10000000 		.4byte	.LVL127
 9051 0727 12000000 		.4byte	.LVL128
 9052 072b 0400     		.2byte	0x4
 9053 072d 70       		.byte	0x70
 9054 072e 00       		.sleb128 0
 9055 072f 1F       		.byte	0x1f
 9056 0730 9F       		.byte	0x9f
 9057 0731 12000000 		.4byte	.LVL128
 9058 0735 14000000 		.4byte	.LVL129
 9059 0739 0600     		.2byte	0x6
 9060 073b 73       		.byte	0x73
 9061 073c 00       		.sleb128 0
 9062 073d 08       		.byte	0x8
 9063 073e 7F       		.byte	0x7f
 9064 073f 1A       		.byte	0x1a
 9065 0740 9F       		.byte	0x9f
 9066 0741 14000000 		.4byte	.LVL129
 9067 0745 1C000000 		.4byte	.LFE39
 9068 0749 0100     		.2byte	0x1
 9069 074b 50       		.byte	0x50
 9070 074c 00000000 		.4byte	0
ARM GAS  C:\Users\GYULAI~1\AppData\Local\Temp\ccG7iLma.s 			page 183


 9071 0750 00000000 		.4byte	0
 9072              	.LLST54:
 9073 0754 00000000 		.4byte	.LVL130
 9074 0758 0C000000 		.4byte	.LVL131
 9075 075c 0100     		.2byte	0x1
 9076 075e 50       		.byte	0x50
 9077 075f 0C000000 		.4byte	.LVL131
 9078 0763 20000000 		.4byte	.LFE41
 9079 0767 0400     		.2byte	0x4
 9080 0769 F3       		.byte	0xf3
 9081 076a 01       		.uleb128 0x1
 9082 076b 50       		.byte	0x50
 9083 076c 9F       		.byte	0x9f
 9084 076d 00000000 		.4byte	0
 9085 0771 00000000 		.4byte	0
 9086              	.LLST55:
 9087 0775 08000000 		.4byte	.LVL136
 9088 0779 40000000 		.4byte	.LVL147
 9089 077d 0100     		.2byte	0x1
 9090 077f 54       		.byte	0x54
 9091 0780 00000000 		.4byte	0
 9092 0784 00000000 		.4byte	0
 9093              	.LLST56:
 9094 0788 0E000000 		.4byte	.LVL138
 9095 078c 13000000 		.4byte	.LVL139-1
 9096 0790 0100     		.2byte	0x1
 9097 0792 50       		.byte	0x50
 9098 0793 16000000 		.4byte	.LVL140
 9099 0797 1B000000 		.4byte	.LVL141-1
 9100 079b 0100     		.2byte	0x1
 9101 079d 50       		.byte	0x50
 9102 079e 00000000 		.4byte	0
 9103 07a2 00000000 		.4byte	0
 9104              	.LLST57:
 9105 07a6 10000000 		.4byte	.LVL149
 9106 07aa 90000000 		.4byte	.LVL167
 9107 07ae 0100     		.2byte	0x1
 9108 07b0 54       		.byte	0x54
 9109 07b1 00000000 		.4byte	0
 9110 07b5 00000000 		.4byte	0
 9111              	.LLST58:
 9112 07b9 16000000 		.4byte	.LVL151
 9113 07bd 1B000000 		.4byte	.LVL152-1
 9114 07c1 0100     		.2byte	0x1
 9115 07c3 50       		.byte	0x50
 9116 07c4 1E000000 		.4byte	.LVL153
 9117 07c8 23000000 		.4byte	.LVL154-1
 9118 07cc 0100     		.2byte	0x1
 9119 07ce 50       		.byte	0x50
 9120 07cf 00000000 		.4byte	0
 9121 07d3 00000000 		.4byte	0
 9122              	.LLST59:
 9123 07d7 08000000 		.4byte	.LVL169
 9124 07db 5A000000 		.4byte	.LVL181
 9125 07df 0100     		.2byte	0x1
 9126 07e1 55       		.byte	0x55
 9127 07e2 00000000 		.4byte	0
ARM GAS  C:\Users\GYULAI~1\AppData\Local\Temp\ccG7iLma.s 			page 184


 9128 07e6 00000000 		.4byte	0
 9129              	.LLST60:
 9130 07ea 0E000000 		.4byte	.LVL171
 9131 07ee 13000000 		.4byte	.LVL172-1
 9132 07f2 0100     		.2byte	0x1
 9133 07f4 50       		.byte	0x50
 9134 07f5 16000000 		.4byte	.LVL173
 9135 07f9 1B000000 		.4byte	.LVL174-1
 9136 07fd 0100     		.2byte	0x1
 9137 07ff 50       		.byte	0x50
 9138 0800 00000000 		.4byte	0
 9139 0804 00000000 		.4byte	0
 9140              	.LLST61:
 9141 0808 08000000 		.4byte	.LVL183
 9142 080c 5A000000 		.4byte	.LVL195
 9143 0810 0100     		.2byte	0x1
 9144 0812 55       		.byte	0x55
 9145 0813 00000000 		.4byte	0
 9146 0817 00000000 		.4byte	0
 9147              	.LLST62:
 9148 081b 0E000000 		.4byte	.LVL185
 9149 081f 13000000 		.4byte	.LVL186-1
 9150 0823 0100     		.2byte	0x1
 9151 0825 50       		.byte	0x50
 9152 0826 16000000 		.4byte	.LVL187
 9153 082a 1B000000 		.4byte	.LVL188-1
 9154 082e 0100     		.2byte	0x1
 9155 0830 50       		.byte	0x50
 9156 0831 00000000 		.4byte	0
 9157 0835 00000000 		.4byte	0
 9158              	.LLST63:
 9159 0839 08000000 		.4byte	.LVL197
 9160 083d 5A000000 		.4byte	.LVL209
 9161 0841 0100     		.2byte	0x1
 9162 0843 55       		.byte	0x55
 9163 0844 00000000 		.4byte	0
 9164 0848 00000000 		.4byte	0
 9165              	.LLST64:
 9166 084c 0E000000 		.4byte	.LVL199
 9167 0850 13000000 		.4byte	.LVL200-1
 9168 0854 0100     		.2byte	0x1
 9169 0856 50       		.byte	0x50
 9170 0857 16000000 		.4byte	.LVL201
 9171 085b 1B000000 		.4byte	.LVL202-1
 9172 085f 0100     		.2byte	0x1
 9173 0861 50       		.byte	0x50
 9174 0862 00000000 		.4byte	0
 9175 0866 00000000 		.4byte	0
 9176              	.LLST65:
 9177 086a 00000000 		.4byte	.LVL210
 9178 086e 1A000000 		.4byte	.LVL216
 9179 0872 0100     		.2byte	0x1
 9180 0874 50       		.byte	0x50
 9181 0875 1A000000 		.4byte	.LVL216
 9182 0879 30000000 		.4byte	.LFE46
 9183 087d 0400     		.2byte	0x4
 9184 087f F3       		.byte	0xf3
ARM GAS  C:\Users\GYULAI~1\AppData\Local\Temp\ccG7iLma.s 			page 185


 9185 0880 01       		.uleb128 0x1
 9186 0881 50       		.byte	0x50
 9187 0882 9F       		.byte	0x9f
 9188 0883 00000000 		.4byte	0
 9189 0887 00000000 		.4byte	0
 9190              	.LLST66:
 9191 088b 00000000 		.4byte	.LVL210
 9192 088f 0C000000 		.4byte	.LVL211
 9193 0893 0200     		.2byte	0x2
 9194 0895 30       		.byte	0x30
 9195 0896 9F       		.byte	0x9f
 9196 0897 0C000000 		.4byte	.LVL211
 9197 089b 0E000000 		.4byte	.LVL212
 9198 089f 0100     		.2byte	0x1
 9199 08a1 53       		.byte	0x53
 9200 08a2 0E000000 		.4byte	.LVL212
 9201 08a6 12000000 		.4byte	.LVL213
 9202 08aa 0200     		.2byte	0x2
 9203 08ac 30       		.byte	0x30
 9204 08ad 9F       		.byte	0x9f
 9205 08ae 12000000 		.4byte	.LVL213
 9206 08b2 14000000 		.4byte	.LVL214
 9207 08b6 0100     		.2byte	0x1
 9208 08b8 53       		.byte	0x53
 9209 08b9 14000000 		.4byte	.LVL214
 9210 08bd 16000000 		.4byte	.LVL215
 9211 08c1 0200     		.2byte	0x2
 9212 08c3 30       		.byte	0x30
 9213 08c4 9F       		.byte	0x9f
 9214 08c5 16000000 		.4byte	.LVL215
 9215 08c9 1E000000 		.4byte	.LVL217
 9216 08cd 0100     		.2byte	0x1
 9217 08cf 53       		.byte	0x53
 9218 08d0 00000000 		.4byte	0
 9219 08d4 00000000 		.4byte	0
 9220              	.LLST67:
 9221 08d8 1A000000 		.4byte	.LVL216
 9222 08dc 26000000 		.4byte	.LVL219
 9223 08e0 0100     		.2byte	0x1
 9224 08e2 50       		.byte	0x50
 9225 08e3 00000000 		.4byte	0
 9226 08e7 00000000 		.4byte	0
 9227              	.LLST68:
 9228 08eb 1A000000 		.4byte	.LVL216
 9229 08ef 1E000000 		.4byte	.LVL217
 9230 08f3 0600     		.2byte	0x6
 9231 08f5 73       		.byte	0x73
 9232 08f6 00       		.sleb128 0
 9233 08f7 08       		.byte	0x8
 9234 08f8 70       		.byte	0x70
 9235 08f9 1A       		.byte	0x1a
 9236 08fa 9F       		.byte	0x9f
 9237 08fb 1E000000 		.4byte	.LVL217
 9238 08ff 22000000 		.4byte	.LVL218
 9239 0903 0100     		.2byte	0x1
 9240 0905 53       		.byte	0x53
 9241 0906 00000000 		.4byte	0
ARM GAS  C:\Users\GYULAI~1\AppData\Local\Temp\ccG7iLma.s 			page 186


 9242 090a 00000000 		.4byte	0
 9243              	.LLST69:
 9244 090e 00000000 		.4byte	.LVL220
 9245 0912 1C000000 		.4byte	.LVL226
 9246 0916 0100     		.2byte	0x1
 9247 0918 50       		.byte	0x50
 9248 0919 1C000000 		.4byte	.LVL226
 9249 091d 30000000 		.4byte	.LFE47
 9250 0921 0400     		.2byte	0x4
 9251 0923 F3       		.byte	0xf3
 9252 0924 01       		.uleb128 0x1
 9253 0925 50       		.byte	0x50
 9254 0926 9F       		.byte	0x9f
 9255 0927 00000000 		.4byte	0
 9256 092b 00000000 		.4byte	0
 9257              	.LLST70:
 9258 092f 00000000 		.4byte	.LVL220
 9259 0933 0C000000 		.4byte	.LVL221
 9260 0937 0200     		.2byte	0x2
 9261 0939 30       		.byte	0x30
 9262 093a 9F       		.byte	0x9f
 9263 093b 0C000000 		.4byte	.LVL221
 9264 093f 0E000000 		.4byte	.LVL222
 9265 0943 0100     		.2byte	0x1
 9266 0945 53       		.byte	0x53
 9267 0946 0E000000 		.4byte	.LVL222
 9268 094a 14000000 		.4byte	.LVL223
 9269 094e 0200     		.2byte	0x2
 9270 0950 30       		.byte	0x30
 9271 0951 9F       		.byte	0x9f
 9272 0952 14000000 		.4byte	.LVL223
 9273 0956 16000000 		.4byte	.LVL224
 9274 095a 0100     		.2byte	0x1
 9275 095c 53       		.byte	0x53
 9276 095d 16000000 		.4byte	.LVL224
 9277 0961 18000000 		.4byte	.LVL225
 9278 0965 0200     		.2byte	0x2
 9279 0967 30       		.byte	0x30
 9280 0968 9F       		.byte	0x9f
 9281 0969 18000000 		.4byte	.LVL225
 9282 096d 20000000 		.4byte	.LVL227
 9283 0971 0100     		.2byte	0x1
 9284 0973 53       		.byte	0x53
 9285 0974 00000000 		.4byte	0
 9286 0978 00000000 		.4byte	0
 9287              	.LLST71:
 9288 097c 1C000000 		.4byte	.LVL226
 9289 0980 28000000 		.4byte	.LVL229
 9290 0984 0100     		.2byte	0x1
 9291 0986 50       		.byte	0x50
 9292 0987 00000000 		.4byte	0
 9293 098b 00000000 		.4byte	0
 9294              	.LLST72:
 9295 098f 1C000000 		.4byte	.LVL226
 9296 0993 20000000 		.4byte	.LVL227
 9297 0997 0600     		.2byte	0x6
 9298 0999 73       		.byte	0x73
ARM GAS  C:\Users\GYULAI~1\AppData\Local\Temp\ccG7iLma.s 			page 187


 9299 099a 00       		.sleb128 0
 9300 099b 08       		.byte	0x8
 9301 099c 70       		.byte	0x70
 9302 099d 1A       		.byte	0x1a
 9303 099e 9F       		.byte	0x9f
 9304 099f 20000000 		.4byte	.LVL227
 9305 09a3 24000000 		.4byte	.LVL228
 9306 09a7 0100     		.2byte	0x1
 9307 09a9 53       		.byte	0x53
 9308 09aa 00000000 		.4byte	0
 9309 09ae 00000000 		.4byte	0
 9310              	.LLST73:
 9311 09b2 00000000 		.4byte	.LVL230
 9312 09b6 1C000000 		.4byte	.LVL236
 9313 09ba 0100     		.2byte	0x1
 9314 09bc 50       		.byte	0x50
 9315 09bd 1C000000 		.4byte	.LVL236
 9316 09c1 30000000 		.4byte	.LFE48
 9317 09c5 0400     		.2byte	0x4
 9318 09c7 F3       		.byte	0xf3
 9319 09c8 01       		.uleb128 0x1
 9320 09c9 50       		.byte	0x50
 9321 09ca 9F       		.byte	0x9f
 9322 09cb 00000000 		.4byte	0
 9323 09cf 00000000 		.4byte	0
 9324              	.LLST74:
 9325 09d3 00000000 		.4byte	.LVL230
 9326 09d7 0C000000 		.4byte	.LVL231
 9327 09db 0200     		.2byte	0x2
 9328 09dd 30       		.byte	0x30
 9329 09de 9F       		.byte	0x9f
 9330 09df 0C000000 		.4byte	.LVL231
 9331 09e3 0E000000 		.4byte	.LVL232
 9332 09e7 0100     		.2byte	0x1
 9333 09e9 53       		.byte	0x53
 9334 09ea 0E000000 		.4byte	.LVL232
 9335 09ee 14000000 		.4byte	.LVL233
 9336 09f2 0200     		.2byte	0x2
 9337 09f4 30       		.byte	0x30
 9338 09f5 9F       		.byte	0x9f
 9339 09f6 14000000 		.4byte	.LVL233
 9340 09fa 16000000 		.4byte	.LVL234
 9341 09fe 0100     		.2byte	0x1
 9342 0a00 53       		.byte	0x53
 9343 0a01 16000000 		.4byte	.LVL234
 9344 0a05 18000000 		.4byte	.LVL235
 9345 0a09 0200     		.2byte	0x2
 9346 0a0b 30       		.byte	0x30
 9347 0a0c 9F       		.byte	0x9f
 9348 0a0d 18000000 		.4byte	.LVL235
 9349 0a11 20000000 		.4byte	.LVL237
 9350 0a15 0100     		.2byte	0x1
 9351 0a17 53       		.byte	0x53
 9352 0a18 00000000 		.4byte	0
 9353 0a1c 00000000 		.4byte	0
 9354              	.LLST75:
 9355 0a20 1C000000 		.4byte	.LVL236
ARM GAS  C:\Users\GYULAI~1\AppData\Local\Temp\ccG7iLma.s 			page 188


 9356 0a24 28000000 		.4byte	.LVL239
 9357 0a28 0100     		.2byte	0x1
 9358 0a2a 50       		.byte	0x50
 9359 0a2b 00000000 		.4byte	0
 9360 0a2f 00000000 		.4byte	0
 9361              	.LLST76:
 9362 0a33 1C000000 		.4byte	.LVL236
 9363 0a37 20000000 		.4byte	.LVL237
 9364 0a3b 0600     		.2byte	0x6
 9365 0a3d 73       		.byte	0x73
 9366 0a3e 00       		.sleb128 0
 9367 0a3f 08       		.byte	0x8
 9368 0a40 30       		.byte	0x30
 9369 0a41 1A       		.byte	0x1a
 9370 0a42 9F       		.byte	0x9f
 9371 0a43 20000000 		.4byte	.LVL237
 9372 0a47 24000000 		.4byte	.LVL238
 9373 0a4b 0100     		.2byte	0x1
 9374 0a4d 53       		.byte	0x53
 9375 0a4e 00000000 		.4byte	0
 9376 0a52 00000000 		.4byte	0
 9377              	.LLST77:
 9378 0a56 00000000 		.4byte	.LVL240
 9379 0a5a 0C000000 		.4byte	.LVL241
 9380 0a5e 0100     		.2byte	0x1
 9381 0a60 50       		.byte	0x50
 9382 0a61 0C000000 		.4byte	.LVL241
 9383 0a65 0E000000 		.4byte	.LVL242
 9384 0a69 0400     		.2byte	0x4
 9385 0a6b F3       		.byte	0xf3
 9386 0a6c 01       		.uleb128 0x1
 9387 0a6d 50       		.byte	0x50
 9388 0a6e 9F       		.byte	0x9f
 9389 0a6f 0E000000 		.4byte	.LVL242
 9390 0a73 14000000 		.4byte	.LVL243
 9391 0a77 0100     		.2byte	0x1
 9392 0a79 50       		.byte	0x50
 9393 0a7a 14000000 		.4byte	.LVL243
 9394 0a7e 16000000 		.4byte	.LVL244
 9395 0a82 0400     		.2byte	0x4
 9396 0a84 F3       		.byte	0xf3
 9397 0a85 01       		.uleb128 0x1
 9398 0a86 50       		.byte	0x50
 9399 0a87 9F       		.byte	0x9f
 9400 0a88 16000000 		.4byte	.LVL244
 9401 0a8c 18000000 		.4byte	.LVL245
 9402 0a90 0100     		.2byte	0x1
 9403 0a92 50       		.byte	0x50
 9404 0a93 18000000 		.4byte	.LVL245
 9405 0a97 24000000 		.4byte	.LFE49
 9406 0a9b 0400     		.2byte	0x4
 9407 0a9d F3       		.byte	0xf3
 9408 0a9e 01       		.uleb128 0x1
 9409 0a9f 50       		.byte	0x50
 9410 0aa0 9F       		.byte	0x9f
 9411 0aa1 00000000 		.4byte	0
 9412 0aa5 00000000 		.4byte	0
ARM GAS  C:\Users\GYULAI~1\AppData\Local\Temp\ccG7iLma.s 			page 189


 9413              	.LLST78:
 9414 0aa9 00000000 		.4byte	.LVL240
 9415 0aad 0C000000 		.4byte	.LVL241
 9416 0ab1 0200     		.2byte	0x2
 9417 0ab3 30       		.byte	0x30
 9418 0ab4 9F       		.byte	0x9f
 9419 0ab5 0C000000 		.4byte	.LVL241
 9420 0ab9 0E000000 		.4byte	.LVL242
 9421 0abd 0100     		.2byte	0x1
 9422 0abf 50       		.byte	0x50
 9423 0ac0 0E000000 		.4byte	.LVL242
 9424 0ac4 14000000 		.4byte	.LVL243
 9425 0ac8 0200     		.2byte	0x2
 9426 0aca 30       		.byte	0x30
 9427 0acb 9F       		.byte	0x9f
 9428 0acc 14000000 		.4byte	.LVL243
 9429 0ad0 16000000 		.4byte	.LVL244
 9430 0ad4 0100     		.2byte	0x1
 9431 0ad6 50       		.byte	0x50
 9432 0ad7 16000000 		.4byte	.LVL244
 9433 0adb 18000000 		.4byte	.LVL245
 9434 0adf 0200     		.2byte	0x2
 9435 0ae1 30       		.byte	0x30
 9436 0ae2 9F       		.byte	0x9f
 9437 0ae3 18000000 		.4byte	.LVL245
 9438 0ae7 1C000000 		.4byte	.LVL246
 9439 0aeb 0100     		.2byte	0x1
 9440 0aed 50       		.byte	0x50
 9441 0aee 00000000 		.4byte	0
 9442 0af2 00000000 		.4byte	0
 9443              	.LLST79:
 9444 0af6 00000000 		.4byte	.LVL247
 9445 0afa 1C000000 		.4byte	.LVL253
 9446 0afe 0100     		.2byte	0x1
 9447 0b00 50       		.byte	0x50
 9448 0b01 1C000000 		.4byte	.LVL253
 9449 0b05 30000000 		.4byte	.LFE50
 9450 0b09 0400     		.2byte	0x4
 9451 0b0b F3       		.byte	0xf3
 9452 0b0c 01       		.uleb128 0x1
 9453 0b0d 50       		.byte	0x50
 9454 0b0e 9F       		.byte	0x9f
 9455 0b0f 00000000 		.4byte	0
 9456 0b13 00000000 		.4byte	0
 9457              	.LLST80:
 9458 0b17 00000000 		.4byte	.LVL247
 9459 0b1b 0C000000 		.4byte	.LVL248
 9460 0b1f 0200     		.2byte	0x2
 9461 0b21 30       		.byte	0x30
 9462 0b22 9F       		.byte	0x9f
 9463 0b23 0C000000 		.4byte	.LVL248
 9464 0b27 0E000000 		.4byte	.LVL249
 9465 0b2b 0100     		.2byte	0x1
 9466 0b2d 53       		.byte	0x53
 9467 0b2e 0E000000 		.4byte	.LVL249
 9468 0b32 14000000 		.4byte	.LVL250
 9469 0b36 0200     		.2byte	0x2
ARM GAS  C:\Users\GYULAI~1\AppData\Local\Temp\ccG7iLma.s 			page 190


 9470 0b38 30       		.byte	0x30
 9471 0b39 9F       		.byte	0x9f
 9472 0b3a 14000000 		.4byte	.LVL250
 9473 0b3e 16000000 		.4byte	.LVL251
 9474 0b42 0100     		.2byte	0x1
 9475 0b44 53       		.byte	0x53
 9476 0b45 16000000 		.4byte	.LVL251
 9477 0b49 18000000 		.4byte	.LVL252
 9478 0b4d 0200     		.2byte	0x2
 9479 0b4f 30       		.byte	0x30
 9480 0b50 9F       		.byte	0x9f
 9481 0b51 18000000 		.4byte	.LVL252
 9482 0b55 20000000 		.4byte	.LVL254
 9483 0b59 0100     		.2byte	0x1
 9484 0b5b 53       		.byte	0x53
 9485 0b5c 00000000 		.4byte	0
 9486 0b60 00000000 		.4byte	0
 9487              	.LLST81:
 9488 0b64 1C000000 		.4byte	.LVL253
 9489 0b68 28000000 		.4byte	.LVL256
 9490 0b6c 0100     		.2byte	0x1
 9491 0b6e 50       		.byte	0x50
 9492 0b6f 00000000 		.4byte	0
 9493 0b73 00000000 		.4byte	0
 9494              	.LLST82:
 9495 0b77 1C000000 		.4byte	.LVL253
 9496 0b7b 20000000 		.4byte	.LVL254
 9497 0b7f 0600     		.2byte	0x6
 9498 0b81 73       		.byte	0x73
 9499 0b82 00       		.sleb128 0
 9500 0b83 08       		.byte	0x8
 9501 0b84 30       		.byte	0x30
 9502 0b85 1A       		.byte	0x1a
 9503 0b86 9F       		.byte	0x9f
 9504 0b87 20000000 		.4byte	.LVL254
 9505 0b8b 24000000 		.4byte	.LVL255
 9506 0b8f 0100     		.2byte	0x1
 9507 0b91 53       		.byte	0x53
 9508 0b92 00000000 		.4byte	0
 9509 0b96 00000000 		.4byte	0
 9510              	.LLST83:
 9511 0b9a 00000000 		.4byte	.LVL257
 9512 0b9e 1C000000 		.4byte	.LVL263
 9513 0ba2 0100     		.2byte	0x1
 9514 0ba4 50       		.byte	0x50
 9515 0ba5 1C000000 		.4byte	.LVL263
 9516 0ba9 30000000 		.4byte	.LFE51
 9517 0bad 0400     		.2byte	0x4
 9518 0baf F3       		.byte	0xf3
 9519 0bb0 01       		.uleb128 0x1
 9520 0bb1 50       		.byte	0x50
 9521 0bb2 9F       		.byte	0x9f
 9522 0bb3 00000000 		.4byte	0
 9523 0bb7 00000000 		.4byte	0
 9524              	.LLST84:
 9525 0bbb 00000000 		.4byte	.LVL257
 9526 0bbf 0C000000 		.4byte	.LVL258
ARM GAS  C:\Users\GYULAI~1\AppData\Local\Temp\ccG7iLma.s 			page 191


 9527 0bc3 0200     		.2byte	0x2
 9528 0bc5 30       		.byte	0x30
 9529 0bc6 9F       		.byte	0x9f
 9530 0bc7 0C000000 		.4byte	.LVL258
 9531 0bcb 0E000000 		.4byte	.LVL259
 9532 0bcf 0100     		.2byte	0x1
 9533 0bd1 53       		.byte	0x53
 9534 0bd2 0E000000 		.4byte	.LVL259
 9535 0bd6 14000000 		.4byte	.LVL260
 9536 0bda 0200     		.2byte	0x2
 9537 0bdc 30       		.byte	0x30
 9538 0bdd 9F       		.byte	0x9f
 9539 0bde 14000000 		.4byte	.LVL260
 9540 0be2 16000000 		.4byte	.LVL261
 9541 0be6 0100     		.2byte	0x1
 9542 0be8 53       		.byte	0x53
 9543 0be9 16000000 		.4byte	.LVL261
 9544 0bed 18000000 		.4byte	.LVL262
 9545 0bf1 0200     		.2byte	0x2
 9546 0bf3 30       		.byte	0x30
 9547 0bf4 9F       		.byte	0x9f
 9548 0bf5 18000000 		.4byte	.LVL262
 9549 0bf9 20000000 		.4byte	.LVL264
 9550 0bfd 0100     		.2byte	0x1
 9551 0bff 53       		.byte	0x53
 9552 0c00 00000000 		.4byte	0
 9553 0c04 00000000 		.4byte	0
 9554              	.LLST85:
 9555 0c08 1C000000 		.4byte	.LVL263
 9556 0c0c 28000000 		.4byte	.LVL266
 9557 0c10 0100     		.2byte	0x1
 9558 0c12 50       		.byte	0x50
 9559 0c13 00000000 		.4byte	0
 9560 0c17 00000000 		.4byte	0
 9561              	.LLST86:
 9562 0c1b 1C000000 		.4byte	.LVL263
 9563 0c1f 20000000 		.4byte	.LVL264
 9564 0c23 0500     		.2byte	0x5
 9565 0c25 73       		.byte	0x73
 9566 0c26 00       		.sleb128 0
 9567 0c27 40       		.byte	0x40
 9568 0c28 1A       		.byte	0x1a
 9569 0c29 9F       		.byte	0x9f
 9570 0c2a 20000000 		.4byte	.LVL264
 9571 0c2e 24000000 		.4byte	.LVL265
 9572 0c32 0100     		.2byte	0x1
 9573 0c34 53       		.byte	0x53
 9574 0c35 00000000 		.4byte	0
 9575 0c39 00000000 		.4byte	0
 9576              	.LLST87:
 9577 0c3d 00000000 		.4byte	.LVL267
 9578 0c41 0B000000 		.4byte	.LVL269-1
 9579 0c45 0100     		.2byte	0x1
 9580 0c47 51       		.byte	0x51
 9581 0c48 0B000000 		.4byte	.LVL269-1
 9582 0c4c 3A000000 		.4byte	.LFE45
 9583 0c50 0400     		.2byte	0x4
ARM GAS  C:\Users\GYULAI~1\AppData\Local\Temp\ccG7iLma.s 			page 192


 9584 0c52 F3       		.byte	0xf3
 9585 0c53 01       		.uleb128 0x1
 9586 0c54 51       		.byte	0x51
 9587 0c55 9F       		.byte	0x9f
 9588 0c56 00000000 		.4byte	0
 9589 0c5a 00000000 		.4byte	0
 9590              	.LLST88:
 9591 0c5e 00000000 		.4byte	.LVL267
 9592 0c62 08000000 		.4byte	.LVL268
 9593 0c66 0200     		.2byte	0x2
 9594 0c68 70       		.byte	0x70
 9595 0c69 00       		.sleb128 0
 9596 0c6a 08000000 		.4byte	.LVL268
 9597 0c6e 3A000000 		.4byte	.LFE45
 9598 0c72 0200     		.2byte	0x2
 9599 0c74 74       		.byte	0x74
 9600 0c75 00       		.sleb128 0
 9601 0c76 00000000 		.4byte	0
 9602 0c7a 00000000 		.4byte	0
 9603              	.LLST89:
 9604 0c7e 00000000 		.4byte	.LVL275
 9605 0c82 0C000000 		.4byte	.LVL276
 9606 0c86 0100     		.2byte	0x1
 9607 0c88 50       		.byte	0x50
 9608 0c89 0C000000 		.4byte	.LVL276
 9609 0c8d 12000000 		.4byte	.LVL277
 9610 0c91 0400     		.2byte	0x4
 9611 0c93 F3       		.byte	0xf3
 9612 0c94 01       		.uleb128 0x1
 9613 0c95 50       		.byte	0x50
 9614 0c96 9F       		.byte	0x9f
 9615 0c97 12000000 		.4byte	.LVL277
 9616 0c9b 18000000 		.4byte	.LVL278
 9617 0c9f 0100     		.2byte	0x1
 9618 0ca1 50       		.byte	0x50
 9619 0ca2 18000000 		.4byte	.LVL278
 9620 0ca6 1E000000 		.4byte	.LVL279
 9621 0caa 0400     		.2byte	0x4
 9622 0cac F3       		.byte	0xf3
 9623 0cad 01       		.uleb128 0x1
 9624 0cae 50       		.byte	0x50
 9625 0caf 9F       		.byte	0x9f
 9626 0cb0 1E000000 		.4byte	.LVL279
 9627 0cb4 20000000 		.4byte	.LVL280
 9628 0cb8 0100     		.2byte	0x1
 9629 0cba 50       		.byte	0x50
 9630 0cbb 20000000 		.4byte	.LVL280
 9631 0cbf 28000000 		.4byte	.LFE53
 9632 0cc3 0400     		.2byte	0x4
 9633 0cc5 F3       		.byte	0xf3
 9634 0cc6 01       		.uleb128 0x1
 9635 0cc7 50       		.byte	0x50
 9636 0cc8 9F       		.byte	0x9f
 9637 0cc9 00000000 		.4byte	0
 9638 0ccd 00000000 		.4byte	0
 9639              	.LLST90:
 9640 0cd1 00000000 		.4byte	.LVL281
ARM GAS  C:\Users\GYULAI~1\AppData\Local\Temp\ccG7iLma.s 			page 193


 9641 0cd5 0C000000 		.4byte	.LVL282
 9642 0cd9 0100     		.2byte	0x1
 9643 0cdb 50       		.byte	0x50
 9644 0cdc 0C000000 		.4byte	.LVL282
 9645 0ce0 14000000 		.4byte	.LVL283
 9646 0ce4 0400     		.2byte	0x4
 9647 0ce6 F3       		.byte	0xf3
 9648 0ce7 01       		.uleb128 0x1
 9649 0ce8 50       		.byte	0x50
 9650 0ce9 9F       		.byte	0x9f
 9651 0cea 14000000 		.4byte	.LVL283
 9652 0cee 18000000 		.4byte	.LVL284
 9653 0cf2 0100     		.2byte	0x1
 9654 0cf4 50       		.byte	0x50
 9655 0cf5 18000000 		.4byte	.LVL284
 9656 0cf9 20000000 		.4byte	.LVL285
 9657 0cfd 0400     		.2byte	0x4
 9658 0cff F3       		.byte	0xf3
 9659 0d00 01       		.uleb128 0x1
 9660 0d01 50       		.byte	0x50
 9661 0d02 9F       		.byte	0x9f
 9662 0d03 20000000 		.4byte	.LVL285
 9663 0d07 22000000 		.4byte	.LVL286
 9664 0d0b 0100     		.2byte	0x1
 9665 0d0d 50       		.byte	0x50
 9666 0d0e 22000000 		.4byte	.LVL286
 9667 0d12 28000000 		.4byte	.LFE54
 9668 0d16 0400     		.2byte	0x4
 9669 0d18 F3       		.byte	0xf3
 9670 0d19 01       		.uleb128 0x1
 9671 0d1a 50       		.byte	0x50
 9672 0d1b 9F       		.byte	0x9f
 9673 0d1c 00000000 		.4byte	0
 9674 0d20 00000000 		.4byte	0
 9675              	.LLST91:
 9676 0d24 00000000 		.4byte	.LVL287
 9677 0d28 10000000 		.4byte	.LVL288
 9678 0d2c 0100     		.2byte	0x1
 9679 0d2e 50       		.byte	0x50
 9680 0d2f 10000000 		.4byte	.LVL288
 9681 0d33 4C000000 		.4byte	.LFE55
 9682 0d37 0400     		.2byte	0x4
 9683 0d39 F3       		.byte	0xf3
 9684 0d3a 01       		.uleb128 0x1
 9685 0d3b 50       		.byte	0x50
 9686 0d3c 9F       		.byte	0x9f
 9687 0d3d 00000000 		.4byte	0
 9688 0d41 00000000 		.4byte	0
 9689              	.LLST92:
 9690 0d45 22000000 		.4byte	.LVL290
 9691 0d49 2E000000 		.4byte	.LVL291
 9692 0d4d 0200     		.2byte	0x2
 9693 0d4f 30       		.byte	0x30
 9694 0d50 9F       		.byte	0x9f
 9695 0d51 2E000000 		.4byte	.LVL291
 9696 0d55 32000000 		.4byte	.LVL292
 9697 0d59 0500     		.2byte	0x5
ARM GAS  C:\Users\GYULAI~1\AppData\Local\Temp\ccG7iLma.s 			page 194


 9698 0d5b 73       		.byte	0x73
 9699 0d5c 00       		.sleb128 0
 9700 0d5d 38       		.byte	0x38
 9701 0d5e 1A       		.byte	0x1a
 9702 0d5f 9F       		.byte	0x9f
 9703 0d60 32000000 		.4byte	.LVL292
 9704 0d64 34000000 		.4byte	.LVL293
 9705 0d68 0A00     		.2byte	0xa
 9706 0d6a 03       		.byte	0x3
 9707 0d6b 1C000000 		.4byte	MCP7940N_RegistersLocal+12
 9708 0d6f 94       		.byte	0x94
 9709 0d70 01       		.byte	0x1
 9710 0d71 38       		.byte	0x38
 9711 0d72 1A       		.byte	0x1a
 9712 0d73 9F       		.byte	0x9f
 9713 0d74 3A000000 		.4byte	.LVL294
 9714 0d78 3E000000 		.4byte	.LVL295
 9715 0d7c 0500     		.2byte	0x5
 9716 0d7e 73       		.byte	0x73
 9717 0d7f 00       		.sleb128 0
 9718 0d80 38       		.byte	0x38
 9719 0d81 1A       		.byte	0x1a
 9720 0d82 9F       		.byte	0x9f
 9721 0d83 3E000000 		.4byte	.LVL295
 9722 0d87 42000000 		.4byte	.LVL296
 9723 0d8b 0A00     		.2byte	0xa
 9724 0d8d 03       		.byte	0x3
 9725 0d8e 22000000 		.4byte	MCP7940N_RegistersLocal+18
 9726 0d92 94       		.byte	0x94
 9727 0d93 01       		.byte	0x1
 9728 0d94 38       		.byte	0x38
 9729 0d95 1A       		.byte	0x1a
 9730 0d96 9F       		.byte	0x9f
 9731 0d97 42000000 		.4byte	.LVL296
 9732 0d9b 4C000000 		.4byte	.LFE55
 9733 0d9f 0200     		.2byte	0x2
 9734 0da1 30       		.byte	0x30
 9735 0da2 9F       		.byte	0x9f
 9736 0da3 00000000 		.4byte	0
 9737 0da7 00000000 		.4byte	0
 9738              	.LLST93:
 9739 0dab 00000000 		.4byte	.LVL297
 9740 0daf 12000000 		.4byte	.LVL298
 9741 0db3 0100     		.2byte	0x1
 9742 0db5 51       		.byte	0x51
 9743 0db6 12000000 		.4byte	.LVL298
 9744 0dba 38000000 		.4byte	.LFE57
 9745 0dbe 0400     		.2byte	0x4
 9746 0dc0 F3       		.byte	0xf3
 9747 0dc1 01       		.uleb128 0x1
 9748 0dc2 51       		.byte	0x51
 9749 0dc3 9F       		.byte	0x9f
 9750 0dc4 00000000 		.4byte	0
 9751 0dc8 00000000 		.4byte	0
 9752              	.LLST94:
 9753 0dcc 14000000 		.4byte	.LVL299
 9754 0dd0 18000000 		.4byte	.LVL300
ARM GAS  C:\Users\GYULAI~1\AppData\Local\Temp\ccG7iLma.s 			page 195


 9755 0dd4 0100     		.2byte	0x1
 9756 0dd6 51       		.byte	0x51
 9757 0dd7 00000000 		.4byte	0
 9758 0ddb 00000000 		.4byte	0
 9759              	.LLST95:
 9760 0ddf 14000000 		.4byte	.LVL299
 9761 0de3 24000000 		.4byte	.LVL302
 9762 0de7 0100     		.2byte	0x1
 9763 0de9 53       		.byte	0x53
 9764 0dea 28000000 		.4byte	.LVL303
 9765 0dee 2A000000 		.4byte	.LVL304
 9766 0df2 0100     		.2byte	0x1
 9767 0df4 53       		.byte	0x53
 9768 0df5 00000000 		.4byte	0
 9769 0df9 00000000 		.4byte	0
 9770              	.LLST96:
 9771 0dfd 00000000 		.4byte	.LVL305
 9772 0e01 12000000 		.4byte	.LVL306
 9773 0e05 0100     		.2byte	0x1
 9774 0e07 51       		.byte	0x51
 9775 0e08 12000000 		.4byte	.LVL306
 9776 0e0c 3C000000 		.4byte	.LFE58
 9777 0e10 0400     		.2byte	0x4
 9778 0e12 F3       		.byte	0xf3
 9779 0e13 01       		.uleb128 0x1
 9780 0e14 51       		.byte	0x51
 9781 0e15 9F       		.byte	0x9f
 9782 0e16 00000000 		.4byte	0
 9783 0e1a 00000000 		.4byte	0
 9784              	.LLST97:
 9785 0e1e 14000000 		.4byte	.LVL307
 9786 0e22 18000000 		.4byte	.LVL308
 9787 0e26 0100     		.2byte	0x1
 9788 0e28 51       		.byte	0x51
 9789 0e29 00000000 		.4byte	0
 9790 0e2d 00000000 		.4byte	0
 9791              	.LLST98:
 9792 0e31 14000000 		.4byte	.LVL307
 9793 0e35 24000000 		.4byte	.LVL310
 9794 0e39 0100     		.2byte	0x1
 9795 0e3b 53       		.byte	0x53
 9796 0e3c 28000000 		.4byte	.LVL311
 9797 0e40 2A000000 		.4byte	.LVL312
 9798 0e44 0100     		.2byte	0x1
 9799 0e46 53       		.byte	0x53
 9800 0e47 00000000 		.4byte	0
 9801 0e4b 00000000 		.4byte	0
 9802              	.LLST99:
 9803 0e4f 00000000 		.4byte	.LVL313
 9804 0e53 12000000 		.4byte	.LVL314
 9805 0e57 0100     		.2byte	0x1
 9806 0e59 51       		.byte	0x51
 9807 0e5a 12000000 		.4byte	.LVL314
 9808 0e5e 3C000000 		.4byte	.LFE59
 9809 0e62 0400     		.2byte	0x4
 9810 0e64 F3       		.byte	0xf3
 9811 0e65 01       		.uleb128 0x1
ARM GAS  C:\Users\GYULAI~1\AppData\Local\Temp\ccG7iLma.s 			page 196


 9812 0e66 51       		.byte	0x51
 9813 0e67 9F       		.byte	0x9f
 9814 0e68 00000000 		.4byte	0
 9815 0e6c 00000000 		.4byte	0
 9816              	.LLST100:
 9817 0e70 14000000 		.4byte	.LVL315
 9818 0e74 18000000 		.4byte	.LVL316
 9819 0e78 0100     		.2byte	0x1
 9820 0e7a 51       		.byte	0x51
 9821 0e7b 00000000 		.4byte	0
 9822 0e7f 00000000 		.4byte	0
 9823              	.LLST101:
 9824 0e83 14000000 		.4byte	.LVL315
 9825 0e87 24000000 		.4byte	.LVL318
 9826 0e8b 0100     		.2byte	0x1
 9827 0e8d 53       		.byte	0x53
 9828 0e8e 28000000 		.4byte	.LVL319
 9829 0e92 2A000000 		.4byte	.LVL320
 9830 0e96 0100     		.2byte	0x1
 9831 0e98 53       		.byte	0x53
 9832 0e99 00000000 		.4byte	0
 9833 0e9d 00000000 		.4byte	0
 9834              	.LLST102:
 9835 0ea1 00000000 		.4byte	.LVL321
 9836 0ea5 12000000 		.4byte	.LVL322
 9837 0ea9 0100     		.2byte	0x1
 9838 0eab 51       		.byte	0x51
 9839 0eac 12000000 		.4byte	.LVL322
 9840 0eb0 16000000 		.4byte	.LVL323
 9841 0eb4 0400     		.2byte	0x4
 9842 0eb6 F3       		.byte	0xf3
 9843 0eb7 01       		.uleb128 0x1
 9844 0eb8 51       		.byte	0x51
 9845 0eb9 9F       		.byte	0x9f
 9846 0eba 16000000 		.4byte	.LVL323
 9847 0ebe 22000000 		.4byte	.LVL324
 9848 0ec2 0100     		.2byte	0x1
 9849 0ec4 51       		.byte	0x51
 9850 0ec5 22000000 		.4byte	.LVL324
 9851 0ec9 2C000000 		.4byte	.LFE60
 9852 0ecd 0400     		.2byte	0x4
 9853 0ecf F3       		.byte	0xf3
 9854 0ed0 01       		.uleb128 0x1
 9855 0ed1 51       		.byte	0x51
 9856 0ed2 9F       		.byte	0x9f
 9857 0ed3 00000000 		.4byte	0
 9858 0ed7 00000000 		.4byte	0
 9859              	.LLST103:
 9860 0edb 00000000 		.4byte	.LVL325
 9861 0edf 12000000 		.4byte	.LVL326
 9862 0ee3 0100     		.2byte	0x1
 9863 0ee5 51       		.byte	0x51
 9864 0ee6 12000000 		.4byte	.LVL326
 9865 0eea 3C000000 		.4byte	.LFE61
 9866 0eee 0400     		.2byte	0x4
 9867 0ef0 F3       		.byte	0xf3
 9868 0ef1 01       		.uleb128 0x1
ARM GAS  C:\Users\GYULAI~1\AppData\Local\Temp\ccG7iLma.s 			page 197


 9869 0ef2 51       		.byte	0x51
 9870 0ef3 9F       		.byte	0x9f
 9871 0ef4 00000000 		.4byte	0
 9872 0ef8 00000000 		.4byte	0
 9873              	.LLST104:
 9874 0efc 14000000 		.4byte	.LVL327
 9875 0f00 18000000 		.4byte	.LVL328
 9876 0f04 0100     		.2byte	0x1
 9877 0f06 51       		.byte	0x51
 9878 0f07 00000000 		.4byte	0
 9879 0f0b 00000000 		.4byte	0
 9880              	.LLST105:
 9881 0f0f 14000000 		.4byte	.LVL327
 9882 0f13 24000000 		.4byte	.LVL330
 9883 0f17 0100     		.2byte	0x1
 9884 0f19 53       		.byte	0x53
 9885 0f1a 28000000 		.4byte	.LVL331
 9886 0f1e 2A000000 		.4byte	.LVL332
 9887 0f22 0100     		.2byte	0x1
 9888 0f24 53       		.byte	0x53
 9889 0f25 00000000 		.4byte	0
 9890 0f29 00000000 		.4byte	0
 9891              	.LLST106:
 9892 0f2d 00000000 		.4byte	.LVL333
 9893 0f31 12000000 		.4byte	.LVL334
 9894 0f35 0100     		.2byte	0x1
 9895 0f37 51       		.byte	0x51
 9896 0f38 12000000 		.4byte	.LVL334
 9897 0f3c 3C000000 		.4byte	.LFE62
 9898 0f40 0400     		.2byte	0x4
 9899 0f42 F3       		.byte	0xf3
 9900 0f43 01       		.uleb128 0x1
 9901 0f44 51       		.byte	0x51
 9902 0f45 9F       		.byte	0x9f
 9903 0f46 00000000 		.4byte	0
 9904 0f4a 00000000 		.4byte	0
 9905              	.LLST107:
 9906 0f4e 14000000 		.4byte	.LVL335
 9907 0f52 18000000 		.4byte	.LVL336
 9908 0f56 0100     		.2byte	0x1
 9909 0f58 51       		.byte	0x51
 9910 0f59 00000000 		.4byte	0
 9911 0f5d 00000000 		.4byte	0
 9912              	.LLST108:
 9913 0f61 14000000 		.4byte	.LVL335
 9914 0f65 24000000 		.4byte	.LVL338
 9915 0f69 0100     		.2byte	0x1
 9916 0f6b 53       		.byte	0x53
 9917 0f6c 28000000 		.4byte	.LVL339
 9918 0f70 2A000000 		.4byte	.LVL340
 9919 0f74 0100     		.2byte	0x1
 9920 0f76 53       		.byte	0x53
 9921 0f77 00000000 		.4byte	0
 9922 0f7b 00000000 		.4byte	0
 9923              	.LLST109:
 9924 0f7f 00000000 		.4byte	.LVL341
 9925 0f83 13000000 		.4byte	.LVL342-1
ARM GAS  C:\Users\GYULAI~1\AppData\Local\Temp\ccG7iLma.s 			page 198


 9926 0f87 0100     		.2byte	0x1
 9927 0f89 50       		.byte	0x50
 9928 0f8a 13000000 		.4byte	.LVL342-1
 9929 0f8e 70000000 		.4byte	.LFE56
 9930 0f92 0400     		.2byte	0x4
 9931 0f94 F3       		.byte	0xf3
 9932 0f95 01       		.uleb128 0x1
 9933 0f96 50       		.byte	0x50
 9934 0f97 9F       		.byte	0x9f
 9935 0f98 00000000 		.4byte	0
 9936 0f9c 00000000 		.4byte	0
 9937              	.LLST110:
 9938 0fa0 00000000 		.4byte	.LVL350
 9939 0fa4 0C000000 		.4byte	.LVL351
 9940 0fa8 0100     		.2byte	0x1
 9941 0faa 50       		.byte	0x50
 9942 0fab 0C000000 		.4byte	.LVL351
 9943 0faf 20000000 		.4byte	.LFE63
 9944 0fb3 0400     		.2byte	0x4
 9945 0fb5 F3       		.byte	0xf3
 9946 0fb6 01       		.uleb128 0x1
 9947 0fb7 50       		.byte	0x50
 9948 0fb8 9F       		.byte	0x9f
 9949 0fb9 00000000 		.4byte	0
 9950 0fbd 00000000 		.4byte	0
 9951              	.LLST111:
 9952 0fc1 00000000 		.4byte	.LVL353
 9953 0fc5 12000000 		.4byte	.LVL354
 9954 0fc9 0100     		.2byte	0x1
 9955 0fcb 51       		.byte	0x51
 9956 0fcc 12000000 		.4byte	.LVL354
 9957 0fd0 1E000000 		.4byte	.LVL355
 9958 0fd4 0400     		.2byte	0x4
 9959 0fd6 F3       		.byte	0xf3
 9960 0fd7 01       		.uleb128 0x1
 9961 0fd8 51       		.byte	0x51
 9962 0fd9 9F       		.byte	0x9f
 9963 0fda 1E000000 		.4byte	.LVL355
 9964 0fde 30000000 		.4byte	.LVL356
 9965 0fe2 0100     		.2byte	0x1
 9966 0fe4 51       		.byte	0x51
 9967 0fe5 30000000 		.4byte	.LVL356
 9968 0fe9 40000000 		.4byte	.LFE64
 9969 0fed 0400     		.2byte	0x4
 9970 0fef F3       		.byte	0xf3
 9971 0ff0 01       		.uleb128 0x1
 9972 0ff1 51       		.byte	0x51
 9973 0ff2 9F       		.byte	0x9f
 9974 0ff3 00000000 		.4byte	0
 9975 0ff7 00000000 		.4byte	0
 9976              	.LLST112:
 9977 0ffb 06000000 		.4byte	.LVL358
 9978 0fff 0E000000 		.4byte	.LVL360
 9979 1003 0100     		.2byte	0x1
 9980 1005 53       		.byte	0x53
 9981 1006 0E000000 		.4byte	.LVL360
 9982 100a 20000000 		.4byte	.LFE67
ARM GAS  C:\Users\GYULAI~1\AppData\Local\Temp\ccG7iLma.s 			page 199


 9983 100e 0500     		.2byte	0x5
 9984 1010 03       		.byte	0x3
 9985 1011 28000000 		.4byte	MCP7940N_RegistersLocal+24
 9986 1015 00000000 		.4byte	0
 9987 1019 00000000 		.4byte	0
 9988              	.LLST113:
 9989 101d 0A000000 		.4byte	.LVL359
 9990 1021 16000000 		.4byte	.LVL362
 9991 1025 0100     		.2byte	0x1
 9992 1027 50       		.byte	0x50
 9993 1028 16000000 		.4byte	.LVL362
 9994 102c 20000000 		.4byte	.LFE67
 9995 1030 0A00     		.2byte	0xa
 9996 1032 03       		.byte	0x3
 9997 1033 28000000 		.4byte	MCP7940N_RegistersLocal+24
 9998 1037 94       		.byte	0x94
 9999 1038 01       		.byte	0x1
 10000 1039 3F       		.byte	0x3f
 10001 103a 1A       		.byte	0x1a
 10002 103b 9F       		.byte	0x9f
 10003 103c 00000000 		.4byte	0
 10004 1040 00000000 		.4byte	0
 10005              	.LLST114:
 10006 1044 0A000000 		.4byte	.LVL359
 10007 1048 0E000000 		.4byte	.LVL360
 10008 104c 0500     		.2byte	0x5
 10009 104e 73       		.byte	0x73
 10010 104f 00       		.sleb128 0
 10011 1050 40       		.byte	0x40
 10012 1051 1A       		.byte	0x1a
 10013 1052 9F       		.byte	0x9f
 10014 1053 0E000000 		.4byte	.LVL360
 10015 1057 12000000 		.4byte	.LVL361
 10016 105b 0100     		.2byte	0x1
 10017 105d 53       		.byte	0x53
 10018 105e 12000000 		.4byte	.LVL361
 10019 1062 20000000 		.4byte	.LFE67
 10020 1066 1000     		.2byte	0x10
 10021 1068 03       		.byte	0x3
 10022 1069 28000000 		.4byte	MCP7940N_RegistersLocal+24
 10023 106d 94       		.byte	0x94
 10024 106e 01       		.byte	0x1
 10025 106f 08       		.byte	0x8
 10026 1070 FF       		.byte	0xff
 10027 1071 1A       		.byte	0x1a
 10028 1072 09       		.byte	0x9
 10029 1073 FF       		.byte	0xff
 10030 1074 24       		.byte	0x24
 10031 1075 33       		.byte	0x33
 10032 1076 25       		.byte	0x25
 10033 1077 9F       		.byte	0x9f
 10034 1078 00000000 		.4byte	0
 10035 107c 00000000 		.4byte	0
 10036              	.LLST115:
 10037 1080 06000000 		.4byte	.LVL363
 10038 1084 0E000000 		.4byte	.LVL365
 10039 1088 0100     		.2byte	0x1
ARM GAS  C:\Users\GYULAI~1\AppData\Local\Temp\ccG7iLma.s 			page 200


 10040 108a 53       		.byte	0x53
 10041 108b 0E000000 		.4byte	.LVL365
 10042 108f 20000000 		.4byte	.LFE69
 10043 1093 0500     		.2byte	0x5
 10044 1095 03       		.byte	0x3
 10045 1096 27000000 		.4byte	MCP7940N_RegistersLocal+23
 10046 109a 00000000 		.4byte	0
 10047 109e 00000000 		.4byte	0
 10048              	.LLST116:
 10049 10a2 0A000000 		.4byte	.LVL364
 10050 10a6 16000000 		.4byte	.LVL367
 10051 10aa 0100     		.2byte	0x1
 10052 10ac 50       		.byte	0x50
 10053 10ad 16000000 		.4byte	.LVL367
 10054 10b1 20000000 		.4byte	.LFE69
 10055 10b5 0A00     		.2byte	0xa
 10056 10b7 03       		.byte	0x3
 10057 10b8 27000000 		.4byte	MCP7940N_RegistersLocal+23
 10058 10bc 94       		.byte	0x94
 10059 10bd 01       		.byte	0x1
 10060 10be 3F       		.byte	0x3f
 10061 10bf 1A       		.byte	0x1a
 10062 10c0 9F       		.byte	0x9f
 10063 10c1 00000000 		.4byte	0
 10064 10c5 00000000 		.4byte	0
 10065              	.LLST117:
 10066 10c9 0A000000 		.4byte	.LVL364
 10067 10cd 0E000000 		.4byte	.LVL365
 10068 10d1 0600     		.2byte	0x6
 10069 10d3 73       		.byte	0x73
 10070 10d4 00       		.sleb128 0
 10071 10d5 08       		.byte	0x8
 10072 10d6 30       		.byte	0x30
 10073 10d7 1A       		.byte	0x1a
 10074 10d8 9F       		.byte	0x9f
 10075 10d9 0E000000 		.4byte	.LVL365
 10076 10dd 12000000 		.4byte	.LVL366
 10077 10e1 0100     		.2byte	0x1
 10078 10e3 53       		.byte	0x53
 10079 10e4 12000000 		.4byte	.LVL366
 10080 10e8 20000000 		.4byte	.LFE69
 10081 10ec 1000     		.2byte	0x10
 10082 10ee 03       		.byte	0x3
 10083 10ef 27000000 		.4byte	MCP7940N_RegistersLocal+23
 10084 10f3 94       		.byte	0x94
 10085 10f4 01       		.byte	0x1
 10086 10f5 08       		.byte	0x8
 10087 10f6 FF       		.byte	0xff
 10088 10f7 1A       		.byte	0x1a
 10089 10f8 09       		.byte	0x9
 10090 10f9 FE       		.byte	0xfe
 10091 10fa 24       		.byte	0x24
 10092 10fb 32       		.byte	0x32
 10093 10fc 25       		.byte	0x25
 10094 10fd 9F       		.byte	0x9f
 10095 10fe 00000000 		.4byte	0
 10096 1102 00000000 		.4byte	0
ARM GAS  C:\Users\GYULAI~1\AppData\Local\Temp\ccG7iLma.s 			page 201


 10097              	.LLST118:
 10098 1106 06000000 		.4byte	.LVL368
 10099 110a 0E000000 		.4byte	.LVL370
 10100 110e 0100     		.2byte	0x1
 10101 1110 53       		.byte	0x53
 10102 1111 0E000000 		.4byte	.LVL370
 10103 1115 20000000 		.4byte	.LFE70
 10104 1119 0500     		.2byte	0x5
 10105 111b 03       		.byte	0x3
 10106 111c 26000000 		.4byte	MCP7940N_RegistersLocal+22
 10107 1120 00000000 		.4byte	0
 10108 1124 00000000 		.4byte	0
 10109              	.LLST119:
 10110 1128 0A000000 		.4byte	.LVL369
 10111 112c 16000000 		.4byte	.LVL372
 10112 1130 0100     		.2byte	0x1
 10113 1132 50       		.byte	0x50
 10114 1133 16000000 		.4byte	.LVL372
 10115 1137 20000000 		.4byte	.LFE70
 10116 113b 0A00     		.2byte	0xa
 10117 113d 03       		.byte	0x3
 10118 113e 26000000 		.4byte	MCP7940N_RegistersLocal+22
 10119 1142 94       		.byte	0x94
 10120 1143 01       		.byte	0x1
 10121 1144 3F       		.byte	0x3f
 10122 1145 1A       		.byte	0x1a
 10123 1146 9F       		.byte	0x9f
 10124 1147 00000000 		.4byte	0
 10125 114b 00000000 		.4byte	0
 10126              	.LLST120:
 10127 114f 0A000000 		.4byte	.LVL369
 10128 1153 0E000000 		.4byte	.LVL370
 10129 1157 0600     		.2byte	0x6
 10130 1159 73       		.byte	0x73
 10131 115a 00       		.sleb128 0
 10132 115b 08       		.byte	0x8
 10133 115c 30       		.byte	0x30
 10134 115d 1A       		.byte	0x1a
 10135 115e 9F       		.byte	0x9f
 10136 115f 0E000000 		.4byte	.LVL370
 10137 1163 12000000 		.4byte	.LVL371
 10138 1167 0100     		.2byte	0x1
 10139 1169 53       		.byte	0x53
 10140 116a 12000000 		.4byte	.LVL371
 10141 116e 20000000 		.4byte	.LFE70
 10142 1172 1000     		.2byte	0x10
 10143 1174 03       		.byte	0x3
 10144 1175 26000000 		.4byte	MCP7940N_RegistersLocal+22
 10145 1179 94       		.byte	0x94
 10146 117a 01       		.byte	0x1
 10147 117b 08       		.byte	0x8
 10148 117c FF       		.byte	0xff
 10149 117d 1A       		.byte	0x1a
 10150 117e 09       		.byte	0x9
 10151 117f FE       		.byte	0xfe
 10152 1180 24       		.byte	0x24
 10153 1181 32       		.byte	0x32
ARM GAS  C:\Users\GYULAI~1\AppData\Local\Temp\ccG7iLma.s 			page 202


 10154 1182 25       		.byte	0x25
 10155 1183 9F       		.byte	0x9f
 10156 1184 00000000 		.4byte	0
 10157 1188 00000000 		.4byte	0
 10158              	.LLST121:
 10159 118c 06000000 		.4byte	.LVL373
 10160 1190 0E000000 		.4byte	.LVL375
 10161 1194 0100     		.2byte	0x1
 10162 1196 53       		.byte	0x53
 10163 1197 0E000000 		.4byte	.LVL375
 10164 119b 20000000 		.4byte	.LFE71
 10165 119f 0500     		.2byte	0x5
 10166 11a1 03       		.byte	0x3
 10167 11a2 25000000 		.4byte	MCP7940N_RegistersLocal+21
 10168 11a6 00000000 		.4byte	0
 10169 11aa 00000000 		.4byte	0
 10170              	.LLST122:
 10171 11ae 0A000000 		.4byte	.LVL374
 10172 11b2 16000000 		.4byte	.LVL377
 10173 11b6 0100     		.2byte	0x1
 10174 11b8 50       		.byte	0x50
 10175 11b9 16000000 		.4byte	.LVL377
 10176 11bd 20000000 		.4byte	.LFE71
 10177 11c1 0A00     		.2byte	0xa
 10178 11c3 03       		.byte	0x3
 10179 11c4 25000000 		.4byte	MCP7940N_RegistersLocal+21
 10180 11c8 94       		.byte	0x94
 10181 11c9 01       		.byte	0x1
 10182 11ca 3F       		.byte	0x3f
 10183 11cb 1A       		.byte	0x1a
 10184 11cc 9F       		.byte	0x9f
 10185 11cd 00000000 		.4byte	0
 10186 11d1 00000000 		.4byte	0
 10187              	.LLST123:
 10188 11d5 0A000000 		.4byte	.LVL374
 10189 11d9 0E000000 		.4byte	.LVL375
 10190 11dd 0600     		.2byte	0x6
 10191 11df 73       		.byte	0x73
 10192 11e0 00       		.sleb128 0
 10193 11e1 08       		.byte	0x8
 10194 11e2 70       		.byte	0x70
 10195 11e3 1A       		.byte	0x1a
 10196 11e4 9F       		.byte	0x9f
 10197 11e5 0E000000 		.4byte	.LVL375
 10198 11e9 12000000 		.4byte	.LVL376
 10199 11ed 0100     		.2byte	0x1
 10200 11ef 53       		.byte	0x53
 10201 11f0 12000000 		.4byte	.LVL376
 10202 11f4 20000000 		.4byte	.LFE71
 10203 11f8 1000     		.2byte	0x10
 10204 11fa 03       		.byte	0x3
 10205 11fb 25000000 		.4byte	MCP7940N_RegistersLocal+21
 10206 11ff 94       		.byte	0x94
 10207 1200 01       		.byte	0x1
 10208 1201 08       		.byte	0x8
 10209 1202 FF       		.byte	0xff
 10210 1203 1A       		.byte	0x1a
ARM GAS  C:\Users\GYULAI~1\AppData\Local\Temp\ccG7iLma.s 			page 203


 10211 1204 09       		.byte	0x9
 10212 1205 FD       		.byte	0xfd
 10213 1206 24       		.byte	0x24
 10214 1207 31       		.byte	0x31
 10215 1208 25       		.byte	0x25
 10216 1209 9F       		.byte	0x9f
 10217 120a 00000000 		.4byte	0
 10218 120e 00000000 		.4byte	0
 10219              	.LLST124:
 10220 1212 00000000 		.4byte	.LVL378
 10221 1216 0C000000 		.4byte	.LVL379
 10222 121a 0200     		.2byte	0x2
 10223 121c 70       		.byte	0x70
 10224 121d 00       		.sleb128 0
 10225 121e 0C000000 		.4byte	.LVL379
 10226 1222 38000000 		.4byte	.LVL386
 10227 1226 0200     		.2byte	0x2
 10228 1228 74       		.byte	0x74
 10229 1229 00       		.sleb128 0
 10230 122a 38000000 		.4byte	.LVL386
 10231 122e 3C000000 		.4byte	.LFE66
 10232 1232 0200     		.2byte	0x2
 10233 1234 70       		.byte	0x70
 10234 1235 00       		.sleb128 0
 10235 1236 00000000 		.4byte	0
 10236 123a 00000000 		.4byte	0
 10237              	.LLST125:
 10238 123e 06000000 		.4byte	.LVL387
 10239 1242 0E000000 		.4byte	.LVL389
 10240 1246 0100     		.2byte	0x1
 10241 1248 53       		.byte	0x53
 10242 1249 0E000000 		.4byte	.LVL389
 10243 124d 20000000 		.4byte	.LFE73
 10244 1251 0500     		.2byte	0x5
 10245 1253 03       		.byte	0x3
 10246 1254 28000000 		.4byte	MCP7940N_RegistersLocal+24
 10247 1258 00000000 		.4byte	0
 10248 125c 00000000 		.4byte	0
 10249              	.LLST126:
 10250 1260 0A000000 		.4byte	.LVL388
 10251 1264 16000000 		.4byte	.LVL391
 10252 1268 0100     		.2byte	0x1
 10253 126a 50       		.byte	0x50
 10254 126b 16000000 		.4byte	.LVL391
 10255 126f 20000000 		.4byte	.LFE73
 10256 1273 0A00     		.2byte	0xa
 10257 1275 03       		.byte	0x3
 10258 1276 28000000 		.4byte	MCP7940N_RegistersLocal+24
 10259 127a 94       		.byte	0x94
 10260 127b 01       		.byte	0x1
 10261 127c 3F       		.byte	0x3f
 10262 127d 1A       		.byte	0x1a
 10263 127e 9F       		.byte	0x9f
 10264 127f 00000000 		.4byte	0
 10265 1283 00000000 		.4byte	0
 10266              	.LLST127:
 10267 1287 0A000000 		.4byte	.LVL388
ARM GAS  C:\Users\GYULAI~1\AppData\Local\Temp\ccG7iLma.s 			page 204


 10268 128b 0E000000 		.4byte	.LVL389
 10269 128f 0500     		.2byte	0x5
 10270 1291 73       		.byte	0x73
 10271 1292 00       		.sleb128 0
 10272 1293 40       		.byte	0x40
 10273 1294 1A       		.byte	0x1a
 10274 1295 9F       		.byte	0x9f
 10275 1296 0E000000 		.4byte	.LVL389
 10276 129a 12000000 		.4byte	.LVL390
 10277 129e 0100     		.2byte	0x1
 10278 12a0 53       		.byte	0x53
 10279 12a1 12000000 		.4byte	.LVL390
 10280 12a5 20000000 		.4byte	.LFE73
 10281 12a9 1000     		.2byte	0x10
 10282 12ab 03       		.byte	0x3
 10283 12ac 28000000 		.4byte	MCP7940N_RegistersLocal+24
 10284 12b0 94       		.byte	0x94
 10285 12b1 01       		.byte	0x1
 10286 12b2 08       		.byte	0x8
 10287 12b3 FF       		.byte	0xff
 10288 12b4 1A       		.byte	0x1a
 10289 12b5 09       		.byte	0x9
 10290 12b6 FF       		.byte	0xff
 10291 12b7 24       		.byte	0x24
 10292 12b8 33       		.byte	0x33
 10293 12b9 25       		.byte	0x25
 10294 12ba 9F       		.byte	0x9f
 10295 12bb 00000000 		.4byte	0
 10296 12bf 00000000 		.4byte	0
 10297              	.LLST128:
 10298 12c3 06000000 		.4byte	.LVL392
 10299 12c7 0E000000 		.4byte	.LVL394
 10300 12cb 0100     		.2byte	0x1
 10301 12cd 53       		.byte	0x53
 10302 12ce 0E000000 		.4byte	.LVL394
 10303 12d2 20000000 		.4byte	.LFE75
 10304 12d6 0500     		.2byte	0x5
 10305 12d8 03       		.byte	0x3
 10306 12d9 2B000000 		.4byte	MCP7940N_RegistersLocal+27
 10307 12dd 00000000 		.4byte	0
 10308 12e1 00000000 		.4byte	0
 10309              	.LLST129:
 10310 12e5 0A000000 		.4byte	.LVL393
 10311 12e9 16000000 		.4byte	.LVL396
 10312 12ed 0100     		.2byte	0x1
 10313 12ef 50       		.byte	0x50
 10314 12f0 16000000 		.4byte	.LVL396
 10315 12f4 20000000 		.4byte	.LFE75
 10316 12f8 0A00     		.2byte	0xa
 10317 12fa 03       		.byte	0x3
 10318 12fb 2B000000 		.4byte	MCP7940N_RegistersLocal+27
 10319 12ff 94       		.byte	0x94
 10320 1300 01       		.byte	0x1
 10321 1301 3F       		.byte	0x3f
 10322 1302 1A       		.byte	0x1a
 10323 1303 9F       		.byte	0x9f
 10324 1304 00000000 		.4byte	0
ARM GAS  C:\Users\GYULAI~1\AppData\Local\Temp\ccG7iLma.s 			page 205


 10325 1308 00000000 		.4byte	0
 10326              	.LLST130:
 10327 130c 0A000000 		.4byte	.LVL393
 10328 1310 0E000000 		.4byte	.LVL394
 10329 1314 0600     		.2byte	0x6
 10330 1316 73       		.byte	0x73
 10331 1317 00       		.sleb128 0
 10332 1318 08       		.byte	0x8
 10333 1319 30       		.byte	0x30
 10334 131a 1A       		.byte	0x1a
 10335 131b 9F       		.byte	0x9f
 10336 131c 0E000000 		.4byte	.LVL394
 10337 1320 12000000 		.4byte	.LVL395
 10338 1324 0100     		.2byte	0x1
 10339 1326 53       		.byte	0x53
 10340 1327 12000000 		.4byte	.LVL395
 10341 132b 20000000 		.4byte	.LFE75
 10342 132f 1000     		.2byte	0x10
 10343 1331 03       		.byte	0x3
 10344 1332 2B000000 		.4byte	MCP7940N_RegistersLocal+27
 10345 1336 94       		.byte	0x94
 10346 1337 01       		.byte	0x1
 10347 1338 08       		.byte	0x8
 10348 1339 FF       		.byte	0xff
 10349 133a 1A       		.byte	0x1a
 10350 133b 09       		.byte	0x9
 10351 133c FE       		.byte	0xfe
 10352 133d 24       		.byte	0x24
 10353 133e 32       		.byte	0x32
 10354 133f 25       		.byte	0x25
 10355 1340 9F       		.byte	0x9f
 10356 1341 00000000 		.4byte	0
 10357 1345 00000000 		.4byte	0
 10358              	.LLST131:
 10359 1349 06000000 		.4byte	.LVL397
 10360 134d 0E000000 		.4byte	.LVL399
 10361 1351 0100     		.2byte	0x1
 10362 1353 53       		.byte	0x53
 10363 1354 0E000000 		.4byte	.LVL399
 10364 1358 20000000 		.4byte	.LFE76
 10365 135c 0500     		.2byte	0x5
 10366 135e 03       		.byte	0x3
 10367 135f 2A000000 		.4byte	MCP7940N_RegistersLocal+26
 10368 1363 00000000 		.4byte	0
 10369 1367 00000000 		.4byte	0
 10370              	.LLST132:
 10371 136b 0A000000 		.4byte	.LVL398
 10372 136f 16000000 		.4byte	.LVL401
 10373 1373 0100     		.2byte	0x1
 10374 1375 50       		.byte	0x50
 10375 1376 16000000 		.4byte	.LVL401
 10376 137a 20000000 		.4byte	.LFE76
 10377 137e 0A00     		.2byte	0xa
 10378 1380 03       		.byte	0x3
 10379 1381 2A000000 		.4byte	MCP7940N_RegistersLocal+26
 10380 1385 94       		.byte	0x94
 10381 1386 01       		.byte	0x1
ARM GAS  C:\Users\GYULAI~1\AppData\Local\Temp\ccG7iLma.s 			page 206


 10382 1387 3F       		.byte	0x3f
 10383 1388 1A       		.byte	0x1a
 10384 1389 9F       		.byte	0x9f
 10385 138a 00000000 		.4byte	0
 10386 138e 00000000 		.4byte	0
 10387              	.LLST133:
 10388 1392 0A000000 		.4byte	.LVL398
 10389 1396 0E000000 		.4byte	.LVL399
 10390 139a 0600     		.2byte	0x6
 10391 139c 73       		.byte	0x73
 10392 139d 00       		.sleb128 0
 10393 139e 08       		.byte	0x8
 10394 139f 30       		.byte	0x30
 10395 13a0 1A       		.byte	0x1a
 10396 13a1 9F       		.byte	0x9f
 10397 13a2 0E000000 		.4byte	.LVL399
 10398 13a6 12000000 		.4byte	.LVL400
 10399 13aa 0100     		.2byte	0x1
 10400 13ac 53       		.byte	0x53
 10401 13ad 12000000 		.4byte	.LVL400
 10402 13b1 20000000 		.4byte	.LFE76
 10403 13b5 1000     		.2byte	0x10
 10404 13b7 03       		.byte	0x3
 10405 13b8 2A000000 		.4byte	MCP7940N_RegistersLocal+26
 10406 13bc 94       		.byte	0x94
 10407 13bd 01       		.byte	0x1
 10408 13be 08       		.byte	0x8
 10409 13bf FF       		.byte	0xff
 10410 13c0 1A       		.byte	0x1a
 10411 13c1 09       		.byte	0x9
 10412 13c2 FE       		.byte	0xfe
 10413 13c3 24       		.byte	0x24
 10414 13c4 32       		.byte	0x32
 10415 13c5 25       		.byte	0x25
 10416 13c6 9F       		.byte	0x9f
 10417 13c7 00000000 		.4byte	0
 10418 13cb 00000000 		.4byte	0
 10419              	.LLST134:
 10420 13cf 06000000 		.4byte	.LVL402
 10421 13d3 0E000000 		.4byte	.LVL404
 10422 13d7 0100     		.2byte	0x1
 10423 13d9 53       		.byte	0x53
 10424 13da 0E000000 		.4byte	.LVL404
 10425 13de 20000000 		.4byte	.LFE77
 10426 13e2 0500     		.2byte	0x5
 10427 13e4 03       		.byte	0x3
 10428 13e5 29000000 		.4byte	MCP7940N_RegistersLocal+25
 10429 13e9 00000000 		.4byte	0
 10430 13ed 00000000 		.4byte	0
 10431              	.LLST135:
 10432 13f1 0A000000 		.4byte	.LVL403
 10433 13f5 16000000 		.4byte	.LVL406
 10434 13f9 0100     		.2byte	0x1
 10435 13fb 50       		.byte	0x50
 10436 13fc 16000000 		.4byte	.LVL406
 10437 1400 20000000 		.4byte	.LFE77
 10438 1404 0A00     		.2byte	0xa
ARM GAS  C:\Users\GYULAI~1\AppData\Local\Temp\ccG7iLma.s 			page 207


 10439 1406 03       		.byte	0x3
 10440 1407 29000000 		.4byte	MCP7940N_RegistersLocal+25
 10441 140b 94       		.byte	0x94
 10442 140c 01       		.byte	0x1
 10443 140d 3F       		.byte	0x3f
 10444 140e 1A       		.byte	0x1a
 10445 140f 9F       		.byte	0x9f
 10446 1410 00000000 		.4byte	0
 10447 1414 00000000 		.4byte	0
 10448              	.LLST136:
 10449 1418 0A000000 		.4byte	.LVL403
 10450 141c 0E000000 		.4byte	.LVL404
 10451 1420 0600     		.2byte	0x6
 10452 1422 73       		.byte	0x73
 10453 1423 00       		.sleb128 0
 10454 1424 08       		.byte	0x8
 10455 1425 70       		.byte	0x70
 10456 1426 1A       		.byte	0x1a
 10457 1427 9F       		.byte	0x9f
 10458 1428 0E000000 		.4byte	.LVL404
 10459 142c 12000000 		.4byte	.LVL405
 10460 1430 0100     		.2byte	0x1
 10461 1432 53       		.byte	0x53
 10462 1433 12000000 		.4byte	.LVL405
 10463 1437 20000000 		.4byte	.LFE77
 10464 143b 1000     		.2byte	0x10
 10465 143d 03       		.byte	0x3
 10466 143e 29000000 		.4byte	MCP7940N_RegistersLocal+25
 10467 1442 94       		.byte	0x94
 10468 1443 01       		.byte	0x1
 10469 1444 08       		.byte	0x8
 10470 1445 FF       		.byte	0xff
 10471 1446 1A       		.byte	0x1a
 10472 1447 09       		.byte	0x9
 10473 1448 FD       		.byte	0xfd
 10474 1449 24       		.byte	0x24
 10475 144a 31       		.byte	0x31
 10476 144b 25       		.byte	0x25
 10477 144c 9F       		.byte	0x9f
 10478 144d 00000000 		.4byte	0
 10479 1451 00000000 		.4byte	0
 10480              	.LLST137:
 10481 1455 00000000 		.4byte	.LVL407
 10482 1459 0C000000 		.4byte	.LVL408
 10483 145d 0200     		.2byte	0x2
 10484 145f 70       		.byte	0x70
 10485 1460 00       		.sleb128 0
 10486 1461 0C000000 		.4byte	.LVL408
 10487 1465 38000000 		.4byte	.LVL415
 10488 1469 0200     		.2byte	0x2
 10489 146b 74       		.byte	0x74
 10490 146c 00       		.sleb128 0
 10491 146d 38000000 		.4byte	.LVL415
 10492 1471 3C000000 		.4byte	.LFE72
 10493 1475 0200     		.2byte	0x2
 10494 1477 70       		.byte	0x70
 10495 1478 00       		.sleb128 0
ARM GAS  C:\Users\GYULAI~1\AppData\Local\Temp\ccG7iLma.s 			page 208


 10496 1479 00000000 		.4byte	0
 10497 147d 00000000 		.4byte	0
 10498              	.LLST138:
 10499 1481 00000000 		.4byte	.LVL416
 10500 1485 1E000000 		.4byte	.LVL419
 10501 1489 0100     		.2byte	0x1
 10502 148b 50       		.byte	0x50
 10503 148c 1E000000 		.4byte	.LVL419
 10504 1490 24000000 		.4byte	.LFE78
 10505 1494 0400     		.2byte	0x4
 10506 1496 F3       		.byte	0xf3
 10507 1497 01       		.uleb128 0x1
 10508 1498 50       		.byte	0x50
 10509 1499 9F       		.byte	0x9f
 10510 149a 00000000 		.4byte	0
 10511 149e 00000000 		.4byte	0
 10512              	.LLST139:
 10513 14a2 00000000 		.4byte	.LVL416
 10514 14a6 1C000000 		.4byte	.LVL418
 10515 14aa 0100     		.2byte	0x1
 10516 14ac 51       		.byte	0x51
 10517 14ad 1C000000 		.4byte	.LVL418
 10518 14b1 21000000 		.4byte	.LVL420-1
 10519 14b5 0100     		.2byte	0x1
 10520 14b7 52       		.byte	0x52
 10521 14b8 21000000 		.4byte	.LVL420-1
 10522 14bc 24000000 		.4byte	.LFE78
 10523 14c0 0400     		.2byte	0x4
 10524 14c2 F3       		.byte	0xf3
 10525 14c3 01       		.uleb128 0x1
 10526 14c4 51       		.byte	0x51
 10527 14c5 9F       		.byte	0x9f
 10528 14c6 00000000 		.4byte	0
 10529 14ca 00000000 		.4byte	0
 10530              	.LLST140:
 10531 14ce 00000000 		.4byte	.LVL416
 10532 14d2 1A000000 		.4byte	.LVL417
 10533 14d6 0100     		.2byte	0x1
 10534 14d8 52       		.byte	0x52
 10535 14d9 1A000000 		.4byte	.LVL417
 10536 14dd 24000000 		.4byte	.LFE78
 10537 14e1 0400     		.2byte	0x4
 10538 14e3 F3       		.byte	0xf3
 10539 14e4 01       		.uleb128 0x1
 10540 14e5 52       		.byte	0x52
 10541 14e6 9F       		.byte	0x9f
 10542 14e7 00000000 		.4byte	0
 10543 14eb 00000000 		.4byte	0
 10544              	.LLST141:
 10545 14ef 00000000 		.4byte	.LVL421
 10546 14f3 1E000000 		.4byte	.LVL424
 10547 14f7 0100     		.2byte	0x1
 10548 14f9 50       		.byte	0x50
 10549 14fa 1E000000 		.4byte	.LVL424
 10550 14fe 24000000 		.4byte	.LFE79
 10551 1502 0400     		.2byte	0x4
 10552 1504 F3       		.byte	0xf3
ARM GAS  C:\Users\GYULAI~1\AppData\Local\Temp\ccG7iLma.s 			page 209


 10553 1505 01       		.uleb128 0x1
 10554 1506 50       		.byte	0x50
 10555 1507 9F       		.byte	0x9f
 10556 1508 00000000 		.4byte	0
 10557 150c 00000000 		.4byte	0
 10558              	.LLST142:
 10559 1510 00000000 		.4byte	.LVL421
 10560 1514 1C000000 		.4byte	.LVL423
 10561 1518 0100     		.2byte	0x1
 10562 151a 51       		.byte	0x51
 10563 151b 1C000000 		.4byte	.LVL423
 10564 151f 21000000 		.4byte	.LVL425-1
 10565 1523 0100     		.2byte	0x1
 10566 1525 52       		.byte	0x52
 10567 1526 21000000 		.4byte	.LVL425-1
 10568 152a 24000000 		.4byte	.LFE79
 10569 152e 0400     		.2byte	0x4
 10570 1530 F3       		.byte	0xf3
 10571 1531 01       		.uleb128 0x1
 10572 1532 51       		.byte	0x51
 10573 1533 9F       		.byte	0x9f
 10574 1534 00000000 		.4byte	0
 10575 1538 00000000 		.4byte	0
 10576              	.LLST143:
 10577 153c 00000000 		.4byte	.LVL421
 10578 1540 1A000000 		.4byte	.LVL422
 10579 1544 0100     		.2byte	0x1
 10580 1546 52       		.byte	0x52
 10581 1547 1A000000 		.4byte	.LVL422
 10582 154b 24000000 		.4byte	.LFE79
 10583 154f 0400     		.2byte	0x4
 10584 1551 F3       		.byte	0xf3
 10585 1552 01       		.uleb128 0x1
 10586 1553 52       		.byte	0x52
 10587 1554 9F       		.byte	0x9f
 10588 1555 00000000 		.4byte	0
 10589 1559 00000000 		.4byte	0
 10590              		.section	.debug_aranges,"",%progbits
 10591 0000 94020000 		.4byte	0x294
 10592 0004 0200     		.2byte	0x2
 10593 0006 00000000 		.4byte	.Ldebug_info0
 10594 000a 04       		.byte	0x4
 10595 000b 00       		.byte	0
 10596 000c 0000     		.2byte	0
 10597 000e 0000     		.2byte	0
 10598 0010 00000000 		.4byte	.LFB0
 10599 0014 50000000 		.4byte	.LFE0-.LFB0
 10600 0018 00000000 		.4byte	.LFB1
 10601 001c 38000000 		.4byte	.LFE1-.LFB1
 10602 0020 00000000 		.4byte	.LFB2
 10603 0024 1C000000 		.4byte	.LFE2-.LFB2
 10604 0028 00000000 		.4byte	.LFB3
 10605 002c 14000000 		.4byte	.LFE3-.LFB3
 10606 0030 00000000 		.4byte	.LFB5
 10607 0034 08000000 		.4byte	.LFE5-.LFB5
 10608 0038 00000000 		.4byte	.LFB7
 10609 003c 1C000000 		.4byte	.LFE7-.LFB7
ARM GAS  C:\Users\GYULAI~1\AppData\Local\Temp\ccG7iLma.s 			page 210


 10610 0040 00000000 		.4byte	.LFB8
 10611 0044 1C000000 		.4byte	.LFE8-.LFB8
 10612 0048 00000000 		.4byte	.LFB9
 10613 004c 1C000000 		.4byte	.LFE9-.LFB9
 10614 0050 00000000 		.4byte	.LFB10
 10615 0054 1C000000 		.4byte	.LFE10-.LFB10
 10616 0058 00000000 		.4byte	.LFB11
 10617 005c 10000000 		.4byte	.LFE11-.LFB11
 10618 0060 00000000 		.4byte	.LFB12
 10619 0064 1C000000 		.4byte	.LFE12-.LFB12
 10620 0068 00000000 		.4byte	.LFB13
 10621 006c 20000000 		.4byte	.LFE13-.LFB13
 10622 0070 00000000 		.4byte	.LFB6
 10623 0074 44000000 		.4byte	.LFE6-.LFB6
 10624 0078 00000000 		.4byte	.LFB15
 10625 007c 30000000 		.4byte	.LFE15-.LFB15
 10626 0080 00000000 		.4byte	.LFB16
 10627 0084 24000000 		.4byte	.LFE16-.LFB16
 10628 0088 00000000 		.4byte	.LFB17
 10629 008c 30000000 		.4byte	.LFE17-.LFB17
 10630 0090 00000000 		.4byte	.LFB18
 10631 0094 28000000 		.4byte	.LFE18-.LFB18
 10632 0098 00000000 		.4byte	.LFB19
 10633 009c 14000000 		.4byte	.LFE19-.LFB19
 10634 00a0 00000000 		.4byte	.LFB20
 10635 00a4 24000000 		.4byte	.LFE20-.LFB20
 10636 00a8 00000000 		.4byte	.LFB21
 10637 00ac 2C000000 		.4byte	.LFE21-.LFB21
 10638 00b0 00000000 		.4byte	.LFB22
 10639 00b4 20000000 		.4byte	.LFE22-.LFB22
 10640 00b8 00000000 		.4byte	.LFB23
 10641 00bc 30000000 		.4byte	.LFE23-.LFB23
 10642 00c0 00000000 		.4byte	.LFB24
 10643 00c4 30000000 		.4byte	.LFE24-.LFB24
 10644 00c8 00000000 		.4byte	.LFB25
 10645 00cc 20000000 		.4byte	.LFE25-.LFB25
 10646 00d0 00000000 		.4byte	.LFB28
 10647 00d4 20000000 		.4byte	.LFE28-.LFB28
 10648 00d8 00000000 		.4byte	.LFB29
 10649 00dc 20000000 		.4byte	.LFE29-.LFB29
 10650 00e0 00000000 		.4byte	.LFB31
 10651 00e4 20000000 		.4byte	.LFE31-.LFB31
 10652 00e8 00000000 		.4byte	.LFB32
 10653 00ec 4C000000 		.4byte	.LFE32-.LFB32
 10654 00f0 00000000 		.4byte	.LFB33
 10655 00f4 3C000000 		.4byte	.LFE33-.LFB33
 10656 00f8 00000000 		.4byte	.LFB34
 10657 00fc 20000000 		.4byte	.LFE34-.LFB34
 10658 0100 00000000 		.4byte	.LFB35
 10659 0104 20000000 		.4byte	.LFE35-.LFB35
 10660 0108 00000000 		.4byte	.LFB36
 10661 010c 20000000 		.4byte	.LFE36-.LFB36
 10662 0110 00000000 		.4byte	.LFB37
 10663 0114 10000000 		.4byte	.LFE37-.LFB37
 10664 0118 00000000 		.4byte	.LFB38
 10665 011c 40000000 		.4byte	.LFE38-.LFB38
 10666 0120 00000000 		.4byte	.LFB39
ARM GAS  C:\Users\GYULAI~1\AppData\Local\Temp\ccG7iLma.s 			page 211


 10667 0124 1C000000 		.4byte	.LFE39-.LFB39
 10668 0128 00000000 		.4byte	.LFB40
 10669 012c 10000000 		.4byte	.LFE40-.LFB40
 10670 0130 00000000 		.4byte	.LFB41
 10671 0134 20000000 		.4byte	.LFE41-.LFB41
 10672 0138 00000000 		.4byte	.LFB42
 10673 013c 20000000 		.4byte	.LFE42-.LFB42
 10674 0140 00000000 		.4byte	.LFB43
 10675 0144 20000000 		.4byte	.LFE43-.LFB43
 10676 0148 00000000 		.4byte	.LFB44
 10677 014c 10000000 		.4byte	.LFE44-.LFB44
 10678 0150 00000000 		.4byte	.LFB4
 10679 0154 44000000 		.4byte	.LFE4-.LFB4
 10680 0158 00000000 		.4byte	.LFB14
 10681 015c 94000000 		.4byte	.LFE14-.LFB14
 10682 0160 00000000 		.4byte	.LFB26
 10683 0164 60000000 		.4byte	.LFE26-.LFB26
 10684 0168 00000000 		.4byte	.LFB27
 10685 016c 60000000 		.4byte	.LFE27-.LFB27
 10686 0170 00000000 		.4byte	.LFB30
 10687 0174 60000000 		.4byte	.LFE30-.LFB30
 10688 0178 00000000 		.4byte	.LFB46
 10689 017c 30000000 		.4byte	.LFE46-.LFB46
 10690 0180 00000000 		.4byte	.LFB47
 10691 0184 30000000 		.4byte	.LFE47-.LFB47
 10692 0188 00000000 		.4byte	.LFB48
 10693 018c 30000000 		.4byte	.LFE48-.LFB48
 10694 0190 00000000 		.4byte	.LFB49
 10695 0194 24000000 		.4byte	.LFE49-.LFB49
 10696 0198 00000000 		.4byte	.LFB50
 10697 019c 30000000 		.4byte	.LFE50-.LFB50
 10698 01a0 00000000 		.4byte	.LFB51
 10699 01a4 30000000 		.4byte	.LFE51-.LFB51
 10700 01a8 00000000 		.4byte	.LFB45
 10701 01ac 3A000000 		.4byte	.LFE45-.LFB45
 10702 01b0 00000000 		.4byte	.LFB52
 10703 01b4 10000000 		.4byte	.LFE52-.LFB52
 10704 01b8 00000000 		.4byte	.LFB53
 10705 01bc 28000000 		.4byte	.LFE53-.LFB53
 10706 01c0 00000000 		.4byte	.LFB54
 10707 01c4 28000000 		.4byte	.LFE54-.LFB54
 10708 01c8 00000000 		.4byte	.LFB55
 10709 01cc 4C000000 		.4byte	.LFE55-.LFB55
 10710 01d0 00000000 		.4byte	.LFB57
 10711 01d4 38000000 		.4byte	.LFE57-.LFB57
 10712 01d8 00000000 		.4byte	.LFB58
 10713 01dc 3C000000 		.4byte	.LFE58-.LFB58
 10714 01e0 00000000 		.4byte	.LFB59
 10715 01e4 3C000000 		.4byte	.LFE59-.LFB59
 10716 01e8 00000000 		.4byte	.LFB60
 10717 01ec 2C000000 		.4byte	.LFE60-.LFB60
 10718 01f0 00000000 		.4byte	.LFB61
 10719 01f4 3C000000 		.4byte	.LFE61-.LFB61
 10720 01f8 00000000 		.4byte	.LFB62
 10721 01fc 3C000000 		.4byte	.LFE62-.LFB62
 10722 0200 00000000 		.4byte	.LFB56
 10723 0204 70000000 		.4byte	.LFE56-.LFB56
ARM GAS  C:\Users\GYULAI~1\AppData\Local\Temp\ccG7iLma.s 			page 212


 10724 0208 00000000 		.4byte	.LFB63
 10725 020c 20000000 		.4byte	.LFE63-.LFB63
 10726 0210 00000000 		.4byte	.LFB64
 10727 0214 40000000 		.4byte	.LFE64-.LFB64
 10728 0218 00000000 		.4byte	.LFB65
 10729 021c 24000000 		.4byte	.LFE65-.LFB65
 10730 0220 00000000 		.4byte	.LFB67
 10731 0224 20000000 		.4byte	.LFE67-.LFB67
 10732 0228 00000000 		.4byte	.LFB68
 10733 022c 10000000 		.4byte	.LFE68-.LFB68
 10734 0230 00000000 		.4byte	.LFB69
 10735 0234 20000000 		.4byte	.LFE69-.LFB69
 10736 0238 00000000 		.4byte	.LFB70
 10737 023c 20000000 		.4byte	.LFE70-.LFB70
 10738 0240 00000000 		.4byte	.LFB71
 10739 0244 20000000 		.4byte	.LFE71-.LFB71
 10740 0248 00000000 		.4byte	.LFB66
 10741 024c 3C000000 		.4byte	.LFE66-.LFB66
 10742 0250 00000000 		.4byte	.LFB73
 10743 0254 20000000 		.4byte	.LFE73-.LFB73
 10744 0258 00000000 		.4byte	.LFB74
 10745 025c 10000000 		.4byte	.LFE74-.LFB74
 10746 0260 00000000 		.4byte	.LFB75
 10747 0264 20000000 		.4byte	.LFE75-.LFB75
 10748 0268 00000000 		.4byte	.LFB76
 10749 026c 20000000 		.4byte	.LFE76-.LFB76
 10750 0270 00000000 		.4byte	.LFB77
 10751 0274 20000000 		.4byte	.LFE77-.LFB77
 10752 0278 00000000 		.4byte	.LFB72
 10753 027c 3C000000 		.4byte	.LFE72-.LFB72
 10754 0280 00000000 		.4byte	.LFB78
 10755 0284 24000000 		.4byte	.LFE78-.LFB78
 10756 0288 00000000 		.4byte	.LFB79
 10757 028c 24000000 		.4byte	.LFE79-.LFB79
 10758 0290 00000000 		.4byte	0
 10759 0294 00000000 		.4byte	0
 10760              		.section	.debug_ranges,"",%progbits
 10761              	.Ldebug_ranges0:
 10762 0000 00000000 		.4byte	.LFB0
 10763 0004 50000000 		.4byte	.LFE0
 10764 0008 00000000 		.4byte	.LFB1
 10765 000c 38000000 		.4byte	.LFE1
 10766 0010 00000000 		.4byte	.LFB2
 10767 0014 1C000000 		.4byte	.LFE2
 10768 0018 00000000 		.4byte	.LFB3
 10769 001c 14000000 		.4byte	.LFE3
 10770 0020 00000000 		.4byte	.LFB5
 10771 0024 08000000 		.4byte	.LFE5
 10772 0028 00000000 		.4byte	.LFB7
 10773 002c 1C000000 		.4byte	.LFE7
 10774 0030 00000000 		.4byte	.LFB8
 10775 0034 1C000000 		.4byte	.LFE8
 10776 0038 00000000 		.4byte	.LFB9
 10777 003c 1C000000 		.4byte	.LFE9
 10778 0040 00000000 		.4byte	.LFB10
 10779 0044 1C000000 		.4byte	.LFE10
 10780 0048 00000000 		.4byte	.LFB11
ARM GAS  C:\Users\GYULAI~1\AppData\Local\Temp\ccG7iLma.s 			page 213


 10781 004c 10000000 		.4byte	.LFE11
 10782 0050 00000000 		.4byte	.LFB12
 10783 0054 1C000000 		.4byte	.LFE12
 10784 0058 00000000 		.4byte	.LFB13
 10785 005c 20000000 		.4byte	.LFE13
 10786 0060 00000000 		.4byte	.LFB6
 10787 0064 44000000 		.4byte	.LFE6
 10788 0068 00000000 		.4byte	.LFB15
 10789 006c 30000000 		.4byte	.LFE15
 10790 0070 00000000 		.4byte	.LFB16
 10791 0074 24000000 		.4byte	.LFE16
 10792 0078 00000000 		.4byte	.LFB17
 10793 007c 30000000 		.4byte	.LFE17
 10794 0080 00000000 		.4byte	.LFB18
 10795 0084 28000000 		.4byte	.LFE18
 10796 0088 00000000 		.4byte	.LFB19
 10797 008c 14000000 		.4byte	.LFE19
 10798 0090 00000000 		.4byte	.LFB20
 10799 0094 24000000 		.4byte	.LFE20
 10800 0098 00000000 		.4byte	.LFB21
 10801 009c 2C000000 		.4byte	.LFE21
 10802 00a0 00000000 		.4byte	.LFB22
 10803 00a4 20000000 		.4byte	.LFE22
 10804 00a8 00000000 		.4byte	.LFB23
 10805 00ac 30000000 		.4byte	.LFE23
 10806 00b0 00000000 		.4byte	.LFB24
 10807 00b4 30000000 		.4byte	.LFE24
 10808 00b8 00000000 		.4byte	.LFB25
 10809 00bc 20000000 		.4byte	.LFE25
 10810 00c0 00000000 		.4byte	.LFB28
 10811 00c4 20000000 		.4byte	.LFE28
 10812 00c8 00000000 		.4byte	.LFB29
 10813 00cc 20000000 		.4byte	.LFE29
 10814 00d0 00000000 		.4byte	.LFB31
 10815 00d4 20000000 		.4byte	.LFE31
 10816 00d8 00000000 		.4byte	.LFB32
 10817 00dc 4C000000 		.4byte	.LFE32
 10818 00e0 00000000 		.4byte	.LFB33
 10819 00e4 3C000000 		.4byte	.LFE33
 10820 00e8 00000000 		.4byte	.LFB34
 10821 00ec 20000000 		.4byte	.LFE34
 10822 00f0 00000000 		.4byte	.LFB35
 10823 00f4 20000000 		.4byte	.LFE35
 10824 00f8 00000000 		.4byte	.LFB36
 10825 00fc 20000000 		.4byte	.LFE36
 10826 0100 00000000 		.4byte	.LFB37
 10827 0104 10000000 		.4byte	.LFE37
 10828 0108 00000000 		.4byte	.LFB38
 10829 010c 40000000 		.4byte	.LFE38
 10830 0110 00000000 		.4byte	.LFB39
 10831 0114 1C000000 		.4byte	.LFE39
 10832 0118 00000000 		.4byte	.LFB40
 10833 011c 10000000 		.4byte	.LFE40
 10834 0120 00000000 		.4byte	.LFB41
 10835 0124 20000000 		.4byte	.LFE41
 10836 0128 00000000 		.4byte	.LFB42
 10837 012c 20000000 		.4byte	.LFE42
ARM GAS  C:\Users\GYULAI~1\AppData\Local\Temp\ccG7iLma.s 			page 214


 10838 0130 00000000 		.4byte	.LFB43
 10839 0134 20000000 		.4byte	.LFE43
 10840 0138 00000000 		.4byte	.LFB44
 10841 013c 10000000 		.4byte	.LFE44
 10842 0140 00000000 		.4byte	.LFB4
 10843 0144 44000000 		.4byte	.LFE4
 10844 0148 00000000 		.4byte	.LFB14
 10845 014c 94000000 		.4byte	.LFE14
 10846 0150 00000000 		.4byte	.LFB26
 10847 0154 60000000 		.4byte	.LFE26
 10848 0158 00000000 		.4byte	.LFB27
 10849 015c 60000000 		.4byte	.LFE27
 10850 0160 00000000 		.4byte	.LFB30
 10851 0164 60000000 		.4byte	.LFE30
 10852 0168 00000000 		.4byte	.LFB46
 10853 016c 30000000 		.4byte	.LFE46
 10854 0170 00000000 		.4byte	.LFB47
 10855 0174 30000000 		.4byte	.LFE47
 10856 0178 00000000 		.4byte	.LFB48
 10857 017c 30000000 		.4byte	.LFE48
 10858 0180 00000000 		.4byte	.LFB49
 10859 0184 24000000 		.4byte	.LFE49
 10860 0188 00000000 		.4byte	.LFB50
 10861 018c 30000000 		.4byte	.LFE50
 10862 0190 00000000 		.4byte	.LFB51
 10863 0194 30000000 		.4byte	.LFE51
 10864 0198 00000000 		.4byte	.LFB45
 10865 019c 3A000000 		.4byte	.LFE45
 10866 01a0 00000000 		.4byte	.LFB52
 10867 01a4 10000000 		.4byte	.LFE52
 10868 01a8 00000000 		.4byte	.LFB53
 10869 01ac 28000000 		.4byte	.LFE53
 10870 01b0 00000000 		.4byte	.LFB54
 10871 01b4 28000000 		.4byte	.LFE54
 10872 01b8 00000000 		.4byte	.LFB55
 10873 01bc 4C000000 		.4byte	.LFE55
 10874 01c0 00000000 		.4byte	.LFB57
 10875 01c4 38000000 		.4byte	.LFE57
 10876 01c8 00000000 		.4byte	.LFB58
 10877 01cc 3C000000 		.4byte	.LFE58
 10878 01d0 00000000 		.4byte	.LFB59
 10879 01d4 3C000000 		.4byte	.LFE59
 10880 01d8 00000000 		.4byte	.LFB60
 10881 01dc 2C000000 		.4byte	.LFE60
 10882 01e0 00000000 		.4byte	.LFB61
 10883 01e4 3C000000 		.4byte	.LFE61
 10884 01e8 00000000 		.4byte	.LFB62
 10885 01ec 3C000000 		.4byte	.LFE62
 10886 01f0 00000000 		.4byte	.LFB56
 10887 01f4 70000000 		.4byte	.LFE56
 10888 01f8 00000000 		.4byte	.LFB63
 10889 01fc 20000000 		.4byte	.LFE63
 10890 0200 00000000 		.4byte	.LFB64
 10891 0204 40000000 		.4byte	.LFE64
 10892 0208 00000000 		.4byte	.LFB65
 10893 020c 24000000 		.4byte	.LFE65
 10894 0210 00000000 		.4byte	.LFB67
ARM GAS  C:\Users\GYULAI~1\AppData\Local\Temp\ccG7iLma.s 			page 215


 10895 0214 20000000 		.4byte	.LFE67
 10896 0218 00000000 		.4byte	.LFB68
 10897 021c 10000000 		.4byte	.LFE68
 10898 0220 00000000 		.4byte	.LFB69
 10899 0224 20000000 		.4byte	.LFE69
 10900 0228 00000000 		.4byte	.LFB70
 10901 022c 20000000 		.4byte	.LFE70
 10902 0230 00000000 		.4byte	.LFB71
 10903 0234 20000000 		.4byte	.LFE71
 10904 0238 00000000 		.4byte	.LFB66
 10905 023c 3C000000 		.4byte	.LFE66
 10906 0240 00000000 		.4byte	.LFB73
 10907 0244 20000000 		.4byte	.LFE73
 10908 0248 00000000 		.4byte	.LFB74
 10909 024c 10000000 		.4byte	.LFE74
 10910 0250 00000000 		.4byte	.LFB75
 10911 0254 20000000 		.4byte	.LFE75
 10912 0258 00000000 		.4byte	.LFB76
 10913 025c 20000000 		.4byte	.LFE76
 10914 0260 00000000 		.4byte	.LFB77
 10915 0264 20000000 		.4byte	.LFE77
 10916 0268 00000000 		.4byte	.LFB72
 10917 026c 3C000000 		.4byte	.LFE72
 10918 0270 00000000 		.4byte	.LFB78
 10919 0274 24000000 		.4byte	.LFE78
 10920 0278 00000000 		.4byte	.LFB79
 10921 027c 24000000 		.4byte	.LFE79
 10922 0280 00000000 		.4byte	0
 10923 0284 00000000 		.4byte	0
 10924              		.section	.debug_line,"",%progbits
 10925              	.Ldebug_line0:
 10926 0000 8F080000 		.section	.debug_str,"MS",%progbits,1
 10926      02001A01 
 10926      00000201 
 10926      FB0E0D00 
 10926      01010101 
 10927              	.LASF57:
 10928 0000 50575255 		.ascii	"PWRUPMIN\000"
 10928      504D494E 
 10928      00
 10929              	.LASF153:
 10930 0009 4D435037 		.ascii	"MCP7940N_GetPowerFailDatetime\000"
 10930      3934304E 
 10930      5F476574 
 10930      506F7765 
 10930      72466169 
 10931              	.LASF149:
 10932 0027 4D435037 		.ascii	"MCP7940N_GetPowerFailWeekday\000"
 10932      3934304E 
 10932      5F476574 
 10932      506F7765 
 10932      72466169 
 10933              	.LASF124:
 10934 0044 4D435037 		.ascii	"MCP7940N_DisableBattery\000"
 10934      3934304E 
 10934      5F446973 
 10934      61626C65 
ARM GAS  C:\Users\GYULAI~1\AppData\Local\Temp\ccG7iLma.s 			page 216


 10934      42617474 
 10935              	.LASF150:
 10936 005c 4D435037 		.ascii	"MCP7940N_GetPowerFailDate\000"
 10936      3934304E 
 10936      5F476574 
 10936      506F7765 
 10936      72466169 
 10937              	.LASF97:
 10938 0076 4D435037 		.ascii	"MCP7940N_IsOscillatorRunning\000"
 10938      3934304E 
 10938      5F49734F 
 10938      7363696C 
 10938      6C61746F 
 10939              	.LASF5:
 10940 0093 5F5F7569 		.ascii	"__uint8_t\000"
 10940      6E74385F 
 10940      7400
 10941              	.LASF163:
 10942 009d 4D435037 		.ascii	"MCP7940N_I2CController\000"
 10942      3934304E 
 10942      5F493243 
 10942      436F6E74 
 10942      726F6C6C 
 10943              	.LASF115:
 10944 00b4 4D435037 		.ascii	"MCP7940N_EnableExternalOscillator\000"
 10944      3934304E 
 10944      5F456E61 
 10944      626C6545 
 10944      78746572 
 10945              	.LASF67:
 10946 00d6 4D435037 		.ascii	"MCP7940N_SetI2CController\000"
 10946      3934304E 
 10946      5F536574 
 10946      49324343 
 10946      6F6E7472 
 10947              	.LASF43:
 10948 00f0 414C4D30 		.ascii	"ALM0HOUR\000"
 10948      484F5552 
 10948      00
 10949              	.LASF12:
 10950 00f9 6C6F6E67 		.ascii	"long long unsigned int\000"
 10950      206C6F6E 
 10950      6720756E 
 10950      7369676E 
 10950      65642069 
 10951              	.LASF35:
 10952 0110 52544357 		.ascii	"RTCWKDAY\000"
 10952      4B444159 
 10952      00
 10953              	.LASF31:
 10954 0119 4D435037 		.ascii	"MCP7940N_RegisterStruct\000"
 10954      3934304E 
 10954      5F526567 
 10954      69737465 
 10954      72537472 
 10955              	.LASF116:
 10956 0131 4D435037 		.ascii	"MCP7940N_DisableExternalOscillator\000"
ARM GAS  C:\Users\GYULAI~1\AppData\Local\Temp\ccG7iLma.s 			page 217


 10956      3934304E 
 10956      5F446973 
 10956      61626C65 
 10956      45787465 
 10957              	.LASF4:
 10958 0154 5F5F696E 		.ascii	"__int8_t\000"
 10958      74385F74 
 10958      00
 10959              	.LASF79:
 10960 015d 4D435037 		.ascii	"MCP7940N_GetYears\000"
 10960      3934304E 
 10960      5F476574 
 10960      59656172 
 10960      7300
 10961              	.LASF114:
 10962 016f 66726571 		.ascii	"frequency\000"
 10962      75656E63 
 10962      7900
 10963              	.LASF73:
 10964 0179 4D435037 		.ascii	"MCP7940N_GetSeconds\000"
 10964      3934304E 
 10964      5F476574 
 10964      5365636F 
 10964      6E647300 
 10965              	.LASF74:
 10966 018d 4D435037 		.ascii	"MCP7940N_GetMinutes\000"
 10966      3934304E 
 10966      5F476574 
 10966      4D696E75 
 10966      74657300 
 10967              	.LASF113:
 10968 01a1 4D435037 		.ascii	"MCP7940N_SetSquarewaveFrequency\000"
 10968      3934304E 
 10968      5F536574 
 10968      53717561 
 10968      72657761 
 10969              	.LASF50:
 10970 01c1 414C4D31 		.ascii	"ALM1WKDAY\000"
 10970      574B4441 
 10970      5900
 10971              	.LASF129:
 10972 01cb 4D435037 		.ascii	"MCP7940N_GetAlarmWeekday\000"
 10972      3934304E 
 10972      5F476574 
 10972      416C6172 
 10972      6D576565 
 10973              	.LASF68:
 10974 01e4 636F6E74 		.ascii	"controller\000"
 10974      726F6C6C 
 10974      657200
 10975              	.LASF1:
 10976 01ef 6C6F6E67 		.ascii	"long long int\000"
 10976      206C6F6E 
 10976      6720696E 
 10976      7400
 10977              	.LASF3:
 10978 01fd 7369676E 		.ascii	"signed char\000"
ARM GAS  C:\Users\GYULAI~1\AppData\Local\Temp\ccG7iLma.s 			page 218


 10978      65642063 
 10978      68617200 
 10979              	.LASF157:
 10980 0209 4D435037 		.ascii	"MCP7940N_GetPowerUpHour\000"
 10980      3934304E 
 10980      5F476574 
 10980      506F7765 
 10980      72557048 
 10981              	.LASF56:
 10982 0221 50575244 		.ascii	"PWRDNMTH\000"
 10982      4E4D5448 
 10982      00
 10983              	.LASF69:
 10984 022a 4D435037 		.ascii	"MCP7940N_ReadRegisters\000"
 10984      3934304E 
 10984      5F526561 
 10984      64526567 
 10984      69737465 
 10985              	.LASF120:
 10986 0241 696E7465 		.ascii	"internalStatus\000"
 10986      726E616C 
 10986      53746174 
 10986      757300
 10987              	.LASF55:
 10988 0250 50575244 		.ascii	"PWRDNDATE\000"
 10988      4E444154 
 10988      4500
 10989              	.LASF38:
 10990 025a 52544359 		.ascii	"RTCYEAR\000"
 10990      45415200 
 10991              	.LASF24:
 10992 0262 7365636F 		.ascii	"second\000"
 10992      6E6400
 10993              	.LASF18:
 10994 0269 79656172 		.ascii	"year\000"
 10994      00
 10995              	.LASF39:
 10996 026e 434F4E54 		.ascii	"CONTROL\000"
 10996      524F4C00 
 10997              	.LASF94:
 10998 0276 4D435037 		.ascii	"MCP7940N_IsOscillatorEnabled\000"
 10998      3934304E 
 10998      5F49734F 
 10998      7363696C 
 10998      6C61746F 
 10999              	.LASF10:
 11000 0293 6C6F6E67 		.ascii	"long int\000"
 11000      20696E74 
 11000      00
 11001              	.LASF47:
 11002 029c 414C4D31 		.ascii	"ALM1SEC\000"
 11002      53454300 
 11003              	.LASF33:
 11004 02a4 5254434D 		.ascii	"RTCMIN\000"
 11004      494E00
 11005              	.LASF140:
 11006 02ab 4D435037 		.ascii	"MCP7940N_SetAlarmWeekday\000"
ARM GAS  C:\Users\GYULAI~1\AppData\Local\Temp\ccG7iLma.s 			page 219


 11006      3934304E 
 11006      5F536574 
 11006      416C6172 
 11006      6D576565 
 11007              	.LASF155:
 11008 02c4 4D435037 		.ascii	"MCP7940N_GetPowerUpWeekday\000"
 11008      3934304E 
 11008      5F476574 
 11008      506F7765 
 11008      72557057 
 11009              	.LASF110:
 11010 02df 4D435037 		.ascii	"MCP7940N_SetTrimmingValue\000"
 11010      3934304E 
 11010      5F536574 
 11010      5472696D 
 11010      6D696E67 
 11011              	.LASF81:
 11012 02f9 72657375 		.ascii	"result\000"
 11012      6C7400
 11013              	.LASF17:
 11014 0300 75696E74 		.ascii	"uint16_t\000"
 11014      31365F74 
 11014      00
 11015              	.LASF131:
 11016 0309 4D435037 		.ascii	"MCP7940N_GetAlarmMonths\000"
 11016      3934304E 
 11016      5F476574 
 11016      416C6172 
 11016      6D4D6F6E 
 11017              	.LASF117:
 11018 0321 4D435037 		.ascii	"MCP7940N_IsExternalOscillatorEnabled\000"
 11018      3934304E 
 11018      5F497345 
 11018      78746572 
 11018      6E616C4F 
 11019              	.LASF130:
 11020 0346 4D435037 		.ascii	"MCP7940N_GetAlarmDate\000"
 11020      3934304E 
 11020      5F476574 
 11020      416C6172 
 11020      6D446174 
 11021              	.LASF127:
 11022 035c 4D435037 		.ascii	"MCP7940N_GetAlarmMinutes\000"
 11022      3934304E 
 11022      5F476574 
 11022      416C6172 
 11022      6D4D696E 
 11023              	.LASF91:
 11024 0375 6D6F6E74 		.ascii	"months\000"
 11024      687300
 11025              	.LASF132:
 11026 037c 4D435037 		.ascii	"MCP7940N_GetAlarmDatetime\000"
 11026      3934304E 
 11026      5F476574 
 11026      416C6172 
 11026      6D446174 
 11027              	.LASF52:
ARM GAS  C:\Users\GYULAI~1\AppData\Local\Temp\ccG7iLma.s 			page 220


 11028 0396 414C4D31 		.ascii	"ALM1MTH\000"
 11028      4D544800 
 11029              	.LASF89:
 11030 039e 4D435037 		.ascii	"MCP7940N_SetWeekday\000"
 11030      3934304E 
 11030      5F536574 
 11030      5765656B 
 11030      64617900 
 11031              	.LASF62:
 11032 03b2 64657669 		.ascii	"deviceAddress\000"
 11032      63654164 
 11032      64726573 
 11032      7300
 11033              	.LASF96:
 11034 03c0 4D435037 		.ascii	"MCP7940N_DisableOscillator\000"
 11034      3934304E 
 11034      5F446973 
 11034      61626C65 
 11034      4F736369 
 11035              	.LASF126:
 11036 03db 4D435037 		.ascii	"MCP7940N_GetAlarmSeconds\000"
 11036      3934304E 
 11036      5F476574 
 11036      416C6172 
 11036      6D536563 
 11037              	.LASF41:
 11038 03f4 414C4D30 		.ascii	"ALM0SEC\000"
 11038      53454300 
 11039              	.LASF105:
 11040 03fc 76616C75 		.ascii	"value\000"
 11040      6500
 11041              	.LASF59:
 11042 0402 50575255 		.ascii	"PWRUPDATE\000"
 11042      50444154 
 11042      4500
 11043              	.LASF19:
 11044 040c 6D6F6E74 		.ascii	"month\000"
 11044      6800
 11045              	.LASF0:
 11046 0412 756E7369 		.ascii	"unsigned int\000"
 11046      676E6564 
 11046      20696E74 
 11046      00
 11047              	.LASF161:
 11048 041f 4D435037 		.ascii	"MCP7940N_WriteSRAM\000"
 11048      3934304E 
 11048      5F577269 
 11048      74655352 
 11048      414D00
 11049              	.LASF26:
 11050 0432 4D435037 		.ascii	"MCP7940N_I2CControllerStruct\000"
 11050      3934304E 
 11050      5F493243 
 11050      436F6E74 
 11050      726F6C6C 
 11051              	.LASF99:
 11052 044f 4D435037 		.ascii	"MCP7940N_HasPowerFailed\000"
ARM GAS  C:\Users\GYULAI~1\AppData\Local\Temp\ccG7iLma.s 			page 221


 11052      3934304E 
 11052      5F486173 
 11052      506F7765 
 11052      72466169 
 11053              	.LASF118:
 11054 0467 4D435037 		.ascii	"MCP7940N_WriteRegisters\000"
 11054      3934304E 
 11054      5F577269 
 11054      74655265 
 11054      67697374 
 11055              	.LASF11:
 11056 047f 6C6F6E67 		.ascii	"long unsigned int\000"
 11056      20756E73 
 11056      69676E65 
 11056      6420696E 
 11056      7400
 11057              	.LASF136:
 11058 0491 4D435037 		.ascii	"MCP7940N_HasAlarmFired\000"
 11058      3934304E 
 11058      5F486173 
 11058      416C6172 
 11058      6D466972 
 11059              	.LASF54:
 11060 04a8 50575244 		.ascii	"PWRDNHOUR\000"
 11060      4E484F55 
 11060      5200
 11061              	.LASF135:
 11062 04b2 4D435037 		.ascii	"MCP7940N_IsAlarmEnabled\000"
 11062      3934304E 
 11062      5F497341 
 11062      6C61726D 
 11062      456E6162 
 11063              	.LASF46:
 11064 04ca 414C4D30 		.ascii	"ALM0MTH\000"
 11064      4D544800 
 11065              	.LASF93:
 11066 04d2 79656172 		.ascii	"years\000"
 11066      7300
 11067              	.LASF88:
 11068 04d8 4D435037 		.ascii	"MCP7940N_SetDate\000"
 11068      3934304E 
 11068      5F536574 
 11068      44617465 
 11068      00
 11069              	.LASF86:
 11070 04e9 4D435037 		.ascii	"MCP7940N_SetHours\000"
 11070      3934304E 
 11070      5F536574 
 11070      486F7572 
 11070      7300
 11071              	.LASF9:
 11072 04fb 73686F72 		.ascii	"short unsigned int\000"
 11072      7420756E 
 11072      7369676E 
 11072      65642069 
 11072      6E7400
 11073              	.LASF20:
ARM GAS  C:\Users\GYULAI~1\AppData\Local\Temp\ccG7iLma.s 			page 222


 11074 050e 64617465 		.ascii	"date\000"
 11074      00
 11075              	.LASF160:
 11076 0513 4D435037 		.ascii	"MCP7940N_ReadSRAM\000"
 11076      3934304E 
 11076      5F526561 
 11076      64535241 
 11076      4D00
 11077              	.LASF100:
 11078 0525 4D435037 		.ascii	"MCP7940N_IsLeapYear\000"
 11078      3934304E 
 11078      5F49734C 
 11078      65617059 
 11078      65617200 
 11079              	.LASF104:
 11080 0539 4D435037 		.ascii	"MCP7940N_SetGPIO\000"
 11080      3934304E 
 11080      5F536574 
 11080      4750494F 
 11080      00
 11081              	.LASF25:
 11082 054a 4D435037 		.ascii	"MCP7940N_Datetime\000"
 11082      3934304E 
 11082      5F446174 
 11082      6574696D 
 11082      6500
 11083              	.LASF123:
 11084 055c 4D435037 		.ascii	"MCP7940N_EnableBattery\000"
 11084      3934304E 
 11084      5F456E61 
 11084      626C6542 
 11084      61747465 
 11085              	.LASF152:
 11086 0573 4D435037 		.ascii	"MCP7940N_GetPowerFailMinute\000"
 11086      3934304E 
 11086      5F476574 
 11086      506F7765 
 11086      72466169 
 11087              	.LASF133:
 11088 058f 4D435037 		.ascii	"MCP7940N_GetAlarmPolarity\000"
 11088      3934304E 
 11088      5F476574 
 11088      416C6172 
 11088      6D506F6C 
 11089              	.LASF72:
 11090 05a9 74656E73 		.ascii	"tens\000"
 11090      00
 11091              	.LASF45:
 11092 05ae 414C4D30 		.ascii	"ALM0DATE\000"
 11092      44415445 
 11092      00
 11093              	.LASF95:
 11094 05b7 4D435037 		.ascii	"MCP7940N_EnableOscillator\000"
 11094      3934304E 
 11094      5F456E61 
 11094      626C654F 
 11094      7363696C 
ARM GAS  C:\Users\GYULAI~1\AppData\Local\Temp\ccG7iLma.s 			page 223


 11095              	.LASF134:
 11096 05d1 4D435037 		.ascii	"MCP7940N_GetAlarmMode\000"
 11096      3934304E 
 11096      5F476574 
 11096      416C6172 
 11096      6D4D6F64 
 11097              	.LASF119:
 11098 05e7 65787465 		.ascii	"externalStatus\000"
 11098      726E616C 
 11098      53746174 
 11098      757300
 11099              	.LASF106:
 11100 05f6 4D435037 		.ascii	"MCP7940N_EnableCoarseTrimming\000"
 11100      3934304E 
 11100      5F456E61 
 11100      626C6543 
 11100      6F617273 
 11101              	.LASF58:
 11102 0614 50575255 		.ascii	"PWRUPHOUR\000"
 11102      50484F55 
 11102      5200
 11103              	.LASF158:
 11104 061e 4D435037 		.ascii	"MCP7940N_GetPowerUpMinute\000"
 11104      3934304E 
 11104      5F476574 
 11104      506F7765 
 11104      7255704D 
 11105              	.LASF13:
 11106 0638 73697A65 		.ascii	"sizetype\000"
 11106      74797065 
 11106      00
 11107              	.LASF2:
 11108 0641 6C6F6E67 		.ascii	"long double\000"
 11108      20646F75 
 11108      626C6500 
 11109              	.LASF61:
 11110 064d 61646472 		.ascii	"address\000"
 11110      65737300 
 11111              	.LASF83:
 11112 0655 7365636F 		.ascii	"seconds\000"
 11112      6E647300 
 11113              	.LASF51:
 11114 065d 414C4D31 		.ascii	"ALM1DATE\000"
 11114      44415445 
 11114      00
 11115              	.LASF128:
 11116 0666 4D435037 		.ascii	"MCP7940N_GetAlarmHours\000"
 11116      3934304E 
 11116      5F476574 
 11116      416C6172 
 11116      6D486F75 
 11117              	.LASF30:
 11118 067d 4D617374 		.ascii	"MasterReadByte\000"
 11118      65725265 
 11118      61644279 
 11118      746500
 11119              	.LASF109:
ARM GAS  C:\Users\GYULAI~1\AppData\Local\Temp\ccG7iLma.s 			page 224


 11120 068c 4D435037 		.ascii	"MCP7940N_IsCoarseTrimmingEnabled\000"
 11120      3934304E 
 11120      5F497343 
 11120      6F617273 
 11120      65547269 
 11121              	.LASF32:
 11122 06ad 52544353 		.ascii	"RTCSEC\000"
 11122      454300
 11123              	.LASF65:
 11124 06b4 4D435037 		.ascii	"MCP7940N_I2CReader\000"
 11124      3934304E 
 11124      5F493243 
 11124      52656164 
 11124      657200
 11125              	.LASF22:
 11126 06c7 686F7572 		.ascii	"hour\000"
 11126      00
 11127              	.LASF145:
 11128 06cc 706F6C61 		.ascii	"polarity\000"
 11128      72697479 
 11128      00
 11129              	.LASF112:
 11130 06d5 4D435037 		.ascii	"MCP7940N_GetSquarewaveFrequency\000"
 11130      3934304E 
 11130      5F476574 
 11130      53717561 
 11130      72657761 
 11131              	.LASF77:
 11132 06f5 4D435037 		.ascii	"MCP7940N_GetWeekday\000"
 11132      3934304E 
 11132      5F476574 
 11132      5765656B 
 11132      64617900 
 11133              	.LASF85:
 11134 0709 6D696E75 		.ascii	"minutes\000"
 11134      74657300 
 11135              	.LASF60:
 11136 0711 50575255 		.ascii	"PWRUPMTH\000"
 11136      504D5448 
 11136      00
 11137              	.LASF125:
 11138 071a 4D435037 		.ascii	"MCP7940N_ClearPowerFailed\000"
 11138      3934304E 
 11138      5F436C65 
 11138      6172506F 
 11138      77657246 
 11139              	.LASF75:
 11140 0734 4D435037 		.ascii	"MCP7940N_GetHours\000"
 11140      3934304E 
 11140      5F476574 
 11140      486F7572 
 11140      7300
 11141              	.LASF37:
 11142 0746 5254434D 		.ascii	"RTCMTH\000"
 11142      544800
 11143              	.LASF6:
 11144 074d 756E7369 		.ascii	"unsigned char\000"
ARM GAS  C:\Users\GYULAI~1\AppData\Local\Temp\ccG7iLma.s 			page 225


 11144      676E6564 
 11144      20636861 
 11144      7200
 11145              	.LASF143:
 11146 075b 4D435037 		.ascii	"MCP7940N_SetAlarmDatetime\000"
 11146      3934304E 
 11146      5F536574 
 11146      416C6172 
 11146      6D446174 
 11147              	.LASF7:
 11148 0775 73686F72 		.ascii	"short int\000"
 11148      7420696E 
 11148      7400
 11149              	.LASF138:
 11150 077f 4D435037 		.ascii	"MCP7940N_SetAlarmMinutes\000"
 11150      3934304E 
 11150      5F536574 
 11150      416C6172 
 11150      6D4D696E 
 11151              	.LASF87:
 11152 0798 686F7572 		.ascii	"hours\000"
 11152      7300
 11153              	.LASF98:
 11154 079e 4D435037 		.ascii	"MCP7940N_IsBatteryEnabled\000"
 11154      3934304E 
 11154      5F497342 
 11154      61747465 
 11154      7279456E 
 11155              	.LASF28:
 11156 07b8 4D617374 		.ascii	"MasterSendStop\000"
 11156      65725365 
 11156      6E645374 
 11156      6F7000
 11157              	.LASF36:
 11158 07c7 52544344 		.ascii	"RTCDATE\000"
 11158      41544500 
 11159              	.LASF107:
 11160 07cf 4D435037 		.ascii	"MCP7940N_DisableCoarseTrimming\000"
 11160      3934304E 
 11160      5F446973 
 11160      61626C65 
 11160      436F6172 
 11161              	.LASF164:
 11162 07ee 474E5520 		.ascii	"GNU C11 5.4.1 20160609 (release) [ARM/embedded-5-br"
 11162      43313120 
 11162      352E342E 
 11162      31203230 
 11162      31363036 
 11163 0821 616E6368 		.ascii	"anch revision 237715] -mcpu=cortex-m3 -mthumb -g -O"
 11163      20726576 
 11163      6973696F 
 11163      6E203233 
 11163      37373135 
 11164 0854 67202D66 		.ascii	"g -ffunction-sections -ffat-lto-objects\000"
 11164      66756E63 
 11164      74696F6E 
 11164      2D736563 
ARM GAS  C:\Users\GYULAI~1\AppData\Local\Temp\ccG7iLma.s 			page 226


 11164      74696F6E 
 11165              	.LASF64:
 11166 087c 62797465 		.ascii	"byteCount\000"
 11166      436F756E 
 11166      7400
 11167              	.LASF141:
 11168 0886 4D435037 		.ascii	"MCP7940N_SetAlarmDate\000"
 11168      3934304E 
 11168      5F536574 
 11168      416C6172 
 11168      6D446174 
 11169              	.LASF44:
 11170 089c 414C4D30 		.ascii	"ALM0WKDAY\000"
 11170      574B4441 
 11170      5900
 11171              	.LASF139:
 11172 08a6 4D435037 		.ascii	"MCP7940N_SetAlarmHours\000"
 11172      3934304E 
 11172      5F536574 
 11172      416C6172 
 11172      6D486F75 
 11173              	.LASF49:
 11174 08bd 414C4D31 		.ascii	"ALM1HOUR\000"
 11174      484F5552 
 11174      00
 11175              	.LASF53:
 11176 08c6 50575244 		.ascii	"PWRDNMIN\000"
 11176      4E4D494E 
 11176      00
 11177              	.LASF137:
 11178 08cf 4D435037 		.ascii	"MCP7940N_SetAlarmSeconds\000"
 11178      3934304E 
 11178      5F536574 
 11178      416C6172 
 11178      6D536563 
 11179              	.LASF90:
 11180 08e8 4D435037 		.ascii	"MCP7940N_SetMonths\000"
 11180      3934304E 
 11180      5F536574 
 11180      4D6F6E74 
 11180      687300
 11181              	.LASF166:
 11182 08fb 453A5C43 		.ascii	"E:\\Cypress\\Projects\\RheaWorkspace\\Rhea.cydsn\000"
 11182      79707265 
 11182      73735C50 
 11182      726F6A65 
 11182      6374735C 
 11183              	.LASF101:
 11184 0928 4D435037 		.ascii	"MCP7940N_SetMFPMode\000"
 11184      3934304E 
 11184      5F536574 
 11184      4D46504D 
 11184      6F646500 
 11185              	.LASF111:
 11186 093c 4D435037 		.ascii	"MCP7940N_GetTrimmingValue\000"
 11186      3934304E 
 11186      5F476574 
ARM GAS  C:\Users\GYULAI~1\AppData\Local\Temp\ccG7iLma.s 			page 227


 11186      5472696D 
 11186      6D696E67 
 11187              	.LASF147:
 11188 0956 4D435037 		.ascii	"MCP7940N_DisableAlarm\000"
 11188      3934304E 
 11188      5F446973 
 11188      61626C65 
 11188      416C6172 
 11189              	.LASF148:
 11190 096c 4D435037 		.ascii	"MCP7940N_GetPowerFailMonth\000"
 11190      3934304E 
 11190      5F476574 
 11190      506F7765 
 11190      72466169 
 11191              	.LASF40:
 11192 0987 4F534354 		.ascii	"OSCTRIM\000"
 11192      52494D00 
 11193              	.LASF14:
 11194 098f 63686172 		.ascii	"char\000"
 11194      00
 11195              	.LASF102:
 11196 0994 6D6F6465 		.ascii	"mode\000"
 11196      00
 11197              	.LASF8:
 11198 0999 5F5F7569 		.ascii	"__uint16_t\000"
 11198      6E743136 
 11198      5F7400
 11199              	.LASF121:
 11200 09a4 4D435037 		.ascii	"MCP7940N_SetDatetime\000"
 11200      3934304E 
 11200      5F536574 
 11200      44617465 
 11200      74696D65 
 11201              	.LASF92:
 11202 09b9 4D435037 		.ascii	"MCP7940N_SetYears\000"
 11202      3934304E 
 11202      5F536574 
 11202      59656172 
 11202      7300
 11203              	.LASF21:
 11204 09cb 7765656B 		.ascii	"weekday\000"
 11204      64617900 
 11205              	.LASF63:
 11206 09d3 62756666 		.ascii	"buffer\000"
 11206      657200
 11207              	.LASF66:
 11208 09da 4D435037 		.ascii	"MCP7940N_I2CWriter\000"
 11208      3934304E 
 11208      5F493243 
 11208      57726974 
 11208      657200
 11209              	.LASF103:
 11210 09ed 4D435037 		.ascii	"MCP7940N_GetMFPMode\000"
 11210      3934304E 
 11210      5F476574 
 11210      4D46504D 
 11210      6F646500 
ARM GAS  C:\Users\GYULAI~1\AppData\Local\Temp\ccG7iLma.s 			page 228


 11211              	.LASF48:
 11212 0a01 414C4D31 		.ascii	"ALM1MIN\000"
 11212      4D494E00 
 11213              	.LASF146:
 11214 0a09 4D435037 		.ascii	"MCP7940N_EnableAlarm\000"
 11214      3934304E 
 11214      5F456E61 
 11214      626C6541 
 11214      6C61726D 
 11215              	.LASF15:
 11216 0a1e 696E7438 		.ascii	"int8_t\000"
 11216      5F7400
 11217              	.LASF151:
 11218 0a25 4D435037 		.ascii	"MCP7940N_GetPowerFailHour\000"
 11218      3934304E 
 11218      5F476574 
 11218      506F7765 
 11218      72466169 
 11219              	.LASF29:
 11220 0a3f 4D617374 		.ascii	"MasterWriteByte\000"
 11220      65725772 
 11220      69746542 
 11220      79746500 
 11221              	.LASF23:
 11222 0a4f 6D696E75 		.ascii	"minute\000"
 11222      746500
 11223              	.LASF34:
 11224 0a56 52544348 		.ascii	"RTCHOUR\000"
 11224      4F555200 
 11225              	.LASF82:
 11226 0a5e 4D435037 		.ascii	"MCP7940N_SetSeconds\000"
 11226      3934304E 
 11226      5F536574 
 11226      5365636F 
 11226      6E647300 
 11227              	.LASF84:
 11228 0a72 4D435037 		.ascii	"MCP7940N_SetMinutes\000"
 11228      3934304E 
 11228      5F536574 
 11228      4D696E75 
 11228      74657300 
 11229              	.LASF70:
 11230 0a86 72656769 		.ascii	"registerValue\000"
 11230      73746572 
 11230      56616C75 
 11230      6500
 11231              	.LASF71:
 11232 0a94 6F6E6573 		.ascii	"ones\000"
 11232      00
 11233              	.LASF154:
 11234 0a99 4D435037 		.ascii	"MCP7940N_GetPowerUpMonth\000"
 11234      3934304E 
 11234      5F476574 
 11234      506F7765 
 11234      7255704D 
 11235              	.LASF80:
 11236 0ab2 4D435037 		.ascii	"MCP7940N_GetDatetime\000"
ARM GAS  C:\Users\GYULAI~1\AppData\Local\Temp\ccG7iLma.s 			page 229


 11236      3934304E 
 11236      5F476574 
 11236      44617465 
 11236      74696D65 
 11237              	.LASF16:
 11238 0ac7 75696E74 		.ascii	"uint8_t\000"
 11238      385F7400 
 11239              	.LASF76:
 11240 0acf 4D435037 		.ascii	"MCP7940N_GetDate\000"
 11240      3934304E 
 11240      5F476574 
 11240      44617465 
 11240      00
 11241              	.LASF122:
 11242 0ae0 64617465 		.ascii	"datetime\000"
 11242      74696D65 
 11242      00
 11243              	.LASF159:
 11244 0ae9 4D435037 		.ascii	"MCP7940N_GetPowerUpDatetime\000"
 11244      3934304E 
 11244      5F476574 
 11244      506F7765 
 11244      72557044 
 11245              	.LASF162:
 11246 0b05 4D435037 		.ascii	"MCP7940N_RegistersLocal\000"
 11246      3934304E 
 11246      5F526567 
 11246      69737465 
 11246      72734C6F 
 11247              	.LASF144:
 11248 0b1d 4D435037 		.ascii	"MCP7940N_SetAlarmPolarity\000"
 11248      3934304E 
 11248      5F536574 
 11248      416C6172 
 11248      6D506F6C 
 11249              	.LASF78:
 11250 0b37 4D435037 		.ascii	"MCP7940N_GetMonths\000"
 11250      3934304E 
 11250      5F476574 
 11250      4D6F6E74 
 11250      687300
 11251              	.LASF42:
 11252 0b4a 414C4D30 		.ascii	"ALM0MIN\000"
 11252      4D494E00 
 11253              	.LASF165:
 11254 0b52 72686561 		.ascii	"rhea\\drivers\\MCP7940N\\MCP7940N.c\000"
 11254      5C647269 
 11254      76657273 
 11254      5C4D4350 
 11254      37393430 
 11255              	.LASF156:
 11256 0b73 4D435037 		.ascii	"MCP7940N_GetPowerUpDate\000"
 11256      3934304E 
 11256      5F476574 
 11256      506F7765 
 11256      72557044 
 11257              	.LASF142:
ARM GAS  C:\Users\GYULAI~1\AppData\Local\Temp\ccG7iLma.s 			page 230


 11258 0b8b 4D435037 		.ascii	"MCP7940N_SetAlarmMonths\000"
 11258      3934304E 
 11258      5F536574 
 11258      416C6172 
 11258      6D4D6F6E 
 11259              	.LASF108:
 11260 0ba3 4D435037 		.ascii	"MCP7940N_GetLocalRegisters\000"
 11260      3934304E 
 11260      5F476574 
 11260      4C6F6361 
 11260      6C526567 
 11261              	.LASF27:
 11262 0bbe 4D617374 		.ascii	"MasterSendStart\000"
 11262      65725365 
 11262      6E645374 
 11262      61727400 
 11263              		.ident	"GCC: (GNU Tools for ARM Embedded Processors) 5.4.1 20160609 (release) [ARM/embedded-5-bran
