Archive member included to satisfy reference by file (symbol)

.\CortexM3\ARM_GCC_541\Debug\Rhea.a(I2C.o)
                              .\CortexM3\ARM_GCC_541\Debug\i2c_impl.o (I2C_Start)
.\CortexM3\ARM_GCC_541\Debug\Rhea.a(I2C_INT.o)
                              .\CortexM3\ARM_GCC_541\Debug\Rhea.a(I2C.o) (I2C_ISR)
.\CortexM3\ARM_GCC_541\Debug\Rhea.a(I2C_PM.o)
                              .\CortexM3\ARM_GCC_541\Debug\Rhea.a(I2C.o) (I2C_backup)
.\CortexM3\ARM_GCC_541\Debug\Rhea.a(I2C_MASTER.o)
                              .\CortexM3\ARM_GCC_541\Debug\Rhea.a(I2C.o) (I2C_mstrStatus)
.\CortexM3\ARM_GCC_541\Debug\Rhea.a(UART.o)
                              .\CortexM3\ARM_GCC_541\Debug\uart_impl.o (UART_Start)
.\CortexM3\ARM_GCC_541\Debug\Rhea.a(RTC_INTR.o)
                              .\CortexM3\ARM_GCC_541\Debug\rtc_impl.o (RTC_INTR_StartEx)
.\CortexM3\ARM_GCC_541\Debug\Rhea.a(DEBOUNCE_CLK.o)
                              .\CortexM3\ARM_GCC_541\Debug\input.o (DEBOUNCE_CLK_Start)
.\CortexM3\ARM_GCC_541\Debug\Rhea.a(BTN_RIGHT_INTR.o)
                              .\CortexM3\ARM_GCC_541\Debug\input.o (BTN_RIGHT_INTR_StartEx)
.\CortexM3\ARM_GCC_541\Debug\Rhea.a(BTN_LEFT_INTR.o)
                              .\CortexM3\ARM_GCC_541\Debug\input.o (BTN_LEFT_INTR_StartEx)
.\CortexM3\ARM_GCC_541\Debug\Rhea.a(BTN_ENTER_INTR.o)
                              .\CortexM3\ARM_GCC_541\Debug\input.o (BTN_ENTER_INTR_StartEx)
.\CortexM3\ARM_GCC_541\Debug\Rhea.a(SENSOR_TIMER.o)
                              .\CortexM3\ARM_GCC_541\Debug\sensor_impl.o (SENSOR_TIMER_Start)
.\CortexM3\ARM_GCC_541\Debug\Rhea.a(SENSOR_1MS.o)
                              .\CortexM3\ARM_GCC_541\Debug\sensor_impl.o (SENSOR_1MS_StartEx)
.\CortexM3\ARM_GCC_541\Debug\Rhea.a(UART_IntClock.o)
                              .\CortexM3\ARM_GCC_541\Debug\Rhea.a(UART.o) (UART_IntClock_Start)
.\CortexM3\ARM_GCC_541\Debug\Rhea.a(CyLib.o)
                              .\CortexM3\ARM_GCC_541\Debug\Cm3Start.o (CyResetStatus)
.\CortexM3\ARM_GCC_541\Debug\Rhea.a(cyPm.o)
                              .\CortexM3\ARM_GCC_541\Debug\Rhea.a(CyLib.o) (CyPmReadStatus)
.\CortexM3\ARM_GCC_541\Debug\Rhea.a(UART_RX_INTR.o)
                              .\CortexM3\ARM_GCC_541\Debug\command.o (UART_RX_INTR_StartEx)
.\CortexM3\ARM_GCC_541\Debug\Rhea.a(CyBootAsmGnu.o)
                              .\CortexM3\ARM_GCC_541\Debug\cyfitter_cfg.o (CyDelayCycles)
.\CortexM3\ARM_GCC_541\Debug\Rhea.a(CyFlash.o)
                              .\CortexM3\ARM_GCC_541\Debug\Rhea.a(cyPm.o) (CyFlash_SetWaitCycles)
.\CortexM3\ARM_GCC_541\Debug\Rhea.a(CySpc.o)
                              .\CortexM3\ARM_GCC_541\Debug\Rhea.a(CyFlash.o) (CySpcStart)
e:/cypress/psoc creator/4.2/psoc creator/import/gnu/arm/5.4.1/bin/../lib/gcc/arm-none-eabi/5.4.1/../../../../arm-none-eabi/lib/armv7-m\libm.a(lib_a-s_floor.o)
                              .\CortexM3\ARM_GCC_541\Debug\datetime.o (floor)
e:/cypress/psoc creator/4.2/psoc creator/import/gnu/arm/5.4.1/bin/../lib/gcc/arm-none-eabi/5.4.1/../../../../arm-none-eabi/lib/armv7-m\libm.a(lib_a-w_sqrt.o)
                              .\CortexM3\ARM_GCC_541\Debug\gfx.o (sqrt)
e:/cypress/psoc creator/4.2/psoc creator/import/gnu/arm/5.4.1/bin/../lib/gcc/arm-none-eabi/5.4.1/../../../../arm-none-eabi/lib/armv7-m\libm.a(lib_a-e_sqrt.o)
                              e:/cypress/psoc creator/4.2/psoc creator/import/gnu/arm/5.4.1/bin/../lib/gcc/arm-none-eabi/5.4.1/../../../../arm-none-eabi/lib/armv7-m\libm.a(lib_a-w_sqrt.o) (__ieee754_sqrt)
e:/cypress/psoc creator/4.2/psoc creator/import/gnu/arm/5.4.1/bin/../lib/gcc/arm-none-eabi/5.4.1/../../../../arm-none-eabi/lib/armv7-m\libm.a(lib_a-s_lib_ver.o)
                              e:/cypress/psoc creator/4.2/psoc creator/import/gnu/arm/5.4.1/bin/../lib/gcc/arm-none-eabi/5.4.1/../../../../arm-none-eabi/lib/armv7-m\libm.a(lib_a-w_sqrt.o) (__fdlib_version)
e:/cypress/psoc creator/4.2/psoc creator/import/gnu/arm/5.4.1/bin/../lib/gcc/arm-none-eabi/5.4.1/../../../../arm-none-eabi/lib/armv7-m\libm.a(lib_a-s_matherr.o)
                              e:/cypress/psoc creator/4.2/psoc creator/import/gnu/arm/5.4.1/bin/../lib/gcc/arm-none-eabi/5.4.1/../../../../arm-none-eabi/lib/armv7-m\libm.a(lib_a-w_sqrt.o) (matherr)
e:/cypress/psoc creator/4.2/psoc creator/import/gnu/arm/5.4.1/bin/../lib/gcc/arm-none-eabi/5.4.1/armv7-m\libgcc.a(_arm_addsubdf3.o)
                              .\CortexM3\ARM_GCC_541\Debug\BME280.o (__aeabi_dsub)
e:/cypress/psoc creator/4.2/psoc creator/import/gnu/arm/5.4.1/bin/../lib/gcc/arm-none-eabi/5.4.1/armv7-m\libgcc.a(_arm_muldivdf3.o)
                              .\CortexM3\ARM_GCC_541\Debug\BME280.o (__aeabi_dmul)
e:/cypress/psoc creator/4.2/psoc creator/import/gnu/arm/5.4.1/bin/../lib/gcc/arm-none-eabi/5.4.1/armv7-m\libgcc.a(_arm_cmpdf2.o)
                              .\CortexM3\ARM_GCC_541\Debug\BME280.o (__aeabi_dcmplt)
e:/cypress/psoc creator/4.2/psoc creator/import/gnu/arm/5.4.1/bin/../lib/gcc/arm-none-eabi/5.4.1/armv7-m\libgcc.a(_arm_unorddf2.o)
                              e:/cypress/psoc creator/4.2/psoc creator/import/gnu/arm/5.4.1/bin/../lib/gcc/arm-none-eabi/5.4.1/../../../../arm-none-eabi/lib/armv7-m\libm.a(lib_a-w_sqrt.o) (__aeabi_dcmpun)
e:/cypress/psoc creator/4.2/psoc creator/import/gnu/arm/5.4.1/bin/../lib/gcc/arm-none-eabi/5.4.1/armv7-m\libgcc.a(_arm_fixdfsi.o)
                              .\CortexM3\ARM_GCC_541\Debug\BME280.o (__aeabi_d2iz)
e:/cypress/psoc creator/4.2/psoc creator/import/gnu/arm/5.4.1/bin/../lib/gcc/arm-none-eabi/5.4.1/armv7-m\libgcc.a(_arm_fixunsdfsi.o)
                              .\CortexM3\ARM_GCC_541\Debug\BME280.o (__aeabi_d2uiz)
e:/cypress/psoc creator/4.2/psoc creator/import/gnu/arm/5.4.1/bin/../lib/gcc/arm-none-eabi/5.4.1/armv7-m\libgcc.a(_arm_addsubsf3.o)
                              .\CortexM3\ARM_GCC_541\Debug\BME280.o (__aeabi_fadd)
e:/cypress/psoc creator/4.2/psoc creator/import/gnu/arm/5.4.1/bin/../lib/gcc/arm-none-eabi/5.4.1/armv7-m\libgcc.a(_arm_muldivsf3.o)
                              .\CortexM3\ARM_GCC_541\Debug\BME280.o (__aeabi_fmul)
e:/cypress/psoc creator/4.2/psoc creator/import/gnu/arm/5.4.1/bin/../lib/gcc/arm-none-eabi/5.4.1/armv7-m\libgcc.a(_arm_fixsfsi.o)
                              .\CortexM3\ARM_GCC_541\Debug\BME280.o (__aeabi_f2iz)
e:/cypress/psoc creator/4.2/psoc creator/import/gnu/arm/5.4.1/bin/../lib/gcc/arm-none-eabi/5.4.1/armv7-m\libgcc.a(_aeabi_ldivmod.o)
                              .\CortexM3\ARM_GCC_541\Debug\datetime.o (__aeabi_ldivmod)
e:/cypress/psoc creator/4.2/psoc creator/import/gnu/arm/5.4.1/bin/../lib/gcc/arm-none-eabi/5.4.1/armv7-m\libgcc.a(_fixdfdi.o)
                              .\CortexM3\ARM_GCC_541\Debug\datetime.o (__aeabi_d2lz)
e:/cypress/psoc creator/4.2/psoc creator/import/gnu/arm/5.4.1/bin/../lib/gcc/arm-none-eabi/5.4.1/armv7-m\libgcc.a(_fixunsdfdi.o)
                              e:/cypress/psoc creator/4.2/psoc creator/import/gnu/arm/5.4.1/bin/../lib/gcc/arm-none-eabi/5.4.1/armv7-m\libgcc.a(_fixdfdi.o) (__aeabi_d2ulz)
e:/cypress/psoc creator/4.2/psoc creator/import/gnu/arm/5.4.1/bin/../lib/gcc/arm-none-eabi/5.4.1/armv7-m\libgcc.a(_udivmoddi4.o)
                              e:/cypress/psoc creator/4.2/psoc creator/import/gnu/arm/5.4.1/bin/../lib/gcc/arm-none-eabi/5.4.1/armv7-m\libgcc.a(_aeabi_ldivmod.o) (__udivmoddi4)
e:/cypress/psoc creator/4.2/psoc creator/import/gnu/arm/5.4.1/bin/../lib/gcc/arm-none-eabi/5.4.1/armv7-m\libgcc.a(_dvmd_tls.o)
                              e:/cypress/psoc creator/4.2/psoc creator/import/gnu/arm/5.4.1/bin/../lib/gcc/arm-none-eabi/5.4.1/armv7-m\libgcc.a(_aeabi_ldivmod.o) (__aeabi_ldiv0)
e:/cypress/psoc creator/4.2/psoc creator/import/gnu/arm/5.4.1/bin/../lib/gcc/arm-none-eabi/5.4.1/../../../../arm-none-eabi/lib/armv7-m\libg_nano.a(lib_a-errno.o)
                              .\CortexM3\ARM_GCC_541\Debug\Cm3Start.o (__errno)
e:/cypress/psoc creator/4.2/psoc creator/import/gnu/arm/5.4.1/bin/../lib/gcc/arm-none-eabi/5.4.1/../../../../arm-none-eabi/lib/armv7-m\libg_nano.a(lib_a-exit.o)
                              e:/cypress/psoc creator/4.2/psoc creator/import/gnu/arm/5.4.1/bin/../lib/gcc/arm-none-eabi/5.4.1/../../../../arm-none-eabi/lib/armv7-m/crt0.o (exit)
e:/cypress/psoc creator/4.2/psoc creator/import/gnu/arm/5.4.1/bin/../lib/gcc/arm-none-eabi/5.4.1/../../../../arm-none-eabi/lib/armv7-m\libg_nano.a(lib_a-getopt.o)
                              .\CortexM3\ARM_GCC_541\Debug\command.o (getopt_long)
e:/cypress/psoc creator/4.2/psoc creator/import/gnu/arm/5.4.1/bin/../lib/gcc/arm-none-eabi/5.4.1/../../../../arm-none-eabi/lib/armv7-m\libg_nano.a(lib_a-impure.o)
                              e:/cypress/psoc creator/4.2/psoc creator/import/gnu/arm/5.4.1/bin/../lib/gcc/arm-none-eabi/5.4.1/../../../../arm-none-eabi/lib/armv7-m\libg_nano.a(lib_a-exit.o) (_global_impure_ptr)
e:/cypress/psoc creator/4.2/psoc creator/import/gnu/arm/5.4.1/bin/../lib/gcc/arm-none-eabi/5.4.1/../../../../arm-none-eabi/lib/armv7-m\libg_nano.a(lib_a-init.o)
                              e:/cypress/psoc creator/4.2/psoc creator/import/gnu/arm/5.4.1/bin/../lib/gcc/arm-none-eabi/5.4.1/../../../../arm-none-eabi/lib/armv7-m/crt0.o (__libc_init_array)
e:/cypress/psoc creator/4.2/psoc creator/import/gnu/arm/5.4.1/bin/../lib/gcc/arm-none-eabi/5.4.1/../../../../arm-none-eabi/lib/armv7-m\libg_nano.a(lib_a-memcmp.o)
                              e:/cypress/psoc creator/4.2/psoc creator/import/gnu/arm/5.4.1/bin/../lib/gcc/arm-none-eabi/5.4.1/../../../../arm-none-eabi/lib/armv7-m\libg_nano.a(lib_a-getopt.o) (memcmp)
e:/cypress/psoc creator/4.2/psoc creator/import/gnu/arm/5.4.1/bin/../lib/gcc/arm-none-eabi/5.4.1/../../../../arm-none-eabi/lib/armv7-m\libg_nano.a(lib_a-memcpy-stub.o)
                              .\CortexM3\ARM_GCC_541\Debug\cyfitter_cfg.o (memcpy)
e:/cypress/psoc creator/4.2/psoc creator/import/gnu/arm/5.4.1/bin/../lib/gcc/arm-none-eabi/5.4.1/../../../../arm-none-eabi/lib/armv7-m\libg_nano.a(lib_a-memset.o)
                              e:/cypress/psoc creator/4.2/psoc creator/import/gnu/arm/5.4.1/bin/../lib/gcc/arm-none-eabi/5.4.1/../../../../arm-none-eabi/lib/armv7-m/crt0.o (memset)
e:/cypress/psoc creator/4.2/psoc creator/import/gnu/arm/5.4.1/bin/../lib/gcc/arm-none-eabi/5.4.1/../../../../arm-none-eabi/lib/armv7-m\libg_nano.a(lib_a-nano-vfprintf_float.o)
                              (_printf_float)
e:/cypress/psoc creator/4.2/psoc creator/import/gnu/arm/5.4.1/bin/../lib/gcc/arm-none-eabi/5.4.1/../../../../arm-none-eabi/lib/armv7-m\libg_nano.a(lib_a-nano-vfprintf_i.o)
                              e:/cypress/psoc creator/4.2/psoc creator/import/gnu/arm/5.4.1/bin/../lib/gcc/arm-none-eabi/5.4.1/../../../../arm-none-eabi/lib/armv7-m\libg_nano.a(lib_a-nano-vfprintf_float.o) (_printf_common)
e:/cypress/psoc creator/4.2/psoc creator/import/gnu/arm/5.4.1/bin/../lib/gcc/arm-none-eabi/5.4.1/../../../../arm-none-eabi/lib/armv7-m\libg_nano.a(lib_a-sprintf.o)
                              .\CortexM3\ARM_GCC_541\Debug\datetime.o (sprintf)
e:/cypress/psoc creator/4.2/psoc creator/import/gnu/arm/5.4.1/bin/../lib/gcc/arm-none-eabi/5.4.1/../../../../arm-none-eabi/lib/armv7-m\libg_nano.a(lib_a-sscanf.o)
                              .\CortexM3\ARM_GCC_541\Debug\datetime.o (sscanf)
e:/cypress/psoc creator/4.2/psoc creator/import/gnu/arm/5.4.1/bin/../lib/gcc/arm-none-eabi/5.4.1/../../../../arm-none-eabi/lib/armv7-m\libg_nano.a(lib_a-stdio.o)
                              e:/cypress/psoc creator/4.2/psoc creator/import/gnu/arm/5.4.1/bin/../lib/gcc/arm-none-eabi/5.4.1/../../../../arm-none-eabi/lib/armv7-m\libg_nano.a(lib_a-sscanf.o) (__seofread)
e:/cypress/psoc creator/4.2/psoc creator/import/gnu/arm/5.4.1/bin/../lib/gcc/arm-none-eabi/5.4.1/../../../../arm-none-eabi/lib/armv7-m\libg_nano.a(lib_a-strcat.o)
                              .\CortexM3\ARM_GCC_541\Debug\alarm.o (strcat)
e:/cypress/psoc creator/4.2/psoc creator/import/gnu/arm/5.4.1/bin/../lib/gcc/arm-none-eabi/5.4.1/../../../../arm-none-eabi/lib/armv7-m\libg_nano.a(lib_a-strchr.o)
                              e:/cypress/psoc creator/4.2/psoc creator/import/gnu/arm/5.4.1/bin/../lib/gcc/arm-none-eabi/5.4.1/../../../../arm-none-eabi/lib/armv7-m\libg_nano.a(lib_a-getopt.o) (strchr)
e:/cypress/psoc creator/4.2/psoc creator/import/gnu/arm/5.4.1/bin/../lib/gcc/arm-none-eabi/5.4.1/../../../../arm-none-eabi/lib/armv7-m\libg_nano.a(lib_a-strcmp.o)
                              .\CortexM3\ARM_GCC_541\Debug\sensor.o (strcmp)
e:/cypress/psoc creator/4.2/psoc creator/import/gnu/arm/5.4.1/bin/../lib/gcc/arm-none-eabi/5.4.1/../../../../arm-none-eabi/lib/armv7-m\libg_nano.a(lib_a-strcpy.o)
                              .\CortexM3\ARM_GCC_541\Debug\datetime.o (strcpy)
e:/cypress/psoc creator/4.2/psoc creator/import/gnu/arm/5.4.1/bin/../lib/gcc/arm-none-eabi/5.4.1/../../../../arm-none-eabi/lib/armv7-m\libg_nano.a(lib_a-strlen.o)
                              .\CortexM3\ARM_GCC_541\Debug\alarm.o (strlen)
e:/cypress/psoc creator/4.2/psoc creator/import/gnu/arm/5.4.1/bin/../lib/gcc/arm-none-eabi/5.4.1/../../../../arm-none-eabi/lib/armv7-m\libg_nano.a(lib_a-strtok.o)
                              .\CortexM3\ARM_GCC_541\Debug\command.o (strtok)
e:/cypress/psoc creator/4.2/psoc creator/import/gnu/arm/5.4.1/bin/../lib/gcc/arm-none-eabi/5.4.1/../../../../arm-none-eabi/lib/armv7-m\libg_nano.a(lib_a-strtok_r.o)
                              e:/cypress/psoc creator/4.2/psoc creator/import/gnu/arm/5.4.1/bin/../lib/gcc/arm-none-eabi/5.4.1/../../../../arm-none-eabi/lib/armv7-m\libg_nano.a(lib_a-strtok.o) (__strtok_r)
e:/cypress/psoc creator/4.2/psoc creator/import/gnu/arm/5.4.1/bin/../lib/gcc/arm-none-eabi/5.4.1/../../../../arm-none-eabi/lib/armv7-m\libg_nano.a(lib_a-strtol.o)
                              .\CortexM3\ARM_GCC_541\Debug\command.o (strtol)
e:/cypress/psoc creator/4.2/psoc creator/import/gnu/arm/5.4.1/bin/../lib/gcc/arm-none-eabi/5.4.1/../../../../arm-none-eabi/lib/armv7-m\libg_nano.a(lib_a-writer.o)
                              e:/cypress/psoc creator/4.2/psoc creator/import/gnu/arm/5.4.1/bin/../lib/gcc/arm-none-eabi/5.4.1/../../../../arm-none-eabi/lib/armv7-m\libg_nano.a(lib_a-stdio.o) (_write_r)
e:/cypress/psoc creator/4.2/psoc creator/import/gnu/arm/5.4.1/bin/../lib/gcc/arm-none-eabi/5.4.1/../../../../arm-none-eabi/lib/armv7-m\libg_nano.a(lib_a-closer.o)
                              e:/cypress/psoc creator/4.2/psoc creator/import/gnu/arm/5.4.1/bin/../lib/gcc/arm-none-eabi/5.4.1/../../../../arm-none-eabi/lib/armv7-m\libg_nano.a(lib_a-stdio.o) (_close_r)
e:/cypress/psoc creator/4.2/psoc creator/import/gnu/arm/5.4.1/bin/../lib/gcc/arm-none-eabi/5.4.1/../../../../arm-none-eabi/lib/armv7-m\libg_nano.a(lib_a-ctype_.o)
                              e:/cypress/psoc creator/4.2/psoc creator/import/gnu/arm/5.4.1/bin/../lib/gcc/arm-none-eabi/5.4.1/../../../../arm-none-eabi/lib/armv7-m\libg_nano.a(lib_a-strtol.o) (__ctype_ptr__)
e:/cypress/psoc creator/4.2/psoc creator/import/gnu/arm/5.4.1/bin/../lib/gcc/arm-none-eabi/5.4.1/../../../../arm-none-eabi/lib/armv7-m\libg_nano.a(lib_a-dtoa.o)
                              e:/cypress/psoc creator/4.2/psoc creator/import/gnu/arm/5.4.1/bin/../lib/gcc/arm-none-eabi/5.4.1/../../../../arm-none-eabi/lib/armv7-m\libg_nano.a(lib_a-nano-vfprintf_float.o) (_dtoa_r)
e:/cypress/psoc creator/4.2/psoc creator/import/gnu/arm/5.4.1/bin/../lib/gcc/arm-none-eabi/5.4.1/../../../../arm-none-eabi/lib/armv7-m\libg_nano.a(lib_a-fputc.o)
                              e:/cypress/psoc creator/4.2/psoc creator/import/gnu/arm/5.4.1/bin/../lib/gcc/arm-none-eabi/5.4.1/../../../../arm-none-eabi/lib/armv7-m\libg_nano.a(lib_a-getopt.o) (fputc)
e:/cypress/psoc creator/4.2/psoc creator/import/gnu/arm/5.4.1/bin/../lib/gcc/arm-none-eabi/5.4.1/../../../../arm-none-eabi/lib/armv7-m\libg_nano.a(lib_a-fputs.o)
                              e:/cypress/psoc creator/4.2/psoc creator/import/gnu/arm/5.4.1/bin/../lib/gcc/arm-none-eabi/5.4.1/../../../../arm-none-eabi/lib/armv7-m\libg_nano.a(lib_a-getopt.o) (fputs)
e:/cypress/psoc creator/4.2/psoc creator/import/gnu/arm/5.4.1/bin/../lib/gcc/arm-none-eabi/5.4.1/../../../../arm-none-eabi/lib/armv7-m\libg_nano.a(lib_a-getenv.o)
                              e:/cypress/psoc creator/4.2/psoc creator/import/gnu/arm/5.4.1/bin/../lib/gcc/arm-none-eabi/5.4.1/../../../../arm-none-eabi/lib/armv7-m\libg_nano.a(lib_a-getopt.o) (getenv)
e:/cypress/psoc creator/4.2/psoc creator/import/gnu/arm/5.4.1/bin/../lib/gcc/arm-none-eabi/5.4.1/../../../../arm-none-eabi/lib/armv7-m\libg_nano.a(lib_a-getenv_r.o)
                              e:/cypress/psoc creator/4.2/psoc creator/import/gnu/arm/5.4.1/bin/../lib/gcc/arm-none-eabi/5.4.1/../../../../arm-none-eabi/lib/armv7-m\libg_nano.a(lib_a-getenv.o) (_findenv_r)
e:/cypress/psoc creator/4.2/psoc creator/import/gnu/arm/5.4.1/bin/../lib/gcc/arm-none-eabi/5.4.1/../../../../arm-none-eabi/lib/armv7-m\libg_nano.a(lib_a-locale.o)
                              e:/cypress/psoc creator/4.2/psoc creator/import/gnu/arm/5.4.1/bin/../lib/gcc/arm-none-eabi/5.4.1/../../../../arm-none-eabi/lib/armv7-m\libg_nano.a(lib_a-nano-vfprintf_float.o) (_localeconv_r)
e:/cypress/psoc creator/4.2/psoc creator/import/gnu/arm/5.4.1/bin/../lib/gcc/arm-none-eabi/5.4.1/../../../../arm-none-eabi/lib/armv7-m\libg_nano.a(lib_a-lseekr.o)
                              e:/cypress/psoc creator/4.2/psoc creator/import/gnu/arm/5.4.1/bin/../lib/gcc/arm-none-eabi/5.4.1/../../../../arm-none-eabi/lib/armv7-m\libg_nano.a(lib_a-stdio.o) (_lseek_r)
e:/cypress/psoc creator/4.2/psoc creator/import/gnu/arm/5.4.1/bin/../lib/gcc/arm-none-eabi/5.4.1/../../../../arm-none-eabi/lib/armv7-m\libg_nano.a(lib_a-malloc.o)
                              e:/cypress/psoc creator/4.2/psoc creator/import/gnu/arm/5.4.1/bin/../lib/gcc/arm-none-eabi/5.4.1/../../../../arm-none-eabi/lib/armv7-m\libg_nano.a(lib_a-strtok.o) (malloc)
e:/cypress/psoc creator/4.2/psoc creator/import/gnu/arm/5.4.1/bin/../lib/gcc/arm-none-eabi/5.4.1/../../../../arm-none-eabi/lib/armv7-m\libg_nano.a(lib_a-memchr-stub.o)
                              e:/cypress/psoc creator/4.2/psoc creator/import/gnu/arm/5.4.1/bin/../lib/gcc/arm-none-eabi/5.4.1/../../../../arm-none-eabi/lib/armv7-m\libg_nano.a(lib_a-nano-vfprintf_i.o) (memchr)
e:/cypress/psoc creator/4.2/psoc creator/import/gnu/arm/5.4.1/bin/../lib/gcc/arm-none-eabi/5.4.1/../../../../arm-none-eabi/lib/armv7-m\libg_nano.a(lib_a-mprec.o)
                              e:/cypress/psoc creator/4.2/psoc creator/import/gnu/arm/5.4.1/bin/../lib/gcc/arm-none-eabi/5.4.1/../../../../arm-none-eabi/lib/armv7-m\libg_nano.a(lib_a-dtoa.o) (_Balloc)
e:/cypress/psoc creator/4.2/psoc creator/import/gnu/arm/5.4.1/bin/../lib/gcc/arm-none-eabi/5.4.1/../../../../arm-none-eabi/lib/armv7-m\libg_nano.a(lib_a-nano-callocr.o)
                              e:/cypress/psoc creator/4.2/psoc creator/import/gnu/arm/5.4.1/bin/../lib/gcc/arm-none-eabi/5.4.1/../../../../arm-none-eabi/lib/armv7-m\libg_nano.a(lib_a-mprec.o) (_calloc_r)
e:/cypress/psoc creator/4.2/psoc creator/import/gnu/arm/5.4.1/bin/../lib/gcc/arm-none-eabi/5.4.1/../../../../arm-none-eabi/lib/armv7-m\libg_nano.a(lib_a-nano-freer.o)
                              e:/cypress/psoc creator/4.2/psoc creator/import/gnu/arm/5.4.1/bin/../lib/gcc/arm-none-eabi/5.4.1/../../../../arm-none-eabi/lib/armv7-m\libg_nano.a(lib_a-malloc.o) (_free_r)
e:/cypress/psoc creator/4.2/psoc creator/import/gnu/arm/5.4.1/bin/../lib/gcc/arm-none-eabi/5.4.1/../../../../arm-none-eabi/lib/armv7-m\libg_nano.a(lib_a-nano-mallocr.o)
                              e:/cypress/psoc creator/4.2/psoc creator/import/gnu/arm/5.4.1/bin/../lib/gcc/arm-none-eabi/5.4.1/../../../../arm-none-eabi/lib/armv7-m\libg_nano.a(lib_a-malloc.o) (_malloc_r)
e:/cypress/psoc creator/4.2/psoc creator/import/gnu/arm/5.4.1/bin/../lib/gcc/arm-none-eabi/5.4.1/../../../../arm-none-eabi/lib/armv7-m\libg_nano.a(lib_a-nano-svfprintf.o)
                              e:/cypress/psoc creator/4.2/psoc creator/import/gnu/arm/5.4.1/bin/../lib/gcc/arm-none-eabi/5.4.1/../../../../arm-none-eabi/lib/armv7-m\libg_nano.a(lib_a-sprintf.o) (_svfprintf_r)
e:/cypress/psoc creator/4.2/psoc creator/import/gnu/arm/5.4.1/bin/../lib/gcc/arm-none-eabi/5.4.1/../../../../arm-none-eabi/lib/armv7-m\libg_nano.a(lib_a-nano-svfscanf.o)
                              e:/cypress/psoc creator/4.2/psoc creator/import/gnu/arm/5.4.1/bin/../lib/gcc/arm-none-eabi/5.4.1/../../../../arm-none-eabi/lib/armv7-m\libg_nano.a(lib_a-sscanf.o) (__ssvfscanf_r)
e:/cypress/psoc creator/4.2/psoc creator/import/gnu/arm/5.4.1/bin/../lib/gcc/arm-none-eabi/5.4.1/../../../../arm-none-eabi/lib/armv7-m\libg_nano.a(lib_a-nano-vfscanf_i.o)
                              e:/cypress/psoc creator/4.2/psoc creator/import/gnu/arm/5.4.1/bin/../lib/gcc/arm-none-eabi/5.4.1/../../../../arm-none-eabi/lib/armv7-m\libg_nano.a(lib_a-nano-svfscanf.o) (_scanf_chars)
e:/cypress/psoc creator/4.2/psoc creator/import/gnu/arm/5.4.1/bin/../lib/gcc/arm-none-eabi/5.4.1/../../../../arm-none-eabi/lib/armv7-m\libg_nano.a(lib_a-putc.o)
                              e:/cypress/psoc creator/4.2/psoc creator/import/gnu/arm/5.4.1/bin/../lib/gcc/arm-none-eabi/5.4.1/../../../../arm-none-eabi/lib/armv7-m\libg_nano.a(lib_a-fputc.o) (_putc_r)
e:/cypress/psoc creator/4.2/psoc creator/import/gnu/arm/5.4.1/bin/../lib/gcc/arm-none-eabi/5.4.1/../../../../arm-none-eabi/lib/armv7-m\libg_nano.a(lib_a-readr.o)
                              e:/cypress/psoc creator/4.2/psoc creator/import/gnu/arm/5.4.1/bin/../lib/gcc/arm-none-eabi/5.4.1/../../../../arm-none-eabi/lib/armv7-m\libg_nano.a(lib_a-stdio.o) (_read_r)
e:/cypress/psoc creator/4.2/psoc creator/import/gnu/arm/5.4.1/bin/../lib/gcc/arm-none-eabi/5.4.1/../../../../arm-none-eabi/lib/armv7-m\libg_nano.a(lib_a-reent.o)
                              e:/cypress/psoc creator/4.2/psoc creator/import/gnu/arm/5.4.1/bin/../lib/gcc/arm-none-eabi/5.4.1/../../../../arm-none-eabi/lib/armv7-m\libg_nano.a(lib_a-writer.o) (errno)
e:/cypress/psoc creator/4.2/psoc creator/import/gnu/arm/5.4.1/bin/../lib/gcc/arm-none-eabi/5.4.1/../../../../arm-none-eabi/lib/armv7-m\libg_nano.a(lib_a-sbrkr.o)
                              e:/cypress/psoc creator/4.2/psoc creator/import/gnu/arm/5.4.1/bin/../lib/gcc/arm-none-eabi/5.4.1/../../../../arm-none-eabi/lib/armv7-m\libg_nano.a(lib_a-nano-mallocr.o) (_sbrk_r)
e:/cypress/psoc creator/4.2/psoc creator/import/gnu/arm/5.4.1/bin/../lib/gcc/arm-none-eabi/5.4.1/../../../../arm-none-eabi/lib/armv7-m\libg_nano.a(lib_a-sccl.o)
                              e:/cypress/psoc creator/4.2/psoc creator/import/gnu/arm/5.4.1/bin/../lib/gcc/arm-none-eabi/5.4.1/../../../../arm-none-eabi/lib/armv7-m\libg_nano.a(lib_a-nano-svfscanf.o) (__sccl)
e:/cypress/psoc creator/4.2/psoc creator/import/gnu/arm/5.4.1/bin/../lib/gcc/arm-none-eabi/5.4.1/../../../../arm-none-eabi/lib/armv7-m\libg_nano.a(lib_a-strncmp.o)
                              e:/cypress/psoc creator/4.2/psoc creator/import/gnu/arm/5.4.1/bin/../lib/gcc/arm-none-eabi/5.4.1/../../../../arm-none-eabi/lib/armv7-m\libg_nano.a(lib_a-getenv_r.o) (strncmp)
e:/cypress/psoc creator/4.2/psoc creator/import/gnu/arm/5.4.1/bin/../lib/gcc/arm-none-eabi/5.4.1/../../../../arm-none-eabi/lib/armv7-m\libg_nano.a(lib_a-strtoul.o)
                              e:/cypress/psoc creator/4.2/psoc creator/import/gnu/arm/5.4.1/bin/../lib/gcc/arm-none-eabi/5.4.1/../../../../arm-none-eabi/lib/armv7-m\libg_nano.a(lib_a-nano-vfscanf_i.o) (_strtoul_r)
e:/cypress/psoc creator/4.2/psoc creator/import/gnu/arm/5.4.1/bin/../lib/gcc/arm-none-eabi/5.4.1/../../../../arm-none-eabi/lib/armv7-m\libg_nano.a(lib_a-ungetc.o)
                              e:/cypress/psoc creator/4.2/psoc creator/import/gnu/arm/5.4.1/bin/../lib/gcc/arm-none-eabi/5.4.1/../../../../arm-none-eabi/lib/armv7-m\libg_nano.a(lib_a-nano-svfscanf.o) (__submore)
e:/cypress/psoc creator/4.2/psoc creator/import/gnu/arm/5.4.1/bin/../lib/gcc/arm-none-eabi/5.4.1/../../../../arm-none-eabi/lib/armv7-m\libg_nano.a(lib_a-wbuf.o)
                              e:/cypress/psoc creator/4.2/psoc creator/import/gnu/arm/5.4.1/bin/../lib/gcc/arm-none-eabi/5.4.1/../../../../arm-none-eabi/lib/armv7-m\libg_nano.a(lib_a-fputs.o) (__swbuf_r)
e:/cypress/psoc creator/4.2/psoc creator/import/gnu/arm/5.4.1/bin/../lib/gcc/arm-none-eabi/5.4.1/../../../../arm-none-eabi/lib/armv7-m\libg_nano.a(lib_a-wsetup.o)
                              e:/cypress/psoc creator/4.2/psoc creator/import/gnu/arm/5.4.1/bin/../lib/gcc/arm-none-eabi/5.4.1/../../../../arm-none-eabi/lib/armv7-m\libg_nano.a(lib_a-fputs.o) (__swsetup_r)
e:/cypress/psoc creator/4.2/psoc creator/import/gnu/arm/5.4.1/bin/../lib/gcc/arm-none-eabi/5.4.1/../../../../arm-none-eabi/lib/armv7-m\libg_nano.a(lib_a-environ.o)
                              e:/cypress/psoc creator/4.2/psoc creator/import/gnu/arm/5.4.1/bin/../lib/gcc/arm-none-eabi/5.4.1/../../../../arm-none-eabi/lib/armv7-m\libg_nano.a(lib_a-getenv_r.o) (environ)
e:/cypress/psoc creator/4.2/psoc creator/import/gnu/arm/5.4.1/bin/../lib/gcc/arm-none-eabi/5.4.1/../../../../arm-none-eabi/lib/armv7-m\libg_nano.a(lib_a-envlock.o)
                              e:/cypress/psoc creator/4.2/psoc creator/import/gnu/arm/5.4.1/bin/../lib/gcc/arm-none-eabi/5.4.1/../../../../arm-none-eabi/lib/armv7-m\libg_nano.a(lib_a-getenv_r.o) (__env_lock)
e:/cypress/psoc creator/4.2/psoc creator/import/gnu/arm/5.4.1/bin/../lib/gcc/arm-none-eabi/5.4.1/../../../../arm-none-eabi/lib/armv7-m\libg_nano.a(lib_a-fflush.o)
                              e:/cypress/psoc creator/4.2/psoc creator/import/gnu/arm/5.4.1/bin/../lib/gcc/arm-none-eabi/5.4.1/../../../../arm-none-eabi/lib/armv7-m\libg_nano.a(lib_a-ungetc.o) (_fflush_r)
e:/cypress/psoc creator/4.2/psoc creator/import/gnu/arm/5.4.1/bin/../lib/gcc/arm-none-eabi/5.4.1/../../../../arm-none-eabi/lib/armv7-m\libg_nano.a(lib_a-findfp.o)
                              e:/cypress/psoc creator/4.2/psoc creator/import/gnu/arm/5.4.1/bin/../lib/gcc/arm-none-eabi/5.4.1/../../../../arm-none-eabi/lib/armv7-m\libg_nano.a(lib_a-fputc.o) (__sinit)
e:/cypress/psoc creator/4.2/psoc creator/import/gnu/arm/5.4.1/bin/../lib/gcc/arm-none-eabi/5.4.1/../../../../arm-none-eabi/lib/armv7-m\libg_nano.a(lib_a-fwalk.o)
                              e:/cypress/psoc creator/4.2/psoc creator/import/gnu/arm/5.4.1/bin/../lib/gcc/arm-none-eabi/5.4.1/../../../../arm-none-eabi/lib/armv7-m\libg_nano.a(lib_a-findfp.o) (_fwalk)
e:/cypress/psoc creator/4.2/psoc creator/import/gnu/arm/5.4.1/bin/../lib/gcc/arm-none-eabi/5.4.1/../../../../arm-none-eabi/lib/armv7-m\libg_nano.a(lib_a-makebuf.o)
                              e:/cypress/psoc creator/4.2/psoc creator/import/gnu/arm/5.4.1/bin/../lib/gcc/arm-none-eabi/5.4.1/../../../../arm-none-eabi/lib/armv7-m\libg_nano.a(lib_a-wsetup.o) (__smakebuf_r)
e:/cypress/psoc creator/4.2/psoc creator/import/gnu/arm/5.4.1/bin/../lib/gcc/arm-none-eabi/5.4.1/../../../../arm-none-eabi/lib/armv7-m\libg_nano.a(lib_a-memmove.o)
                              e:/cypress/psoc creator/4.2/psoc creator/import/gnu/arm/5.4.1/bin/../lib/gcc/arm-none-eabi/5.4.1/../../../../arm-none-eabi/lib/armv7-m\libg_nano.a(lib_a-nano-svfprintf.o) (memmove)
e:/cypress/psoc creator/4.2/psoc creator/import/gnu/arm/5.4.1/bin/../lib/gcc/arm-none-eabi/5.4.1/../../../../arm-none-eabi/lib/armv7-m\libg_nano.a(lib_a-mlock.o)
                              e:/cypress/psoc creator/4.2/psoc creator/import/gnu/arm/5.4.1/bin/../lib/gcc/arm-none-eabi/5.4.1/../../../../arm-none-eabi/lib/armv7-m\libg_nano.a(lib_a-nano-freer.o) (__malloc_lock)
e:/cypress/psoc creator/4.2/psoc creator/import/gnu/arm/5.4.1/bin/../lib/gcc/arm-none-eabi/5.4.1/../../../../arm-none-eabi/lib/armv7-m\libg_nano.a(lib_a-nano-reallocr.o)
                              e:/cypress/psoc creator/4.2/psoc creator/import/gnu/arm/5.4.1/bin/../lib/gcc/arm-none-eabi/5.4.1/../../../../arm-none-eabi/lib/armv7-m\libg_nano.a(lib_a-nano-svfprintf.o) (_realloc_r)
e:/cypress/psoc creator/4.2/psoc creator/import/gnu/arm/5.4.1/bin/../lib/gcc/arm-none-eabi/5.4.1/../../../../arm-none-eabi/lib/armv7-m\libg_nano.a(lib_a-fstatr.o)
                              e:/cypress/psoc creator/4.2/psoc creator/import/gnu/arm/5.4.1/bin/../lib/gcc/arm-none-eabi/5.4.1/../../../../arm-none-eabi/lib/armv7-m\libg_nano.a(lib_a-makebuf.o) (_fstat_r)
e:/cypress/psoc creator/4.2/psoc creator/import/gnu/arm/5.4.1/bin/../lib/gcc/arm-none-eabi/5.4.1/../../../../arm-none-eabi/lib/armv7-m\libg_nano.a(lib_a-isattyr.o)
                              e:/cypress/psoc creator/4.2/psoc creator/import/gnu/arm/5.4.1/bin/../lib/gcc/arm-none-eabi/5.4.1/../../../../arm-none-eabi/lib/armv7-m\libg_nano.a(lib_a-makebuf.o) (_isatty_r)
e:/cypress/psoc creator/4.2/psoc creator/import/gnu/arm/5.4.1/bin/../lib/gcc/arm-none-eabi/5.4.1/../../../../arm-none-eabi/lib/armv7-m\libg_nano.a(lib_a-nano-msizer.o)
                              e:/cypress/psoc creator/4.2/psoc creator/import/gnu/arm/5.4.1/bin/../lib/gcc/arm-none-eabi/5.4.1/../../../../arm-none-eabi/lib/armv7-m\libg_nano.a(lib_a-nano-reallocr.o) (_malloc_usable_size_r)
e:/cypress/psoc creator/4.2/psoc creator/import/gnu/arm/5.4.1/bin/../lib/gcc/arm-none-eabi/5.4.1/../../../../arm-none-eabi/lib/armv7-m\libnosys.a(close.o)
                              e:/cypress/psoc creator/4.2/psoc creator/import/gnu/arm/5.4.1/bin/../lib/gcc/arm-none-eabi/5.4.1/../../../../arm-none-eabi/lib/armv7-m\libg_nano.a(lib_a-closer.o) (_close)
e:/cypress/psoc creator/4.2/psoc creator/import/gnu/arm/5.4.1/bin/../lib/gcc/arm-none-eabi/5.4.1/../../../../arm-none-eabi/lib/armv7-m\libnosys.a(fstat.o)
                              e:/cypress/psoc creator/4.2/psoc creator/import/gnu/arm/5.4.1/bin/../lib/gcc/arm-none-eabi/5.4.1/../../../../arm-none-eabi/lib/armv7-m\libg_nano.a(lib_a-fstatr.o) (_fstat)
e:/cypress/psoc creator/4.2/psoc creator/import/gnu/arm/5.4.1/bin/../lib/gcc/arm-none-eabi/5.4.1/../../../../arm-none-eabi/lib/armv7-m\libnosys.a(isatty.o)
                              e:/cypress/psoc creator/4.2/psoc creator/import/gnu/arm/5.4.1/bin/../lib/gcc/arm-none-eabi/5.4.1/../../../../arm-none-eabi/lib/armv7-m\libg_nano.a(lib_a-isattyr.o) (_isatty)
e:/cypress/psoc creator/4.2/psoc creator/import/gnu/arm/5.4.1/bin/../lib/gcc/arm-none-eabi/5.4.1/../../../../arm-none-eabi/lib/armv7-m\libnosys.a(lseek.o)
                              e:/cypress/psoc creator/4.2/psoc creator/import/gnu/arm/5.4.1/bin/../lib/gcc/arm-none-eabi/5.4.1/../../../../arm-none-eabi/lib/armv7-m\libg_nano.a(lib_a-lseekr.o) (_lseek)
e:/cypress/psoc creator/4.2/psoc creator/import/gnu/arm/5.4.1/bin/../lib/gcc/arm-none-eabi/5.4.1/../../../../arm-none-eabi/lib/armv7-m\libnosys.a(read.o)
                              e:/cypress/psoc creator/4.2/psoc creator/import/gnu/arm/5.4.1/bin/../lib/gcc/arm-none-eabi/5.4.1/../../../../arm-none-eabi/lib/armv7-m\libg_nano.a(lib_a-readr.o) (_read)
e:/cypress/psoc creator/4.2/psoc creator/import/gnu/arm/5.4.1/bin/../lib/gcc/arm-none-eabi/5.4.1/../../../../arm-none-eabi/lib/armv7-m\libnosys.a(write.o)
                              e:/cypress/psoc creator/4.2/psoc creator/import/gnu/arm/5.4.1/bin/../lib/gcc/arm-none-eabi/5.4.1/../../../../arm-none-eabi/lib/armv7-m\libg_nano.a(lib_a-writer.o) (_write)

Allocating common symbols
Common symbol       size              file

errno               0x4               e:/cypress/psoc creator/4.2/psoc creator/import/gnu/arm/5.4.1/bin/../lib/gcc/arm-none-eabi/5.4.1/../../../../arm-none-eabi/lib/armv7-m\libg_nano.a(lib_a-reent.o)
rhea_rtc_alarmRegistry
                    0x180             .\CortexM3\ARM_GCC_541\Debug\rtc.o
I2C_state           0x1               .\CortexM3\ARM_GCC_541\Debug\Rhea.a(I2C.o)
I2C_mstrWrBufIndex  0x1               .\CortexM3\ARM_GCC_541\Debug\Rhea.a(I2C_MASTER.o)
bufferSize          0x1               .\CortexM3\ARM_GCC_541\Debug\command.o
I2C_mstrWrBufSize   0x1               .\CortexM3\ARM_GCC_541\Debug\Rhea.a(I2C_MASTER.o)
I2C_mstrStatus      0x1               .\CortexM3\ARM_GCC_541\Debug\Rhea.a(I2C_MASTER.o)
I2C_mstrRdBufPtr    0x4               .\CortexM3\ARM_GCC_541\Debug\Rhea.a(I2C_MASTER.o)
I2C_mstrControl     0x1               .\CortexM3\ARM_GCC_541\Debug\Rhea.a(I2C_MASTER.o)
I2C_mstrRdBufSize   0x1               .\CortexM3\ARM_GCC_541\Debug\Rhea.a(I2C_MASTER.o)
I2C_mstrRdBufIndex  0x1               .\CortexM3\ARM_GCC_541\Debug\Rhea.a(I2C_MASTER.o)
serialBuffer        0x101             .\CortexM3\ARM_GCC_541\Debug\command.o
I2C_mstrWrBufPtr    0x4               .\CortexM3\ARM_GCC_541\Debug\Rhea.a(I2C_MASTER.o)
rhea_rtc_powerFailTimestamp
                    0x8               .\CortexM3\ARM_GCC_541\Debug\rtc.o
dieTemperature      0x2               .\CortexM3\ARM_GCC_541\Debug\Rhea.a(CyFlash.o)
mainStateMachine    0x8               .\CortexM3\ARM_GCC_541\Debug\menu.o
rhea_rtc_powerUpTimestamp
                    0x8               .\CortexM3\ARM_GCC_541\Debug\rtc.o

Discarded input sections

 .text          0x00000000        0x0 e:/cypress/psoc creator/4.2/psoc creator/import/gnu/arm/5.4.1/bin/../lib/gcc/arm-none-eabi/5.4.1/armv7-m/crti.o
 .data          0x00000000        0x0 e:/cypress/psoc creator/4.2/psoc creator/import/gnu/arm/5.4.1/bin/../lib/gcc/arm-none-eabi/5.4.1/armv7-m/crti.o
 .bss           0x00000000        0x0 e:/cypress/psoc creator/4.2/psoc creator/import/gnu/arm/5.4.1/bin/../lib/gcc/arm-none-eabi/5.4.1/armv7-m/crti.o
 .data          0x00000000        0x4 e:/cypress/psoc creator/4.2/psoc creator/import/gnu/arm/5.4.1/bin/../lib/gcc/arm-none-eabi/5.4.1/armv7-m/crtbegin.o
 .text          0x00000000       0x74 e:/cypress/psoc creator/4.2/psoc creator/import/gnu/arm/5.4.1/bin/../lib/gcc/arm-none-eabi/5.4.1/../../../../arm-none-eabi/lib/armv7-m/crt0.o
 .data          0x00000000        0x0 e:/cypress/psoc creator/4.2/psoc creator/import/gnu/arm/5.4.1/bin/../lib/gcc/arm-none-eabi/5.4.1/../../../../arm-none-eabi/lib/armv7-m/crt0.o
 .bss           0x00000000        0x0 e:/cypress/psoc creator/4.2/psoc creator/import/gnu/arm/5.4.1/bin/../lib/gcc/arm-none-eabi/5.4.1/../../../../arm-none-eabi/lib/armv7-m/crt0.o
 .ARM.extab     0x00000000        0x0 e:/cypress/psoc creator/4.2/psoc creator/import/gnu/arm/5.4.1/bin/../lib/gcc/arm-none-eabi/5.4.1/../../../../arm-none-eabi/lib/armv7-m/crt0.o
 .ARM.exidx     0x00000000        0x8 e:/cypress/psoc creator/4.2/psoc creator/import/gnu/arm/5.4.1/bin/../lib/gcc/arm-none-eabi/5.4.1/../../../../arm-none-eabi/lib/armv7-m/crt0.o
 .text          0x00000000        0x0 .\CortexM3\ARM_GCC_541\Debug\BME280.o
 .data          0x00000000        0x0 .\CortexM3\ARM_GCC_541\Debug\BME280.o
 .text.BME280_WriteRegisters
                0x00000000       0x18 .\CortexM3\ARM_GCC_541\Debug\BME280.o
 .text.BME280_GetLocalRegisters
                0x00000000       0x14 .\CortexM3\ARM_GCC_541\Debug\BME280.o
 .text.BME280_GetTemperatureFahrenheit
                0x00000000       0x48 .\CortexM3\ARM_GCC_541\Debug\BME280.o
 .text.BME280_GetMeasurementDelay
                0x00000000      0x230 .\CortexM3\ARM_GCC_541\Debug\BME280.o
 .text.BME280_IsMeasuring
                0x00000000       0x28 .\CortexM3\ARM_GCC_541\Debug\BME280.o
 .text.BME280_IsUpdating
                0x00000000       0x28 .\CortexM3\ARM_GCC_541\Debug\BME280.o
 .text.BME280_GetStandbyTime
                0x00000000       0x1c .\CortexM3\ARM_GCC_541\Debug\BME280.o
 .text.BME280_SetStandbyTime
                0x00000000       0x44 .\CortexM3\ARM_GCC_541\Debug\BME280.o
 .text.BME280_EnableSPI3Wire
                0x00000000       0x2c .\CortexM3\ARM_GCC_541\Debug\BME280.o
 .text.BME280_DisableSPI3Wire
                0x00000000       0x2c .\CortexM3\ARM_GCC_541\Debug\BME280.o
 .text.BME280_IsSPI3WireEnabled
                0x00000000       0x1c .\CortexM3\ARM_GCC_541\Debug\BME280.o
 .text          0x00000000        0x0 .\CortexM3\ARM_GCC_541\Debug\MCP7940N.o
 .data          0x00000000        0x0 .\CortexM3\ARM_GCC_541\Debug\MCP7940N.o
 .bss           0x00000000       0x30 .\CortexM3\ARM_GCC_541\Debug\MCP7940N.o
 .text.MCP7940N_I2CReader
                0x00000000       0x80 .\CortexM3\ARM_GCC_541\Debug\MCP7940N.o
 .text.MCP7940N_I2CWriter
                0x00000000       0x64 .\CortexM3\ARM_GCC_541\Debug\MCP7940N.o
 .text.MCP7940N_SetI2CController
                0x00000000       0x28 .\CortexM3\ARM_GCC_541\Debug\MCP7940N.o
 .text.MCP7940N_ReadRegisters
                0x00000000       0x18 .\CortexM3\ARM_GCC_541\Debug\MCP7940N.o
 .text.MCP7940N_WriteRegisters
                0x00000000       0x68 .\CortexM3\ARM_GCC_541\Debug\MCP7940N.o
 .text.MCP7940N_GetLocalRegisters
                0x00000000       0x14 .\CortexM3\ARM_GCC_541\Debug\MCP7940N.o
 .text.MCP7940N_GetDatetime
                0x00000000       0x68 .\CortexM3\ARM_GCC_541\Debug\MCP7940N.o
 .text.MCP7940N_GetSeconds
                0x00000000       0x44 .\CortexM3\ARM_GCC_541\Debug\MCP7940N.o
 .text.MCP7940N_GetMinutes
                0x00000000       0x44 .\CortexM3\ARM_GCC_541\Debug\MCP7940N.o
 .text.MCP7940N_GetHours
                0x00000000       0x44 .\CortexM3\ARM_GCC_541\Debug\MCP7940N.o
 .text.MCP7940N_GetDate
                0x00000000       0x44 .\CortexM3\ARM_GCC_541\Debug\MCP7940N.o
 .text.MCP7940N_GetWeekday
                0x00000000       0x24 .\CortexM3\ARM_GCC_541\Debug\MCP7940N.o
 .text.MCP7940N_GetMonths
                0x00000000       0x44 .\CortexM3\ARM_GCC_541\Debug\MCP7940N.o
 .text.MCP7940N_GetYears
                0x00000000       0x4c .\CortexM3\ARM_GCC_541\Debug\MCP7940N.o
 .text.MCP7940N_SetDatetime
                0x00000000       0xb4 .\CortexM3\ARM_GCC_541\Debug\MCP7940N.o
 .text.MCP7940N_SetSeconds
                0x00000000       0x6c .\CortexM3\ARM_GCC_541\Debug\MCP7940N.o
 .text.MCP7940N_SetMinutes
                0x00000000       0x54 .\CortexM3\ARM_GCC_541\Debug\MCP7940N.o
 .text.MCP7940N_SetHours
                0x00000000       0x6c .\CortexM3\ARM_GCC_541\Debug\MCP7940N.o
 .text.MCP7940N_SetDate
                0x00000000       0x58 .\CortexM3\ARM_GCC_541\Debug\MCP7940N.o
 .text.MCP7940N_SetWeekday
                0x00000000       0x34 .\CortexM3\ARM_GCC_541\Debug\MCP7940N.o
 .text.MCP7940N_SetMonths
                0x00000000       0x54 .\CortexM3\ARM_GCC_541\Debug\MCP7940N.o
 .text.MCP7940N_SetYears
                0x00000000       0x60 .\CortexM3\ARM_GCC_541\Debug\MCP7940N.o
 .text.MCP7940N_IsOscillatorEnabled
                0x00000000       0x24 .\CortexM3\ARM_GCC_541\Debug\MCP7940N.o
 .text.MCP7940N_EnableOscillator
                0x00000000       0x34 .\CortexM3\ARM_GCC_541\Debug\MCP7940N.o
 .text.MCP7940N_DisableOscillator
                0x00000000       0x34 .\CortexM3\ARM_GCC_541\Debug\MCP7940N.o
 .text.MCP7940N_IsOscillatorRunning
                0x00000000       0x28 .\CortexM3\ARM_GCC_541\Debug\MCP7940N.o
 .text.MCP7940N_EnableBattery
                0x00000000       0x84 .\CortexM3\ARM_GCC_541\Debug\MCP7940N.o
 .text.MCP7940N_DisableBattery
                0x00000000       0x84 .\CortexM3\ARM_GCC_541\Debug\MCP7940N.o
 .text.MCP7940N_IsBatteryEnabled
                0x00000000       0x28 .\CortexM3\ARM_GCC_541\Debug\MCP7940N.o
 .text.MCP7940N_HasPowerFailed
                0x00000000       0x28 .\CortexM3\ARM_GCC_541\Debug\MCP7940N.o
 .text.MCP7940N_ClearPowerFailed
                0x00000000       0x84 .\CortexM3\ARM_GCC_541\Debug\MCP7940N.o
 .text.MCP7940N_IsLeapYear
                0x00000000       0x28 .\CortexM3\ARM_GCC_541\Debug\MCP7940N.o
 .text.MCP7940N_SetMFPMode
                0x00000000       0x64 .\CortexM3\ARM_GCC_541\Debug\MCP7940N.o
 .text.MCP7940N_GetMFPMode
                0x00000000       0x50 .\CortexM3\ARM_GCC_541\Debug\MCP7940N.o
 .text.MCP7940N_SetGPIO
                0x00000000       0x44 .\CortexM3\ARM_GCC_541\Debug\MCP7940N.o
 .text.MCP7940N_EnableCoarseTrimming
                0x00000000       0x2c .\CortexM3\ARM_GCC_541\Debug\MCP7940N.o
 .text.MCP7940N_DisableCoarseTrimming
                0x00000000       0x2c .\CortexM3\ARM_GCC_541\Debug\MCP7940N.o
 .text.MCP7940N_IsCoarseTrimmingEnabled
                0x00000000       0x1c .\CortexM3\ARM_GCC_541\Debug\MCP7940N.o
 .text.MCP7940N_SetTrimmingValue
                0x00000000       0x78 .\CortexM3\ARM_GCC_541\Debug\MCP7940N.o
 .text.MCP7940N_GetTrimmingValue
                0x00000000       0x38 .\CortexM3\ARM_GCC_541\Debug\MCP7940N.o
 .text.MCP7940N_GetSquarewaveFrequency
                0x00000000       0x1c .\CortexM3\ARM_GCC_541\Debug\MCP7940N.o
 .text.MCP7940N_SetSquarewaveFrequency
                0x00000000       0x44 .\CortexM3\ARM_GCC_541\Debug\MCP7940N.o
 .text.MCP7940N_EnableExternalOscillator
                0x00000000       0x2c .\CortexM3\ARM_GCC_541\Debug\MCP7940N.o
 .text.MCP7940N_DisableExternalOscillator
                0x00000000       0x2c .\CortexM3\ARM_GCC_541\Debug\MCP7940N.o
 .text.MCP7940N_IsExternalOscillatorEnabled
                0x00000000       0x1c .\CortexM3\ARM_GCC_541\Debug\MCP7940N.o
 .text.MCP7940N_GetAlarmDatetime
                0x00000000       0x6c .\CortexM3\ARM_GCC_541\Debug\MCP7940N.o
 .text.MCP7940N_GetAlarmSeconds
                0x00000000       0x60 .\CortexM3\ARM_GCC_541\Debug\MCP7940N.o
 .text.MCP7940N_GetAlarmMinutes
                0x00000000       0x60 .\CortexM3\ARM_GCC_541\Debug\MCP7940N.o
 .text.MCP7940N_GetAlarmHours
                0x00000000       0x60 .\CortexM3\ARM_GCC_541\Debug\MCP7940N.o
 .text.MCP7940N_GetAlarmWeekday
                0x00000000       0x40 .\CortexM3\ARM_GCC_541\Debug\MCP7940N.o
 .text.MCP7940N_GetAlarmDate
                0x00000000       0x60 .\CortexM3\ARM_GCC_541\Debug\MCP7940N.o
 .text.MCP7940N_GetAlarmMonths
                0x00000000       0x60 .\CortexM3\ARM_GCC_541\Debug\MCP7940N.o
 .text.MCP7940N_GetAlarmPolarity
                0x00000000       0x1c .\CortexM3\ARM_GCC_541\Debug\MCP7940N.o
 .text.MCP7940N_GetAlarmMode
                0x00000000       0x40 .\CortexM3\ARM_GCC_541\Debug\MCP7940N.o
 .text.MCP7940N_IsAlarmEnabled
                0x00000000       0x40 .\CortexM3\ARM_GCC_541\Debug\MCP7940N.o
 .text.MCP7940N_HasAlarmFired
                0x00000000       0x7c .\CortexM3\ARM_GCC_541\Debug\MCP7940N.o
 .text.MCP7940N_SetAlarmDatetime
                0x00000000       0x8c .\CortexM3\ARM_GCC_541\Debug\MCP7940N.o
 .text.MCP7940N_SetAlarmSeconds
                0x00000000       0x70 .\CortexM3\ARM_GCC_541\Debug\MCP7940N.o
 .text.MCP7940N_SetAlarmMinutes
                0x00000000       0x70 .\CortexM3\ARM_GCC_541\Debug\MCP7940N.o
 .text.MCP7940N_SetAlarmHours
                0x00000000       0x70 .\CortexM3\ARM_GCC_541\Debug\MCP7940N.o
 .text.MCP7940N_SetAlarmWeekday
                0x00000000       0x64 .\CortexM3\ARM_GCC_541\Debug\MCP7940N.o
 .text.MCP7940N_SetAlarmDate
                0x00000000       0x70 .\CortexM3\ARM_GCC_541\Debug\MCP7940N.o
 .text.MCP7940N_SetAlarmMonths
                0x00000000       0x70 .\CortexM3\ARM_GCC_541\Debug\MCP7940N.o
 .text.MCP7940N_SetAlarmPolarity
                0x00000000       0x44 .\CortexM3\ARM_GCC_541\Debug\MCP7940N.o
 .text.MCP7940N_EnableAlarm
                0x00000000       0x80 .\CortexM3\ARM_GCC_541\Debug\MCP7940N.o
 .text.MCP7940N_DisableAlarm
                0x00000000       0x44 .\CortexM3\ARM_GCC_541\Debug\MCP7940N.o
 .text.MCP7940N_GetPowerFailDatetime
                0x00000000       0x60 .\CortexM3\ARM_GCC_541\Debug\MCP7940N.o
 .text.MCP7940N_GetPowerFailMonth
                0x00000000       0x44 .\CortexM3\ARM_GCC_541\Debug\MCP7940N.o
 .text.MCP7940N_GetPowerFailWeekday
                0x00000000       0x18 .\CortexM3\ARM_GCC_541\Debug\MCP7940N.o
 .text.MCP7940N_GetPowerFailDate
                0x00000000       0x44 .\CortexM3\ARM_GCC_541\Debug\MCP7940N.o
 .text.MCP7940N_GetPowerFailHour
                0x00000000       0x44 .\CortexM3\ARM_GCC_541\Debug\MCP7940N.o
 .text.MCP7940N_GetPowerFailMinute
                0x00000000       0x44 .\CortexM3\ARM_GCC_541\Debug\MCP7940N.o
 .text.MCP7940N_GetPowerUpDatetime
                0x00000000       0x60 .\CortexM3\ARM_GCC_541\Debug\MCP7940N.o
 .text.MCP7940N_GetPowerUpMonth
                0x00000000       0x44 .\CortexM3\ARM_GCC_541\Debug\MCP7940N.o
 .text.MCP7940N_GetPowerUpWeekday
                0x00000000       0x18 .\CortexM3\ARM_GCC_541\Debug\MCP7940N.o
 .text.MCP7940N_GetPowerUpDate
                0x00000000       0x44 .\CortexM3\ARM_GCC_541\Debug\MCP7940N.o
 .text.MCP7940N_GetPowerUpHour
                0x00000000       0x44 .\CortexM3\ARM_GCC_541\Debug\MCP7940N.o
 .text.MCP7940N_GetPowerUpMinute
                0x00000000       0x44 .\CortexM3\ARM_GCC_541\Debug\MCP7940N.o
 .text.MCP7940N_ReadSRAM
                0x00000000       0x44 .\CortexM3\ARM_GCC_541\Debug\MCP7940N.o
 .text.MCP7940N_WriteSRAM
                0x00000000       0x44 .\CortexM3\ARM_GCC_541\Debug\MCP7940N.o
 .text          0x00000000        0x0 .\CortexM3\ARM_GCC_541\Debug\SSD1306.o
 .data          0x00000000        0x0 .\CortexM3\ARM_GCC_541\Debug\SSD1306.o
 .text.SSD1306_Reset
                0x00000000       0x10 .\CortexM3\ARM_GCC_541\Debug\SSD1306.o
 .text.SSD1306_GetDisplayBuffer
                0x00000000       0x14 .\CortexM3\ARM_GCC_541\Debug\SSD1306.o
 .text.SSD1306_WriteCommand
                0x00000000       0x38 .\CortexM3\ARM_GCC_541\Debug\SSD1306.o
 .text          0x00000000        0x0 .\CortexM3\ARM_GCC_541\Debug\gfx.o
 .text.rhea_gfx_Reset
                0x00000000        0xc .\CortexM3\ARM_GCC_541\Debug\gfx.o
 .text.rhea_gfx_SetFont
                0x00000000       0x28 .\CortexM3\ARM_GCC_541\Debug\gfx.o
 .text.rhea_gfx_DrawPixel
                0x00000000       0x2c .\CortexM3\ARM_GCC_541\Debug\gfx.o
 .text.rhea_gfx_DrawLineLow
                0x00000000       0xc0 .\CortexM3\ARM_GCC_541\Debug\gfx.o
 .text.rhea_gfx_DrawLineHigh
                0x00000000       0xc0 .\CortexM3\ARM_GCC_541\Debug\gfx.o
 .text.rhea_gfx_DrawLine
                0x00000000       0xf8 .\CortexM3\ARM_GCC_541\Debug\gfx.o
 .text.rhea_gfx_DrawVerticalLine
                0x00000000       0x50 .\CortexM3\ARM_GCC_541\Debug\gfx.o
 .text.rhea_gfx_DrawHorizontalLine
                0x00000000       0x50 .\CortexM3\ARM_GCC_541\Debug\gfx.o
 .text.rhea_gfx_DrawCircle
                0x00000000       0xa4 .\CortexM3\ARM_GCC_541\Debug\gfx.o
 .text.rhea_gfx_DrawFilledCircle
                0x00000000       0xa4 .\CortexM3\ARM_GCC_541\Debug\gfx.o
 .text.rhea_gfx_DrawRectangle
                0x00000000       0x8c .\CortexM3\ARM_GCC_541\Debug\gfx.o
 .text.rhea_gfx_DrawFilledRectangle
                0x00000000       0x6c .\CortexM3\ARM_GCC_541\Debug\gfx.o
 .text.rhea_gfx_DrawSymbol
                0x00000000       0x28 .\CortexM3\ARM_GCC_541\Debug\gfx.o
 .text          0x00000000        0x0 .\CortexM3\ARM_GCC_541\Debug\gfx_impl.o
 .data          0x00000000        0x0 .\CortexM3\ARM_GCC_541\Debug\gfx_impl.o
 .bss           0x00000000        0x0 .\CortexM3\ARM_GCC_541\Debug\gfx_impl.o
 .text.rhea_gfx_reset_impl
                0x00000000       0x24 .\CortexM3\ARM_GCC_541\Debug\gfx_impl.o
 .text          0x00000000        0x0 .\CortexM3\ARM_GCC_541\Debug\i2c_rhea.o
 .data          0x00000000        0x0 .\CortexM3\ARM_GCC_541\Debug\i2c_rhea.o
 .bss           0x00000000        0x0 .\CortexM3\ARM_GCC_541\Debug\i2c_rhea.o
 .text          0x00000000        0x0 .\CortexM3\ARM_GCC_541\Debug\i2c_impl.o
 .data          0x00000000        0x0 .\CortexM3\ARM_GCC_541\Debug\i2c_impl.o
 .bss           0x00000000        0x0 .\CortexM3\ARM_GCC_541\Debug\i2c_impl.o
 .text          0x00000000        0x0 .\CortexM3\ARM_GCC_541\Debug\alarm.o
 .data          0x00000000        0x0 .\CortexM3\ARM_GCC_541\Debug\alarm.o
 .bss           0x00000000        0x0 .\CortexM3\ARM_GCC_541\Debug\alarm.o
 .rodata        0x00000000       0xd0 .\CortexM3\ARM_GCC_541\Debug\alarm.o
 .text.rhea_rtc_formatAlarm
                0x00000000      0x194 .\CortexM3\ARM_GCC_541\Debug\alarm.o
 .text.rhea_rtc_weekdayDifference
                0x00000000       0x2c .\CortexM3\ARM_GCC_541\Debug\alarm.o
 .text.rhea_rtc_normalizeAlarm
                0x00000000      0x24c .\CortexM3\ARM_GCC_541\Debug\alarm.o
 .text          0x00000000        0x0 .\CortexM3\ARM_GCC_541\Debug\datetime.o
 .data          0x00000000        0x0 .\CortexM3\ARM_GCC_541\Debug\datetime.o
 .bss           0x00000000        0x0 .\CortexM3\ARM_GCC_541\Debug\datetime.o
 .rodata        0x00000000      0x22d .\CortexM3\ARM_GCC_541\Debug\datetime.o
 .text.rhea_rtc_formatDate
                0x00000000      0x3d4 .\CortexM3\ARM_GCC_541\Debug\datetime.o
 .text.rhea_rtc_toSeconds
                0x00000000      0x1bc .\CortexM3\ARM_GCC_541\Debug\datetime.o
 .text.rhea_rtc_fromSeconds
                0x00000000      0x260 .\CortexM3\ARM_GCC_541\Debug\datetime.o
 .text.rhea_rtc_fromString
                0x00000000       0xa8 .\CortexM3\ARM_GCC_541\Debug\datetime.o
 .text.rhea_rtc_setWeekday
                0x00000000       0xf8 .\CortexM3\ARM_GCC_541\Debug\datetime.o
 .text.rhea_rtc_compareDatetime
                0x00000000       0x44 .\CortexM3\ARM_GCC_541\Debug\datetime.o
 .text.rhea_rtc_addDatetime
                0x00000000       0x60 .\CortexM3\ARM_GCC_541\Debug\datetime.o
 .text          0x00000000        0x0 .\CortexM3\ARM_GCC_541\Debug\rtc.o
 .data          0x00000000        0x0 .\CortexM3\ARM_GCC_541\Debug\rtc.o
 .bss           0x00000000       0x81 .\CortexM3\ARM_GCC_541\Debug\rtc.o
 .rodata        0x00000000       0x42 .\CortexM3\ARM_GCC_541\Debug\rtc.o
 .text.rhea_rtc_Initialize
                0x00000000       0x10 .\CortexM3\ARM_GCC_541\Debug\rtc.o
 .text.rhea_rtc_Now
                0x00000000       0x18 .\CortexM3\ARM_GCC_541\Debug\rtc.o
 .text.rhea_rtc_SetDatetime
                0x00000000       0x20 .\CortexM3\ARM_GCC_541\Debug\rtc.o
 .text.rhea_rtc_PowerUp
                0x00000000       0x24 .\CortexM3\ARM_GCC_541\Debug\rtc.o
 .text.rhea_rtc_PowerFail
                0x00000000       0x24 .\CortexM3\ARM_GCC_541\Debug\rtc.o
 .text.rhea_rtc_ScheduleAlarms
                0x00000000       0xbc .\CortexM3\ARM_GCC_541\Debug\rtc.o
 .text.rhea_rtc_AddAlarm
                0x00000000       0xd0 .\CortexM3\ARM_GCC_541\Debug\rtc.o
 .text.rhea_rtc_DeleteAlarm
                0x00000000       0x50 .\CortexM3\ARM_GCC_541\Debug\rtc.o
 .text.rhea_rtc_HandleAlarms
                0x00000000       0xfc .\CortexM3\ARM_GCC_541\Debug\rtc.o
 .text.rhea_rtc_alarmISR
                0x00000000       0x18 .\CortexM3\ARM_GCC_541\Debug\rtc.o
 COMMON         0x00000000      0x190 .\CortexM3\ARM_GCC_541\Debug\rtc.o
 .text          0x00000000        0x0 .\CortexM3\ARM_GCC_541\Debug\rtc_impl.o
 .data          0x00000000        0x0 .\CortexM3\ARM_GCC_541\Debug\rtc_impl.o
 .bss           0x00000000        0x0 .\CortexM3\ARM_GCC_541\Debug\rtc_impl.o
 .rodata        0x00000000       0x54 .\CortexM3\ARM_GCC_541\Debug\rtc_impl.o
 .text.rhea_rtc_initialize_impl
                0x00000000       0xb0 .\CortexM3\ARM_GCC_541\Debug\rtc_impl.o
 .text.rhea_rtc_now_impl
                0x00000000       0x28 .\CortexM3\ARM_GCC_541\Debug\rtc_impl.o
 .text.rhea_rtc_setDatetime_impl
                0x00000000       0x30 .\CortexM3\ARM_GCC_541\Debug\rtc_impl.o
 .text.rhea_rtc_enableAlarms_impl
                0x00000000       0x10 .\CortexM3\ARM_GCC_541\Debug\rtc_impl.o
 .text.rhea_rtc_disableAlarms_impl
                0x00000000       0x10 .\CortexM3\ARM_GCC_541\Debug\rtc_impl.o
 .text.rhea_rtc_setAlarmDatetime_impl
                0x00000000       0x30 .\CortexM3\ARM_GCC_541\Debug\rtc_impl.o
 .text.rhea_rtc_loadAlarms_impl
                0x00000000       0x74 .\CortexM3\ARM_GCC_541\Debug\rtc_impl.o
 .text.rhea_rtc_storeAlarms_impl
                0x00000000       0x80 .\CortexM3\ARM_GCC_541\Debug\rtc_impl.o
 .text.rhea_rtc_toAlarmRegisterStruct
                0x00000000      0x24c .\CortexM3\ARM_GCC_541\Debug\rtc_impl.o
 .text.rhea_rtc_fromAlarmRegisterStruct
                0x00000000      0x150 .\CortexM3\ARM_GCC_541\Debug\rtc_impl.o
 .text.toDriverDatetime
                0x00000000       0x44 .\CortexM3\ARM_GCC_541\Debug\rtc_impl.o
 .text.fromDriverDatetime
                0x00000000       0x44 .\CortexM3\ARM_GCC_541\Debug\rtc_impl.o
 .text          0x00000000        0x0 .\CortexM3\ARM_GCC_541\Debug\BME280_INTF.o
 .data          0x00000000        0x0 .\CortexM3\ARM_GCC_541\Debug\BME280_INTF.o
 .bss           0x00000000        0x0 .\CortexM3\ARM_GCC_541\Debug\BME280_INTF.o
 .text          0x00000000        0x0 .\CortexM3\ARM_GCC_541\Debug\sensor.o
 .data          0x00000000        0x0 .\CortexM3\ARM_GCC_541\Debug\sensor.o
 .text.rhea_sensor_TakeMeasurement
                0x00000000       0xd0 .\CortexM3\ARM_GCC_541\Debug\sensor.o
 .text.rhea_sensor_GetAttribute
                0x00000000       0xe4 .\CortexM3\ARM_GCC_541\Debug\sensor.o
 .text          0x00000000        0x0 .\CortexM3\ARM_GCC_541\Debug\sensor_impl.o
 .data          0x00000000        0x0 .\CortexM3\ARM_GCC_541\Debug\sensor_impl.o
 .bss           0x00000000        0x0 .\CortexM3\ARM_GCC_541\Debug\sensor_impl.o
 .text          0x00000000        0x0 .\CortexM3\ARM_GCC_541\Debug\uart_impl.o
 .data          0x00000000        0x0 .\CortexM3\ARM_GCC_541\Debug\uart_impl.o
 .bss           0x00000000        0x0 .\CortexM3\ARM_GCC_541\Debug\uart_impl.o
 .text.rhea_uart_bytesAvailable_impl
                0x00000000       0x18 .\CortexM3\ARM_GCC_541\Debug\uart_impl.o
 .text          0x00000000        0x0 .\CortexM3\ARM_GCC_541\Debug\uart_rhea.o
 .data          0x00000000        0x0 .\CortexM3\ARM_GCC_541\Debug\uart_rhea.o
 .bss           0x00000000        0x0 .\CortexM3\ARM_GCC_541\Debug\uart_rhea.o
 .text.rhea_uart_BytesAvailable
                0x00000000       0x14 .\CortexM3\ARM_GCC_541\Debug\uart_rhea.o
 .text.rhea_uart_ReadBytes
                0x00000000       0x60 .\CortexM3\ARM_GCC_541\Debug\uart_rhea.o
 .text.rhea_uart_ReadBuffer
                0x00000000       0x20 .\CortexM3\ARM_GCC_541\Debug\uart_rhea.o
 .text.rhea_uart_ReadString
                0x00000000       0x48 .\CortexM3\ARM_GCC_541\Debug\uart_rhea.o
 .text          0x00000000        0x0 .\CortexM3\ARM_GCC_541\Debug\state.o
 .data          0x00000000        0x0 .\CortexM3\ARM_GCC_541\Debug\state.o
 .bss           0x00000000        0x0 .\CortexM3\ARM_GCC_541\Debug\state.o
 .text          0x00000000        0x0 .\CortexM3\ARM_GCC_541\Debug\command.o
 .data          0x00000000        0x0 .\CortexM3\ARM_GCC_541\Debug\command.o
 .text          0x00000000        0x0 .\CortexM3\ARM_GCC_541\Debug\input.o
 .data          0x00000000        0x0 .\CortexM3\ARM_GCC_541\Debug\input.o
 .text          0x00000000        0x0 .\CortexM3\ARM_GCC_541\Debug\menu.o
 .data          0x00000000        0x0 .\CortexM3\ARM_GCC_541\Debug\menu.o
 .text          0x00000000        0x0 .\CortexM3\ARM_GCC_541\Debug\main.o
 .data          0x00000000        0x0 .\CortexM3\ARM_GCC_541\Debug\main.o
 .bss           0x00000000        0x0 .\CortexM3\ARM_GCC_541\Debug\main.o
 .rodata        0x00000000       0x9e .\CortexM3\ARM_GCC_541\Debug\main.o
 .text.test_graphics
                0x00000000       0x34 .\CortexM3\ARM_GCC_541\Debug\main.o
 .text.test_sensor
                0x00000000      0x10c .\CortexM3\ARM_GCC_541\Debug\main.o
 .text          0x00000000        0x0 .\CortexM3\ARM_GCC_541\Debug\cyfitter_cfg.o
 .data          0x00000000        0x0 .\CortexM3\ARM_GCC_541\Debug\cyfitter_cfg.o
 .bss           0x00000000        0x0 .\CortexM3\ARM_GCC_541\Debug\cyfitter_cfg.o
 .text.CYCONFIGCPYCODE
                0x00000000       0x20 .\CortexM3\ARM_GCC_541\Debug\cyfitter_cfg.o
 .text.SetAnalogRoutingPumps
                0x00000000       0x28 .\CortexM3\ARM_GCC_541\Debug\cyfitter_cfg.o
 .text          0x00000000        0x0 .\CortexM3\ARM_GCC_541\Debug\cymetadata.o
 .data          0x00000000        0x0 .\CortexM3\ARM_GCC_541\Debug\cymetadata.o
 .bss           0x00000000        0x0 .\CortexM3\ARM_GCC_541\Debug\cymetadata.o
 .text          0x00000000        0x0 .\CortexM3\ARM_GCC_541\Debug\Cm3Start.o
 .bss           0x00000000        0x0 .\CortexM3\ARM_GCC_541\Debug\Cm3Start.o
 .text._exit    0x00000000       0x14 .\CortexM3\ARM_GCC_541\Debug\Cm3Start.o
 .text          0x00000000        0x0 .\CortexM3\ARM_GCC_541\Debug\Rhea.a(I2C.o)
 .data          0x00000000        0x0 .\CortexM3\ARM_GCC_541\Debug\Rhea.a(I2C.o)
 .text.I2C_Stop
                0x00000000      0x110 .\CortexM3\ARM_GCC_541\Debug\Rhea.a(I2C.o)
 .text          0x00000000        0x0 .\CortexM3\ARM_GCC_541\Debug\Rhea.a(I2C_INT.o)
 .data          0x00000000        0x0 .\CortexM3\ARM_GCC_541\Debug\Rhea.a(I2C_INT.o)
 .bss           0x00000000        0x0 .\CortexM3\ARM_GCC_541\Debug\Rhea.a(I2C_INT.o)
 .text          0x00000000        0x0 .\CortexM3\ARM_GCC_541\Debug\Rhea.a(I2C_PM.o)
 .data          0x00000000        0x6 .\CortexM3\ARM_GCC_541\Debug\Rhea.a(I2C_PM.o)
 .bss           0x00000000        0x0 .\CortexM3\ARM_GCC_541\Debug\Rhea.a(I2C_PM.o)
 .text.I2C_SaveConfig
                0x00000000       0x58 .\CortexM3\ARM_GCC_541\Debug\Rhea.a(I2C_PM.o)
 .text.I2C_Sleep
                0x00000000       0x3c .\CortexM3\ARM_GCC_541\Debug\Rhea.a(I2C_PM.o)
 .text.I2C_RestoreConfig
                0x00000000       0x8c .\CortexM3\ARM_GCC_541\Debug\Rhea.a(I2C_PM.o)
 .text.I2C_Wakeup
                0x00000000       0x28 .\CortexM3\ARM_GCC_541\Debug\Rhea.a(I2C_PM.o)
 .text          0x00000000        0x0 .\CortexM3\ARM_GCC_541\Debug\Rhea.a(I2C_MASTER.o)
 .data          0x00000000        0x0 .\CortexM3\ARM_GCC_541\Debug\Rhea.a(I2C_MASTER.o)
 .bss           0x00000000        0x0 .\CortexM3\ARM_GCC_541\Debug\Rhea.a(I2C_MASTER.o)
 .text.I2C_MasterWriteBuf
                0x00000000      0x108 .\CortexM3\ARM_GCC_541\Debug\Rhea.a(I2C_MASTER.o)
 .text.I2C_MasterReadBuf
                0x00000000      0x110 .\CortexM3\ARM_GCC_541\Debug\Rhea.a(I2C_MASTER.o)
 .text.I2C_MasterSendRestart
                0x00000000       0xa4 .\CortexM3\ARM_GCC_541\Debug\Rhea.a(I2C_MASTER.o)
 .text.I2C_MasterStatus
                0x00000000       0x50 .\CortexM3\ARM_GCC_541\Debug\Rhea.a(I2C_MASTER.o)
 .text.I2C_MasterClearStatus
                0x00000000       0x3c .\CortexM3\ARM_GCC_541\Debug\Rhea.a(I2C_MASTER.o)
 .text.I2C_MasterGetReadBufSize
                0x00000000       0x18 .\CortexM3\ARM_GCC_541\Debug\Rhea.a(I2C_MASTER.o)
 .text.I2C_MasterGetWriteBufSize
                0x00000000       0x18 .\CortexM3\ARM_GCC_541\Debug\Rhea.a(I2C_MASTER.o)
 .text.I2C_MasterClearReadBuf
                0x00000000       0x44 .\CortexM3\ARM_GCC_541\Debug\Rhea.a(I2C_MASTER.o)
 .text.I2C_MasterClearWriteBuf
                0x00000000       0x44 .\CortexM3\ARM_GCC_541\Debug\Rhea.a(I2C_MASTER.o)
 .text          0x00000000        0x0 .\CortexM3\ARM_GCC_541\Debug\Rhea.a(UART.o)
 .data          0x00000000        0x0 .\CortexM3\ARM_GCC_541\Debug\Rhea.a(UART.o)
 .text.UART_Stop
                0x00000000       0x60 .\CortexM3\ARM_GCC_541\Debug\Rhea.a(UART.o)
 .text.UART_ReadControlRegister
                0x00000000       0x10 .\CortexM3\ARM_GCC_541\Debug\Rhea.a(UART.o)
 .text.UART_WriteControlRegister
                0x00000000       0x14 .\CortexM3\ARM_GCC_541\Debug\Rhea.a(UART.o)
 .text.UART_SetRxInterruptMode
                0x00000000       0x20 .\CortexM3\ARM_GCC_541\Debug\Rhea.a(UART.o)
 .text.UART_ReadRxData
                0x00000000       0x1c .\CortexM3\ARM_GCC_541\Debug\Rhea.a(UART.o)
 .text.UART_ReadRxStatus
                0x00000000       0x24 .\CortexM3\ARM_GCC_541\Debug\Rhea.a(UART.o)
 .text.UART_GetByte
                0x00000000       0x20 .\CortexM3\ARM_GCC_541\Debug\Rhea.a(UART.o)
 .text.UART_GetRxBufferSize
                0x00000000       0x2c .\CortexM3\ARM_GCC_541\Debug\Rhea.a(UART.o)
 .text.UART_ClearRxBuffer
                0x00000000       0x44 .\CortexM3\ARM_GCC_541\Debug\Rhea.a(UART.o)
 .text.UART_SetRxAddressMode
                0x00000000       0x14 .\CortexM3\ARM_GCC_541\Debug\Rhea.a(UART.o)
 .text.UART_SetRxAddress1
                0x00000000       0x20 .\CortexM3\ARM_GCC_541\Debug\Rhea.a(UART.o)
 .text.UART_SetRxAddress2
                0x00000000       0x20 .\CortexM3\ARM_GCC_541\Debug\Rhea.a(UART.o)
 .text.UART_SetTxInterruptMode
                0x00000000       0x20 .\CortexM3\ARM_GCC_541\Debug\Rhea.a(UART.o)
 .text.UART_WriteTxData
                0x00000000       0x2c .\CortexM3\ARM_GCC_541\Debug\Rhea.a(UART.o)
 .text.UART_ReadTxStatus
                0x00000000       0x18 .\CortexM3\ARM_GCC_541\Debug\Rhea.a(UART.o)
 .text.UART_PutString
                0x00000000       0x44 .\CortexM3\ARM_GCC_541\Debug\Rhea.a(UART.o)
 .text.UART_PutArray
                0x00000000       0x44 .\CortexM3\ARM_GCC_541\Debug\Rhea.a(UART.o)
 .text.UART_PutCRLF
                0x00000000       0x34 .\CortexM3\ARM_GCC_541\Debug\Rhea.a(UART.o)
 .text.UART_GetTxBufferSize
                0x00000000       0x40 .\CortexM3\ARM_GCC_541\Debug\Rhea.a(UART.o)
 .text.UART_ClearTxBuffer
                0x00000000       0x44 .\CortexM3\ARM_GCC_541\Debug\Rhea.a(UART.o)
 .text.UART_SendBreak
                0x00000000       0x9c .\CortexM3\ARM_GCC_541\Debug\Rhea.a(UART.o)
 .text.UART_SetTxAddressMode
                0x00000000       0x14 .\CortexM3\ARM_GCC_541\Debug\Rhea.a(UART.o)
 .text          0x00000000        0x0 .\CortexM3\ARM_GCC_541\Debug\Rhea.a(RTC_INTR.o)
 .data          0x00000000        0x0 .\CortexM3\ARM_GCC_541\Debug\Rhea.a(RTC_INTR.o)
 .bss           0x00000000        0x0 .\CortexM3\ARM_GCC_541\Debug\Rhea.a(RTC_INTR.o)
 .text.RTC_INTR_Start
                0x00000000       0x20 .\CortexM3\ARM_GCC_541\Debug\Rhea.a(RTC_INTR.o)
 .text.RTC_INTR_StartEx
                0x00000000       0x24 .\CortexM3\ARM_GCC_541\Debug\Rhea.a(RTC_INTR.o)
 .text.RTC_INTR_Stop
                0x00000000       0x18 .\CortexM3\ARM_GCC_541\Debug\Rhea.a(RTC_INTR.o)
 .text.RTC_INTR_Interrupt
                0x00000000        0xc .\CortexM3\ARM_GCC_541\Debug\Rhea.a(RTC_INTR.o)
 .text.RTC_INTR_SetVector
                0x00000000       0x24 .\CortexM3\ARM_GCC_541\Debug\Rhea.a(RTC_INTR.o)
 .text.RTC_INTR_GetVector
                0x00000000       0x20 .\CortexM3\ARM_GCC_541\Debug\Rhea.a(RTC_INTR.o)
 .text.RTC_INTR_SetPriority
                0x00000000       0x24 .\CortexM3\ARM_GCC_541\Debug\Rhea.a(RTC_INTR.o)
 .text.RTC_INTR_GetPriority
                0x00000000       0x20 .\CortexM3\ARM_GCC_541\Debug\Rhea.a(RTC_INTR.o)
 .text.RTC_INTR_Enable
                0x00000000       0x18 .\CortexM3\ARM_GCC_541\Debug\Rhea.a(RTC_INTR.o)
 .text.RTC_INTR_GetState
                0x00000000       0x24 .\CortexM3\ARM_GCC_541\Debug\Rhea.a(RTC_INTR.o)
 .text.RTC_INTR_Disable
                0x00000000       0x18 .\CortexM3\ARM_GCC_541\Debug\Rhea.a(RTC_INTR.o)
 .text.RTC_INTR_SetPending
                0x00000000       0x18 .\CortexM3\ARM_GCC_541\Debug\Rhea.a(RTC_INTR.o)
 .text.RTC_INTR_ClearPending
                0x00000000       0x18 .\CortexM3\ARM_GCC_541\Debug\Rhea.a(RTC_INTR.o)
 .text          0x00000000        0x0 .\CortexM3\ARM_GCC_541\Debug\Rhea.a(DEBOUNCE_CLK.o)
 .data          0x00000000        0x0 .\CortexM3\ARM_GCC_541\Debug\Rhea.a(DEBOUNCE_CLK.o)
 .bss           0x00000000        0x0 .\CortexM3\ARM_GCC_541\Debug\Rhea.a(DEBOUNCE_CLK.o)
 .text.DEBOUNCE_CLK_Stop
                0x00000000       0x34 .\CortexM3\ARM_GCC_541\Debug\Rhea.a(DEBOUNCE_CLK.o)
 .text.DEBOUNCE_CLK_StopBlock
                0x00000000       0xb0 .\CortexM3\ARM_GCC_541\Debug\Rhea.a(DEBOUNCE_CLK.o)
 .text.DEBOUNCE_CLK_StandbyPower
                0x00000000       0x40 .\CortexM3\ARM_GCC_541\Debug\Rhea.a(DEBOUNCE_CLK.o)
 .text.DEBOUNCE_CLK_SetDividerRegister
                0x00000000      0x164 .\CortexM3\ARM_GCC_541\Debug\Rhea.a(DEBOUNCE_CLK.o)
 .text.DEBOUNCE_CLK_GetDividerRegister
                0x00000000       0x18 .\CortexM3\ARM_GCC_541\Debug\Rhea.a(DEBOUNCE_CLK.o)
 .text.DEBOUNCE_CLK_SetModeRegister
                0x00000000       0x34 .\CortexM3\ARM_GCC_541\Debug\Rhea.a(DEBOUNCE_CLK.o)
 .text.DEBOUNCE_CLK_ClearModeRegister
                0x00000000       0x34 .\CortexM3\ARM_GCC_541\Debug\Rhea.a(DEBOUNCE_CLK.o)
 .text.DEBOUNCE_CLK_GetModeRegister
                0x00000000       0x1c .\CortexM3\ARM_GCC_541\Debug\Rhea.a(DEBOUNCE_CLK.o)
 .text.DEBOUNCE_CLK_SetSourceRegister
                0x00000000       0xc4 .\CortexM3\ARM_GCC_541\Debug\Rhea.a(DEBOUNCE_CLK.o)
 .text.DEBOUNCE_CLK_GetSourceRegister
                0x00000000       0x1c .\CortexM3\ARM_GCC_541\Debug\Rhea.a(DEBOUNCE_CLK.o)
 .text          0x00000000        0x0 .\CortexM3\ARM_GCC_541\Debug\Rhea.a(BTN_RIGHT_INTR.o)
 .data          0x00000000        0x0 .\CortexM3\ARM_GCC_541\Debug\Rhea.a(BTN_RIGHT_INTR.o)
 .bss           0x00000000        0x0 .\CortexM3\ARM_GCC_541\Debug\Rhea.a(BTN_RIGHT_INTR.o)
 .text.BTN_RIGHT_INTR_Start
                0x00000000       0x20 .\CortexM3\ARM_GCC_541\Debug\Rhea.a(BTN_RIGHT_INTR.o)
 .text.BTN_RIGHT_INTR_Stop
                0x00000000       0x18 .\CortexM3\ARM_GCC_541\Debug\Rhea.a(BTN_RIGHT_INTR.o)
 .text.BTN_RIGHT_INTR_Interrupt
                0x00000000        0xc .\CortexM3\ARM_GCC_541\Debug\Rhea.a(BTN_RIGHT_INTR.o)
 .text.BTN_RIGHT_INTR_GetVector
                0x00000000       0x20 .\CortexM3\ARM_GCC_541\Debug\Rhea.a(BTN_RIGHT_INTR.o)
 .text.BTN_RIGHT_INTR_GetPriority
                0x00000000       0x20 .\CortexM3\ARM_GCC_541\Debug\Rhea.a(BTN_RIGHT_INTR.o)
 .text.BTN_RIGHT_INTR_GetState
                0x00000000       0x24 .\CortexM3\ARM_GCC_541\Debug\Rhea.a(BTN_RIGHT_INTR.o)
 .text.BTN_RIGHT_INTR_SetPending
                0x00000000       0x18 .\CortexM3\ARM_GCC_541\Debug\Rhea.a(BTN_RIGHT_INTR.o)
 .text.BTN_RIGHT_INTR_ClearPending
                0x00000000       0x18 .\CortexM3\ARM_GCC_541\Debug\Rhea.a(BTN_RIGHT_INTR.o)
 .text          0x00000000        0x0 .\CortexM3\ARM_GCC_541\Debug\Rhea.a(BTN_LEFT_INTR.o)
 .data          0x00000000        0x0 .\CortexM3\ARM_GCC_541\Debug\Rhea.a(BTN_LEFT_INTR.o)
 .bss           0x00000000        0x0 .\CortexM3\ARM_GCC_541\Debug\Rhea.a(BTN_LEFT_INTR.o)
 .text.BTN_LEFT_INTR_Start
                0x00000000       0x20 .\CortexM3\ARM_GCC_541\Debug\Rhea.a(BTN_LEFT_INTR.o)
 .text.BTN_LEFT_INTR_Stop
                0x00000000       0x18 .\CortexM3\ARM_GCC_541\Debug\Rhea.a(BTN_LEFT_INTR.o)
 .text.BTN_LEFT_INTR_Interrupt
                0x00000000        0xc .\CortexM3\ARM_GCC_541\Debug\Rhea.a(BTN_LEFT_INTR.o)
 .text.BTN_LEFT_INTR_GetVector
                0x00000000       0x20 .\CortexM3\ARM_GCC_541\Debug\Rhea.a(BTN_LEFT_INTR.o)
 .text.BTN_LEFT_INTR_GetPriority
                0x00000000       0x20 .\CortexM3\ARM_GCC_541\Debug\Rhea.a(BTN_LEFT_INTR.o)
 .text.BTN_LEFT_INTR_GetState
                0x00000000       0x24 .\CortexM3\ARM_GCC_541\Debug\Rhea.a(BTN_LEFT_INTR.o)
 .text.BTN_LEFT_INTR_SetPending
                0x00000000       0x18 .\CortexM3\ARM_GCC_541\Debug\Rhea.a(BTN_LEFT_INTR.o)
 .text.BTN_LEFT_INTR_ClearPending
                0x00000000       0x18 .\CortexM3\ARM_GCC_541\Debug\Rhea.a(BTN_LEFT_INTR.o)
 .text          0x00000000        0x0 .\CortexM3\ARM_GCC_541\Debug\Rhea.a(BTN_ENTER_INTR.o)
 .data          0x00000000        0x0 .\CortexM3\ARM_GCC_541\Debug\Rhea.a(BTN_ENTER_INTR.o)
 .bss           0x00000000        0x0 .\CortexM3\ARM_GCC_541\Debug\Rhea.a(BTN_ENTER_INTR.o)
 .text.BTN_ENTER_INTR_Start
                0x00000000       0x20 .\CortexM3\ARM_GCC_541\Debug\Rhea.a(BTN_ENTER_INTR.o)
 .text.BTN_ENTER_INTR_Stop
                0x00000000       0x18 .\CortexM3\ARM_GCC_541\Debug\Rhea.a(BTN_ENTER_INTR.o)
 .text.BTN_ENTER_INTR_Interrupt
                0x00000000        0xc .\CortexM3\ARM_GCC_541\Debug\Rhea.a(BTN_ENTER_INTR.o)
 .text.BTN_ENTER_INTR_GetVector
                0x00000000       0x20 .\CortexM3\ARM_GCC_541\Debug\Rhea.a(BTN_ENTER_INTR.o)
 .text.BTN_ENTER_INTR_GetPriority
                0x00000000       0x20 .\CortexM3\ARM_GCC_541\Debug\Rhea.a(BTN_ENTER_INTR.o)
 .text.BTN_ENTER_INTR_GetState
                0x00000000       0x1c .\CortexM3\ARM_GCC_541\Debug\Rhea.a(BTN_ENTER_INTR.o)
 .text.BTN_ENTER_INTR_SetPending
                0x00000000       0x18 .\CortexM3\ARM_GCC_541\Debug\Rhea.a(BTN_ENTER_INTR.o)
 .text.BTN_ENTER_INTR_ClearPending
                0x00000000       0x18 .\CortexM3\ARM_GCC_541\Debug\Rhea.a(BTN_ENTER_INTR.o)
 .text          0x00000000        0x0 .\CortexM3\ARM_GCC_541\Debug\Rhea.a(SENSOR_TIMER.o)
 .data          0x00000000        0x0 .\CortexM3\ARM_GCC_541\Debug\Rhea.a(SENSOR_TIMER.o)
 .text.SENSOR_TIMER_Stop
                0x00000000       0x48 .\CortexM3\ARM_GCC_541\Debug\Rhea.a(SENSOR_TIMER.o)
 .text.SENSOR_TIMER_SoftwareCapture
                0x00000000       0x14 .\CortexM3\ARM_GCC_541\Debug\Rhea.a(SENSOR_TIMER.o)
 .text.SENSOR_TIMER_ReadStatusRegister
                0x00000000       0x18 .\CortexM3\ARM_GCC_541\Debug\Rhea.a(SENSOR_TIMER.o)
 .text.SENSOR_TIMER_ReadControlRegister
                0x00000000       0x18 .\CortexM3\ARM_GCC_541\Debug\Rhea.a(SENSOR_TIMER.o)
 .text.SENSOR_TIMER_WriteControlRegister
                0x00000000       0x20 .\CortexM3\ARM_GCC_541\Debug\Rhea.a(SENSOR_TIMER.o)
 .text.SENSOR_TIMER_ReadPeriod
                0x00000000       0x18 .\CortexM3\ARM_GCC_541\Debug\Rhea.a(SENSOR_TIMER.o)
 .text.SENSOR_TIMER_ReadCapture
                0x00000000       0x18 .\CortexM3\ARM_GCC_541\Debug\Rhea.a(SENSOR_TIMER.o)
 .text.SENSOR_TIMER_ReadCounter
                0x00000000       0x20 .\CortexM3\ARM_GCC_541\Debug\Rhea.a(SENSOR_TIMER.o)
 .text          0x00000000        0x0 .\CortexM3\ARM_GCC_541\Debug\Rhea.a(SENSOR_1MS.o)
 .data          0x00000000        0x0 .\CortexM3\ARM_GCC_541\Debug\Rhea.a(SENSOR_1MS.o)
 .bss           0x00000000        0x0 .\CortexM3\ARM_GCC_541\Debug\Rhea.a(SENSOR_1MS.o)
 .text.SENSOR_1MS_Start
                0x00000000       0x20 .\CortexM3\ARM_GCC_541\Debug\Rhea.a(SENSOR_1MS.o)
 .text.SENSOR_1MS_Stop
                0x00000000       0x18 .\CortexM3\ARM_GCC_541\Debug\Rhea.a(SENSOR_1MS.o)
 .text.SENSOR_1MS_Interrupt
                0x00000000        0xc .\CortexM3\ARM_GCC_541\Debug\Rhea.a(SENSOR_1MS.o)
 .text.SENSOR_1MS_GetVector
                0x00000000       0x20 .\CortexM3\ARM_GCC_541\Debug\Rhea.a(SENSOR_1MS.o)
 .text.SENSOR_1MS_GetPriority
                0x00000000       0x20 .\CortexM3\ARM_GCC_541\Debug\Rhea.a(SENSOR_1MS.o)
 .text.SENSOR_1MS_GetState
                0x00000000       0x24 .\CortexM3\ARM_GCC_541\Debug\Rhea.a(SENSOR_1MS.o)
 .text.SENSOR_1MS_SetPending
                0x00000000       0x18 .\CortexM3\ARM_GCC_541\Debug\Rhea.a(SENSOR_1MS.o)
 .text.SENSOR_1MS_ClearPending
                0x00000000       0x18 .\CortexM3\ARM_GCC_541\Debug\Rhea.a(SENSOR_1MS.o)
 .text          0x00000000        0x0 .\CortexM3\ARM_GCC_541\Debug\Rhea.a(UART_IntClock.o)
 .data          0x00000000        0x0 .\CortexM3\ARM_GCC_541\Debug\Rhea.a(UART_IntClock.o)
 .bss           0x00000000        0x0 .\CortexM3\ARM_GCC_541\Debug\Rhea.a(UART_IntClock.o)
 .text.UART_IntClock_Stop
                0x00000000       0x34 .\CortexM3\ARM_GCC_541\Debug\Rhea.a(UART_IntClock.o)
 .text.UART_IntClock_StopBlock
                0x00000000       0xb0 .\CortexM3\ARM_GCC_541\Debug\Rhea.a(UART_IntClock.o)
 .text.UART_IntClock_StandbyPower
                0x00000000       0x40 .\CortexM3\ARM_GCC_541\Debug\Rhea.a(UART_IntClock.o)
 .text.UART_IntClock_SetDividerRegister
                0x00000000      0x164 .\CortexM3\ARM_GCC_541\Debug\Rhea.a(UART_IntClock.o)
 .text.UART_IntClock_GetDividerRegister
                0x00000000       0x18 .\CortexM3\ARM_GCC_541\Debug\Rhea.a(UART_IntClock.o)
 .text.UART_IntClock_SetModeRegister
                0x00000000       0x34 .\CortexM3\ARM_GCC_541\Debug\Rhea.a(UART_IntClock.o)
 .text.UART_IntClock_ClearModeRegister
                0x00000000       0x34 .\CortexM3\ARM_GCC_541\Debug\Rhea.a(UART_IntClock.o)
 .text.UART_IntClock_GetModeRegister
                0x00000000       0x1c .\CortexM3\ARM_GCC_541\Debug\Rhea.a(UART_IntClock.o)
 .text.UART_IntClock_SetSourceRegister
                0x00000000       0xc4 .\CortexM3\ARM_GCC_541\Debug\Rhea.a(UART_IntClock.o)
 .text.UART_IntClock_GetSourceRegister
                0x00000000       0x1c .\CortexM3\ARM_GCC_541\Debug\Rhea.a(UART_IntClock.o)
 .text          0x00000000        0x0 .\CortexM3\ARM_GCC_541\Debug\Rhea.a(CyLib.o)
 .data          0x00000000       0x10 .\CortexM3\ARM_GCC_541\Debug\Rhea.a(CyLib.o)
 .bss           0x00000000       0x19 .\CortexM3\ARM_GCC_541\Debug\Rhea.a(CyLib.o)
 .text.CyPLL_OUT_Start
                0x00000000       0xb0 .\CortexM3\ARM_GCC_541\Debug\Rhea.a(CyLib.o)
 .text.CyPLL_OUT_Stop
                0x00000000       0x20 .\CortexM3\ARM_GCC_541\Debug\Rhea.a(CyLib.o)
 .text.CyPLL_OUT_SetPQ
                0x00000000       0x94 .\CortexM3\ARM_GCC_541\Debug\Rhea.a(CyLib.o)
 .text.CyPLL_OUT_SetSource
                0x00000000       0x58 .\CortexM3\ARM_GCC_541\Debug\Rhea.a(CyLib.o)
 .text.CyIMO_Start
                0x00000000       0x94 .\CortexM3\ARM_GCC_541\Debug\Rhea.a(CyLib.o)
 .text.CyIMO_Stop
                0x00000000       0x34 .\CortexM3\ARM_GCC_541\Debug\Rhea.a(CyLib.o)
 .text.CyUSB_PowerOnCheck
                0x00000000       0x60 .\CortexM3\ARM_GCC_541\Debug\Rhea.a(CyLib.o)
 .text.CyIMO_SetTrimValue
                0x00000000      0x108 .\CortexM3\ARM_GCC_541\Debug\Rhea.a(CyLib.o)
 .text.CyIMO_SetFreq
                0x00000000      0x1b0 .\CortexM3\ARM_GCC_541\Debug\Rhea.a(CyLib.o)
 .text.CyIMO_SetSource
                0x00000000       0x8c .\CortexM3\ARM_GCC_541\Debug\Rhea.a(CyLib.o)
 .text.CyIMO_EnableDoubler
                0x00000000       0x20 .\CortexM3\ARM_GCC_541\Debug\Rhea.a(CyLib.o)
 .text.CyIMO_DisableDoubler
                0x00000000       0x20 .\CortexM3\ARM_GCC_541\Debug\Rhea.a(CyLib.o)
 .text.CyMasterClk_SetSource
                0x00000000       0x34 .\CortexM3\ARM_GCC_541\Debug\Rhea.a(CyLib.o)
 .text.CyMasterClk_SetDivider
                0x00000000       0x20 .\CortexM3\ARM_GCC_541\Debug\Rhea.a(CyLib.o)
 .text.CyBusClk_Internal_SetDivider
                0x00000000       0x78 .\CortexM3\ARM_GCC_541\Debug\Rhea.a(CyLib.o)
 .text.CyBusClk_SetDivider
                0x00000000       0xb4 .\CortexM3\ARM_GCC_541\Debug\Rhea.a(CyLib.o)
 .text.CyUsbClk_SetSource
                0x00000000       0x34 .\CortexM3\ARM_GCC_541\Debug\Rhea.a(CyLib.o)
 .text.CyILO_Start1K
                0x00000000       0x20 .\CortexM3\ARM_GCC_541\Debug\Rhea.a(CyLib.o)
 .text.CyILO_Stop1K
                0x00000000       0x20 .\CortexM3\ARM_GCC_541\Debug\Rhea.a(CyLib.o)
 .text.CyILO_Start100K
                0x00000000       0x20 .\CortexM3\ARM_GCC_541\Debug\Rhea.a(CyLib.o)
 .text.CyILO_Stop100K
                0x00000000       0x20 .\CortexM3\ARM_GCC_541\Debug\Rhea.a(CyLib.o)
 .text.CyILO_Enable33K
                0x00000000       0x20 .\CortexM3\ARM_GCC_541\Debug\Rhea.a(CyLib.o)
 .text.CyILO_Disable33K
                0x00000000       0x20 .\CortexM3\ARM_GCC_541\Debug\Rhea.a(CyLib.o)
 .text.CyILO_SetSource
                0x00000000       0x38 .\CortexM3\ARM_GCC_541\Debug\Rhea.a(CyLib.o)
 .text.CyILO_SetPowerMode
                0x00000000       0x4c .\CortexM3\ARM_GCC_541\Debug\Rhea.a(CyLib.o)
 .text.CyXTAL_32KHZ_Start
                0x00000000       0x88 .\CortexM3\ARM_GCC_541\Debug\Rhea.a(CyLib.o)
 .text.CyXTAL_32KHZ_Stop
                0x00000000       0x50 .\CortexM3\ARM_GCC_541\Debug\Rhea.a(CyLib.o)
 .text.CyXTAL_32KHZ_ReadStatus
                0x00000000       0x1c .\CortexM3\ARM_GCC_541\Debug\Rhea.a(CyLib.o)
 .text.CyXTAL_32KHZ_SetPowerMode
                0x00000000       0xb4 .\CortexM3\ARM_GCC_541\Debug\Rhea.a(CyLib.o)
 .text.CyXTAL_Start
                0x00000000       0xd0 .\CortexM3\ARM_GCC_541\Debug\Rhea.a(CyLib.o)
 .text.CyXTAL_Stop
                0x00000000       0x20 .\CortexM3\ARM_GCC_541\Debug\Rhea.a(CyLib.o)
 .text.CyXTAL_EnableErrStatus
                0x00000000       0x20 .\CortexM3\ARM_GCC_541\Debug\Rhea.a(CyLib.o)
 .text.CyXTAL_DisableErrStatus
                0x00000000       0x20 .\CortexM3\ARM_GCC_541\Debug\Rhea.a(CyLib.o)
 .text.CyXTAL_ReadStatus
                0x00000000       0x24 .\CortexM3\ARM_GCC_541\Debug\Rhea.a(CyLib.o)
 .text.CyXTAL_EnableFaultRecovery
                0x00000000       0x20 .\CortexM3\ARM_GCC_541\Debug\Rhea.a(CyLib.o)
 .text.CyXTAL_DisableFaultRecovery
                0x00000000       0x20 .\CortexM3\ARM_GCC_541\Debug\Rhea.a(CyLib.o)
 .text.CyXTAL_SetStartup
                0x00000000       0x34 .\CortexM3\ARM_GCC_541\Debug\Rhea.a(CyLib.o)
 .text.CyXTAL_SetFbVoltage
                0x00000000       0x34 .\CortexM3\ARM_GCC_541\Debug\Rhea.a(CyLib.o)
 .text.CyXTAL_SetWdVoltage
                0x00000000       0x38 .\CortexM3\ARM_GCC_541\Debug\Rhea.a(CyLib.o)
 .text.CySoftwareReset
                0x00000000       0x20 .\CortexM3\ARM_GCC_541\Debug\Rhea.a(CyLib.o)
 .text.CyDelay  0x00000000       0x44 .\CortexM3\ARM_GCC_541\Debug\Rhea.a(CyLib.o)
 .text.CyDelayUs
                0x00000000       0x28 .\CortexM3\ARM_GCC_541\Debug\Rhea.a(CyLib.o)
 .text.CyDelayFreq
                0x00000000       0x7c .\CortexM3\ARM_GCC_541\Debug\Rhea.a(CyLib.o)
 .text.CyWdtStart
                0x00000000       0x8c .\CortexM3\ARM_GCC_541\Debug\Rhea.a(CyLib.o)
 .text.CyWdtClear
                0x00000000       0x18 .\CortexM3\ARM_GCC_541\Debug\Rhea.a(CyLib.o)
 .text.CyVdLvDigitEnable
                0x00000000       0xcc .\CortexM3\ARM_GCC_541\Debug\Rhea.a(CyLib.o)
 .text.CyVdLvAnalogEnable
                0x00000000       0xcc .\CortexM3\ARM_GCC_541\Debug\Rhea.a(CyLib.o)
 .text.CyVdLvDigitDisable
                0x00000000       0x48 .\CortexM3\ARM_GCC_541\Debug\Rhea.a(CyLib.o)
 .text.CyVdLvAnalogDisable
                0x00000000       0x44 .\CortexM3\ARM_GCC_541\Debug\Rhea.a(CyLib.o)
 .text.CyVdHvAnalogEnable
                0x00000000       0x7c .\CortexM3\ARM_GCC_541\Debug\Rhea.a(CyLib.o)
 .text.CyVdHvAnalogDisable
                0x00000000       0x30 .\CortexM3\ARM_GCC_541\Debug\Rhea.a(CyLib.o)
 .text.CyVdStickyStatus
                0x00000000       0x5c .\CortexM3\ARM_GCC_541\Debug\Rhea.a(CyLib.o)
 .text.CyVdRealTimeStatus
                0x00000000       0x30 .\CortexM3\ARM_GCC_541\Debug\Rhea.a(CyLib.o)
 .text.CyDisableInts
                0x00000000       0x34 .\CortexM3\ARM_GCC_541\Debug\Rhea.a(CyLib.o)
 .text.CyEnableInts
                0x00000000       0x2c .\CortexM3\ARM_GCC_541\Debug\Rhea.a(CyLib.o)
 .text.CyFlushCache
                0x00000000       0x5c .\CortexM3\ARM_GCC_541\Debug\Rhea.a(CyLib.o)
 .text.CyIntSetSysVector
                0x00000000       0x4c .\CortexM3\ARM_GCC_541\Debug\Rhea.a(CyLib.o)
 .text.CyIntGetSysVector
                0x00000000       0x38 .\CortexM3\ARM_GCC_541\Debug\Rhea.a(CyLib.o)
 .text.CyIntGetVector
                0x00000000       0x38 .\CortexM3\ARM_GCC_541\Debug\Rhea.a(CyLib.o)
 .text.CyIntGetPriority
                0x00000000       0x38 .\CortexM3\ARM_GCC_541\Debug\Rhea.a(CyLib.o)
 .text.CyIntGetState
                0x00000000       0x44 .\CortexM3\ARM_GCC_541\Debug\Rhea.a(CyLib.o)
 .text.CySysTickStart
                0x00000000       0x24 .\CortexM3\ARM_GCC_541\Debug\Rhea.a(CyLib.o)
 .text.CySysTickInit
                0x00000000       0x6c .\CortexM3\ARM_GCC_541\Debug\Rhea.a(CyLib.o)
 .text.CySysTickEnable
                0x00000000       0x1c .\CortexM3\ARM_GCC_541\Debug\Rhea.a(CyLib.o)
 .text.CySysTickStop
                0x00000000       0x1c .\CortexM3\ARM_GCC_541\Debug\Rhea.a(CyLib.o)
 .text.CySysTickEnableInterrupt
                0x00000000       0x1c .\CortexM3\ARM_GCC_541\Debug\Rhea.a(CyLib.o)
 .text.CySysTickDisableInterrupt
                0x00000000       0x1c .\CortexM3\ARM_GCC_541\Debug\Rhea.a(CyLib.o)
 .text.CySysTickSetReload
                0x00000000       0x20 .\CortexM3\ARM_GCC_541\Debug\Rhea.a(CyLib.o)
 .text.CySysTickGetReload
                0x00000000       0x18 .\CortexM3\ARM_GCC_541\Debug\Rhea.a(CyLib.o)
 .text.CySysTickGetValue
                0x00000000       0x18 .\CortexM3\ARM_GCC_541\Debug\Rhea.a(CyLib.o)
 .text.CySysTickSetClockSource
                0x00000000       0x38 .\CortexM3\ARM_GCC_541\Debug\Rhea.a(CyLib.o)
 .text.CySysTickGetClockSource
                0x00000000       0x1c .\CortexM3\ARM_GCC_541\Debug\Rhea.a(CyLib.o)
 .text.CySysTickGetCountFlag
                0x00000000       0x1c .\CortexM3\ARM_GCC_541\Debug\Rhea.a(CyLib.o)
 .text.CySysTickClear
                0x00000000       0x18 .\CortexM3\ARM_GCC_541\Debug\Rhea.a(CyLib.o)
 .text.CySysTickSetCallback
                0x00000000       0x30 .\CortexM3\ARM_GCC_541\Debug\Rhea.a(CyLib.o)
 .text.CySysTickGetCallback
                0x00000000       0x20 .\CortexM3\ARM_GCC_541\Debug\Rhea.a(CyLib.o)
 .text.CySysTickServiceCallbacks
                0x00000000       0x44 .\CortexM3\ARM_GCC_541\Debug\Rhea.a(CyLib.o)
 .text.CyGetUniqueId
                0x00000000       0xc4 .\CortexM3\ARM_GCC_541\Debug\Rhea.a(CyLib.o)
 .text          0x00000000        0x0 .\CortexM3\ARM_GCC_541\Debug\Rhea.a(cyPm.o)
 .data          0x00000000        0x0 .\CortexM3\ARM_GCC_541\Debug\Rhea.a(cyPm.o)
 .bss           0x00000000       0x43 .\CortexM3\ARM_GCC_541\Debug\Rhea.a(cyPm.o)
 .rodata        0x00000000        0xf .\CortexM3\ARM_GCC_541\Debug\Rhea.a(cyPm.o)
 .text.CyPmSaveClocks
                0x00000000      0x288 .\CortexM3\ARM_GCC_541\Debug\Rhea.a(cyPm.o)
 .text.CyPmRestoreClocks
                0x00000000      0x2f0 .\CortexM3\ARM_GCC_541\Debug\Rhea.a(cyPm.o)
 .text.CyPmAltAct
                0x00000000       0xbc .\CortexM3\ARM_GCC_541\Debug\Rhea.a(cyPm.o)
 .text.CyPmSleep
                0x00000000      0x170 .\CortexM3\ARM_GCC_541\Debug\Rhea.a(cyPm.o)
 .text.CyPmHibernate
                0x00000000       0x10 .\CortexM3\ARM_GCC_541\Debug\Rhea.a(cyPm.o)
 .text.CyPmHibernateEx
                0x00000000      0x158 .\CortexM3\ARM_GCC_541\Debug\Rhea.a(cyPm.o)
 .text.CyPmReadStatus
                0x00000000       0x5c .\CortexM3\ARM_GCC_541\Debug\Rhea.a(cyPm.o)
 .text.CyPmHibSaveSet
                0x00000000       0xe8 .\CortexM3\ARM_GCC_541\Debug\Rhea.a(cyPm.o)
 .text.CyPmHibRestore
                0x00000000       0x78 .\CortexM3\ARM_GCC_541\Debug\Rhea.a(cyPm.o)
 .text.CyPmCtwSetInterval
                0x00000000       0x94 .\CortexM3\ARM_GCC_541\Debug\Rhea.a(cyPm.o)
 .text.CyPmOppsSet
                0x00000000       0x44 .\CortexM3\ARM_GCC_541\Debug\Rhea.a(cyPm.o)
 .text.CyPmFtwSetInterval
                0x00000000       0x94 .\CortexM3\ARM_GCC_541\Debug\Rhea.a(cyPm.o)
 .text.CyPmHibSlpSaveSet
                0x00000000      0x280 .\CortexM3\ARM_GCC_541\Debug\Rhea.a(cyPm.o)
 .text.CyPmHibSlpRestore
                0x00000000      0x18c .\CortexM3\ARM_GCC_541\Debug\Rhea.a(cyPm.o)
 .text.CyPmHviLviSaveDisable
                0x00000000       0xd8 .\CortexM3\ARM_GCC_541\Debug\Rhea.a(cyPm.o)
 .text.CyPmHviLviRestore
                0x00000000       0x58 .\CortexM3\ARM_GCC_541\Debug\Rhea.a(cyPm.o)
 .text          0x00000000        0x0 .\CortexM3\ARM_GCC_541\Debug\Rhea.a(UART_RX_INTR.o)
 .data          0x00000000        0x0 .\CortexM3\ARM_GCC_541\Debug\Rhea.a(UART_RX_INTR.o)
 .bss           0x00000000        0x0 .\CortexM3\ARM_GCC_541\Debug\Rhea.a(UART_RX_INTR.o)
 .text.UART_RX_INTR_Start
                0x00000000       0x20 .\CortexM3\ARM_GCC_541\Debug\Rhea.a(UART_RX_INTR.o)
 .text.UART_RX_INTR_Stop
                0x00000000       0x18 .\CortexM3\ARM_GCC_541\Debug\Rhea.a(UART_RX_INTR.o)
 .text.UART_RX_INTR_Interrupt
                0x00000000        0xc .\CortexM3\ARM_GCC_541\Debug\Rhea.a(UART_RX_INTR.o)
 .text.UART_RX_INTR_GetVector
                0x00000000       0x20 .\CortexM3\ARM_GCC_541\Debug\Rhea.a(UART_RX_INTR.o)
 .text.UART_RX_INTR_GetPriority
                0x00000000       0x20 .\CortexM3\ARM_GCC_541\Debug\Rhea.a(UART_RX_INTR.o)
 .text.UART_RX_INTR_GetState
                0x00000000       0x24 .\CortexM3\ARM_GCC_541\Debug\Rhea.a(UART_RX_INTR.o)
 .text.UART_RX_INTR_SetPending
                0x00000000       0x18 .\CortexM3\ARM_GCC_541\Debug\Rhea.a(UART_RX_INTR.o)
 .text.UART_RX_INTR_ClearPending
                0x00000000       0x18 .\CortexM3\ARM_GCC_541\Debug\Rhea.a(UART_RX_INTR.o)
 .data          0x00000000        0x0 .\CortexM3\ARM_GCC_541\Debug\Rhea.a(CyBootAsmGnu.o)
 .bss           0x00000000        0x0 .\CortexM3\ARM_GCC_541\Debug\Rhea.a(CyBootAsmGnu.o)
 .text          0x00000000        0x0 .\CortexM3\ARM_GCC_541\Debug\Rhea.a(CyFlash.o)
 .data          0x00000000        0x0 .\CortexM3\ARM_GCC_541\Debug\Rhea.a(CyFlash.o)
 .bss           0x00000000        0x4 .\CortexM3\ARM_GCC_541\Debug\Rhea.a(CyFlash.o)
 .text.CyFlash_Start
                0x00000000       0x8c .\CortexM3\ARM_GCC_541\Debug\Rhea.a(CyFlash.o)
 .text.CyFlash_Stop
                0x00000000       0x48 .\CortexM3\ARM_GCC_541\Debug\Rhea.a(CyFlash.o)
 .text.CyFlash_EraseRow
                0x00000000       0xb0 .\CortexM3\ARM_GCC_541\Debug\Rhea.a(CyFlash.o)
 .text.CySetTempInt
                0x00000000       0x7c .\CortexM3\ARM_GCC_541\Debug\Rhea.a(CyFlash.o)
 .text.CyFlashGetSpcAlgorithm
                0x00000000       0x70 .\CortexM3\ARM_GCC_541\Debug\Rhea.a(CyFlash.o)
 .text.CySetTemp
                0x00000000       0x24 .\CortexM3\ARM_GCC_541\Debug\Rhea.a(CyFlash.o)
 .text.CySetFlashEEBuffer
                0x00000000       0x54 .\CortexM3\ARM_GCC_541\Debug\Rhea.a(CyFlash.o)
 .text.CyWriteRowData
                0x00000000       0x38 .\CortexM3\ARM_GCC_541\Debug\Rhea.a(CyFlash.o)
 .text.CyWriteRowFull
                0x00000000      0x154 .\CortexM3\ARM_GCC_541\Debug\Rhea.a(CyFlash.o)
 .text.CyFlash_SetWaitCycles
                0x00000000       0xbc .\CortexM3\ARM_GCC_541\Debug\Rhea.a(CyFlash.o)
 .text.CyEEPROM_Start
                0x00000000       0x8c .\CortexM3\ARM_GCC_541\Debug\Rhea.a(CyFlash.o)
 .text.CyEEPROM_Stop
                0x00000000       0x48 .\CortexM3\ARM_GCC_541\Debug\Rhea.a(CyFlash.o)
 .text.CyEEPROM_ReadReserve
                0x00000000       0x30 .\CortexM3\ARM_GCC_541\Debug\Rhea.a(CyFlash.o)
 .text.CyEEPROM_ReadRelease
                0x00000000       0x20 .\CortexM3\ARM_GCC_541\Debug\Rhea.a(CyFlash.o)
 COMMON         0x00000000        0x2 .\CortexM3\ARM_GCC_541\Debug\Rhea.a(CyFlash.o)
 .text          0x00000000        0x0 .\CortexM3\ARM_GCC_541\Debug\Rhea.a(CySpc.o)
 .data          0x00000000        0x0 .\CortexM3\ARM_GCC_541\Debug\Rhea.a(CySpc.o)
 .bss           0x00000000        0x8 .\CortexM3\ARM_GCC_541\Debug\Rhea.a(CySpc.o)
 .text.CySpcStart
                0x00000000       0x48 .\CortexM3\ARM_GCC_541\Debug\Rhea.a(CySpc.o)
 .text.CySpcStop
                0x00000000       0x48 .\CortexM3\ARM_GCC_541\Debug\Rhea.a(CySpc.o)
 .text.CySpcReadData
                0x00000000       0x54 .\CortexM3\ARM_GCC_541\Debug\Rhea.a(CySpc.o)
 .text.CySpcLoadMultiByte
                0x00000000       0xd0 .\CortexM3\ARM_GCC_541\Debug\Rhea.a(CySpc.o)
 .text.CySpcLoadRow
                0x00000000       0x88 .\CortexM3\ARM_GCC_541\Debug\Rhea.a(CySpc.o)
 .text.CySpcLoadRowFull
                0x00000000       0xcc .\CortexM3\ARM_GCC_541\Debug\Rhea.a(CySpc.o)
 .text.CySpcWriteRow
                0x00000000       0x98 .\CortexM3\ARM_GCC_541\Debug\Rhea.a(CySpc.o)
 .text.CySpcEraseSector
                0x00000000       0x70 .\CortexM3\ARM_GCC_541\Debug\Rhea.a(CySpc.o)
 .text.CySpcEraseRow
                0x00000000       0x98 .\CortexM3\ARM_GCC_541\Debug\Rhea.a(CySpc.o)
 .text.CySpcGetTemp
                0x00000000       0x64 .\CortexM3\ARM_GCC_541\Debug\Rhea.a(CySpc.o)
 .text.CySpcLock
                0x00000000       0x68 .\CortexM3\ARM_GCC_541\Debug\Rhea.a(CySpc.o)
 .text.CySpcUnlock
                0x00000000       0x50 .\CortexM3\ARM_GCC_541\Debug\Rhea.a(CySpc.o)
 .text.CySpcGetAlgorithm
                0x00000000       0x44 .\CortexM3\ARM_GCC_541\Debug\Rhea.a(CySpc.o)
 .text          0x00000000        0x0 e:/cypress/psoc creator/4.2/psoc creator/import/gnu/arm/5.4.1/bin/../lib/gcc/arm-none-eabi/5.4.1/../../../../arm-none-eabi/lib/armv7-m\libm.a(lib_a-s_floor.o)
 .data          0x00000000        0x0 e:/cypress/psoc creator/4.2/psoc creator/import/gnu/arm/5.4.1/bin/../lib/gcc/arm-none-eabi/5.4.1/../../../../arm-none-eabi/lib/armv7-m\libm.a(lib_a-s_floor.o)
 .bss           0x00000000        0x0 e:/cypress/psoc creator/4.2/psoc creator/import/gnu/arm/5.4.1/bin/../lib/gcc/arm-none-eabi/5.4.1/../../../../arm-none-eabi/lib/armv7-m\libm.a(lib_a-s_floor.o)
 .text.floor    0x00000000      0x110 e:/cypress/psoc creator/4.2/psoc creator/import/gnu/arm/5.4.1/bin/../lib/gcc/arm-none-eabi/5.4.1/../../../../arm-none-eabi/lib/armv7-m\libm.a(lib_a-s_floor.o)
 .text          0x00000000        0x0 e:/cypress/psoc creator/4.2/psoc creator/import/gnu/arm/5.4.1/bin/../lib/gcc/arm-none-eabi/5.4.1/../../../../arm-none-eabi/lib/armv7-m\libm.a(lib_a-w_sqrt.o)
 .data          0x00000000        0x0 e:/cypress/psoc creator/4.2/psoc creator/import/gnu/arm/5.4.1/bin/../lib/gcc/arm-none-eabi/5.4.1/../../../../arm-none-eabi/lib/armv7-m\libm.a(lib_a-w_sqrt.o)
 .bss           0x00000000        0x0 e:/cypress/psoc creator/4.2/psoc creator/import/gnu/arm/5.4.1/bin/../lib/gcc/arm-none-eabi/5.4.1/../../../../arm-none-eabi/lib/armv7-m\libm.a(lib_a-w_sqrt.o)
 .text.sqrt     0x00000000       0xb8 e:/cypress/psoc creator/4.2/psoc creator/import/gnu/arm/5.4.1/bin/../lib/gcc/arm-none-eabi/5.4.1/../../../../arm-none-eabi/lib/armv7-m\libm.a(lib_a-w_sqrt.o)
 .rodata.str1.4
                0x00000000        0x5 e:/cypress/psoc creator/4.2/psoc creator/import/gnu/arm/5.4.1/bin/../lib/gcc/arm-none-eabi/5.4.1/../../../../arm-none-eabi/lib/armv7-m\libm.a(lib_a-w_sqrt.o)
 .text          0x00000000        0x0 e:/cypress/psoc creator/4.2/psoc creator/import/gnu/arm/5.4.1/bin/../lib/gcc/arm-none-eabi/5.4.1/../../../../arm-none-eabi/lib/armv7-m\libm.a(lib_a-e_sqrt.o)
 .data          0x00000000        0x0 e:/cypress/psoc creator/4.2/psoc creator/import/gnu/arm/5.4.1/bin/../lib/gcc/arm-none-eabi/5.4.1/../../../../arm-none-eabi/lib/armv7-m\libm.a(lib_a-e_sqrt.o)
 .bss           0x00000000        0x0 e:/cypress/psoc creator/4.2/psoc creator/import/gnu/arm/5.4.1/bin/../lib/gcc/arm-none-eabi/5.4.1/../../../../arm-none-eabi/lib/armv7-m\libm.a(lib_a-e_sqrt.o)
 .text.__ieee754_sqrt
                0x00000000      0x188 e:/cypress/psoc creator/4.2/psoc creator/import/gnu/arm/5.4.1/bin/../lib/gcc/arm-none-eabi/5.4.1/../../../../arm-none-eabi/lib/armv7-m\libm.a(lib_a-e_sqrt.o)
 .text          0x00000000        0x0 e:/cypress/psoc creator/4.2/psoc creator/import/gnu/arm/5.4.1/bin/../lib/gcc/arm-none-eabi/5.4.1/../../../../arm-none-eabi/lib/armv7-m\libm.a(lib_a-s_lib_ver.o)
 .data          0x00000000        0x0 e:/cypress/psoc creator/4.2/psoc creator/import/gnu/arm/5.4.1/bin/../lib/gcc/arm-none-eabi/5.4.1/../../../../arm-none-eabi/lib/armv7-m\libm.a(lib_a-s_lib_ver.o)
 .bss           0x00000000        0x0 e:/cypress/psoc creator/4.2/psoc creator/import/gnu/arm/5.4.1/bin/../lib/gcc/arm-none-eabi/5.4.1/../../../../arm-none-eabi/lib/armv7-m\libm.a(lib_a-s_lib_ver.o)
 .data.__fdlib_version
                0x00000000        0x1 e:/cypress/psoc creator/4.2/psoc creator/import/gnu/arm/5.4.1/bin/../lib/gcc/arm-none-eabi/5.4.1/../../../../arm-none-eabi/lib/armv7-m\libm.a(lib_a-s_lib_ver.o)
 .text          0x00000000        0x0 e:/cypress/psoc creator/4.2/psoc creator/import/gnu/arm/5.4.1/bin/../lib/gcc/arm-none-eabi/5.4.1/../../../../arm-none-eabi/lib/armv7-m\libm.a(lib_a-s_matherr.o)
 .data          0x00000000        0x0 e:/cypress/psoc creator/4.2/psoc creator/import/gnu/arm/5.4.1/bin/../lib/gcc/arm-none-eabi/5.4.1/../../../../arm-none-eabi/lib/armv7-m\libm.a(lib_a-s_matherr.o)
 .bss           0x00000000        0x0 e:/cypress/psoc creator/4.2/psoc creator/import/gnu/arm/5.4.1/bin/../lib/gcc/arm-none-eabi/5.4.1/../../../../arm-none-eabi/lib/armv7-m\libm.a(lib_a-s_matherr.o)
 .text.matherr  0x00000000        0x4 e:/cypress/psoc creator/4.2/psoc creator/import/gnu/arm/5.4.1/bin/../lib/gcc/arm-none-eabi/5.4.1/../../../../arm-none-eabi/lib/armv7-m\libm.a(lib_a-s_matherr.o)
 .data          0x00000000        0x0 e:/cypress/psoc creator/4.2/psoc creator/import/gnu/arm/5.4.1/bin/../lib/gcc/arm-none-eabi/5.4.1/armv7-m\libgcc.a(_arm_addsubdf3.o)
 .bss           0x00000000        0x0 e:/cypress/psoc creator/4.2/psoc creator/import/gnu/arm/5.4.1/bin/../lib/gcc/arm-none-eabi/5.4.1/armv7-m\libgcc.a(_arm_addsubdf3.o)
 .data          0x00000000        0x0 e:/cypress/psoc creator/4.2/psoc creator/import/gnu/arm/5.4.1/bin/../lib/gcc/arm-none-eabi/5.4.1/armv7-m\libgcc.a(_arm_muldivdf3.o)
 .bss           0x00000000        0x0 e:/cypress/psoc creator/4.2/psoc creator/import/gnu/arm/5.4.1/bin/../lib/gcc/arm-none-eabi/5.4.1/armv7-m\libgcc.a(_arm_muldivdf3.o)
 .data          0x00000000        0x0 e:/cypress/psoc creator/4.2/psoc creator/import/gnu/arm/5.4.1/bin/../lib/gcc/arm-none-eabi/5.4.1/armv7-m\libgcc.a(_arm_cmpdf2.o)
 .bss           0x00000000        0x0 e:/cypress/psoc creator/4.2/psoc creator/import/gnu/arm/5.4.1/bin/../lib/gcc/arm-none-eabi/5.4.1/armv7-m\libgcc.a(_arm_cmpdf2.o)
 .data          0x00000000        0x0 e:/cypress/psoc creator/4.2/psoc creator/import/gnu/arm/5.4.1/bin/../lib/gcc/arm-none-eabi/5.4.1/armv7-m\libgcc.a(_arm_unorddf2.o)
 .bss           0x00000000        0x0 e:/cypress/psoc creator/4.2/psoc creator/import/gnu/arm/5.4.1/bin/../lib/gcc/arm-none-eabi/5.4.1/armv7-m\libgcc.a(_arm_unorddf2.o)
 .data          0x00000000        0x0 e:/cypress/psoc creator/4.2/psoc creator/import/gnu/arm/5.4.1/bin/../lib/gcc/arm-none-eabi/5.4.1/armv7-m\libgcc.a(_arm_fixdfsi.o)
 .bss           0x00000000        0x0 e:/cypress/psoc creator/4.2/psoc creator/import/gnu/arm/5.4.1/bin/../lib/gcc/arm-none-eabi/5.4.1/armv7-m\libgcc.a(_arm_fixdfsi.o)
 .data          0x00000000        0x0 e:/cypress/psoc creator/4.2/psoc creator/import/gnu/arm/5.4.1/bin/../lib/gcc/arm-none-eabi/5.4.1/armv7-m\libgcc.a(_arm_fixunsdfsi.o)
 .bss           0x00000000        0x0 e:/cypress/psoc creator/4.2/psoc creator/import/gnu/arm/5.4.1/bin/../lib/gcc/arm-none-eabi/5.4.1/armv7-m\libgcc.a(_arm_fixunsdfsi.o)
 .text          0x00000000      0x21c e:/cypress/psoc creator/4.2/psoc creator/import/gnu/arm/5.4.1/bin/../lib/gcc/arm-none-eabi/5.4.1/armv7-m\libgcc.a(_arm_addsubsf3.o)
 .data          0x00000000        0x0 e:/cypress/psoc creator/4.2/psoc creator/import/gnu/arm/5.4.1/bin/../lib/gcc/arm-none-eabi/5.4.1/armv7-m\libgcc.a(_arm_addsubsf3.o)
 .bss           0x00000000        0x0 e:/cypress/psoc creator/4.2/psoc creator/import/gnu/arm/5.4.1/bin/../lib/gcc/arm-none-eabi/5.4.1/armv7-m\libgcc.a(_arm_addsubsf3.o)
 .text          0x00000000      0x2a0 e:/cypress/psoc creator/4.2/psoc creator/import/gnu/arm/5.4.1/bin/../lib/gcc/arm-none-eabi/5.4.1/armv7-m\libgcc.a(_arm_muldivsf3.o)
 .data          0x00000000        0x0 e:/cypress/psoc creator/4.2/psoc creator/import/gnu/arm/5.4.1/bin/../lib/gcc/arm-none-eabi/5.4.1/armv7-m\libgcc.a(_arm_muldivsf3.o)
 .bss           0x00000000        0x0 e:/cypress/psoc creator/4.2/psoc creator/import/gnu/arm/5.4.1/bin/../lib/gcc/arm-none-eabi/5.4.1/armv7-m\libgcc.a(_arm_muldivsf3.o)
 .text          0x00000000       0x4c e:/cypress/psoc creator/4.2/psoc creator/import/gnu/arm/5.4.1/bin/../lib/gcc/arm-none-eabi/5.4.1/armv7-m\libgcc.a(_arm_fixsfsi.o)
 .data          0x00000000        0x0 e:/cypress/psoc creator/4.2/psoc creator/import/gnu/arm/5.4.1/bin/../lib/gcc/arm-none-eabi/5.4.1/armv7-m\libgcc.a(_arm_fixsfsi.o)
 .bss           0x00000000        0x0 e:/cypress/psoc creator/4.2/psoc creator/import/gnu/arm/5.4.1/bin/../lib/gcc/arm-none-eabi/5.4.1/armv7-m\libgcc.a(_arm_fixsfsi.o)
 .text          0x00000000       0xa0 e:/cypress/psoc creator/4.2/psoc creator/import/gnu/arm/5.4.1/bin/../lib/gcc/arm-none-eabi/5.4.1/armv7-m\libgcc.a(_aeabi_ldivmod.o)
 .data          0x00000000        0x0 e:/cypress/psoc creator/4.2/psoc creator/import/gnu/arm/5.4.1/bin/../lib/gcc/arm-none-eabi/5.4.1/armv7-m\libgcc.a(_aeabi_ldivmod.o)
 .bss           0x00000000        0x0 e:/cypress/psoc creator/4.2/psoc creator/import/gnu/arm/5.4.1/bin/../lib/gcc/arm-none-eabi/5.4.1/armv7-m\libgcc.a(_aeabi_ldivmod.o)
 .text          0x00000000       0x30 e:/cypress/psoc creator/4.2/psoc creator/import/gnu/arm/5.4.1/bin/../lib/gcc/arm-none-eabi/5.4.1/armv7-m\libgcc.a(_fixdfdi.o)
 .data          0x00000000        0x0 e:/cypress/psoc creator/4.2/psoc creator/import/gnu/arm/5.4.1/bin/../lib/gcc/arm-none-eabi/5.4.1/armv7-m\libgcc.a(_fixdfdi.o)
 .bss           0x00000000        0x0 e:/cypress/psoc creator/4.2/psoc creator/import/gnu/arm/5.4.1/bin/../lib/gcc/arm-none-eabi/5.4.1/armv7-m\libgcc.a(_fixdfdi.o)
 .text          0x00000000       0x48 e:/cypress/psoc creator/4.2/psoc creator/import/gnu/arm/5.4.1/bin/../lib/gcc/arm-none-eabi/5.4.1/armv7-m\libgcc.a(_fixunsdfdi.o)
 .data          0x00000000        0x0 e:/cypress/psoc creator/4.2/psoc creator/import/gnu/arm/5.4.1/bin/../lib/gcc/arm-none-eabi/5.4.1/armv7-m\libgcc.a(_fixunsdfdi.o)
 .bss           0x00000000        0x0 e:/cypress/psoc creator/4.2/psoc creator/import/gnu/arm/5.4.1/bin/../lib/gcc/arm-none-eabi/5.4.1/armv7-m\libgcc.a(_fixunsdfdi.o)
 .text          0x00000000      0x2ec e:/cypress/psoc creator/4.2/psoc creator/import/gnu/arm/5.4.1/bin/../lib/gcc/arm-none-eabi/5.4.1/armv7-m\libgcc.a(_udivmoddi4.o)
 .data          0x00000000        0x0 e:/cypress/psoc creator/4.2/psoc creator/import/gnu/arm/5.4.1/bin/../lib/gcc/arm-none-eabi/5.4.1/armv7-m\libgcc.a(_udivmoddi4.o)
 .bss           0x00000000        0x0 e:/cypress/psoc creator/4.2/psoc creator/import/gnu/arm/5.4.1/bin/../lib/gcc/arm-none-eabi/5.4.1/armv7-m\libgcc.a(_udivmoddi4.o)
 .ARM.extab     0x00000000        0x0 e:/cypress/psoc creator/4.2/psoc creator/import/gnu/arm/5.4.1/bin/../lib/gcc/arm-none-eabi/5.4.1/armv7-m\libgcc.a(_udivmoddi4.o)
 .ARM.exidx     0x00000000        0x8 e:/cypress/psoc creator/4.2/psoc creator/import/gnu/arm/5.4.1/bin/../lib/gcc/arm-none-eabi/5.4.1/armv7-m\libgcc.a(_udivmoddi4.o)
 .text          0x00000000        0x4 e:/cypress/psoc creator/4.2/psoc creator/import/gnu/arm/5.4.1/bin/../lib/gcc/arm-none-eabi/5.4.1/armv7-m\libgcc.a(_dvmd_tls.o)
 .data          0x00000000        0x0 e:/cypress/psoc creator/4.2/psoc creator/import/gnu/arm/5.4.1/bin/../lib/gcc/arm-none-eabi/5.4.1/armv7-m\libgcc.a(_dvmd_tls.o)
 .bss           0x00000000        0x0 e:/cypress/psoc creator/4.2/psoc creator/import/gnu/arm/5.4.1/bin/../lib/gcc/arm-none-eabi/5.4.1/armv7-m\libgcc.a(_dvmd_tls.o)
 .text          0x00000000        0x0 e:/cypress/psoc creator/4.2/psoc creator/import/gnu/arm/5.4.1/bin/../lib/gcc/arm-none-eabi/5.4.1/../../../../arm-none-eabi/lib/armv7-m\libg_nano.a(lib_a-errno.o)
 .data          0x00000000        0x0 e:/cypress/psoc creator/4.2/psoc creator/import/gnu/arm/5.4.1/bin/../lib/gcc/arm-none-eabi/5.4.1/../../../../arm-none-eabi/lib/armv7-m\libg_nano.a(lib_a-errno.o)
 .bss           0x00000000        0x0 e:/cypress/psoc creator/4.2/psoc creator/import/gnu/arm/5.4.1/bin/../lib/gcc/arm-none-eabi/5.4.1/../../../../arm-none-eabi/lib/armv7-m\libg_nano.a(lib_a-errno.o)
 .text          0x00000000        0x0 e:/cypress/psoc creator/4.2/psoc creator/import/gnu/arm/5.4.1/bin/../lib/gcc/arm-none-eabi/5.4.1/../../../../arm-none-eabi/lib/armv7-m\libg_nano.a(lib_a-exit.o)
 .data          0x00000000        0x0 e:/cypress/psoc creator/4.2/psoc creator/import/gnu/arm/5.4.1/bin/../lib/gcc/arm-none-eabi/5.4.1/../../../../arm-none-eabi/lib/armv7-m\libg_nano.a(lib_a-exit.o)
 .bss           0x00000000        0x0 e:/cypress/psoc creator/4.2/psoc creator/import/gnu/arm/5.4.1/bin/../lib/gcc/arm-none-eabi/5.4.1/../../../../arm-none-eabi/lib/armv7-m\libg_nano.a(lib_a-exit.o)
 .text.exit     0x00000000       0x28 e:/cypress/psoc creator/4.2/psoc creator/import/gnu/arm/5.4.1/bin/../lib/gcc/arm-none-eabi/5.4.1/../../../../arm-none-eabi/lib/armv7-m\libg_nano.a(lib_a-exit.o)
 .text          0x00000000        0x0 e:/cypress/psoc creator/4.2/psoc creator/import/gnu/arm/5.4.1/bin/../lib/gcc/arm-none-eabi/5.4.1/../../../../arm-none-eabi/lib/armv7-m\libg_nano.a(lib_a-getopt.o)
 .data          0x00000000        0x0 e:/cypress/psoc creator/4.2/psoc creator/import/gnu/arm/5.4.1/bin/../lib/gcc/arm-none-eabi/5.4.1/../../../../arm-none-eabi/lib/armv7-m\libg_nano.a(lib_a-getopt.o)
 .bss           0x00000000        0x0 e:/cypress/psoc creator/4.2/psoc creator/import/gnu/arm/5.4.1/bin/../lib/gcc/arm-none-eabi/5.4.1/../../../../arm-none-eabi/lib/armv7-m\libg_nano.a(lib_a-getopt.o)
 .text.getopt   0x00000000       0x2a e:/cypress/psoc creator/4.2/psoc creator/import/gnu/arm/5.4.1/bin/../lib/gcc/arm-none-eabi/5.4.1/../../../../arm-none-eabi/lib/armv7-m\libg_nano.a(lib_a-getopt.o)
 .text.getopt_long_only
                0x00000000       0x30 e:/cypress/psoc creator/4.2/psoc creator/import/gnu/arm/5.4.1/bin/../lib/gcc/arm-none-eabi/5.4.1/../../../../arm-none-eabi/lib/armv7-m\libg_nano.a(lib_a-getopt.o)
 .text.__getopt_r
                0x00000000       0x14 e:/cypress/psoc creator/4.2/psoc creator/import/gnu/arm/5.4.1/bin/../lib/gcc/arm-none-eabi/5.4.1/../../../../arm-none-eabi/lib/armv7-m\libg_nano.a(lib_a-getopt.o)
 .text.__getopt_long_r
                0x00000000       0x16 e:/cypress/psoc creator/4.2/psoc creator/import/gnu/arm/5.4.1/bin/../lib/gcc/arm-none-eabi/5.4.1/../../../../arm-none-eabi/lib/armv7-m\libg_nano.a(lib_a-getopt.o)
 .text.__getopt_long_only_r
                0x00000000       0x16 e:/cypress/psoc creator/4.2/psoc creator/import/gnu/arm/5.4.1/bin/../lib/gcc/arm-none-eabi/5.4.1/../../../../arm-none-eabi/lib/armv7-m\libg_nano.a(lib_a-getopt.o)
 .text          0x00000000        0x0 e:/cypress/psoc creator/4.2/psoc creator/import/gnu/arm/5.4.1/bin/../lib/gcc/arm-none-eabi/5.4.1/../../../../arm-none-eabi/lib/armv7-m\libg_nano.a(lib_a-impure.o)
 .data          0x00000000        0x0 e:/cypress/psoc creator/4.2/psoc creator/import/gnu/arm/5.4.1/bin/../lib/gcc/arm-none-eabi/5.4.1/../../../../arm-none-eabi/lib/armv7-m\libg_nano.a(lib_a-impure.o)
 .bss           0x00000000        0x0 e:/cypress/psoc creator/4.2/psoc creator/import/gnu/arm/5.4.1/bin/../lib/gcc/arm-none-eabi/5.4.1/../../../../arm-none-eabi/lib/armv7-m\libg_nano.a(lib_a-impure.o)
 .text          0x00000000        0x0 e:/cypress/psoc creator/4.2/psoc creator/import/gnu/arm/5.4.1/bin/../lib/gcc/arm-none-eabi/5.4.1/../../../../arm-none-eabi/lib/armv7-m\libg_nano.a(lib_a-init.o)
 .data          0x00000000        0x0 e:/cypress/psoc creator/4.2/psoc creator/import/gnu/arm/5.4.1/bin/../lib/gcc/arm-none-eabi/5.4.1/../../../../arm-none-eabi/lib/armv7-m\libg_nano.a(lib_a-init.o)
 .bss           0x00000000        0x0 e:/cypress/psoc creator/4.2/psoc creator/import/gnu/arm/5.4.1/bin/../lib/gcc/arm-none-eabi/5.4.1/../../../../arm-none-eabi/lib/armv7-m\libg_nano.a(lib_a-init.o)
 .text          0x00000000        0x0 e:/cypress/psoc creator/4.2/psoc creator/import/gnu/arm/5.4.1/bin/../lib/gcc/arm-none-eabi/5.4.1/../../../../arm-none-eabi/lib/armv7-m\libg_nano.a(lib_a-memcmp.o)
 .data          0x00000000        0x0 e:/cypress/psoc creator/4.2/psoc creator/import/gnu/arm/5.4.1/bin/../lib/gcc/arm-none-eabi/5.4.1/../../../../arm-none-eabi/lib/armv7-m\libg_nano.a(lib_a-memcmp.o)
 .bss           0x00000000        0x0 e:/cypress/psoc creator/4.2/psoc creator/import/gnu/arm/5.4.1/bin/../lib/gcc/arm-none-eabi/5.4.1/../../../../arm-none-eabi/lib/armv7-m\libg_nano.a(lib_a-memcmp.o)
 .text          0x00000000        0x0 e:/cypress/psoc creator/4.2/psoc creator/import/gnu/arm/5.4.1/bin/../lib/gcc/arm-none-eabi/5.4.1/../../../../arm-none-eabi/lib/armv7-m\libg_nano.a(lib_a-memcpy-stub.o)
 .data          0x00000000        0x0 e:/cypress/psoc creator/4.2/psoc creator/import/gnu/arm/5.4.1/bin/../lib/gcc/arm-none-eabi/5.4.1/../../../../arm-none-eabi/lib/armv7-m\libg_nano.a(lib_a-memcpy-stub.o)
 .bss           0x00000000        0x0 e:/cypress/psoc creator/4.2/psoc creator/import/gnu/arm/5.4.1/bin/../lib/gcc/arm-none-eabi/5.4.1/../../../../arm-none-eabi/lib/armv7-m\libg_nano.a(lib_a-memcpy-stub.o)
 .text          0x00000000        0x0 e:/cypress/psoc creator/4.2/psoc creator/import/gnu/arm/5.4.1/bin/../lib/gcc/arm-none-eabi/5.4.1/../../../../arm-none-eabi/lib/armv7-m\libg_nano.a(lib_a-memset.o)
 .data          0x00000000        0x0 e:/cypress/psoc creator/4.2/psoc creator/import/gnu/arm/5.4.1/bin/../lib/gcc/arm-none-eabi/5.4.1/../../../../arm-none-eabi/lib/armv7-m\libg_nano.a(lib_a-memset.o)
 .bss           0x00000000        0x0 e:/cypress/psoc creator/4.2/psoc creator/import/gnu/arm/5.4.1/bin/../lib/gcc/arm-none-eabi/5.4.1/../../../../arm-none-eabi/lib/armv7-m\libg_nano.a(lib_a-memset.o)
 .text          0x00000000        0x0 e:/cypress/psoc creator/4.2/psoc creator/import/gnu/arm/5.4.1/bin/../lib/gcc/arm-none-eabi/5.4.1/../../../../arm-none-eabi/lib/armv7-m\libg_nano.a(lib_a-nano-vfprintf_float.o)
 .data          0x00000000        0x0 e:/cypress/psoc creator/4.2/psoc creator/import/gnu/arm/5.4.1/bin/../lib/gcc/arm-none-eabi/5.4.1/../../../../arm-none-eabi/lib/armv7-m\libg_nano.a(lib_a-nano-vfprintf_float.o)
 .bss           0x00000000        0x0 e:/cypress/psoc creator/4.2/psoc creator/import/gnu/arm/5.4.1/bin/../lib/gcc/arm-none-eabi/5.4.1/../../../../arm-none-eabi/lib/armv7-m\libg_nano.a(lib_a-nano-vfprintf_float.o)
 .text          0x00000000        0x0 e:/cypress/psoc creator/4.2/psoc creator/import/gnu/arm/5.4.1/bin/../lib/gcc/arm-none-eabi/5.4.1/../../../../arm-none-eabi/lib/armv7-m\libg_nano.a(lib_a-nano-vfprintf_i.o)
 .data          0x00000000        0x0 e:/cypress/psoc creator/4.2/psoc creator/import/gnu/arm/5.4.1/bin/../lib/gcc/arm-none-eabi/5.4.1/../../../../arm-none-eabi/lib/armv7-m\libg_nano.a(lib_a-nano-vfprintf_i.o)
 .bss           0x00000000        0x0 e:/cypress/psoc creator/4.2/psoc creator/import/gnu/arm/5.4.1/bin/../lib/gcc/arm-none-eabi/5.4.1/../../../../arm-none-eabi/lib/armv7-m\libg_nano.a(lib_a-nano-vfprintf_i.o)
 .text          0x00000000        0x0 e:/cypress/psoc creator/4.2/psoc creator/import/gnu/arm/5.4.1/bin/../lib/gcc/arm-none-eabi/5.4.1/../../../../arm-none-eabi/lib/armv7-m\libg_nano.a(lib_a-sprintf.o)
 .data          0x00000000        0x0 e:/cypress/psoc creator/4.2/psoc creator/import/gnu/arm/5.4.1/bin/../lib/gcc/arm-none-eabi/5.4.1/../../../../arm-none-eabi/lib/armv7-m\libg_nano.a(lib_a-sprintf.o)
 .bss           0x00000000        0x0 e:/cypress/psoc creator/4.2/psoc creator/import/gnu/arm/5.4.1/bin/../lib/gcc/arm-none-eabi/5.4.1/../../../../arm-none-eabi/lib/armv7-m\libg_nano.a(lib_a-sprintf.o)
 .text._sprintf_r
                0x00000000       0x40 e:/cypress/psoc creator/4.2/psoc creator/import/gnu/arm/5.4.1/bin/../lib/gcc/arm-none-eabi/5.4.1/../../../../arm-none-eabi/lib/armv7-m\libg_nano.a(lib_a-sprintf.o)
 .text          0x00000000        0x0 e:/cypress/psoc creator/4.2/psoc creator/import/gnu/arm/5.4.1/bin/../lib/gcc/arm-none-eabi/5.4.1/../../../../arm-none-eabi/lib/armv7-m\libg_nano.a(lib_a-sscanf.o)
 .data          0x00000000        0x0 e:/cypress/psoc creator/4.2/psoc creator/import/gnu/arm/5.4.1/bin/../lib/gcc/arm-none-eabi/5.4.1/../../../../arm-none-eabi/lib/armv7-m\libg_nano.a(lib_a-sscanf.o)
 .bss           0x00000000        0x0 e:/cypress/psoc creator/4.2/psoc creator/import/gnu/arm/5.4.1/bin/../lib/gcc/arm-none-eabi/5.4.1/../../../../arm-none-eabi/lib/armv7-m\libg_nano.a(lib_a-sscanf.o)
 .text._sscanf_r
                0x00000000       0x54 e:/cypress/psoc creator/4.2/psoc creator/import/gnu/arm/5.4.1/bin/../lib/gcc/arm-none-eabi/5.4.1/../../../../arm-none-eabi/lib/armv7-m\libg_nano.a(lib_a-sscanf.o)
 .text          0x00000000        0x0 e:/cypress/psoc creator/4.2/psoc creator/import/gnu/arm/5.4.1/bin/../lib/gcc/arm-none-eabi/5.4.1/../../../../arm-none-eabi/lib/armv7-m\libg_nano.a(lib_a-stdio.o)
 .data          0x00000000        0x0 e:/cypress/psoc creator/4.2/psoc creator/import/gnu/arm/5.4.1/bin/../lib/gcc/arm-none-eabi/5.4.1/../../../../arm-none-eabi/lib/armv7-m\libg_nano.a(lib_a-stdio.o)
 .bss           0x00000000        0x0 e:/cypress/psoc creator/4.2/psoc creator/import/gnu/arm/5.4.1/bin/../lib/gcc/arm-none-eabi/5.4.1/../../../../arm-none-eabi/lib/armv7-m\libg_nano.a(lib_a-stdio.o)
 .text          0x00000000        0x0 e:/cypress/psoc creator/4.2/psoc creator/import/gnu/arm/5.4.1/bin/../lib/gcc/arm-none-eabi/5.4.1/../../../../arm-none-eabi/lib/armv7-m\libg_nano.a(lib_a-strcat.o)
 .data          0x00000000        0x0 e:/cypress/psoc creator/4.2/psoc creator/import/gnu/arm/5.4.1/bin/../lib/gcc/arm-none-eabi/5.4.1/../../../../arm-none-eabi/lib/armv7-m\libg_nano.a(lib_a-strcat.o)
 .bss           0x00000000        0x0 e:/cypress/psoc creator/4.2/psoc creator/import/gnu/arm/5.4.1/bin/../lib/gcc/arm-none-eabi/5.4.1/../../../../arm-none-eabi/lib/armv7-m\libg_nano.a(lib_a-strcat.o)
 .text.strcat   0x00000000       0x1e e:/cypress/psoc creator/4.2/psoc creator/import/gnu/arm/5.4.1/bin/../lib/gcc/arm-none-eabi/5.4.1/../../../../arm-none-eabi/lib/armv7-m\libg_nano.a(lib_a-strcat.o)
 .text          0x00000000        0x0 e:/cypress/psoc creator/4.2/psoc creator/import/gnu/arm/5.4.1/bin/../lib/gcc/arm-none-eabi/5.4.1/../../../../arm-none-eabi/lib/armv7-m\libg_nano.a(lib_a-strchr.o)
 .data          0x00000000        0x0 e:/cypress/psoc creator/4.2/psoc creator/import/gnu/arm/5.4.1/bin/../lib/gcc/arm-none-eabi/5.4.1/../../../../arm-none-eabi/lib/armv7-m\libg_nano.a(lib_a-strchr.o)
 .bss           0x00000000        0x0 e:/cypress/psoc creator/4.2/psoc creator/import/gnu/arm/5.4.1/bin/../lib/gcc/arm-none-eabi/5.4.1/../../../../arm-none-eabi/lib/armv7-m\libg_nano.a(lib_a-strchr.o)
 .data          0x00000000        0x0 e:/cypress/psoc creator/4.2/psoc creator/import/gnu/arm/5.4.1/bin/../lib/gcc/arm-none-eabi/5.4.1/../../../../arm-none-eabi/lib/armv7-m\libg_nano.a(lib_a-strcmp.o)
 .bss           0x00000000        0x0 e:/cypress/psoc creator/4.2/psoc creator/import/gnu/arm/5.4.1/bin/../lib/gcc/arm-none-eabi/5.4.1/../../../../arm-none-eabi/lib/armv7-m\libg_nano.a(lib_a-strcmp.o)
 .text          0x00000000        0x0 e:/cypress/psoc creator/4.2/psoc creator/import/gnu/arm/5.4.1/bin/../lib/gcc/arm-none-eabi/5.4.1/../../../../arm-none-eabi/lib/armv7-m\libg_nano.a(lib_a-strcpy.o)
 .data          0x00000000        0x0 e:/cypress/psoc creator/4.2/psoc creator/import/gnu/arm/5.4.1/bin/../lib/gcc/arm-none-eabi/5.4.1/../../../../arm-none-eabi/lib/armv7-m\libg_nano.a(lib_a-strcpy.o)
 .bss           0x00000000        0x0 e:/cypress/psoc creator/4.2/psoc creator/import/gnu/arm/5.4.1/bin/../lib/gcc/arm-none-eabi/5.4.1/../../../../arm-none-eabi/lib/armv7-m\libg_nano.a(lib_a-strcpy.o)
 .text.strcpy   0x00000000       0x10 e:/cypress/psoc creator/4.2/psoc creator/import/gnu/arm/5.4.1/bin/../lib/gcc/arm-none-eabi/5.4.1/../../../../arm-none-eabi/lib/armv7-m\libg_nano.a(lib_a-strcpy.o)
 .data          0x00000000        0x0 e:/cypress/psoc creator/4.2/psoc creator/import/gnu/arm/5.4.1/bin/../lib/gcc/arm-none-eabi/5.4.1/../../../../arm-none-eabi/lib/armv7-m\libg_nano.a(lib_a-strlen.o)
 .bss           0x00000000        0x0 e:/cypress/psoc creator/4.2/psoc creator/import/gnu/arm/5.4.1/bin/../lib/gcc/arm-none-eabi/5.4.1/../../../../arm-none-eabi/lib/armv7-m\libg_nano.a(lib_a-strlen.o)
 .text          0x00000000        0x0 e:/cypress/psoc creator/4.2/psoc creator/import/gnu/arm/5.4.1/bin/../lib/gcc/arm-none-eabi/5.4.1/../../../../arm-none-eabi/lib/armv7-m\libg_nano.a(lib_a-strtok.o)
 .data          0x00000000        0x0 e:/cypress/psoc creator/4.2/psoc creator/import/gnu/arm/5.4.1/bin/../lib/gcc/arm-none-eabi/5.4.1/../../../../arm-none-eabi/lib/armv7-m\libg_nano.a(lib_a-strtok.o)
 .bss           0x00000000        0x0 e:/cypress/psoc creator/4.2/psoc creator/import/gnu/arm/5.4.1/bin/../lib/gcc/arm-none-eabi/5.4.1/../../../../arm-none-eabi/lib/armv7-m\libg_nano.a(lib_a-strtok.o)
 .text          0x00000000        0x0 e:/cypress/psoc creator/4.2/psoc creator/import/gnu/arm/5.4.1/bin/../lib/gcc/arm-none-eabi/5.4.1/../../../../arm-none-eabi/lib/armv7-m\libg_nano.a(lib_a-strtok_r.o)
 .data          0x00000000        0x0 e:/cypress/psoc creator/4.2/psoc creator/import/gnu/arm/5.4.1/bin/../lib/gcc/arm-none-eabi/5.4.1/../../../../arm-none-eabi/lib/armv7-m\libg_nano.a(lib_a-strtok_r.o)
 .bss           0x00000000        0x0 e:/cypress/psoc creator/4.2/psoc creator/import/gnu/arm/5.4.1/bin/../lib/gcc/arm-none-eabi/5.4.1/../../../../arm-none-eabi/lib/armv7-m\libg_nano.a(lib_a-strtok_r.o)
 .text.strtok_r
                0x00000000        0x6 e:/cypress/psoc creator/4.2/psoc creator/import/gnu/arm/5.4.1/bin/../lib/gcc/arm-none-eabi/5.4.1/../../../../arm-none-eabi/lib/armv7-m\libg_nano.a(lib_a-strtok_r.o)
 .text          0x00000000        0x0 e:/cypress/psoc creator/4.2/psoc creator/import/gnu/arm/5.4.1/bin/../lib/gcc/arm-none-eabi/5.4.1/../../../../arm-none-eabi/lib/armv7-m\libg_nano.a(lib_a-strtol.o)
 .data          0x00000000        0x0 e:/cypress/psoc creator/4.2/psoc creator/import/gnu/arm/5.4.1/bin/../lib/gcc/arm-none-eabi/5.4.1/../../../../arm-none-eabi/lib/armv7-m\libg_nano.a(lib_a-strtol.o)
 .bss           0x00000000        0x0 e:/cypress/psoc creator/4.2/psoc creator/import/gnu/arm/5.4.1/bin/../lib/gcc/arm-none-eabi/5.4.1/../../../../arm-none-eabi/lib/armv7-m\libg_nano.a(lib_a-strtol.o)
 .text          0x00000000        0x0 e:/cypress/psoc creator/4.2/psoc creator/import/gnu/arm/5.4.1/bin/../lib/gcc/arm-none-eabi/5.4.1/../../../../arm-none-eabi/lib/armv7-m\libg_nano.a(lib_a-writer.o)
 .data          0x00000000        0x0 e:/cypress/psoc creator/4.2/psoc creator/import/gnu/arm/5.4.1/bin/../lib/gcc/arm-none-eabi/5.4.1/../../../../arm-none-eabi/lib/armv7-m\libg_nano.a(lib_a-writer.o)
 .bss           0x00000000        0x0 e:/cypress/psoc creator/4.2/psoc creator/import/gnu/arm/5.4.1/bin/../lib/gcc/arm-none-eabi/5.4.1/../../../../arm-none-eabi/lib/armv7-m\libg_nano.a(lib_a-writer.o)
 .text          0x00000000        0x0 e:/cypress/psoc creator/4.2/psoc creator/import/gnu/arm/5.4.1/bin/../lib/gcc/arm-none-eabi/5.4.1/../../../../arm-none-eabi/lib/armv7-m\libg_nano.a(lib_a-closer.o)
 .data          0x00000000        0x0 e:/cypress/psoc creator/4.2/psoc creator/import/gnu/arm/5.4.1/bin/../lib/gcc/arm-none-eabi/5.4.1/../../../../arm-none-eabi/lib/armv7-m\libg_nano.a(lib_a-closer.o)
 .bss           0x00000000        0x0 e:/cypress/psoc creator/4.2/psoc creator/import/gnu/arm/5.4.1/bin/../lib/gcc/arm-none-eabi/5.4.1/../../../../arm-none-eabi/lib/armv7-m\libg_nano.a(lib_a-closer.o)
 .text          0x00000000        0x0 e:/cypress/psoc creator/4.2/psoc creator/import/gnu/arm/5.4.1/bin/../lib/gcc/arm-none-eabi/5.4.1/../../../../arm-none-eabi/lib/armv7-m\libg_nano.a(lib_a-ctype_.o)
 .data          0x00000000        0x0 e:/cypress/psoc creator/4.2/psoc creator/import/gnu/arm/5.4.1/bin/../lib/gcc/arm-none-eabi/5.4.1/../../../../arm-none-eabi/lib/armv7-m\libg_nano.a(lib_a-ctype_.o)
 .bss           0x00000000        0x0 e:/cypress/psoc creator/4.2/psoc creator/import/gnu/arm/5.4.1/bin/../lib/gcc/arm-none-eabi/5.4.1/../../../../arm-none-eabi/lib/armv7-m\libg_nano.a(lib_a-ctype_.o)
 .text          0x00000000        0x0 e:/cypress/psoc creator/4.2/psoc creator/import/gnu/arm/5.4.1/bin/../lib/gcc/arm-none-eabi/5.4.1/../../../../arm-none-eabi/lib/armv7-m\libg_nano.a(lib_a-dtoa.o)
 .data          0x00000000        0x0 e:/cypress/psoc creator/4.2/psoc creator/import/gnu/arm/5.4.1/bin/../lib/gcc/arm-none-eabi/5.4.1/../../../../arm-none-eabi/lib/armv7-m\libg_nano.a(lib_a-dtoa.o)
 .bss           0x00000000        0x0 e:/cypress/psoc creator/4.2/psoc creator/import/gnu/arm/5.4.1/bin/../lib/gcc/arm-none-eabi/5.4.1/../../../../arm-none-eabi/lib/armv7-m\libg_nano.a(lib_a-dtoa.o)
 .text          0x00000000        0x0 e:/cypress/psoc creator/4.2/psoc creator/import/gnu/arm/5.4.1/bin/../lib/gcc/arm-none-eabi/5.4.1/../../../../arm-none-eabi/lib/armv7-m\libg_nano.a(lib_a-fputc.o)
 .data          0x00000000        0x0 e:/cypress/psoc creator/4.2/psoc creator/import/gnu/arm/5.4.1/bin/../lib/gcc/arm-none-eabi/5.4.1/../../../../arm-none-eabi/lib/armv7-m\libg_nano.a(lib_a-fputc.o)
 .bss           0x00000000        0x0 e:/cypress/psoc creator/4.2/psoc creator/import/gnu/arm/5.4.1/bin/../lib/gcc/arm-none-eabi/5.4.1/../../../../arm-none-eabi/lib/armv7-m\libg_nano.a(lib_a-fputc.o)
 .text          0x00000000        0x0 e:/cypress/psoc creator/4.2/psoc creator/import/gnu/arm/5.4.1/bin/../lib/gcc/arm-none-eabi/5.4.1/../../../../arm-none-eabi/lib/armv7-m\libg_nano.a(lib_a-fputs.o)
 .data          0x00000000        0x0 e:/cypress/psoc creator/4.2/psoc creator/import/gnu/arm/5.4.1/bin/../lib/gcc/arm-none-eabi/5.4.1/../../../../arm-none-eabi/lib/armv7-m\libg_nano.a(lib_a-fputs.o)
 .bss           0x00000000        0x0 e:/cypress/psoc creator/4.2/psoc creator/import/gnu/arm/5.4.1/bin/../lib/gcc/arm-none-eabi/5.4.1/../../../../arm-none-eabi/lib/armv7-m\libg_nano.a(lib_a-fputs.o)
 .text          0x00000000        0x0 e:/cypress/psoc creator/4.2/psoc creator/import/gnu/arm/5.4.1/bin/../lib/gcc/arm-none-eabi/5.4.1/../../../../arm-none-eabi/lib/armv7-m\libg_nano.a(lib_a-getenv.o)
 .data          0x00000000        0x0 e:/cypress/psoc creator/4.2/psoc creator/import/gnu/arm/5.4.1/bin/../lib/gcc/arm-none-eabi/5.4.1/../../../../arm-none-eabi/lib/armv7-m\libg_nano.a(lib_a-getenv.o)
 .bss           0x00000000        0x0 e:/cypress/psoc creator/4.2/psoc creator/import/gnu/arm/5.4.1/bin/../lib/gcc/arm-none-eabi/5.4.1/../../../../arm-none-eabi/lib/armv7-m\libg_nano.a(lib_a-getenv.o)
 .text._findenv
                0x00000000       0x10 e:/cypress/psoc creator/4.2/psoc creator/import/gnu/arm/5.4.1/bin/../lib/gcc/arm-none-eabi/5.4.1/../../../../arm-none-eabi/lib/armv7-m\libg_nano.a(lib_a-getenv.o)
 .text          0x00000000        0x0 e:/cypress/psoc creator/4.2/psoc creator/import/gnu/arm/5.4.1/bin/../lib/gcc/arm-none-eabi/5.4.1/../../../../arm-none-eabi/lib/armv7-m\libg_nano.a(lib_a-getenv_r.o)
 .data          0x00000000        0x0 e:/cypress/psoc creator/4.2/psoc creator/import/gnu/arm/5.4.1/bin/../lib/gcc/arm-none-eabi/5.4.1/../../../../arm-none-eabi/lib/armv7-m\libg_nano.a(lib_a-getenv_r.o)
 .bss           0x00000000        0x0 e:/cypress/psoc creator/4.2/psoc creator/import/gnu/arm/5.4.1/bin/../lib/gcc/arm-none-eabi/5.4.1/../../../../arm-none-eabi/lib/armv7-m\libg_nano.a(lib_a-getenv_r.o)
 .text._getenv_r
                0x00000000        0xe e:/cypress/psoc creator/4.2/psoc creator/import/gnu/arm/5.4.1/bin/../lib/gcc/arm-none-eabi/5.4.1/../../../../arm-none-eabi/lib/armv7-m\libg_nano.a(lib_a-getenv_r.o)
 .text          0x00000000        0x0 e:/cypress/psoc creator/4.2/psoc creator/import/gnu/arm/5.4.1/bin/../lib/gcc/arm-none-eabi/5.4.1/../../../../arm-none-eabi/lib/armv7-m\libg_nano.a(lib_a-locale.o)
 .data          0x00000000        0x0 e:/cypress/psoc creator/4.2/psoc creator/import/gnu/arm/5.4.1/bin/../lib/gcc/arm-none-eabi/5.4.1/../../../../arm-none-eabi/lib/armv7-m\libg_nano.a(lib_a-locale.o)
 .bss           0x00000000        0x0 e:/cypress/psoc creator/4.2/psoc creator/import/gnu/arm/5.4.1/bin/../lib/gcc/arm-none-eabi/5.4.1/../../../../arm-none-eabi/lib/armv7-m\libg_nano.a(lib_a-locale.o)
 .text._setlocale_r
                0x00000000       0x38 e:/cypress/psoc creator/4.2/psoc creator/import/gnu/arm/5.4.1/bin/../lib/gcc/arm-none-eabi/5.4.1/../../../../arm-none-eabi/lib/armv7-m\libg_nano.a(lib_a-locale.o)
 .text.__locale_charset
                0x00000000        0x8 e:/cypress/psoc creator/4.2/psoc creator/import/gnu/arm/5.4.1/bin/../lib/gcc/arm-none-eabi/5.4.1/../../../../arm-none-eabi/lib/armv7-m\libg_nano.a(lib_a-locale.o)
 .text.__locale_mb_cur_max
                0x00000000        0xc e:/cypress/psoc creator/4.2/psoc creator/import/gnu/arm/5.4.1/bin/../lib/gcc/arm-none-eabi/5.4.1/../../../../arm-none-eabi/lib/armv7-m\libg_nano.a(lib_a-locale.o)
 .text.__locale_msgcharset
                0x00000000        0x8 e:/cypress/psoc creator/4.2/psoc creator/import/gnu/arm/5.4.1/bin/../lib/gcc/arm-none-eabi/5.4.1/../../../../arm-none-eabi/lib/armv7-m\libg_nano.a(lib_a-locale.o)
 .text.__locale_cjk_lang
                0x00000000        0x4 e:/cypress/psoc creator/4.2/psoc creator/import/gnu/arm/5.4.1/bin/../lib/gcc/arm-none-eabi/5.4.1/../../../../arm-none-eabi/lib/armv7-m\libg_nano.a(lib_a-locale.o)
 .text.setlocale
                0x00000000       0x10 e:/cypress/psoc creator/4.2/psoc creator/import/gnu/arm/5.4.1/bin/../lib/gcc/arm-none-eabi/5.4.1/../../../../arm-none-eabi/lib/armv7-m\libg_nano.a(lib_a-locale.o)
 .text.localeconv
                0x00000000        0x8 e:/cypress/psoc creator/4.2/psoc creator/import/gnu/arm/5.4.1/bin/../lib/gcc/arm-none-eabi/5.4.1/../../../../arm-none-eabi/lib/armv7-m\libg_nano.a(lib_a-locale.o)
 .data.lc_message_charset
                0x00000000       0x20 e:/cypress/psoc creator/4.2/psoc creator/import/gnu/arm/5.4.1/bin/../lib/gcc/arm-none-eabi/5.4.1/../../../../arm-none-eabi/lib/armv7-m\libg_nano.a(lib_a-locale.o)
 .bss._PathLocale
                0x00000000        0x4 e:/cypress/psoc creator/4.2/psoc creator/import/gnu/arm/5.4.1/bin/../lib/gcc/arm-none-eabi/5.4.1/../../../../arm-none-eabi/lib/armv7-m\libg_nano.a(lib_a-locale.o)
 .bss.__nlocale_changed
                0x00000000        0x4 e:/cypress/psoc creator/4.2/psoc creator/import/gnu/arm/5.4.1/bin/../lib/gcc/arm-none-eabi/5.4.1/../../../../arm-none-eabi/lib/armv7-m\libg_nano.a(lib_a-locale.o)
 .bss.__mlocale_changed
                0x00000000        0x4 e:/cypress/psoc creator/4.2/psoc creator/import/gnu/arm/5.4.1/bin/../lib/gcc/arm-none-eabi/5.4.1/../../../../arm-none-eabi/lib/armv7-m\libg_nano.a(lib_a-locale.o)
 .data.lc_ctype_charset
                0x00000000       0x20 e:/cypress/psoc creator/4.2/psoc creator/import/gnu/arm/5.4.1/bin/../lib/gcc/arm-none-eabi/5.4.1/../../../../arm-none-eabi/lib/armv7-m\libg_nano.a(lib_a-locale.o)
 .data.__mb_cur_max
                0x00000000        0x4 e:/cypress/psoc creator/4.2/psoc creator/import/gnu/arm/5.4.1/bin/../lib/gcc/arm-none-eabi/5.4.1/../../../../arm-none-eabi/lib/armv7-m\libg_nano.a(lib_a-locale.o)
 .text          0x00000000        0x0 e:/cypress/psoc creator/4.2/psoc creator/import/gnu/arm/5.4.1/bin/../lib/gcc/arm-none-eabi/5.4.1/../../../../arm-none-eabi/lib/armv7-m\libg_nano.a(lib_a-lseekr.o)
 .data          0x00000000        0x0 e:/cypress/psoc creator/4.2/psoc creator/import/gnu/arm/5.4.1/bin/../lib/gcc/arm-none-eabi/5.4.1/../../../../arm-none-eabi/lib/armv7-m\libg_nano.a(lib_a-lseekr.o)
 .bss           0x00000000        0x0 e:/cypress/psoc creator/4.2/psoc creator/import/gnu/arm/5.4.1/bin/../lib/gcc/arm-none-eabi/5.4.1/../../../../arm-none-eabi/lib/armv7-m\libg_nano.a(lib_a-lseekr.o)
 .text          0x00000000        0x0 e:/cypress/psoc creator/4.2/psoc creator/import/gnu/arm/5.4.1/bin/../lib/gcc/arm-none-eabi/5.4.1/../../../../arm-none-eabi/lib/armv7-m\libg_nano.a(lib_a-malloc.o)
 .data          0x00000000        0x0 e:/cypress/psoc creator/4.2/psoc creator/import/gnu/arm/5.4.1/bin/../lib/gcc/arm-none-eabi/5.4.1/../../../../arm-none-eabi/lib/armv7-m\libg_nano.a(lib_a-malloc.o)
 .bss           0x00000000        0x0 e:/cypress/psoc creator/4.2/psoc creator/import/gnu/arm/5.4.1/bin/../lib/gcc/arm-none-eabi/5.4.1/../../../../arm-none-eabi/lib/armv7-m\libg_nano.a(lib_a-malloc.o)
 .text.free     0x00000000       0x10 e:/cypress/psoc creator/4.2/psoc creator/import/gnu/arm/5.4.1/bin/../lib/gcc/arm-none-eabi/5.4.1/../../../../arm-none-eabi/lib/armv7-m\libg_nano.a(lib_a-malloc.o)
 .text          0x00000000        0x0 e:/cypress/psoc creator/4.2/psoc creator/import/gnu/arm/5.4.1/bin/../lib/gcc/arm-none-eabi/5.4.1/../../../../arm-none-eabi/lib/armv7-m\libg_nano.a(lib_a-memchr-stub.o)
 .data          0x00000000        0x0 e:/cypress/psoc creator/4.2/psoc creator/import/gnu/arm/5.4.1/bin/../lib/gcc/arm-none-eabi/5.4.1/../../../../arm-none-eabi/lib/armv7-m\libg_nano.a(lib_a-memchr-stub.o)
 .bss           0x00000000        0x0 e:/cypress/psoc creator/4.2/psoc creator/import/gnu/arm/5.4.1/bin/../lib/gcc/arm-none-eabi/5.4.1/../../../../arm-none-eabi/lib/armv7-m\libg_nano.a(lib_a-memchr-stub.o)
 .text          0x00000000        0x0 e:/cypress/psoc creator/4.2/psoc creator/import/gnu/arm/5.4.1/bin/../lib/gcc/arm-none-eabi/5.4.1/../../../../arm-none-eabi/lib/armv7-m\libg_nano.a(lib_a-mprec.o)
 .data          0x00000000        0x0 e:/cypress/psoc creator/4.2/psoc creator/import/gnu/arm/5.4.1/bin/../lib/gcc/arm-none-eabi/5.4.1/../../../../arm-none-eabi/lib/armv7-m\libg_nano.a(lib_a-mprec.o)
 .bss           0x00000000        0x0 e:/cypress/psoc creator/4.2/psoc creator/import/gnu/arm/5.4.1/bin/../lib/gcc/arm-none-eabi/5.4.1/../../../../arm-none-eabi/lib/armv7-m\libg_nano.a(lib_a-mprec.o)
 .text.__s2b    0x00000000       0x7c e:/cypress/psoc creator/4.2/psoc creator/import/gnu/arm/5.4.1/bin/../lib/gcc/arm-none-eabi/5.4.1/../../../../arm-none-eabi/lib/armv7-m\libg_nano.a(lib_a-mprec.o)
 .text.__ulp    0x00000000       0x48 e:/cypress/psoc creator/4.2/psoc creator/import/gnu/arm/5.4.1/bin/../lib/gcc/arm-none-eabi/5.4.1/../../../../arm-none-eabi/lib/armv7-m\libg_nano.a(lib_a-mprec.o)
 .text.__b2d    0x00000000       0x9a e:/cypress/psoc creator/4.2/psoc creator/import/gnu/arm/5.4.1/bin/../lib/gcc/arm-none-eabi/5.4.1/../../../../arm-none-eabi/lib/armv7-m\libg_nano.a(lib_a-mprec.o)
 .text.__ratio  0x00000000       0x50 e:/cypress/psoc creator/4.2/psoc creator/import/gnu/arm/5.4.1/bin/../lib/gcc/arm-none-eabi/5.4.1/../../../../arm-none-eabi/lib/armv7-m\libg_nano.a(lib_a-mprec.o)
 .text._mprec_log10
                0x00000000       0x34 e:/cypress/psoc creator/4.2/psoc creator/import/gnu/arm/5.4.1/bin/../lib/gcc/arm-none-eabi/5.4.1/../../../../arm-none-eabi/lib/armv7-m\libg_nano.a(lib_a-mprec.o)
 .text.__copybits
                0x00000000       0x34 e:/cypress/psoc creator/4.2/psoc creator/import/gnu/arm/5.4.1/bin/../lib/gcc/arm-none-eabi/5.4.1/../../../../arm-none-eabi/lib/armv7-m\libg_nano.a(lib_a-mprec.o)
 .text.__any_on
                0x00000000       0x44 e:/cypress/psoc creator/4.2/psoc creator/import/gnu/arm/5.4.1/bin/../lib/gcc/arm-none-eabi/5.4.1/../../../../arm-none-eabi/lib/armv7-m\libg_nano.a(lib_a-mprec.o)
 .rodata.__mprec_tinytens
                0x00000000       0x28 e:/cypress/psoc creator/4.2/psoc creator/import/gnu/arm/5.4.1/bin/../lib/gcc/arm-none-eabi/5.4.1/../../../../arm-none-eabi/lib/armv7-m\libg_nano.a(lib_a-mprec.o)
 .text          0x00000000        0x0 e:/cypress/psoc creator/4.2/psoc creator/import/gnu/arm/5.4.1/bin/../lib/gcc/arm-none-eabi/5.4.1/../../../../arm-none-eabi/lib/armv7-m\libg_nano.a(lib_a-nano-callocr.o)
 .data          0x00000000        0x0 e:/cypress/psoc creator/4.2/psoc creator/import/gnu/arm/5.4.1/bin/../lib/gcc/arm-none-eabi/5.4.1/../../../../arm-none-eabi/lib/armv7-m\libg_nano.a(lib_a-nano-callocr.o)
 .bss           0x00000000        0x0 e:/cypress/psoc creator/4.2/psoc creator/import/gnu/arm/5.4.1/bin/../lib/gcc/arm-none-eabi/5.4.1/../../../../arm-none-eabi/lib/armv7-m\libg_nano.a(lib_a-nano-callocr.o)
 .text          0x00000000        0x0 e:/cypress/psoc creator/4.2/psoc creator/import/gnu/arm/5.4.1/bin/../lib/gcc/arm-none-eabi/5.4.1/../../../../arm-none-eabi/lib/armv7-m\libg_nano.a(lib_a-nano-freer.o)
 .data          0x00000000        0x0 e:/cypress/psoc creator/4.2/psoc creator/import/gnu/arm/5.4.1/bin/../lib/gcc/arm-none-eabi/5.4.1/../../../../arm-none-eabi/lib/armv7-m\libg_nano.a(lib_a-nano-freer.o)
 .bss           0x00000000        0x0 e:/cypress/psoc creator/4.2/psoc creator/import/gnu/arm/5.4.1/bin/../lib/gcc/arm-none-eabi/5.4.1/../../../../arm-none-eabi/lib/armv7-m\libg_nano.a(lib_a-nano-freer.o)
 .text          0x00000000        0x0 e:/cypress/psoc creator/4.2/psoc creator/import/gnu/arm/5.4.1/bin/../lib/gcc/arm-none-eabi/5.4.1/../../../../arm-none-eabi/lib/armv7-m\libg_nano.a(lib_a-nano-mallocr.o)
 .data          0x00000000        0x0 e:/cypress/psoc creator/4.2/psoc creator/import/gnu/arm/5.4.1/bin/../lib/gcc/arm-none-eabi/5.4.1/../../../../arm-none-eabi/lib/armv7-m\libg_nano.a(lib_a-nano-mallocr.o)
 .bss           0x00000000        0x0 e:/cypress/psoc creator/4.2/psoc creator/import/gnu/arm/5.4.1/bin/../lib/gcc/arm-none-eabi/5.4.1/../../../../arm-none-eabi/lib/armv7-m\libg_nano.a(lib_a-nano-mallocr.o)
 .text          0x00000000        0x0 e:/cypress/psoc creator/4.2/psoc creator/import/gnu/arm/5.4.1/bin/../lib/gcc/arm-none-eabi/5.4.1/../../../../arm-none-eabi/lib/armv7-m\libg_nano.a(lib_a-nano-svfprintf.o)
 .data          0x00000000        0x0 e:/cypress/psoc creator/4.2/psoc creator/import/gnu/arm/5.4.1/bin/../lib/gcc/arm-none-eabi/5.4.1/../../../../arm-none-eabi/lib/armv7-m\libg_nano.a(lib_a-nano-svfprintf.o)
 .bss           0x00000000        0x0 e:/cypress/psoc creator/4.2/psoc creator/import/gnu/arm/5.4.1/bin/../lib/gcc/arm-none-eabi/5.4.1/../../../../arm-none-eabi/lib/armv7-m\libg_nano.a(lib_a-nano-svfprintf.o)
 .text.__ssprint_r
                0x00000000       0xfe e:/cypress/psoc creator/4.2/psoc creator/import/gnu/arm/5.4.1/bin/../lib/gcc/arm-none-eabi/5.4.1/../../../../arm-none-eabi/lib/armv7-m\libg_nano.a(lib_a-nano-svfprintf.o)
 .text          0x00000000        0x0 e:/cypress/psoc creator/4.2/psoc creator/import/gnu/arm/5.4.1/bin/../lib/gcc/arm-none-eabi/5.4.1/../../../../arm-none-eabi/lib/armv7-m\libg_nano.a(lib_a-nano-svfscanf.o)
 .data          0x00000000        0x0 e:/cypress/psoc creator/4.2/psoc creator/import/gnu/arm/5.4.1/bin/../lib/gcc/arm-none-eabi/5.4.1/../../../../arm-none-eabi/lib/armv7-m\libg_nano.a(lib_a-nano-svfscanf.o)
 .bss           0x00000000        0x0 e:/cypress/psoc creator/4.2/psoc creator/import/gnu/arm/5.4.1/bin/../lib/gcc/arm-none-eabi/5.4.1/../../../../arm-none-eabi/lib/armv7-m\libg_nano.a(lib_a-nano-svfscanf.o)
 .text          0x00000000        0x0 e:/cypress/psoc creator/4.2/psoc creator/import/gnu/arm/5.4.1/bin/../lib/gcc/arm-none-eabi/5.4.1/../../../../arm-none-eabi/lib/armv7-m\libg_nano.a(lib_a-nano-vfscanf_i.o)
 .data          0x00000000        0x0 e:/cypress/psoc creator/4.2/psoc creator/import/gnu/arm/5.4.1/bin/../lib/gcc/arm-none-eabi/5.4.1/../../../../arm-none-eabi/lib/armv7-m\libg_nano.a(lib_a-nano-vfscanf_i.o)
 .bss           0x00000000        0x0 e:/cypress/psoc creator/4.2/psoc creator/import/gnu/arm/5.4.1/bin/../lib/gcc/arm-none-eabi/5.4.1/../../../../arm-none-eabi/lib/armv7-m\libg_nano.a(lib_a-nano-vfscanf_i.o)
 .text          0x00000000        0x0 e:/cypress/psoc creator/4.2/psoc creator/import/gnu/arm/5.4.1/bin/../lib/gcc/arm-none-eabi/5.4.1/../../../../arm-none-eabi/lib/armv7-m\libg_nano.a(lib_a-putc.o)
 .data          0x00000000        0x0 e:/cypress/psoc creator/4.2/psoc creator/import/gnu/arm/5.4.1/bin/../lib/gcc/arm-none-eabi/5.4.1/../../../../arm-none-eabi/lib/armv7-m\libg_nano.a(lib_a-putc.o)
 .bss           0x00000000        0x0 e:/cypress/psoc creator/4.2/psoc creator/import/gnu/arm/5.4.1/bin/../lib/gcc/arm-none-eabi/5.4.1/../../../../arm-none-eabi/lib/armv7-m\libg_nano.a(lib_a-putc.o)
 .text.putc     0x00000000       0x10 e:/cypress/psoc creator/4.2/psoc creator/import/gnu/arm/5.4.1/bin/../lib/gcc/arm-none-eabi/5.4.1/../../../../arm-none-eabi/lib/armv7-m\libg_nano.a(lib_a-putc.o)
 .text          0x00000000        0x0 e:/cypress/psoc creator/4.2/psoc creator/import/gnu/arm/5.4.1/bin/../lib/gcc/arm-none-eabi/5.4.1/../../../../arm-none-eabi/lib/armv7-m\libg_nano.a(lib_a-readr.o)
 .data          0x00000000        0x0 e:/cypress/psoc creator/4.2/psoc creator/import/gnu/arm/5.4.1/bin/../lib/gcc/arm-none-eabi/5.4.1/../../../../arm-none-eabi/lib/armv7-m\libg_nano.a(lib_a-readr.o)
 .bss           0x00000000        0x0 e:/cypress/psoc creator/4.2/psoc creator/import/gnu/arm/5.4.1/bin/../lib/gcc/arm-none-eabi/5.4.1/../../../../arm-none-eabi/lib/armv7-m\libg_nano.a(lib_a-readr.o)
 .text          0x00000000        0x0 e:/cypress/psoc creator/4.2/psoc creator/import/gnu/arm/5.4.1/bin/../lib/gcc/arm-none-eabi/5.4.1/../../../../arm-none-eabi/lib/armv7-m\libg_nano.a(lib_a-reent.o)
 .data          0x00000000        0x0 e:/cypress/psoc creator/4.2/psoc creator/import/gnu/arm/5.4.1/bin/../lib/gcc/arm-none-eabi/5.4.1/../../../../arm-none-eabi/lib/armv7-m\libg_nano.a(lib_a-reent.o)
 .bss           0x00000000        0x0 e:/cypress/psoc creator/4.2/psoc creator/import/gnu/arm/5.4.1/bin/../lib/gcc/arm-none-eabi/5.4.1/../../../../arm-none-eabi/lib/armv7-m\libg_nano.a(lib_a-reent.o)
 .text.cleanup_glue
                0x00000000       0x1a e:/cypress/psoc creator/4.2/psoc creator/import/gnu/arm/5.4.1/bin/../lib/gcc/arm-none-eabi/5.4.1/../../../../arm-none-eabi/lib/armv7-m\libg_nano.a(lib_a-reent.o)
 .text._reclaim_reent
                0x00000000       0xb4 e:/cypress/psoc creator/4.2/psoc creator/import/gnu/arm/5.4.1/bin/../lib/gcc/arm-none-eabi/5.4.1/../../../../arm-none-eabi/lib/armv7-m\libg_nano.a(lib_a-reent.o)
 .text          0x00000000        0x0 e:/cypress/psoc creator/4.2/psoc creator/import/gnu/arm/5.4.1/bin/../lib/gcc/arm-none-eabi/5.4.1/../../../../arm-none-eabi/lib/armv7-m\libg_nano.a(lib_a-sbrkr.o)
 .data          0x00000000        0x0 e:/cypress/psoc creator/4.2/psoc creator/import/gnu/arm/5.4.1/bin/../lib/gcc/arm-none-eabi/5.4.1/../../../../arm-none-eabi/lib/armv7-m\libg_nano.a(lib_a-sbrkr.o)
 .bss           0x00000000        0x0 e:/cypress/psoc creator/4.2/psoc creator/import/gnu/arm/5.4.1/bin/../lib/gcc/arm-none-eabi/5.4.1/../../../../arm-none-eabi/lib/armv7-m\libg_nano.a(lib_a-sbrkr.o)
 .text          0x00000000        0x0 e:/cypress/psoc creator/4.2/psoc creator/import/gnu/arm/5.4.1/bin/../lib/gcc/arm-none-eabi/5.4.1/../../../../arm-none-eabi/lib/armv7-m\libg_nano.a(lib_a-sccl.o)
 .data          0x00000000        0x0 e:/cypress/psoc creator/4.2/psoc creator/import/gnu/arm/5.4.1/bin/../lib/gcc/arm-none-eabi/5.4.1/../../../../arm-none-eabi/lib/armv7-m\libg_nano.a(lib_a-sccl.o)
 .bss           0x00000000        0x0 e:/cypress/psoc creator/4.2/psoc creator/import/gnu/arm/5.4.1/bin/../lib/gcc/arm-none-eabi/5.4.1/../../../../arm-none-eabi/lib/armv7-m\libg_nano.a(lib_a-sccl.o)
 .text          0x00000000        0x0 e:/cypress/psoc creator/4.2/psoc creator/import/gnu/arm/5.4.1/bin/../lib/gcc/arm-none-eabi/5.4.1/../../../../arm-none-eabi/lib/armv7-m\libg_nano.a(lib_a-strncmp.o)
 .data          0x00000000        0x0 e:/cypress/psoc creator/4.2/psoc creator/import/gnu/arm/5.4.1/bin/../lib/gcc/arm-none-eabi/5.4.1/../../../../arm-none-eabi/lib/armv7-m\libg_nano.a(lib_a-strncmp.o)
 .bss           0x00000000        0x0 e:/cypress/psoc creator/4.2/psoc creator/import/gnu/arm/5.4.1/bin/../lib/gcc/arm-none-eabi/5.4.1/../../../../arm-none-eabi/lib/armv7-m\libg_nano.a(lib_a-strncmp.o)
 .text          0x00000000        0x0 e:/cypress/psoc creator/4.2/psoc creator/import/gnu/arm/5.4.1/bin/../lib/gcc/arm-none-eabi/5.4.1/../../../../arm-none-eabi/lib/armv7-m\libg_nano.a(lib_a-strtoul.o)
 .data          0x00000000        0x0 e:/cypress/psoc creator/4.2/psoc creator/import/gnu/arm/5.4.1/bin/../lib/gcc/arm-none-eabi/5.4.1/../../../../arm-none-eabi/lib/armv7-m\libg_nano.a(lib_a-strtoul.o)
 .bss           0x00000000        0x0 e:/cypress/psoc creator/4.2/psoc creator/import/gnu/arm/5.4.1/bin/../lib/gcc/arm-none-eabi/5.4.1/../../../../arm-none-eabi/lib/armv7-m\libg_nano.a(lib_a-strtoul.o)
 .text.strtoul  0x00000000       0x14 e:/cypress/psoc creator/4.2/psoc creator/import/gnu/arm/5.4.1/bin/../lib/gcc/arm-none-eabi/5.4.1/../../../../arm-none-eabi/lib/armv7-m\libg_nano.a(lib_a-strtoul.o)
 .text          0x00000000        0x0 e:/cypress/psoc creator/4.2/psoc creator/import/gnu/arm/5.4.1/bin/../lib/gcc/arm-none-eabi/5.4.1/../../../../arm-none-eabi/lib/armv7-m\libg_nano.a(lib_a-ungetc.o)
 .data          0x00000000        0x0 e:/cypress/psoc creator/4.2/psoc creator/import/gnu/arm/5.4.1/bin/../lib/gcc/arm-none-eabi/5.4.1/../../../../arm-none-eabi/lib/armv7-m\libg_nano.a(lib_a-ungetc.o)
 .bss           0x00000000        0x0 e:/cypress/psoc creator/4.2/psoc creator/import/gnu/arm/5.4.1/bin/../lib/gcc/arm-none-eabi/5.4.1/../../../../arm-none-eabi/lib/armv7-m\libg_nano.a(lib_a-ungetc.o)
 .text._ungetc_r
                0x00000000       0xe4 e:/cypress/psoc creator/4.2/psoc creator/import/gnu/arm/5.4.1/bin/../lib/gcc/arm-none-eabi/5.4.1/../../../../arm-none-eabi/lib/armv7-m\libg_nano.a(lib_a-ungetc.o)
 .text.ungetc   0x00000000       0x10 e:/cypress/psoc creator/4.2/psoc creator/import/gnu/arm/5.4.1/bin/../lib/gcc/arm-none-eabi/5.4.1/../../../../arm-none-eabi/lib/armv7-m\libg_nano.a(lib_a-ungetc.o)
 .text          0x00000000        0x0 e:/cypress/psoc creator/4.2/psoc creator/import/gnu/arm/5.4.1/bin/../lib/gcc/arm-none-eabi/5.4.1/../../../../arm-none-eabi/lib/armv7-m\libg_nano.a(lib_a-wbuf.o)
 .data          0x00000000        0x0 e:/cypress/psoc creator/4.2/psoc creator/import/gnu/arm/5.4.1/bin/../lib/gcc/arm-none-eabi/5.4.1/../../../../arm-none-eabi/lib/armv7-m\libg_nano.a(lib_a-wbuf.o)
 .bss           0x00000000        0x0 e:/cypress/psoc creator/4.2/psoc creator/import/gnu/arm/5.4.1/bin/../lib/gcc/arm-none-eabi/5.4.1/../../../../arm-none-eabi/lib/armv7-m\libg_nano.a(lib_a-wbuf.o)
 .text.__swbuf  0x00000000       0x10 e:/cypress/psoc creator/4.2/psoc creator/import/gnu/arm/5.4.1/bin/../lib/gcc/arm-none-eabi/5.4.1/../../../../arm-none-eabi/lib/armv7-m\libg_nano.a(lib_a-wbuf.o)
 .text          0x00000000        0x0 e:/cypress/psoc creator/4.2/psoc creator/import/gnu/arm/5.4.1/bin/../lib/gcc/arm-none-eabi/5.4.1/../../../../arm-none-eabi/lib/armv7-m\libg_nano.a(lib_a-wsetup.o)
 .data          0x00000000        0x0 e:/cypress/psoc creator/4.2/psoc creator/import/gnu/arm/5.4.1/bin/../lib/gcc/arm-none-eabi/5.4.1/../../../../arm-none-eabi/lib/armv7-m\libg_nano.a(lib_a-wsetup.o)
 .bss           0x00000000        0x0 e:/cypress/psoc creator/4.2/psoc creator/import/gnu/arm/5.4.1/bin/../lib/gcc/arm-none-eabi/5.4.1/../../../../arm-none-eabi/lib/armv7-m\libg_nano.a(lib_a-wsetup.o)
 .text          0x00000000        0x0 e:/cypress/psoc creator/4.2/psoc creator/import/gnu/arm/5.4.1/bin/../lib/gcc/arm-none-eabi/5.4.1/../../../../arm-none-eabi/lib/armv7-m\libg_nano.a(lib_a-environ.o)
 .data          0x00000000        0x0 e:/cypress/psoc creator/4.2/psoc creator/import/gnu/arm/5.4.1/bin/../lib/gcc/arm-none-eabi/5.4.1/../../../../arm-none-eabi/lib/armv7-m\libg_nano.a(lib_a-environ.o)
 .bss           0x00000000        0x0 e:/cypress/psoc creator/4.2/psoc creator/import/gnu/arm/5.4.1/bin/../lib/gcc/arm-none-eabi/5.4.1/../../../../arm-none-eabi/lib/armv7-m\libg_nano.a(lib_a-environ.o)
 .text          0x00000000        0x0 e:/cypress/psoc creator/4.2/psoc creator/import/gnu/arm/5.4.1/bin/../lib/gcc/arm-none-eabi/5.4.1/../../../../arm-none-eabi/lib/armv7-m\libg_nano.a(lib_a-envlock.o)
 .data          0x00000000        0x0 e:/cypress/psoc creator/4.2/psoc creator/import/gnu/arm/5.4.1/bin/../lib/gcc/arm-none-eabi/5.4.1/../../../../arm-none-eabi/lib/armv7-m\libg_nano.a(lib_a-envlock.o)
 .bss           0x00000000        0x0 e:/cypress/psoc creator/4.2/psoc creator/import/gnu/arm/5.4.1/bin/../lib/gcc/arm-none-eabi/5.4.1/../../../../arm-none-eabi/lib/armv7-m\libg_nano.a(lib_a-envlock.o)
 .text          0x00000000        0x0 e:/cypress/psoc creator/4.2/psoc creator/import/gnu/arm/5.4.1/bin/../lib/gcc/arm-none-eabi/5.4.1/../../../../arm-none-eabi/lib/armv7-m\libg_nano.a(lib_a-fflush.o)
 .data          0x00000000        0x0 e:/cypress/psoc creator/4.2/psoc creator/import/gnu/arm/5.4.1/bin/../lib/gcc/arm-none-eabi/5.4.1/../../../../arm-none-eabi/lib/armv7-m\libg_nano.a(lib_a-fflush.o)
 .bss           0x00000000        0x0 e:/cypress/psoc creator/4.2/psoc creator/import/gnu/arm/5.4.1/bin/../lib/gcc/arm-none-eabi/5.4.1/../../../../arm-none-eabi/lib/armv7-m\libg_nano.a(lib_a-fflush.o)
 .text.fflush   0x00000000       0x24 e:/cypress/psoc creator/4.2/psoc creator/import/gnu/arm/5.4.1/bin/../lib/gcc/arm-none-eabi/5.4.1/../../../../arm-none-eabi/lib/armv7-m\libg_nano.a(lib_a-fflush.o)
 .text          0x00000000        0x0 e:/cypress/psoc creator/4.2/psoc creator/import/gnu/arm/5.4.1/bin/../lib/gcc/arm-none-eabi/5.4.1/../../../../arm-none-eabi/lib/armv7-m\libg_nano.a(lib_a-findfp.o)
 .data          0x00000000        0x0 e:/cypress/psoc creator/4.2/psoc creator/import/gnu/arm/5.4.1/bin/../lib/gcc/arm-none-eabi/5.4.1/../../../../arm-none-eabi/lib/armv7-m\libg_nano.a(lib_a-findfp.o)
 .bss           0x00000000        0x0 e:/cypress/psoc creator/4.2/psoc creator/import/gnu/arm/5.4.1/bin/../lib/gcc/arm-none-eabi/5.4.1/../../../../arm-none-eabi/lib/armv7-m\libg_nano.a(lib_a-findfp.o)
 .text.__fp_unlock
                0x00000000        0x4 e:/cypress/psoc creator/4.2/psoc creator/import/gnu/arm/5.4.1/bin/../lib/gcc/arm-none-eabi/5.4.1/../../../../arm-none-eabi/lib/armv7-m\libg_nano.a(lib_a-findfp.o)
 .text.__fp_lock
                0x00000000        0x4 e:/cypress/psoc creator/4.2/psoc creator/import/gnu/arm/5.4.1/bin/../lib/gcc/arm-none-eabi/5.4.1/../../../../arm-none-eabi/lib/armv7-m\libg_nano.a(lib_a-findfp.o)
 .text._cleanup
                0x00000000        0xc e:/cypress/psoc creator/4.2/psoc creator/import/gnu/arm/5.4.1/bin/../lib/gcc/arm-none-eabi/5.4.1/../../../../arm-none-eabi/lib/armv7-m\libg_nano.a(lib_a-findfp.o)
 .text.__sfp_lock_acquire
                0x00000000        0x2 e:/cypress/psoc creator/4.2/psoc creator/import/gnu/arm/5.4.1/bin/../lib/gcc/arm-none-eabi/5.4.1/../../../../arm-none-eabi/lib/armv7-m\libg_nano.a(lib_a-findfp.o)
 .text.__sfp_lock_release
                0x00000000        0x2 e:/cypress/psoc creator/4.2/psoc creator/import/gnu/arm/5.4.1/bin/../lib/gcc/arm-none-eabi/5.4.1/../../../../arm-none-eabi/lib/armv7-m\libg_nano.a(lib_a-findfp.o)
 .text.__sinit_lock_acquire
                0x00000000        0x2 e:/cypress/psoc creator/4.2/psoc creator/import/gnu/arm/5.4.1/bin/../lib/gcc/arm-none-eabi/5.4.1/../../../../arm-none-eabi/lib/armv7-m\libg_nano.a(lib_a-findfp.o)
 .text.__sinit_lock_release
                0x00000000        0x2 e:/cypress/psoc creator/4.2/psoc creator/import/gnu/arm/5.4.1/bin/../lib/gcc/arm-none-eabi/5.4.1/../../../../arm-none-eabi/lib/armv7-m\libg_nano.a(lib_a-findfp.o)
 .text.__fp_lock_all
                0x00000000       0x14 e:/cypress/psoc creator/4.2/psoc creator/import/gnu/arm/5.4.1/bin/../lib/gcc/arm-none-eabi/5.4.1/../../../../arm-none-eabi/lib/armv7-m\libg_nano.a(lib_a-findfp.o)
 .text.__fp_unlock_all
                0x00000000       0x14 e:/cypress/psoc creator/4.2/psoc creator/import/gnu/arm/5.4.1/bin/../lib/gcc/arm-none-eabi/5.4.1/../../../../arm-none-eabi/lib/armv7-m\libg_nano.a(lib_a-findfp.o)
 .text          0x00000000        0x0 e:/cypress/psoc creator/4.2/psoc creator/import/gnu/arm/5.4.1/bin/../lib/gcc/arm-none-eabi/5.4.1/../../../../arm-none-eabi/lib/armv7-m\libg_nano.a(lib_a-fwalk.o)
 .data          0x00000000        0x0 e:/cypress/psoc creator/4.2/psoc creator/import/gnu/arm/5.4.1/bin/../lib/gcc/arm-none-eabi/5.4.1/../../../../arm-none-eabi/lib/armv7-m\libg_nano.a(lib_a-fwalk.o)
 .bss           0x00000000        0x0 e:/cypress/psoc creator/4.2/psoc creator/import/gnu/arm/5.4.1/bin/../lib/gcc/arm-none-eabi/5.4.1/../../../../arm-none-eabi/lib/armv7-m\libg_nano.a(lib_a-fwalk.o)
 .text._fwalk   0x00000000       0x38 e:/cypress/psoc creator/4.2/psoc creator/import/gnu/arm/5.4.1/bin/../lib/gcc/arm-none-eabi/5.4.1/../../../../arm-none-eabi/lib/armv7-m\libg_nano.a(lib_a-fwalk.o)
 .text          0x00000000        0x0 e:/cypress/psoc creator/4.2/psoc creator/import/gnu/arm/5.4.1/bin/../lib/gcc/arm-none-eabi/5.4.1/../../../../arm-none-eabi/lib/armv7-m\libg_nano.a(lib_a-makebuf.o)
 .data          0x00000000        0x0 e:/cypress/psoc creator/4.2/psoc creator/import/gnu/arm/5.4.1/bin/../lib/gcc/arm-none-eabi/5.4.1/../../../../arm-none-eabi/lib/armv7-m\libg_nano.a(lib_a-makebuf.o)
 .bss           0x00000000        0x0 e:/cypress/psoc creator/4.2/psoc creator/import/gnu/arm/5.4.1/bin/../lib/gcc/arm-none-eabi/5.4.1/../../../../arm-none-eabi/lib/armv7-m\libg_nano.a(lib_a-makebuf.o)
 .text          0x00000000        0x0 e:/cypress/psoc creator/4.2/psoc creator/import/gnu/arm/5.4.1/bin/../lib/gcc/arm-none-eabi/5.4.1/../../../../arm-none-eabi/lib/armv7-m\libg_nano.a(lib_a-memmove.o)
 .data          0x00000000        0x0 e:/cypress/psoc creator/4.2/psoc creator/import/gnu/arm/5.4.1/bin/../lib/gcc/arm-none-eabi/5.4.1/../../../../arm-none-eabi/lib/armv7-m\libg_nano.a(lib_a-memmove.o)
 .bss           0x00000000        0x0 e:/cypress/psoc creator/4.2/psoc creator/import/gnu/arm/5.4.1/bin/../lib/gcc/arm-none-eabi/5.4.1/../../../../arm-none-eabi/lib/armv7-m\libg_nano.a(lib_a-memmove.o)
 .text          0x00000000        0x0 e:/cypress/psoc creator/4.2/psoc creator/import/gnu/arm/5.4.1/bin/../lib/gcc/arm-none-eabi/5.4.1/../../../../arm-none-eabi/lib/armv7-m\libg_nano.a(lib_a-mlock.o)
 .data          0x00000000        0x0 e:/cypress/psoc creator/4.2/psoc creator/import/gnu/arm/5.4.1/bin/../lib/gcc/arm-none-eabi/5.4.1/../../../../arm-none-eabi/lib/armv7-m\libg_nano.a(lib_a-mlock.o)
 .bss           0x00000000        0x0 e:/cypress/psoc creator/4.2/psoc creator/import/gnu/arm/5.4.1/bin/../lib/gcc/arm-none-eabi/5.4.1/../../../../arm-none-eabi/lib/armv7-m\libg_nano.a(lib_a-mlock.o)
 .text          0x00000000        0x0 e:/cypress/psoc creator/4.2/psoc creator/import/gnu/arm/5.4.1/bin/../lib/gcc/arm-none-eabi/5.4.1/../../../../arm-none-eabi/lib/armv7-m\libg_nano.a(lib_a-nano-reallocr.o)
 .data          0x00000000        0x0 e:/cypress/psoc creator/4.2/psoc creator/import/gnu/arm/5.4.1/bin/../lib/gcc/arm-none-eabi/5.4.1/../../../../arm-none-eabi/lib/armv7-m\libg_nano.a(lib_a-nano-reallocr.o)
 .bss           0x00000000        0x0 e:/cypress/psoc creator/4.2/psoc creator/import/gnu/arm/5.4.1/bin/../lib/gcc/arm-none-eabi/5.4.1/../../../../arm-none-eabi/lib/armv7-m\libg_nano.a(lib_a-nano-reallocr.o)
 .text          0x00000000        0x0 e:/cypress/psoc creator/4.2/psoc creator/import/gnu/arm/5.4.1/bin/../lib/gcc/arm-none-eabi/5.4.1/../../../../arm-none-eabi/lib/armv7-m\libg_nano.a(lib_a-fstatr.o)
 .data          0x00000000        0x0 e:/cypress/psoc creator/4.2/psoc creator/import/gnu/arm/5.4.1/bin/../lib/gcc/arm-none-eabi/5.4.1/../../../../arm-none-eabi/lib/armv7-m\libg_nano.a(lib_a-fstatr.o)
 .bss           0x00000000        0x0 e:/cypress/psoc creator/4.2/psoc creator/import/gnu/arm/5.4.1/bin/../lib/gcc/arm-none-eabi/5.4.1/../../../../arm-none-eabi/lib/armv7-m\libg_nano.a(lib_a-fstatr.o)
 .text          0x00000000        0x0 e:/cypress/psoc creator/4.2/psoc creator/import/gnu/arm/5.4.1/bin/../lib/gcc/arm-none-eabi/5.4.1/../../../../arm-none-eabi/lib/armv7-m\libg_nano.a(lib_a-isattyr.o)
 .data          0x00000000        0x0 e:/cypress/psoc creator/4.2/psoc creator/import/gnu/arm/5.4.1/bin/../lib/gcc/arm-none-eabi/5.4.1/../../../../arm-none-eabi/lib/armv7-m\libg_nano.a(lib_a-isattyr.o)
 .bss           0x00000000        0x0 e:/cypress/psoc creator/4.2/psoc creator/import/gnu/arm/5.4.1/bin/../lib/gcc/arm-none-eabi/5.4.1/../../../../arm-none-eabi/lib/armv7-m\libg_nano.a(lib_a-isattyr.o)
 .text          0x00000000        0x0 e:/cypress/psoc creator/4.2/psoc creator/import/gnu/arm/5.4.1/bin/../lib/gcc/arm-none-eabi/5.4.1/../../../../arm-none-eabi/lib/armv7-m\libg_nano.a(lib_a-nano-msizer.o)
 .data          0x00000000        0x0 e:/cypress/psoc creator/4.2/psoc creator/import/gnu/arm/5.4.1/bin/../lib/gcc/arm-none-eabi/5.4.1/../../../../arm-none-eabi/lib/armv7-m\libg_nano.a(lib_a-nano-msizer.o)
 .bss           0x00000000        0x0 e:/cypress/psoc creator/4.2/psoc creator/import/gnu/arm/5.4.1/bin/../lib/gcc/arm-none-eabi/5.4.1/../../../../arm-none-eabi/lib/armv7-m\libg_nano.a(lib_a-nano-msizer.o)
 .text          0x00000000        0x0 e:/cypress/psoc creator/4.2/psoc creator/import/gnu/arm/5.4.1/bin/../lib/gcc/arm-none-eabi/5.4.1/armv7-m/crtend.o
 .data          0x00000000        0x0 e:/cypress/psoc creator/4.2/psoc creator/import/gnu/arm/5.4.1/bin/../lib/gcc/arm-none-eabi/5.4.1/armv7-m/crtend.o
 .bss           0x00000000        0x0 e:/cypress/psoc creator/4.2/psoc creator/import/gnu/arm/5.4.1/bin/../lib/gcc/arm-none-eabi/5.4.1/armv7-m/crtend.o
 .text          0x00000000        0x0 e:/cypress/psoc creator/4.2/psoc creator/import/gnu/arm/5.4.1/bin/../lib/gcc/arm-none-eabi/5.4.1/armv7-m/crtn.o
 .data          0x00000000        0x0 e:/cypress/psoc creator/4.2/psoc creator/import/gnu/arm/5.4.1/bin/../lib/gcc/arm-none-eabi/5.4.1/armv7-m/crtn.o
 .bss           0x00000000        0x0 e:/cypress/psoc creator/4.2/psoc creator/import/gnu/arm/5.4.1/bin/../lib/gcc/arm-none-eabi/5.4.1/armv7-m/crtn.o
 .text          0x00000000        0x0 e:/cypress/psoc creator/4.2/psoc creator/import/gnu/arm/5.4.1/bin/../lib/gcc/arm-none-eabi/5.4.1/../../../../arm-none-eabi/lib/armv7-m\libnosys.a(close.o)
 .data          0x00000000        0x0 e:/cypress/psoc creator/4.2/psoc creator/import/gnu/arm/5.4.1/bin/../lib/gcc/arm-none-eabi/5.4.1/../../../../arm-none-eabi/lib/armv7-m\libnosys.a(close.o)
 .bss           0x00000000        0x0 e:/cypress/psoc creator/4.2/psoc creator/import/gnu/arm/5.4.1/bin/../lib/gcc/arm-none-eabi/5.4.1/../../../../arm-none-eabi/lib/armv7-m\libnosys.a(close.o)
 .text          0x00000000        0x0 e:/cypress/psoc creator/4.2/psoc creator/import/gnu/arm/5.4.1/bin/../lib/gcc/arm-none-eabi/5.4.1/../../../../arm-none-eabi/lib/armv7-m\libnosys.a(fstat.o)
 .data          0x00000000        0x0 e:/cypress/psoc creator/4.2/psoc creator/import/gnu/arm/5.4.1/bin/../lib/gcc/arm-none-eabi/5.4.1/../../../../arm-none-eabi/lib/armv7-m\libnosys.a(fstat.o)
 .bss           0x00000000        0x0 e:/cypress/psoc creator/4.2/psoc creator/import/gnu/arm/5.4.1/bin/../lib/gcc/arm-none-eabi/5.4.1/../../../../arm-none-eabi/lib/armv7-m\libnosys.a(fstat.o)
 .text          0x00000000        0x0 e:/cypress/psoc creator/4.2/psoc creator/import/gnu/arm/5.4.1/bin/../lib/gcc/arm-none-eabi/5.4.1/../../../../arm-none-eabi/lib/armv7-m\libnosys.a(isatty.o)
 .data          0x00000000        0x0 e:/cypress/psoc creator/4.2/psoc creator/import/gnu/arm/5.4.1/bin/../lib/gcc/arm-none-eabi/5.4.1/../../../../arm-none-eabi/lib/armv7-m\libnosys.a(isatty.o)
 .bss           0x00000000        0x0 e:/cypress/psoc creator/4.2/psoc creator/import/gnu/arm/5.4.1/bin/../lib/gcc/arm-none-eabi/5.4.1/../../../../arm-none-eabi/lib/armv7-m\libnosys.a(isatty.o)
 .text          0x00000000        0x0 e:/cypress/psoc creator/4.2/psoc creator/import/gnu/arm/5.4.1/bin/../lib/gcc/arm-none-eabi/5.4.1/../../../../arm-none-eabi/lib/armv7-m\libnosys.a(lseek.o)
 .data          0x00000000        0x0 e:/cypress/psoc creator/4.2/psoc creator/import/gnu/arm/5.4.1/bin/../lib/gcc/arm-none-eabi/5.4.1/../../../../arm-none-eabi/lib/armv7-m\libnosys.a(lseek.o)
 .bss           0x00000000        0x0 e:/cypress/psoc creator/4.2/psoc creator/import/gnu/arm/5.4.1/bin/../lib/gcc/arm-none-eabi/5.4.1/../../../../arm-none-eabi/lib/armv7-m\libnosys.a(lseek.o)
 .text          0x00000000        0x0 e:/cypress/psoc creator/4.2/psoc creator/import/gnu/arm/5.4.1/bin/../lib/gcc/arm-none-eabi/5.4.1/../../../../arm-none-eabi/lib/armv7-m\libnosys.a(read.o)
 .data          0x00000000        0x0 e:/cypress/psoc creator/4.2/psoc creator/import/gnu/arm/5.4.1/bin/../lib/gcc/arm-none-eabi/5.4.1/../../../../arm-none-eabi/lib/armv7-m\libnosys.a(read.o)
 .bss           0x00000000        0x0 e:/cypress/psoc creator/4.2/psoc creator/import/gnu/arm/5.4.1/bin/../lib/gcc/arm-none-eabi/5.4.1/../../../../arm-none-eabi/lib/armv7-m\libnosys.a(read.o)
 .text          0x00000000        0x0 e:/cypress/psoc creator/4.2/psoc creator/import/gnu/arm/5.4.1/bin/../lib/gcc/arm-none-eabi/5.4.1/../../../../arm-none-eabi/lib/armv7-m\libnosys.a(write.o)
 .data          0x00000000        0x0 e:/cypress/psoc creator/4.2/psoc creator/import/gnu/arm/5.4.1/bin/../lib/gcc/arm-none-eabi/5.4.1/../../../../arm-none-eabi/lib/armv7-m\libnosys.a(write.o)
 .bss           0x00000000        0x0 e:/cypress/psoc creator/4.2/psoc creator/import/gnu/arm/5.4.1/bin/../lib/gcc/arm-none-eabi/5.4.1/../../../../arm-none-eabi/lib/armv7-m\libnosys.a(write.o)

Memory Configuration

Name             Origin             Length             Attributes
rom              0x00000000         0x00040000         xr
ram              0x1fff8000         0x00010000         xrw
*default*        0x00000000         0xffffffff

Linker script and memory map

LOAD e:/cypress/psoc creator/4.2/psoc creator/import/gnu/arm/5.4.1/bin/../lib/gcc/arm-none-eabi/5.4.1/armv7-m/crti.o
LOAD e:/cypress/psoc creator/4.2/psoc creator/import/gnu/arm/5.4.1/bin/../lib/gcc/arm-none-eabi/5.4.1/armv7-m/crtbegin.o
LOAD e:/cypress/psoc creator/4.2/psoc creator/import/gnu/arm/5.4.1/bin/../lib/gcc/arm-none-eabi/5.4.1/../../../../arm-none-eabi/lib/armv7-m/crt0.o
START GROUP
LOAD .\CortexM3\ARM_GCC_541\Debug\BME280.o
LOAD .\CortexM3\ARM_GCC_541\Debug\MCP7940N.o
LOAD .\CortexM3\ARM_GCC_541\Debug\SSD1306.o
LOAD .\CortexM3\ARM_GCC_541\Debug\gfx.o
LOAD .\CortexM3\ARM_GCC_541\Debug\gfx_impl.o
LOAD .\CortexM3\ARM_GCC_541\Debug\i2c_rhea.o
LOAD .\CortexM3\ARM_GCC_541\Debug\i2c_impl.o
LOAD .\CortexM3\ARM_GCC_541\Debug\alarm.o
LOAD .\CortexM3\ARM_GCC_541\Debug\datetime.o
LOAD .\CortexM3\ARM_GCC_541\Debug\rtc.o
LOAD .\CortexM3\ARM_GCC_541\Debug\rtc_impl.o
LOAD .\CortexM3\ARM_GCC_541\Debug\BME280_INTF.o
LOAD .\CortexM3\ARM_GCC_541\Debug\sensor.o
LOAD .\CortexM3\ARM_GCC_541\Debug\sensor_impl.o
LOAD .\CortexM3\ARM_GCC_541\Debug\uart_impl.o
LOAD .\CortexM3\ARM_GCC_541\Debug\uart_rhea.o
LOAD .\CortexM3\ARM_GCC_541\Debug\state.o
LOAD .\CortexM3\ARM_GCC_541\Debug\command.o
LOAD .\CortexM3\ARM_GCC_541\Debug\input.o
LOAD .\CortexM3\ARM_GCC_541\Debug\menu.o
LOAD .\CortexM3\ARM_GCC_541\Debug\main.o
LOAD .\CortexM3\ARM_GCC_541\Debug\cyfitter_cfg.o
LOAD .\CortexM3\ARM_GCC_541\Debug\cymetadata.o
LOAD .\CortexM3\ARM_GCC_541\Debug\Cm3Start.o
LOAD .\CortexM3\ARM_GCC_541\Debug\Rhea.a
LOAD E:\Cypress\PSoC Creator\4.2\PSoC Creator\psoc\content\cycomponentlibrary\CyComponentLibrary.cylib\CortexM3\ARM_GCC_541\Debug\CyComponentLibrary.a
LOAD e:/cypress/psoc creator/4.2/psoc creator/import/gnu/arm/5.4.1/bin/../lib/gcc/arm-none-eabi/5.4.1/../../../../arm-none-eabi/lib/armv7-m\libm.a
END GROUP
START GROUP
LOAD e:/cypress/psoc creator/4.2/psoc creator/import/gnu/arm/5.4.1/bin/../lib/gcc/arm-none-eabi/5.4.1/armv7-m\libgcc.a
LOAD e:/cypress/psoc creator/4.2/psoc creator/import/gnu/arm/5.4.1/bin/../lib/gcc/arm-none-eabi/5.4.1/../../../../arm-none-eabi/lib/armv7-m\libg_nano.a
LOAD e:/cypress/psoc creator/4.2/psoc creator/import/gnu/arm/5.4.1/bin/../lib/gcc/arm-none-eabi/5.4.1/../../../../arm-none-eabi/lib/armv7-m\libc_nano.a
END GROUP
START GROUP
LOAD e:/cypress/psoc creator/4.2/psoc creator/import/gnu/arm/5.4.1/bin/../lib/gcc/arm-none-eabi/5.4.1/armv7-m\libgcc.a
LOAD e:/cypress/psoc creator/4.2/psoc creator/import/gnu/arm/5.4.1/bin/../lib/gcc/arm-none-eabi/5.4.1/../../../../arm-none-eabi/lib/armv7-m\libc_nano.a
END GROUP
LOAD e:/cypress/psoc creator/4.2/psoc creator/import/gnu/arm/5.4.1/bin/../lib/gcc/arm-none-eabi/5.4.1/armv7-m/crtend.o
LOAD e:/cypress/psoc creator/4.2/psoc creator/import/gnu/arm/5.4.1/bin/../lib/gcc/arm-none-eabi/5.4.1/armv7-m/crtn.o
START GROUP
LOAD e:/cypress/psoc creator/4.2/psoc creator/import/gnu/arm/5.4.1/bin/../lib/gcc/arm-none-eabi/5.4.1/armv7-m\libgcc.a
LOAD e:/cypress/psoc creator/4.2/psoc creator/import/gnu/arm/5.4.1/bin/../lib/gcc/arm-none-eabi/5.4.1/../../../../arm-none-eabi/lib/armv7-m\libc.a
LOAD e:/cypress/psoc creator/4.2/psoc creator/import/gnu/arm/5.4.1/bin/../lib/gcc/arm-none-eabi/5.4.1/../../../../arm-none-eabi/lib/armv7-m\libnosys.a
END GROUP
                0x00000000                CY_APPL_ORIGIN = 0x0
                0x00000100                CY_FLASH_ROW_SIZE = 0x100
                0x00000020                CY_ECC_ROW_SIZE = 0x20
                0x00000000                CY_EE_IN_BTLDR = 0x0
                0x00000000                CY_APPL_LOADABLE = 0x0
                0x00000800                CY_EE_SIZE = 0x800
                0x00000001                CY_APPL_NUM = 0x1
                0x00000001                CY_APPL_MAX = 0x1
                0x00000040                CY_METADATA_SIZE = 0x40
                0x00000000                CY_APPL_LOADABLE = 0x0
                0x00000000                CY_CHECKSUM_EXCLUDE_SIZE = ALIGN (0x0, CY_FLASH_ROW_SIZE)
                [!provide]                PROVIDE (__cy_heap_start, _end)
                0x00000001                PROVIDE (__cy_region_num, ((__cy_regions_end - __cy_regions) / 0x10))
                0x20008000                PROVIDE (__cy_stack, (ORIGIN (ram) + LENGTH (ram)))
                [!provide]                PROVIDE (__cy_heap_end, (__cy_stack - 0x800))

.cybootloader   0x00000000        0x0
 *(.cybootloader)
                0x00000000                appl1_start = CY_APPL_ORIGIN?CY_APPL_ORIGIN:ALIGN (CY_FLASH_ROW_SIZE)
                0x0001ff00                appl2_start = (appl1_start + ALIGN ((((LENGTH (rom) - appl1_start) - (0x2 * CY_FLASH_ROW_SIZE)) / 0x2), CY_FLASH_ROW_SIZE))
                0x00000000                appl_start = (CY_APPL_NUM == 0x1)?appl1_start:appl2_start
                0x00000000                ecc_offset = ((appl_start / CY_FLASH_ROW_SIZE) * CY_ECC_ROW_SIZE)
                0x00000000                ee_offset = (CY_APPL_LOADABLE && ! (CY_EE_IN_BTLDR))?((CY_EE_SIZE / CY_APPL_MAX) * (CY_APPL_NUM - 0x1)):0x0
                0x00000800                ee_size = (CY_APPL_LOADABLE && ! (CY_EE_IN_BTLDR))?(CY_EE_SIZE / CY_APPL_MAX):CY_EE_SIZE
                [!provide]                PROVIDE (CY_ECC_OFFSET, ecc_offset)

.text           0x00000000     0x81b4
 CREATE_OBJECT_SYMBOLS
                0x00000000                PROVIDE (__cy_interrupt_vector, RomVectors)
 *(.romvectors)
 .romvectors    0x00000000       0x10 .\CortexM3\ARM_GCC_541\Debug\Cm3Start.o
                0x00000000                RomVectors
                0x00000001                ASSERT ((. != __cy_interrupt_vector), No interrupt vector)
                0x00000001                ASSERT (CY_APPL_ORIGIN?(SIZEOF (.cybootloader) <= CY_APPL_ORIGIN):0x1, Wrong image location)
                0x00000010                PROVIDE (__cy_reset, Reset)
 *(.text.Reset)
 .text.Reset    0x00000010       0x18 .\CortexM3\ARM_GCC_541\Debug\Cm3Start.o
                0x00000010                Reset
                0x00000001                ASSERT ((. != __cy_reset), No reset code)
 *(.dma_init)
                0x00000001                ASSERT ((((appl_start + .) <= 0x10000) || 0x1), DMA Init must be within the first 64k of flash)
 *(.text .text.* .gnu.linkonce.t.*)
 .text          0x00000028       0x5c e:/cypress/psoc creator/4.2/psoc creator/import/gnu/arm/5.4.1/bin/../lib/gcc/arm-none-eabi/5.4.1/armv7-m/crtbegin.o
 .text.BME280_SetI2CController
                0x00000084       0x28 .\CortexM3\ARM_GCC_541\Debug\BME280.o
                0x00000084                BME280_SetI2CController
 .text.BME280_I2CReader
                0x000000ac       0x88 .\CortexM3\ARM_GCC_541\Debug\BME280.o
                0x000000ac                BME280_I2CReader
 .text.BME280_I2CWriter
                0x00000134       0x68 .\CortexM3\ARM_GCC_541\Debug\BME280.o
                0x00000134                BME280_I2CWriter
 .text.BME280_Init
                0x0000019c      0x188 .\CortexM3\ARM_GCC_541\Debug\BME280.o
                0x0000019c                BME280_Init
 .text.BME280_Reset
                0x00000324       0x20 .\CortexM3\ARM_GCC_541\Debug\BME280.o
                0x00000324                BME280_Reset
 .text.BME280_ReadRegisters
                0x00000344       0x28 .\CortexM3\ARM_GCC_541\Debug\BME280.o
                0x00000344                BME280_ReadRegisters
 .text.BME280_GetTemperatureCelsius
                0x0000036c      0x1cc .\CortexM3\ARM_GCC_541\Debug\BME280.o
                0x0000036c                BME280_GetTemperatureCelsius
 .text.BME280_GetPressure
                0x00000538      0x3b4 .\CortexM3\ARM_GCC_541\Debug\BME280.o
                0x00000538                BME280_GetPressure
 .text.BME280_GetHumidity
                0x000008ec      0x268 .\CortexM3\ARM_GCC_541\Debug\BME280.o
                0x000008ec                BME280_GetHumidity
 .text.BME280_GetHumidityMode
                0x00000b54       0x1c .\CortexM3\ARM_GCC_541\Debug\BME280.o
                0x00000b54                BME280_GetHumidityMode
 .text.BME280_SetHumidityMode
                0x00000b70       0x44 .\CortexM3\ARM_GCC_541\Debug\BME280.o
                0x00000b70                BME280_SetHumidityMode
 .text.BME280_GetTemperatureMode
                0x00000bb4       0x1c .\CortexM3\ARM_GCC_541\Debug\BME280.o
                0x00000bb4                BME280_GetTemperatureMode
 .text.BME280_SetTemperatureMode
                0x00000bd0       0x44 .\CortexM3\ARM_GCC_541\Debug\BME280.o
                0x00000bd0                BME280_SetTemperatureMode
 .text.BME280_GetPressureMode
                0x00000c14       0x1c .\CortexM3\ARM_GCC_541\Debug\BME280.o
                0x00000c14                BME280_GetPressureMode
 .text.BME280_SetPressureMode
                0x00000c30       0x44 .\CortexM3\ARM_GCC_541\Debug\BME280.o
                0x00000c30                BME280_SetPressureMode
 .text.BME280_GetMeasurementMode
                0x00000c74       0x1c .\CortexM3\ARM_GCC_541\Debug\BME280.o
                0x00000c74                BME280_GetMeasurementMode
 .text.BME280_SetMeasurementMode
                0x00000c90       0x44 .\CortexM3\ARM_GCC_541\Debug\BME280.o
                0x00000c90                BME280_SetMeasurementMode
 .text.BME280_GetFilterMode
                0x00000cd4       0x1c .\CortexM3\ARM_GCC_541\Debug\BME280.o
                0x00000cd4                BME280_GetFilterMode
 .text.BME280_SetFilterMode
                0x00000cf0       0x44 .\CortexM3\ARM_GCC_541\Debug\BME280.o
                0x00000cf0                BME280_SetFilterMode
 .text.SSD1306_SetI2CController
                0x00000d34       0x28 .\CortexM3\ARM_GCC_541\Debug\SSD1306.o
                0x00000d34                SSD1306_SetI2CController
 .text.SSD1306_Init
                0x00000d5c       0x40 .\CortexM3\ARM_GCC_541\Debug\SSD1306.o
                0x00000d5c                SSD1306_Init
 .text.SSD1306_WriteCommands
                0x00000d9c       0x54 .\CortexM3\ARM_GCC_541\Debug\SSD1306.o
                0x00000d9c                SSD1306_WriteCommands
 .text.SSD1306_WriteData
                0x00000df0       0x54 .\CortexM3\ARM_GCC_541\Debug\SSD1306.o
                0x00000df0                SSD1306_WriteData
 .text.SSD1306_WritePixel
                0x00000e44       0x9c .\CortexM3\ARM_GCC_541\Debug\SSD1306.o
                0x00000e44                SSD1306_WritePixel
 .text.SSD1306_ClearDisplay
                0x00000ee0       0x34 .\CortexM3\ARM_GCC_541\Debug\SSD1306.o
                0x00000ee0                SSD1306_ClearDisplay
 .text.SSD1306_RefreshDisplay
                0x00000f14       0x64 .\CortexM3\ARM_GCC_541\Debug\SSD1306.o
                0x00000f14                SSD1306_RefreshDisplay
 .text.rhea_gfx_Initialize
                0x00000f78       0x34 .\CortexM3\ARM_GCC_541\Debug\gfx.o
                0x00000f78                rhea_gfx_Initialize
 .text.rhea_gfx_Clear
                0x00000fac        0xc .\CortexM3\ARM_GCC_541\Debug\gfx.o
                0x00000fac                rhea_gfx_Clear
 .text.rhea_gfx_Refresh
                0x00000fb8        0xc .\CortexM3\ARM_GCC_541\Debug\gfx.o
                0x00000fb8                rhea_gfx_Refresh
 .text.rhea_gfx_DrawSymbolHelper
                0x00000fc4       0xdc .\CortexM3\ARM_GCC_541\Debug\gfx.o
                0x00000fc4                rhea_gfx_DrawSymbolHelper
 .text.rhea_gfx_SetCursor
                0x000010a0       0x30 .\CortexM3\ARM_GCC_541\Debug\gfx.o
                0x000010a0                rhea_gfx_SetCursor
 .text.rhea_gfx_PrintSymbolHelper
                0x000010d0       0x88 .\CortexM3\ARM_GCC_541\Debug\gfx.o
                0x000010d0                rhea_gfx_PrintSymbolHelper
 .text.rhea_gfx_PrintSymbol
                0x00001158       0x1c .\CortexM3\ARM_GCC_541\Debug\gfx.o
                0x00001158                rhea_gfx_PrintSymbol
 .text.rhea_gfx_Print
                0x00001174       0x74 .\CortexM3\ARM_GCC_541\Debug\gfx.o
                0x00001174                rhea_gfx_Print
 .text.rhea_gfx_initialize_impl
                0x000011e8       0x3c .\CortexM3\ARM_GCC_541\Debug\gfx_impl.o
                0x000011e8                rhea_gfx_initialize_impl
 .text.rhea_gfx_clear_impl
                0x00001224        0xc .\CortexM3\ARM_GCC_541\Debug\gfx_impl.o
                0x00001224                rhea_gfx_clear_impl
 .text.rhea_gfx_refresh_impl
                0x00001230       0x24 .\CortexM3\ARM_GCC_541\Debug\gfx_impl.o
                0x00001230                rhea_gfx_refresh_impl
 .text.rhea_gfx_writePixel_impl
                0x00001254       0x2c .\CortexM3\ARM_GCC_541\Debug\gfx_impl.o
                0x00001254                rhea_gfx_writePixel_impl
 .text.rhea_i2c_Initialize
                0x00001280        0xc .\CortexM3\ARM_GCC_541\Debug\i2c_rhea.o
                0x00001280                rhea_i2c_Initialize
 .text.rhea_i2c_MasterSendStart
                0x0000128c       0x24 .\CortexM3\ARM_GCC_541\Debug\i2c_rhea.o
                0x0000128c                rhea_i2c_MasterSendStart
 .text.rhea_i2c_MasterSendStop
                0x000012b0        0xc .\CortexM3\ARM_GCC_541\Debug\i2c_rhea.o
                0x000012b0                rhea_i2c_MasterSendStop
 .text.rhea_i2c_MasterReadByte
                0x000012bc       0x1c .\CortexM3\ARM_GCC_541\Debug\i2c_rhea.o
                0x000012bc                rhea_i2c_MasterReadByte
 .text.rhea_i2c_MasterWriteByte
                0x000012d8       0x1c .\CortexM3\ARM_GCC_541\Debug\i2c_rhea.o
                0x000012d8                rhea_i2c_MasterWriteByte
 .text.rhea_i2c_initialize_impl
                0x000012f4        0xc .\CortexM3\ARM_GCC_541\Debug\i2c_impl.o
                0x000012f4                rhea_i2c_initialize_impl
 .text.rhea_i2c_masterSendStart_impl
                0x00001300       0x24 .\CortexM3\ARM_GCC_541\Debug\i2c_impl.o
                0x00001300                rhea_i2c_masterSendStart_impl
 .text.rhea_i2c_masterSendStop_impl
                0x00001324        0xc .\CortexM3\ARM_GCC_541\Debug\i2c_impl.o
                0x00001324                rhea_i2c_masterSendStop_impl
 .text.rhea_i2c_masterReadByte_impl
                0x00001330       0x1c .\CortexM3\ARM_GCC_541\Debug\i2c_impl.o
                0x00001330                rhea_i2c_masterReadByte_impl
 .text.rhea_i2c_masterWriteByte_impl
                0x0000134c       0x1c .\CortexM3\ARM_GCC_541\Debug\i2c_impl.o
                0x0000134c                rhea_i2c_masterWriteByte_impl
 .text.bme280_addInterface
                0x00001368      0x148 .\CortexM3\ARM_GCC_541\Debug\BME280_INTF.o
                0x00001368                bme280_addInterface
 .text.bme280_GetTemperatureCelsius
                0x000014b0       0x30 .\CortexM3\ARM_GCC_541\Debug\BME280_INTF.o
                0x000014b0                bme280_GetTemperatureCelsius
 .text.bme280_GetPressure
                0x000014e0       0x30 .\CortexM3\ARM_GCC_541\Debug\BME280_INTF.o
                0x000014e0                bme280_GetPressure
 .text.bme280_GetHumidity
                0x00001510       0x30 .\CortexM3\ARM_GCC_541\Debug\BME280_INTF.o
                0x00001510                bme280_GetHumidity
 .text.bme280_SetFilterMode
                0x00001540       0x1c .\CortexM3\ARM_GCC_541\Debug\BME280_INTF.o
                0x00001540                bme280_SetFilterMode
 .text.bme280_GetFilterMode
                0x0000155c       0x18 .\CortexM3\ARM_GCC_541\Debug\BME280_INTF.o
                0x0000155c                bme280_GetFilterMode
 .text.bme280_SetTemperatureMode
                0x00001574       0x1c .\CortexM3\ARM_GCC_541\Debug\BME280_INTF.o
                0x00001574                bme280_SetTemperatureMode
 .text.bme280_GetTemperatureMode
                0x00001590       0x18 .\CortexM3\ARM_GCC_541\Debug\BME280_INTF.o
                0x00001590                bme280_GetTemperatureMode
 .text.bme280_SetPressureMode
                0x000015a8       0x1c .\CortexM3\ARM_GCC_541\Debug\BME280_INTF.o
                0x000015a8                bme280_SetPressureMode
 .text.bme280_GetPressureMode
                0x000015c4       0x18 .\CortexM3\ARM_GCC_541\Debug\BME280_INTF.o
                0x000015c4                bme280_GetPressureMode
 .text.bme280_SetHumidityMode
                0x000015dc       0x1c .\CortexM3\ARM_GCC_541\Debug\BME280_INTF.o
                0x000015dc                bme280_SetHumidityMode
 .text.bme280_GetHumidityMode
                0x000015f8       0x18 .\CortexM3\ARM_GCC_541\Debug\BME280_INTF.o
                0x000015f8                bme280_GetHumidityMode
 .text.bme280_SetMeasurementMode
                0x00001610       0x1c .\CortexM3\ARM_GCC_541\Debug\BME280_INTF.o
                0x00001610                bme280_SetMeasurementMode
 .text.bme280_GetMeasurementMode
                0x0000162c       0x18 .\CortexM3\ARM_GCC_541\Debug\BME280_INTF.o
                0x0000162c                bme280_GetMeasurementMode
 .text.rhea_sensor_Initialize
                0x00001644       0x30 .\CortexM3\ARM_GCC_541\Debug\sensor.o
                0x00001644                rhea_sensor_Initialize
 .text.rhea_sensor_AddMeasurement
                0x00001674       0xc4 .\CortexM3\ARM_GCC_541\Debug\sensor.o
                0x00001674                rhea_sensor_AddMeasurement
 .text.rhea_sensor_GetMeasurement
                0x00001738       0xa4 .\CortexM3\ARM_GCC_541\Debug\sensor.o
                0x00001738                rhea_sensor_GetMeasurement
 .text.rhea_sensor_GetMeasurementPeriod
                0x000017dc       0xa4 .\CortexM3\ARM_GCC_541\Debug\sensor.o
                0x000017dc                rhea_sensor_GetMeasurementPeriod
 .text.rhea_sensor_SetMeasurementPeriod
                0x00001880       0xc0 .\CortexM3\ARM_GCC_541\Debug\sensor.o
                0x00001880                rhea_sensor_SetMeasurementPeriod
 .text.rhea_sensor_AddAttribute
                0x00001940       0xa0 .\CortexM3\ARM_GCC_541\Debug\sensor.o
                0x00001940                rhea_sensor_AddAttribute
 .text.rhea_sensor_SetAttribute
                0x000019e0       0xd4 .\CortexM3\ARM_GCC_541\Debug\sensor.o
                0x000019e0                rhea_sensor_SetAttribute
 .text.rhea_sensor_periodicMeasure
                0x00001ab4       0xe8 .\CortexM3\ARM_GCC_541\Debug\sensor.o
                0x00001ab4                rhea_sensor_periodicMeasure
 .text.rhea_sensor_initialize_impl
                0x00001b9c       0x1c .\CortexM3\ARM_GCC_541\Debug\sensor_impl.o
                0x00001b9c                rhea_sensor_initialize_impl
 .text.rhea_uart_initialize_impl
                0x00001bb8        0xc .\CortexM3\ARM_GCC_541\Debug\uart_impl.o
                0x00001bb8                rhea_uart_initialize_impl
 .text.rhea_uart_readByte_impl
                0x00001bc4       0x10 .\CortexM3\ARM_GCC_541\Debug\uart_impl.o
                0x00001bc4                rhea_uart_readByte_impl
 .text.rhea_uart_writeByte_impl
                0x00001bd4       0x1c .\CortexM3\ARM_GCC_541\Debug\uart_impl.o
                0x00001bd4                rhea_uart_writeByte_impl
 .text.rhea_uart_Initialize
                0x00001bf0        0xc .\CortexM3\ARM_GCC_541\Debug\uart_rhea.o
                0x00001bf0                rhea_uart_Initialize
 .text.rhea_uart_ReadByte
                0x00001bfc       0x10 .\CortexM3\ARM_GCC_541\Debug\uart_rhea.o
                0x00001bfc                rhea_uart_ReadByte
 .text.rhea_uart_ReadChar
                0x00001c0c       0x10 .\CortexM3\ARM_GCC_541\Debug\uart_rhea.o
                0x00001c0c                rhea_uart_ReadChar
 .text.rhea_uart_WriteByte
                0x00001c1c       0x1c .\CortexM3\ARM_GCC_541\Debug\uart_rhea.o
                0x00001c1c                rhea_uart_WriteByte
 .text.rhea_uart_WriteBytes
                0x00001c38       0x60 .\CortexM3\ARM_GCC_541\Debug\uart_rhea.o
                0x00001c38                rhea_uart_WriteBytes
 .text.rhea_uart_WriteBuffer
                0x00001c98       0x20 .\CortexM3\ARM_GCC_541\Debug\uart_rhea.o
                0x00001c98                rhea_uart_WriteBuffer
 .text.rhea_uart_WriteChar
                0x00001cb8       0x1c .\CortexM3\ARM_GCC_541\Debug\uart_rhea.o
                0x00001cb8                rhea_uart_WriteChar
 .text.rhea_uart_WriteString
                0x00001cd4       0x40 .\CortexM3\ARM_GCC_541\Debug\uart_rhea.o
                0x00001cd4                rhea_uart_WriteString
 .text.rhea_state_nextState
                0x00001d14       0x7c .\CortexM3\ARM_GCC_541\Debug\state.o
                0x00001d14                rhea_state_nextState
 .text.toArgumentArray
                0x00001d90       0x50 .\CortexM3\ARM_GCC_541\Debug\command.o
                0x00001d90                toArgumentArray
 .text.InitializeSerialCommandLine
                0x00001de0       0x30 .\CortexM3\ARM_GCC_541\Debug\command.o
                0x00001de0                InitializeSerialCommandLine
 .text.ProcessCommandLine
                0x00001e10       0xec .\CortexM3\ARM_GCC_541\Debug\command.o
                0x00001e10                ProcessCommandLine
 .text.SERIAL_DATA_ARRIVED
                0x00001efc       0x78 .\CortexM3\ARM_GCC_541\Debug\command.o
                0x00001efc                SERIAL_DATA_ARRIVED
 .text.rhea_print_help
                0x00001f74       0x14 .\CortexM3\ARM_GCC_541\Debug\command.o
                0x00001f74                rhea_print_help
 .text.rhea_print_version
                0x00001f88       0x14 .\CortexM3\ARM_GCC_541\Debug\command.o
                0x00001f88                rhea_print_version
 .text.rhea_print_error
                0x00001f9c       0x14 .\CortexM3\ARM_GCC_541\Debug\command.o
                0x00001f9c                rhea_print_error
 .text.command_rhea
                0x00001fb0       0x68 .\CortexM3\ARM_GCC_541\Debug\command.o
                0x00001fb0                command_rhea
 .text.command_measure
                0x00002018      0x330 .\CortexM3\ARM_GCC_541\Debug\command.o
                0x00002018                command_measure
 .text.InitializeInputButtonInterrupts
                0x00002348       0x48 .\CortexM3\ARM_GCC_541\Debug\input.o
                0x00002348                InitializeInputButtonInterrupts
 .text.BTN_ENTER_ISR
                0x00002390       0x18 .\CortexM3\ARM_GCC_541\Debug\input.o
                0x00002390                BTN_ENTER_ISR
 .text.BTN_RIGHT_ISR
                0x000023a8       0x18 .\CortexM3\ARM_GCC_541\Debug\input.o
                0x000023a8                BTN_RIGHT_ISR
 .text.BTN_LEFT_ISR
                0x000023c0       0x18 .\CortexM3\ARM_GCC_541\Debug\input.o
                0x000023c0                BTN_LEFT_ISR
 .text.InitializeMainMenu
                0x000023d8      0x1f4 .\CortexM3\ARM_GCC_541\Debug\menu.o
                0x000023d8                InitializeMainMenu
 .text.StepMainMenuStateMachine
                0x000025cc       0x68 .\CortexM3\ARM_GCC_541\Debug\menu.o
                0x000025cc                StepMainMenuStateMachine
 .text.showTemperatureMain
                0x00002634       0x64 .\CortexM3\ARM_GCC_541\Debug\menu.o
                0x00002634                showTemperatureMain
 .text.updateTemperatureMain
                0x00002698       0x6c .\CortexM3\ARM_GCC_541\Debug\menu.o
                0x00002698                updateTemperatureMain
 .text.showTemperaturePeriod
                0x00002704       0x7c .\CortexM3\ARM_GCC_541\Debug\menu.o
                0x00002704                showTemperaturePeriod
 .text.increaseTemperaturePeriod
                0x00002780       0x38 .\CortexM3\ARM_GCC_541\Debug\menu.o
                0x00002780                increaseTemperaturePeriod
 .text.decreaseTemperaturePeriod
                0x000027b8       0x58 .\CortexM3\ARM_GCC_541\Debug\menu.o
                0x000027b8                decreaseTemperaturePeriod
 .text.showPressureMain
                0x00002810       0x64 .\CortexM3\ARM_GCC_541\Debug\menu.o
                0x00002810                showPressureMain
 *fill*         0x00002874        0x4 
 .text.updatePressureMain
                0x00002878       0x6c .\CortexM3\ARM_GCC_541\Debug\menu.o
                0x00002878                updatePressureMain
 .text.showPressurePeriod
                0x000028e4       0x7c .\CortexM3\ARM_GCC_541\Debug\menu.o
                0x000028e4                showPressurePeriod
 .text.increasePressurePeriod
                0x00002960       0x38 .\CortexM3\ARM_GCC_541\Debug\menu.o
                0x00002960                increasePressurePeriod
 .text.decreasePressurePeriod
                0x00002998       0x58 .\CortexM3\ARM_GCC_541\Debug\menu.o
                0x00002998                decreasePressurePeriod
 .text.showHumidityMain
                0x000029f0       0x60 .\CortexM3\ARM_GCC_541\Debug\menu.o
                0x000029f0                showHumidityMain
 .text.updateHumidityMain
                0x00002a50       0x6c .\CortexM3\ARM_GCC_541\Debug\menu.o
                0x00002a50                updateHumidityMain
 .text.showHumidityPeriod
                0x00002abc       0x7c .\CortexM3\ARM_GCC_541\Debug\menu.o
                0x00002abc                showHumidityPeriod
 .text.increaseHumidityPeriod
                0x00002b38       0x38 .\CortexM3\ARM_GCC_541\Debug\menu.o
                0x00002b38                increaseHumidityPeriod
 .text.decreaseHumidityPeriod
                0x00002b70       0x58 .\CortexM3\ARM_GCC_541\Debug\menu.o
                0x00002b70                decreaseHumidityPeriod
 .text.main     0x00002bc8       0x40 .\CortexM3\ARM_GCC_541\Debug\main.o
                0x00002bc8                main
 .text.CYMEMZERO
                0x00002c08       0x1c .\CortexM3\ARM_GCC_541\Debug\cyfitter_cfg.o
 .text.CYCONFIGCPY
                0x00002c24       0x20 .\CortexM3\ARM_GCC_541\Debug\cyfitter_cfg.o
 .text.CyClockStartupError
                0x00002c44        0xc .\CortexM3\ARM_GCC_541\Debug\cyfitter_cfg.o
 .text.cfg_write_bytes32
                0x00002c50       0x74 .\CortexM3\ARM_GCC_541\Debug\cyfitter_cfg.o
 .text.ClockSetup
                0x00002cc4      0x118 .\CortexM3\ARM_GCC_541\Debug\cyfitter_cfg.o
 .text.AnalogSetDefault
                0x00002ddc       0x44 .\CortexM3\ARM_GCC_541\Debug\cyfitter_cfg.o
 .text.cyfitter_cfg
                0x00002e20      0x16c .\CortexM3\ARM_GCC_541\Debug\cyfitter_cfg.o
                0x00002e20                cyfitter_cfg
 .text.IntDefaultHandler
                0x00002f8c       0x14 .\CortexM3\ARM_GCC_541\Debug\Cm3Start.o
                0x00002f8c                IntDefaultHandler
 .text._sbrk    0x00002fa0       0x50 .\CortexM3\ARM_GCC_541\Debug\Cm3Start.o
                0x00002fa0                _sbrk
 .text.Start_c  0x00002ff0       0x98 .\CortexM3\ARM_GCC_541\Debug\Cm3Start.o
                0x00002ff0                Start_c
 .text.initialize_psoc
                0x00003088       0x90 .\CortexM3\ARM_GCC_541\Debug\Cm3Start.o
                0x00003088                initialize_psoc
 .text.I2C_Init
                0x00003118       0x84 .\CortexM3\ARM_GCC_541\Debug\Rhea.a(I2C.o)
                0x00003118                I2C_Init
 .text.I2C_Enable
                0x0000319c       0x48 .\CortexM3\ARM_GCC_541\Debug\Rhea.a(I2C.o)
                0x0000319c                I2C_Enable
 .text.I2C_Start
                0x000031e4       0x30 .\CortexM3\ARM_GCC_541\Debug\Rhea.a(I2C.o)
                0x000031e4                I2C_Start
 .text.I2C_ISR  0x00003214      0x3a8 .\CortexM3\ARM_GCC_541\Debug\Rhea.a(I2C_INT.o)
                0x00003214                I2C_ISR
 .text.I2C_MasterSendStart
                0x000035bc       0xb8 .\CortexM3\ARM_GCC_541\Debug\Rhea.a(I2C_MASTER.o)
                0x000035bc                I2C_MasterSendStart
 .text.I2C_MasterSendStop
                0x00003674       0x58 .\CortexM3\ARM_GCC_541\Debug\Rhea.a(I2C_MASTER.o)
                0x00003674                I2C_MasterSendStop
 .text.I2C_MasterWriteByte
                0x000036cc       0x80 .\CortexM3\ARM_GCC_541\Debug\Rhea.a(I2C_MASTER.o)
                0x000036cc                I2C_MasterWriteByte
 .text.I2C_MasterReadByte
                0x0000374c       0x78 .\CortexM3\ARM_GCC_541\Debug\Rhea.a(I2C_MASTER.o)
                0x0000374c                I2C_MasterReadByte
 .text.UART_Start
                0x000037c4       0x24 .\CortexM3\ARM_GCC_541\Debug\Rhea.a(UART.o)
                0x000037c4                UART_Start
 .text.UART_Init
                0x000037e8       0x40 .\CortexM3\ARM_GCC_541\Debug\Rhea.a(UART.o)
                0x000037e8                UART_Init
 .text.UART_Enable
                0x00003828       0x60 .\CortexM3\ARM_GCC_541\Debug\Rhea.a(UART.o)
                0x00003828                UART_Enable
 .text.UART_GetChar
                0x00003888       0x44 .\CortexM3\ARM_GCC_541\Debug\Rhea.a(UART.o)
                0x00003888                UART_GetChar
 .text.UART_PutChar
                0x000038cc       0x34 .\CortexM3\ARM_GCC_541\Debug\Rhea.a(UART.o)
                0x000038cc                UART_PutChar
 .text.DEBOUNCE_CLK_Start
                0x00003900       0x34 .\CortexM3\ARM_GCC_541\Debug\Rhea.a(DEBOUNCE_CLK.o)
                0x00003900                DEBOUNCE_CLK_Start
 .text.BTN_RIGHT_INTR_StartEx
                0x00003934       0x24 .\CortexM3\ARM_GCC_541\Debug\Rhea.a(BTN_RIGHT_INTR.o)
                0x00003934                BTN_RIGHT_INTR_StartEx
 .text.BTN_RIGHT_INTR_SetVector
                0x00003958       0x24 .\CortexM3\ARM_GCC_541\Debug\Rhea.a(BTN_RIGHT_INTR.o)
                0x00003958                BTN_RIGHT_INTR_SetVector
 .text.BTN_RIGHT_INTR_SetPriority
                0x0000397c       0x24 .\CortexM3\ARM_GCC_541\Debug\Rhea.a(BTN_RIGHT_INTR.o)
                0x0000397c                BTN_RIGHT_INTR_SetPriority
 .text.BTN_RIGHT_INTR_Enable
                0x000039a0       0x18 .\CortexM3\ARM_GCC_541\Debug\Rhea.a(BTN_RIGHT_INTR.o)
                0x000039a0                BTN_RIGHT_INTR_Enable
 .text.BTN_RIGHT_INTR_Disable
                0x000039b8       0x18 .\CortexM3\ARM_GCC_541\Debug\Rhea.a(BTN_RIGHT_INTR.o)
                0x000039b8                BTN_RIGHT_INTR_Disable
 .text.BTN_LEFT_INTR_StartEx
                0x000039d0       0x24 .\CortexM3\ARM_GCC_541\Debug\Rhea.a(BTN_LEFT_INTR.o)
                0x000039d0                BTN_LEFT_INTR_StartEx
 .text.BTN_LEFT_INTR_SetVector
                0x000039f4       0x24 .\CortexM3\ARM_GCC_541\Debug\Rhea.a(BTN_LEFT_INTR.o)
                0x000039f4                BTN_LEFT_INTR_SetVector
 .text.BTN_LEFT_INTR_SetPriority
                0x00003a18       0x24 .\CortexM3\ARM_GCC_541\Debug\Rhea.a(BTN_LEFT_INTR.o)
                0x00003a18                BTN_LEFT_INTR_SetPriority
 .text.BTN_LEFT_INTR_Enable
                0x00003a3c       0x18 .\CortexM3\ARM_GCC_541\Debug\Rhea.a(BTN_LEFT_INTR.o)
                0x00003a3c                BTN_LEFT_INTR_Enable
 .text.BTN_LEFT_INTR_Disable
                0x00003a54       0x18 .\CortexM3\ARM_GCC_541\Debug\Rhea.a(BTN_LEFT_INTR.o)
                0x00003a54                BTN_LEFT_INTR_Disable
 .text.BTN_ENTER_INTR_StartEx
                0x00003a6c       0x24 .\CortexM3\ARM_GCC_541\Debug\Rhea.a(BTN_ENTER_INTR.o)
                0x00003a6c                BTN_ENTER_INTR_StartEx
 .text.BTN_ENTER_INTR_SetVector
                0x00003a90       0x24 .\CortexM3\ARM_GCC_541\Debug\Rhea.a(BTN_ENTER_INTR.o)
                0x00003a90                BTN_ENTER_INTR_SetVector
 .text.BTN_ENTER_INTR_SetPriority
                0x00003ab4       0x24 .\CortexM3\ARM_GCC_541\Debug\Rhea.a(BTN_ENTER_INTR.o)
                0x00003ab4                BTN_ENTER_INTR_SetPriority
 .text.BTN_ENTER_INTR_Enable
                0x00003ad8       0x18 .\CortexM3\ARM_GCC_541\Debug\Rhea.a(BTN_ENTER_INTR.o)
                0x00003ad8                BTN_ENTER_INTR_Enable
 .text.BTN_ENTER_INTR_Disable
                0x00003af0       0x18 .\CortexM3\ARM_GCC_541\Debug\Rhea.a(BTN_ENTER_INTR.o)
                0x00003af0                BTN_ENTER_INTR_Disable
 .text.SENSOR_TIMER_Init
                0x00003b08       0xa0 .\CortexM3\ARM_GCC_541\Debug\Rhea.a(SENSOR_TIMER.o)
                0x00003b08                SENSOR_TIMER_Init
 .text.SENSOR_TIMER_Enable
                0x00003ba8       0x48 .\CortexM3\ARM_GCC_541\Debug\Rhea.a(SENSOR_TIMER.o)
                0x00003ba8                SENSOR_TIMER_Enable
 .text.SENSOR_TIMER_Start
                0x00003bf0       0x24 .\CortexM3\ARM_GCC_541\Debug\Rhea.a(SENSOR_TIMER.o)
                0x00003bf0                SENSOR_TIMER_Start
 .text.SENSOR_TIMER_SetInterruptMode
                0x00003c14       0x20 .\CortexM3\ARM_GCC_541\Debug\Rhea.a(SENSOR_TIMER.o)
                0x00003c14                SENSOR_TIMER_SetInterruptMode
 .text.SENSOR_TIMER_WritePeriod
                0x00003c34       0x24 .\CortexM3\ARM_GCC_541\Debug\Rhea.a(SENSOR_TIMER.o)
                0x00003c34                SENSOR_TIMER_WritePeriod
 .text.SENSOR_TIMER_WriteCounter
                0x00003c58       0x20 .\CortexM3\ARM_GCC_541\Debug\Rhea.a(SENSOR_TIMER.o)
                0x00003c58                SENSOR_TIMER_WriteCounter
 .text.SENSOR_1MS_StartEx
                0x00003c78       0x24 .\CortexM3\ARM_GCC_541\Debug\Rhea.a(SENSOR_1MS.o)
                0x00003c78                SENSOR_1MS_StartEx
 .text.SENSOR_1MS_SetVector
                0x00003c9c       0x24 .\CortexM3\ARM_GCC_541\Debug\Rhea.a(SENSOR_1MS.o)
                0x00003c9c                SENSOR_1MS_SetVector
 .text.SENSOR_1MS_SetPriority
                0x00003cc0       0x24 .\CortexM3\ARM_GCC_541\Debug\Rhea.a(SENSOR_1MS.o)
                0x00003cc0                SENSOR_1MS_SetPriority
 .text.SENSOR_1MS_Enable
                0x00003ce4       0x18 .\CortexM3\ARM_GCC_541\Debug\Rhea.a(SENSOR_1MS.o)
                0x00003ce4                SENSOR_1MS_Enable
 .text.SENSOR_1MS_Disable
                0x00003cfc       0x18 .\CortexM3\ARM_GCC_541\Debug\Rhea.a(SENSOR_1MS.o)
                0x00003cfc                SENSOR_1MS_Disable
 .text.UART_IntClock_Start
                0x00003d14       0x34 .\CortexM3\ARM_GCC_541\Debug\Rhea.a(UART_IntClock.o)
                0x00003d14                UART_IntClock_Start
 .text.CyHalt   0x00003d48       0x18 .\CortexM3\ARM_GCC_541\Debug\Rhea.a(CyLib.o)
                0x00003d48                CyHalt
 .text.CyIntSetVector
                0x00003d60       0x50 .\CortexM3\ARM_GCC_541\Debug\Rhea.a(CyLib.o)
                0x00003d60                CyIntSetVector
 .text.CyIntSetPriority
                0x00003db0       0x48 .\CortexM3\ARM_GCC_541\Debug\Rhea.a(CyLib.o)
                0x00003db0                CyIntSetPriority
 .text.UART_RX_INTR_StartEx
                0x00003df8       0x24 .\CortexM3\ARM_GCC_541\Debug\Rhea.a(UART_RX_INTR.o)
                0x00003df8                UART_RX_INTR_StartEx
 .text.UART_RX_INTR_SetVector
                0x00003e1c       0x24 .\CortexM3\ARM_GCC_541\Debug\Rhea.a(UART_RX_INTR.o)
                0x00003e1c                UART_RX_INTR_SetVector
 .text.UART_RX_INTR_SetPriority
                0x00003e40       0x24 .\CortexM3\ARM_GCC_541\Debug\Rhea.a(UART_RX_INTR.o)
                0x00003e40                UART_RX_INTR_SetPriority
 .text.UART_RX_INTR_Enable
                0x00003e64       0x18 .\CortexM3\ARM_GCC_541\Debug\Rhea.a(UART_RX_INTR.o)
                0x00003e64                UART_RX_INTR_Enable
 .text.UART_RX_INTR_Disable
                0x00003e7c       0x18 .\CortexM3\ARM_GCC_541\Debug\Rhea.a(UART_RX_INTR.o)
                0x00003e7c                UART_RX_INTR_Disable
 *fill*         0x00003e94        0x4 
 .text          0x00003e98       0x20 .\CortexM3\ARM_GCC_541\Debug\Rhea.a(CyBootAsmGnu.o)
                0x00003e98                CyDelayCycles
                0x00003ea8                CyEnterCriticalSection
                0x00003eb0                CyExitCriticalSection
 .text          0x00003eb8      0x370 e:/cypress/psoc creator/4.2/psoc creator/import/gnu/arm/5.4.1/bin/../lib/gcc/arm-none-eabi/5.4.1/armv7-m\libgcc.a(_arm_addsubdf3.o)
                0x00003eb8                __aeabi_drsub
                0x00003ec0                __aeabi_dsub
                0x00003ec0                __subdf3
                0x00003ec4                __aeabi_dadd
                0x00003ec4                __adddf3
                0x0000413c                __floatunsidf
                0x0000413c                __aeabi_ui2d
                0x0000415c                __floatsidf
                0x0000415c                __aeabi_i2d
                0x00004180                __aeabi_f2d
                0x00004180                __extendsfdf2
                0x000041bc                __floatundidf
                0x000041bc                __aeabi_ul2d
                0x000041cc                __floatdidf
                0x000041cc                __aeabi_l2d
 .text          0x00004228      0x424 e:/cypress/psoc creator/4.2/psoc creator/import/gnu/arm/5.4.1/bin/../lib/gcc/arm-none-eabi/5.4.1/armv7-m\libgcc.a(_arm_muldivdf3.o)
                0x00004228                __aeabi_dmul
                0x00004228                __muldf3
                0x0000447c                __divdf3
                0x0000447c                __aeabi_ddiv
 .text          0x0000464c      0x110 e:/cypress/psoc creator/4.2/psoc creator/import/gnu/arm/5.4.1/bin/../lib/gcc/arm-none-eabi/5.4.1/armv7-m\libgcc.a(_arm_cmpdf2.o)
                0x0000464c                __gtdf2
                0x0000464c                __gedf2
                0x00004654                __ltdf2
                0x00004654                __ledf2
                0x0000465c                __nedf2
                0x0000465c                __eqdf2
                0x0000465c                __cmpdf2
                0x000046d8                __aeabi_cdrcmple
                0x000046e8                __aeabi_cdcmpeq
                0x000046e8                __aeabi_cdcmple
                0x000046f8                __aeabi_dcmpeq
                0x0000470c                __aeabi_dcmplt
                0x00004720                __aeabi_dcmple
                0x00004734                __aeabi_dcmpge
                0x00004748                __aeabi_dcmpgt
 .text          0x0000475c       0x2c e:/cypress/psoc creator/4.2/psoc creator/import/gnu/arm/5.4.1/bin/../lib/gcc/arm-none-eabi/5.4.1/armv7-m\libgcc.a(_arm_unorddf2.o)
                0x0000475c                __unorddf2
                0x0000475c                __aeabi_dcmpun
 .text          0x00004788       0x50 e:/cypress/psoc creator/4.2/psoc creator/import/gnu/arm/5.4.1/bin/../lib/gcc/arm-none-eabi/5.4.1/armv7-m\libgcc.a(_arm_fixdfsi.o)
                0x00004788                __aeabi_d2iz
                0x00004788                __fixdfsi
 .text          0x000047d8       0x40 e:/cypress/psoc creator/4.2/psoc creator/import/gnu/arm/5.4.1/bin/../lib/gcc/arm-none-eabi/5.4.1/armv7-m\libgcc.a(_arm_fixunsdfsi.o)
                0x000047d8                __aeabi_d2uiz
                0x000047d8                __fixunsdfsi
 .text.__errno  0x00004818        0xc e:/cypress/psoc creator/4.2/psoc creator/import/gnu/arm/5.4.1/bin/../lib/gcc/arm-none-eabi/5.4.1/../../../../arm-none-eabi/lib/armv7-m\libg_nano.a(lib_a-errno.o)
                0x00004818                __errno
 .text.reverse_argv_elements
                0x00004824       0x24 e:/cypress/psoc creator/4.2/psoc creator/import/gnu/arm/5.4.1/bin/../lib/gcc/arm-none-eabi/5.4.1/../../../../arm-none-eabi/lib/armv7-m\libg_nano.a(lib_a-getopt.o)
 .text.is_option
                0x00004848       0x1c e:/cypress/psoc creator/4.2/psoc creator/import/gnu/arm/5.4.1/bin/../lib/gcc/arm-none-eabi/5.4.1/../../../../arm-none-eabi/lib/armv7-m\libg_nano.a(lib_a-getopt.o)
 .text.read_globals
                0x00004864       0x34 e:/cypress/psoc creator/4.2/psoc creator/import/gnu/arm/5.4.1/bin/../lib/gcc/arm-none-eabi/5.4.1/../../../../arm-none-eabi/lib/armv7-m\libg_nano.a(lib_a-getopt.o)
 .text.write_globals
                0x00004898       0x34 e:/cypress/psoc creator/4.2/psoc creator/import/gnu/arm/5.4.1/bin/../lib/gcc/arm-none-eabi/5.4.1/../../../../arm-none-eabi/lib/armv7-m\libg_nano.a(lib_a-getopt.o)
 .text.getopt_internal
                0x000048cc      0x4a8 e:/cypress/psoc creator/4.2/psoc creator/import/gnu/arm/5.4.1/bin/../lib/gcc/arm-none-eabi/5.4.1/../../../../arm-none-eabi/lib/armv7-m\libg_nano.a(lib_a-getopt.o)
 .text.getopt_long
                0x00004d74       0x30 e:/cypress/psoc creator/4.2/psoc creator/import/gnu/arm/5.4.1/bin/../lib/gcc/arm-none-eabi/5.4.1/../../../../arm-none-eabi/lib/armv7-m\libg_nano.a(lib_a-getopt.o)
                0x00004d74                getopt_long
 .text.__libc_init_array
                0x00004da4       0x4c e:/cypress/psoc creator/4.2/psoc creator/import/gnu/arm/5.4.1/bin/../lib/gcc/arm-none-eabi/5.4.1/../../../../arm-none-eabi/lib/armv7-m\libg_nano.a(lib_a-init.o)
                0x00004da4                __libc_init_array
 .text.memcmp   0x00004df0       0x1e e:/cypress/psoc creator/4.2/psoc creator/import/gnu/arm/5.4.1/bin/../lib/gcc/arm-none-eabi/5.4.1/../../../../arm-none-eabi/lib/armv7-m\libg_nano.a(lib_a-memcmp.o)
                0x00004df0                memcmp
 .text.memcpy   0x00004e0e       0x16 e:/cypress/psoc creator/4.2/psoc creator/import/gnu/arm/5.4.1/bin/../lib/gcc/arm-none-eabi/5.4.1/../../../../arm-none-eabi/lib/armv7-m\libg_nano.a(lib_a-memcpy-stub.o)
                0x00004e0e                memcpy
 .text.memset   0x00004e24       0x10 e:/cypress/psoc creator/4.2/psoc creator/import/gnu/arm/5.4.1/bin/../lib/gcc/arm-none-eabi/5.4.1/../../../../arm-none-eabi/lib/armv7-m\libg_nano.a(lib_a-memset.o)
                0x00004e24                memset
 .text.__cvt    0x00004e34       0xc0 e:/cypress/psoc creator/4.2/psoc creator/import/gnu/arm/5.4.1/bin/../lib/gcc/arm-none-eabi/5.4.1/../../../../arm-none-eabi/lib/armv7-m\libg_nano.a(lib_a-nano-vfprintf_float.o)
                0x00004e34                __cvt
 .text.__exponent
                0x00004ef4       0x62 e:/cypress/psoc creator/4.2/psoc creator/import/gnu/arm/5.4.1/bin/../lib/gcc/arm-none-eabi/5.4.1/../../../../arm-none-eabi/lib/armv7-m\libg_nano.a(lib_a-nano-vfprintf_float.o)
                0x00004ef4                __exponent
 *fill*         0x00004f56        0x2 
 .text._printf_float
                0x00004f58      0x488 e:/cypress/psoc creator/4.2/psoc creator/import/gnu/arm/5.4.1/bin/../lib/gcc/arm-none-eabi/5.4.1/../../../../arm-none-eabi/lib/armv7-m\libg_nano.a(lib_a-nano-vfprintf_float.o)
                0x00004f58                _printf_float
 .text._printf_common
                0x000053e0       0xec e:/cypress/psoc creator/4.2/psoc creator/import/gnu/arm/5.4.1/bin/../lib/gcc/arm-none-eabi/5.4.1/../../../../arm-none-eabi/lib/armv7-m\libg_nano.a(lib_a-nano-vfprintf_i.o)
                0x000053e0                _printf_common
 .text._printf_i
                0x000054cc      0x24c e:/cypress/psoc creator/4.2/psoc creator/import/gnu/arm/5.4.1/bin/../lib/gcc/arm-none-eabi/5.4.1/../../../../arm-none-eabi/lib/armv7-m\libg_nano.a(lib_a-nano-vfprintf_i.o)
                0x000054cc                _printf_i
 .text.sprintf  0x00005718       0x48 e:/cypress/psoc creator/4.2/psoc creator/import/gnu/arm/5.4.1/bin/../lib/gcc/arm-none-eabi/5.4.1/../../../../arm-none-eabi/lib/armv7-m\libg_nano.a(lib_a-sprintf.o)
                0x00005718                siprintf
                0x00005718                sprintf
 .text.sscanf   0x00005760       0x54 e:/cypress/psoc creator/4.2/psoc creator/import/gnu/arm/5.4.1/bin/../lib/gcc/arm-none-eabi/5.4.1/../../../../arm-none-eabi/lib/armv7-m\libg_nano.a(lib_a-sscanf.o)
                0x00005760                siscanf
                0x00005760                sscanf
 .text.__sread  0x000057b4       0x22 e:/cypress/psoc creator/4.2/psoc creator/import/gnu/arm/5.4.1/bin/../lib/gcc/arm-none-eabi/5.4.1/../../../../arm-none-eabi/lib/armv7-m\libg_nano.a(lib_a-stdio.o)
                0x000057b4                __sread
 .text.__seofread
                0x000057d6        0x4 e:/cypress/psoc creator/4.2/psoc creator/import/gnu/arm/5.4.1/bin/../lib/gcc/arm-none-eabi/5.4.1/../../../../arm-none-eabi/lib/armv7-m\libg_nano.a(lib_a-stdio.o)
                0x000057d6                __seofread
 .text.__swrite
                0x000057da       0x38 e:/cypress/psoc creator/4.2/psoc creator/import/gnu/arm/5.4.1/bin/../lib/gcc/arm-none-eabi/5.4.1/../../../../arm-none-eabi/lib/armv7-m\libg_nano.a(lib_a-stdio.o)
                0x000057da                __swrite
 .text.__sseek  0x00005812       0x24 e:/cypress/psoc creator/4.2/psoc creator/import/gnu/arm/5.4.1/bin/../lib/gcc/arm-none-eabi/5.4.1/../../../../arm-none-eabi/lib/armv7-m\libg_nano.a(lib_a-stdio.o)
                0x00005812                __sseek
 .text.__sclose
                0x00005836        0x8 e:/cypress/psoc creator/4.2/psoc creator/import/gnu/arm/5.4.1/bin/../lib/gcc/arm-none-eabi/5.4.1/../../../../arm-none-eabi/lib/armv7-m\libg_nano.a(lib_a-stdio.o)
                0x00005836                __sclose
 .text.strchr   0x0000583e       0x1c e:/cypress/psoc creator/4.2/psoc creator/import/gnu/arm/5.4.1/bin/../lib/gcc/arm-none-eabi/5.4.1/../../../../arm-none-eabi/lib/armv7-m\libg_nano.a(lib_a-strchr.o)
                0x0000583e                strchr
 .text          0x0000585a       0x14 e:/cypress/psoc creator/4.2/psoc creator/import/gnu/arm/5.4.1/bin/../lib/gcc/arm-none-eabi/5.4.1/../../../../arm-none-eabi/lib/armv7-m\libg_nano.a(lib_a-strcmp.o)
                0x0000585a                strcmp
 .text          0x0000586e       0x10 e:/cypress/psoc creator/4.2/psoc creator/import/gnu/arm/5.4.1/bin/../lib/gcc/arm-none-eabi/5.4.1/../../../../arm-none-eabi/lib/armv7-m\libg_nano.a(lib_a-strlen.o)
                0x0000586e                strlen
 *fill*         0x0000587e        0x2 
 .text.strtok   0x00005880       0x64 e:/cypress/psoc creator/4.2/psoc creator/import/gnu/arm/5.4.1/bin/../lib/gcc/arm-none-eabi/5.4.1/../../../../arm-none-eabi/lib/armv7-m\libg_nano.a(lib_a-strtok.o)
                0x00005880                strtok
 .text.__strtok_r
                0x000058e4       0x56 e:/cypress/psoc creator/4.2/psoc creator/import/gnu/arm/5.4.1/bin/../lib/gcc/arm-none-eabi/5.4.1/../../../../arm-none-eabi/lib/armv7-m\libg_nano.a(lib_a-strtok_r.o)
                0x000058e4                __strtok_r
 *fill*         0x0000593a        0x2 
 .text._strtol_r
                0x0000593c      0x10c e:/cypress/psoc creator/4.2/psoc creator/import/gnu/arm/5.4.1/bin/../lib/gcc/arm-none-eabi/5.4.1/../../../../arm-none-eabi/lib/armv7-m\libg_nano.a(lib_a-strtol.o)
                0x0000593c                _strtol_r
 .text.strtol   0x00005a48       0x14 e:/cypress/psoc creator/4.2/psoc creator/import/gnu/arm/5.4.1/bin/../lib/gcc/arm-none-eabi/5.4.1/../../../../arm-none-eabi/lib/armv7-m\libg_nano.a(lib_a-strtol.o)
                0x00005a48                strtol
 .text._write_r
                0x00005a5c       0x24 e:/cypress/psoc creator/4.2/psoc creator/import/gnu/arm/5.4.1/bin/../lib/gcc/arm-none-eabi/5.4.1/../../../../arm-none-eabi/lib/armv7-m\libg_nano.a(lib_a-writer.o)
                0x00005a5c                _write_r
 .text._close_r
                0x00005a80       0x20 e:/cypress/psoc creator/4.2/psoc creator/import/gnu/arm/5.4.1/bin/../lib/gcc/arm-none-eabi/5.4.1/../../../../arm-none-eabi/lib/armv7-m\libg_nano.a(lib_a-closer.o)
                0x00005a80                _close_r
 .text.quorem   0x00005aa0      0x116 e:/cypress/psoc creator/4.2/psoc creator/import/gnu/arm/5.4.1/bin/../lib/gcc/arm-none-eabi/5.4.1/../../../../arm-none-eabi/lib/armv7-m\libg_nano.a(lib_a-dtoa.o)
 *fill*         0x00005bb6        0x2 
 .text._dtoa_r  0x00005bb8      0xb30 e:/cypress/psoc creator/4.2/psoc creator/import/gnu/arm/5.4.1/bin/../lib/gcc/arm-none-eabi/5.4.1/../../../../arm-none-eabi/lib/armv7-m\libg_nano.a(lib_a-dtoa.o)
                0x00005bb8                _dtoa_r
 .text._fputc_r
                0x000066e8       0x48 e:/cypress/psoc creator/4.2/psoc creator/import/gnu/arm/5.4.1/bin/../lib/gcc/arm-none-eabi/5.4.1/../../../../arm-none-eabi/lib/armv7-m\libg_nano.a(lib_a-fputc.o)
                0x000066e8                _fputc_r
 .text.fputc    0x00006730       0x10 e:/cypress/psoc creator/4.2/psoc creator/import/gnu/arm/5.4.1/bin/../lib/gcc/arm-none-eabi/5.4.1/../../../../arm-none-eabi/lib/armv7-m\libg_nano.a(lib_a-fputc.o)
                0x00006730                fputc
 .text._fputs_r
                0x00006740       0x8c e:/cypress/psoc creator/4.2/psoc creator/import/gnu/arm/5.4.1/bin/../lib/gcc/arm-none-eabi/5.4.1/../../../../arm-none-eabi/lib/armv7-m\libg_nano.a(lib_a-fputs.o)
                0x00006740                _fputs_r
 .text.fputs    0x000067cc       0x10 e:/cypress/psoc creator/4.2/psoc creator/import/gnu/arm/5.4.1/bin/../lib/gcc/arm-none-eabi/5.4.1/../../../../arm-none-eabi/lib/armv7-m\libg_nano.a(lib_a-fputs.o)
                0x000067cc                fputs
 .text.getenv   0x000067dc       0x18 e:/cypress/psoc creator/4.2/psoc creator/import/gnu/arm/5.4.1/bin/../lib/gcc/arm-none-eabi/5.4.1/../../../../arm-none-eabi/lib/armv7-m\libg_nano.a(lib_a-getenv.o)
                0x000067dc                getenv
 .text._findenv_r
                0x000067f4       0x78 e:/cypress/psoc creator/4.2/psoc creator/import/gnu/arm/5.4.1/bin/../lib/gcc/arm-none-eabi/5.4.1/../../../../arm-none-eabi/lib/armv7-m\libg_nano.a(lib_a-getenv_r.o)
                0x000067f4                _findenv_r
 .text._localeconv_r
                0x0000686c        0x8 e:/cypress/psoc creator/4.2/psoc creator/import/gnu/arm/5.4.1/bin/../lib/gcc/arm-none-eabi/5.4.1/../../../../arm-none-eabi/lib/armv7-m\libg_nano.a(lib_a-locale.o)
                0x0000686c                _localeconv_r
 .text._lseek_r
                0x00006874       0x24 e:/cypress/psoc creator/4.2/psoc creator/import/gnu/arm/5.4.1/bin/../lib/gcc/arm-none-eabi/5.4.1/../../../../arm-none-eabi/lib/armv7-m\libg_nano.a(lib_a-lseekr.o)
                0x00006874                _lseek_r
 .text.malloc   0x00006898       0x10 e:/cypress/psoc creator/4.2/psoc creator/import/gnu/arm/5.4.1/bin/../lib/gcc/arm-none-eabi/5.4.1/../../../../arm-none-eabi/lib/armv7-m\libg_nano.a(lib_a-malloc.o)
                0x00006898                malloc
 .text.memchr   0x000068a8       0x1c e:/cypress/psoc creator/4.2/psoc creator/import/gnu/arm/5.4.1/bin/../lib/gcc/arm-none-eabi/5.4.1/../../../../arm-none-eabi/lib/armv7-m\libg_nano.a(lib_a-memchr-stub.o)
                0x000068a8                memchr
 .text._Balloc  0x000068c4       0x6a e:/cypress/psoc creator/4.2/psoc creator/import/gnu/arm/5.4.1/bin/../lib/gcc/arm-none-eabi/5.4.1/../../../../arm-none-eabi/lib/armv7-m\libg_nano.a(lib_a-mprec.o)
                0x000068c4                _Balloc
 .text._Bfree   0x0000692e       0x2e e:/cypress/psoc creator/4.2/psoc creator/import/gnu/arm/5.4.1/bin/../lib/gcc/arm-none-eabi/5.4.1/../../../../arm-none-eabi/lib/armv7-m\libg_nano.a(lib_a-mprec.o)
                0x0000692e                _Bfree
 .text.__multadd
                0x0000695c       0x76 e:/cypress/psoc creator/4.2/psoc creator/import/gnu/arm/5.4.1/bin/../lib/gcc/arm-none-eabi/5.4.1/../../../../arm-none-eabi/lib/armv7-m\libg_nano.a(lib_a-mprec.o)
                0x0000695c                __multadd
 .text.__hi0bits
                0x000069d2       0x40 e:/cypress/psoc creator/4.2/psoc creator/import/gnu/arm/5.4.1/bin/../lib/gcc/arm-none-eabi/5.4.1/../../../../arm-none-eabi/lib/armv7-m\libg_nano.a(lib_a-mprec.o)
                0x000069d2                __hi0bits
 .text.__lo0bits
                0x00006a12       0x5a e:/cypress/psoc creator/4.2/psoc creator/import/gnu/arm/5.4.1/bin/../lib/gcc/arm-none-eabi/5.4.1/../../../../arm-none-eabi/lib/armv7-m\libg_nano.a(lib_a-mprec.o)
                0x00006a12                __lo0bits
 .text.__i2b    0x00006a6c       0x12 e:/cypress/psoc creator/4.2/psoc creator/import/gnu/arm/5.4.1/bin/../lib/gcc/arm-none-eabi/5.4.1/../../../../arm-none-eabi/lib/armv7-m\libg_nano.a(lib_a-mprec.o)
                0x00006a6c                __i2b
 .text.__multiply
                0x00006a7e      0x120 e:/cypress/psoc creator/4.2/psoc creator/import/gnu/arm/5.4.1/bin/../lib/gcc/arm-none-eabi/5.4.1/../../../../arm-none-eabi/lib/armv7-m\libg_nano.a(lib_a-mprec.o)
                0x00006a7e                __multiply
 *fill*         0x00006b9e        0x2 
 .text.__pow5mult
                0x00006ba0       0x9c e:/cypress/psoc creator/4.2/psoc creator/import/gnu/arm/5.4.1/bin/../lib/gcc/arm-none-eabi/5.4.1/../../../../arm-none-eabi/lib/armv7-m\libg_nano.a(lib_a-mprec.o)
                0x00006ba0                __pow5mult
 .text.__lshift
                0x00006c3c       0xa2 e:/cypress/psoc creator/4.2/psoc creator/import/gnu/arm/5.4.1/bin/../lib/gcc/arm-none-eabi/5.4.1/../../../../arm-none-eabi/lib/armv7-m\libg_nano.a(lib_a-mprec.o)
                0x00006c3c                __lshift
 .text.__mcmp   0x00006cde       0x38 e:/cypress/psoc creator/4.2/psoc creator/import/gnu/arm/5.4.1/bin/../lib/gcc/arm-none-eabi/5.4.1/../../../../arm-none-eabi/lib/armv7-m\libg_nano.a(lib_a-mprec.o)
                0x00006cde                __mcmp
 .text.__mdiff  0x00006d16       0xbe e:/cypress/psoc creator/4.2/psoc creator/import/gnu/arm/5.4.1/bin/../lib/gcc/arm-none-eabi/5.4.1/../../../../arm-none-eabi/lib/armv7-m\libg_nano.a(lib_a-mprec.o)
                0x00006d16                __mdiff
 .text.__d2b    0x00006dd4       0x9c e:/cypress/psoc creator/4.2/psoc creator/import/gnu/arm/5.4.1/bin/../lib/gcc/arm-none-eabi/5.4.1/../../../../arm-none-eabi/lib/armv7-m\libg_nano.a(lib_a-mprec.o)
                0x00006dd4                __d2b
 .text._calloc_r
                0x00006e70       0x1c e:/cypress/psoc creator/4.2/psoc creator/import/gnu/arm/5.4.1/bin/../lib/gcc/arm-none-eabi/5.4.1/../../../../arm-none-eabi/lib/armv7-m\libg_nano.a(lib_a-nano-callocr.o)
                0x00006e70                _calloc_r
 .text._free_r  0x00006e8c       0x98 e:/cypress/psoc creator/4.2/psoc creator/import/gnu/arm/5.4.1/bin/../lib/gcc/arm-none-eabi/5.4.1/../../../../arm-none-eabi/lib/armv7-m\libg_nano.a(lib_a-nano-freer.o)
                0x00006e8c                _free_r
 .text._malloc_r
                0x00006f24       0xbc e:/cypress/psoc creator/4.2/psoc creator/import/gnu/arm/5.4.1/bin/../lib/gcc/arm-none-eabi/5.4.1/../../../../arm-none-eabi/lib/armv7-m\libg_nano.a(lib_a-nano-mallocr.o)
                0x00006f24                _malloc_r
 .text.__ssputs_r
                0x00006fe0       0xb2 e:/cypress/psoc creator/4.2/psoc creator/import/gnu/arm/5.4.1/bin/../lib/gcc/arm-none-eabi/5.4.1/../../../../arm-none-eabi/lib/armv7-m\libg_nano.a(lib_a-nano-svfprintf.o)
                0x00006fe0                __ssputs_r
 *fill*         0x00007092        0x2 
 .text._svfprintf_r
                0x00007094      0x1e8 e:/cypress/psoc creator/4.2/psoc creator/import/gnu/arm/5.4.1/bin/../lib/gcc/arm-none-eabi/5.4.1/../../../../arm-none-eabi/lib/armv7-m\libg_nano.a(lib_a-nano-svfprintf.o)
                0x00007094                _svfiprintf_r
                0x00007094                _svfprintf_r
 .text._sungetc_r
                0x0000727c       0x7c e:/cypress/psoc creator/4.2/psoc creator/import/gnu/arm/5.4.1/bin/../lib/gcc/arm-none-eabi/5.4.1/../../../../arm-none-eabi/lib/armv7-m\libg_nano.a(lib_a-nano-svfscanf.o)
                0x0000727c                _sungetc_r
 .text.__ssrefill_r
                0x000072f8       0x3a e:/cypress/psoc creator/4.2/psoc creator/import/gnu/arm/5.4.1/bin/../lib/gcc/arm-none-eabi/5.4.1/../../../../arm-none-eabi/lib/armv7-m\libg_nano.a(lib_a-nano-svfscanf.o)
                0x000072f8                __ssrefill_r
 *fill*         0x00007332        0x2 
 .text.__ssvfscanf_r
                0x00007334      0x2a8 e:/cypress/psoc creator/4.2/psoc creator/import/gnu/arm/5.4.1/bin/../lib/gcc/arm-none-eabi/5.4.1/../../../../arm-none-eabi/lib/armv7-m\libg_nano.a(lib_a-nano-svfscanf.o)
                0x00007334                __ssvfiscanf_r
                0x00007334                __ssvfscanf_r
 .text._scanf_chars
                0x000075dc       0xcc e:/cypress/psoc creator/4.2/psoc creator/import/gnu/arm/5.4.1/bin/../lib/gcc/arm-none-eabi/5.4.1/../../../../arm-none-eabi/lib/armv7-m\libg_nano.a(lib_a-nano-vfscanf_i.o)
                0x000075dc                _scanf_chars
 .text._scanf_i
                0x000076a8      0x1e4 e:/cypress/psoc creator/4.2/psoc creator/import/gnu/arm/5.4.1/bin/../lib/gcc/arm-none-eabi/5.4.1/../../../../arm-none-eabi/lib/armv7-m\libg_nano.a(lib_a-nano-vfscanf_i.o)
                0x000076a8                _scanf_i
 .text._putc_r  0x0000788c       0x6c e:/cypress/psoc creator/4.2/psoc creator/import/gnu/arm/5.4.1/bin/../lib/gcc/arm-none-eabi/5.4.1/../../../../arm-none-eabi/lib/armv7-m\libg_nano.a(lib_a-putc.o)
                0x0000788c                _putc_r
 .text._read_r  0x000078f8       0x24 e:/cypress/psoc creator/4.2/psoc creator/import/gnu/arm/5.4.1/bin/../lib/gcc/arm-none-eabi/5.4.1/../../../../arm-none-eabi/lib/armv7-m\libg_nano.a(lib_a-readr.o)
                0x000078f8                _read_r
 .text._sbrk_r  0x0000791c       0x20 e:/cypress/psoc creator/4.2/psoc creator/import/gnu/arm/5.4.1/bin/../lib/gcc/arm-none-eabi/5.4.1/../../../../arm-none-eabi/lib/armv7-m\libg_nano.a(lib_a-sbrkr.o)
                0x0000791c                _sbrk_r
 .text.__sccl   0x0000793c       0x60 e:/cypress/psoc creator/4.2/psoc creator/import/gnu/arm/5.4.1/bin/../lib/gcc/arm-none-eabi/5.4.1/../../../../arm-none-eabi/lib/armv7-m\libg_nano.a(lib_a-sccl.o)
                0x0000793c                __sccl
 .text.strncmp  0x0000799c       0x2a e:/cypress/psoc creator/4.2/psoc creator/import/gnu/arm/5.4.1/bin/../lib/gcc/arm-none-eabi/5.4.1/../../../../arm-none-eabi/lib/armv7-m\libg_nano.a(lib_a-strncmp.o)
                0x0000799c                strncmp
 *fill*         0x000079c6        0x2 
 .text._strtoul_r
                0x000079c8       0xfc e:/cypress/psoc creator/4.2/psoc creator/import/gnu/arm/5.4.1/bin/../lib/gcc/arm-none-eabi/5.4.1/../../../../arm-none-eabi/lib/armv7-m\libg_nano.a(lib_a-strtoul.o)
                0x000079c8                _strtoul_r
 .text.__submore
                0x00007ac4       0x72 e:/cypress/psoc creator/4.2/psoc creator/import/gnu/arm/5.4.1/bin/../lib/gcc/arm-none-eabi/5.4.1/../../../../arm-none-eabi/lib/armv7-m\libg_nano.a(lib_a-ungetc.o)
                0x00007ac4                __submore
 *fill*         0x00007b36        0x2 
 .text.__swbuf_r
                0x00007b38       0xa8 e:/cypress/psoc creator/4.2/psoc creator/import/gnu/arm/5.4.1/bin/../lib/gcc/arm-none-eabi/5.4.1/../../../../arm-none-eabi/lib/armv7-m\libg_nano.a(lib_a-wbuf.o)
                0x00007b38                __swbuf_r
 .text.__swsetup_r
                0x00007be0       0xdc e:/cypress/psoc creator/4.2/psoc creator/import/gnu/arm/5.4.1/bin/../lib/gcc/arm-none-eabi/5.4.1/../../../../arm-none-eabi/lib/armv7-m\libg_nano.a(lib_a-wsetup.o)
                0x00007be0                __swsetup_r
 .text.__env_lock
                0x00007cbc        0x2 e:/cypress/psoc creator/4.2/psoc creator/import/gnu/arm/5.4.1/bin/../lib/gcc/arm-none-eabi/5.4.1/../../../../arm-none-eabi/lib/armv7-m\libg_nano.a(lib_a-envlock.o)
                0x00007cbc                __env_lock
 .text.__env_unlock
                0x00007cbe        0x2 e:/cypress/psoc creator/4.2/psoc creator/import/gnu/arm/5.4.1/bin/../lib/gcc/arm-none-eabi/5.4.1/../../../../arm-none-eabi/lib/armv7-m\libg_nano.a(lib_a-envlock.o)
                0x00007cbe                __env_unlock
 .text.__sflush_r
                0x00007cc0      0x10c e:/cypress/psoc creator/4.2/psoc creator/import/gnu/arm/5.4.1/bin/../lib/gcc/arm-none-eabi/5.4.1/../../../../arm-none-eabi/lib/armv7-m\libg_nano.a(lib_a-fflush.o)
                0x00007cc0                __sflush_r
 .text._fflush_r
                0x00007dcc       0x54 e:/cypress/psoc creator/4.2/psoc creator/import/gnu/arm/5.4.1/bin/../lib/gcc/arm-none-eabi/5.4.1/../../../../arm-none-eabi/lib/armv7-m\libg_nano.a(lib_a-fflush.o)
                0x00007dcc                _fflush_r
 .text._cleanup_r
                0x00007e20        0xc e:/cypress/psoc creator/4.2/psoc creator/import/gnu/arm/5.4.1/bin/../lib/gcc/arm-none-eabi/5.4.1/../../../../arm-none-eabi/lib/armv7-m\libg_nano.a(lib_a-findfp.o)
                0x00007e20                _cleanup_r
 .text.std.isra.0
                0x00007e2c       0x48 e:/cypress/psoc creator/4.2/psoc creator/import/gnu/arm/5.4.1/bin/../lib/gcc/arm-none-eabi/5.4.1/../../../../arm-none-eabi/lib/armv7-m\libg_nano.a(lib_a-findfp.o)
 .text.__sfmoreglue
                0x00007e74       0x2c e:/cypress/psoc creator/4.2/psoc creator/import/gnu/arm/5.4.1/bin/../lib/gcc/arm-none-eabi/5.4.1/../../../../arm-none-eabi/lib/armv7-m\libg_nano.a(lib_a-findfp.o)
                0x00007e74                __sfmoreglue
 .text.__sinit  0x00007ea0       0x60 e:/cypress/psoc creator/4.2/psoc creator/import/gnu/arm/5.4.1/bin/../lib/gcc/arm-none-eabi/5.4.1/../../../../arm-none-eabi/lib/armv7-m\libg_nano.a(lib_a-findfp.o)
                0x00007ea0                __sinit
 .text.__sfp    0x00007f00       0x78 e:/cypress/psoc creator/4.2/psoc creator/import/gnu/arm/5.4.1/bin/../lib/gcc/arm-none-eabi/5.4.1/../../../../arm-none-eabi/lib/armv7-m\libg_nano.a(lib_a-findfp.o)
                0x00007f00                __sfp
 .text._fwalk_reent
                0x00007f78       0x3c e:/cypress/psoc creator/4.2/psoc creator/import/gnu/arm/5.4.1/bin/../lib/gcc/arm-none-eabi/5.4.1/../../../../arm-none-eabi/lib/armv7-m\libg_nano.a(lib_a-fwalk.o)
                0x00007f78                _fwalk_reent
 .text.__swhatbuf_r
                0x00007fb4       0x46 e:/cypress/psoc creator/4.2/psoc creator/import/gnu/arm/5.4.1/bin/../lib/gcc/arm-none-eabi/5.4.1/../../../../arm-none-eabi/lib/armv7-m\libg_nano.a(lib_a-makebuf.o)
                0x00007fb4                __swhatbuf_r
 *fill*         0x00007ffa        0x2 
 .text.__smakebuf_r
                0x00007ffc       0x78 e:/cypress/psoc creator/4.2/psoc creator/import/gnu/arm/5.4.1/bin/../lib/gcc/arm-none-eabi/5.4.1/../../../../arm-none-eabi/lib/armv7-m\libg_nano.a(lib_a-makebuf.o)
                0x00007ffc                __smakebuf_r
 .text.memmove  0x00008074       0x36 e:/cypress/psoc creator/4.2/psoc creator/import/gnu/arm/5.4.1/bin/../lib/gcc/arm-none-eabi/5.4.1/../../../../arm-none-eabi/lib/armv7-m\libg_nano.a(lib_a-memmove.o)
                0x00008074                memmove
 .text.__malloc_lock
                0x000080aa        0x2 e:/cypress/psoc creator/4.2/psoc creator/import/gnu/arm/5.4.1/bin/../lib/gcc/arm-none-eabi/5.4.1/../../../../arm-none-eabi/lib/armv7-m\libg_nano.a(lib_a-mlock.o)
                0x000080aa                __malloc_lock
 .text.__malloc_unlock
                0x000080ac        0x2 e:/cypress/psoc creator/4.2/psoc creator/import/gnu/arm/5.4.1/bin/../lib/gcc/arm-none-eabi/5.4.1/../../../../arm-none-eabi/lib/armv7-m\libg_nano.a(lib_a-mlock.o)
                0x000080ac                __malloc_unlock
 .text._realloc_r
                0x000080ae       0x4c e:/cypress/psoc creator/4.2/psoc creator/import/gnu/arm/5.4.1/bin/../lib/gcc/arm-none-eabi/5.4.1/../../../../arm-none-eabi/lib/armv7-m\libg_nano.a(lib_a-nano-reallocr.o)
                0x000080ae                _realloc_r
 *fill*         0x000080fa        0x2 
 .text._fstat_r
                0x000080fc       0x24 e:/cypress/psoc creator/4.2/psoc creator/import/gnu/arm/5.4.1/bin/../lib/gcc/arm-none-eabi/5.4.1/../../../../arm-none-eabi/lib/armv7-m\libg_nano.a(lib_a-fstatr.o)
                0x000080fc                _fstat_r
 .text._isatty_r
                0x00008120       0x20 e:/cypress/psoc creator/4.2/psoc creator/import/gnu/arm/5.4.1/bin/../lib/gcc/arm-none-eabi/5.4.1/../../../../arm-none-eabi/lib/armv7-m\libg_nano.a(lib_a-isattyr.o)
                0x00008120                _isatty_r
 .text._malloc_usable_size_r
                0x00008140       0x14 e:/cypress/psoc creator/4.2/psoc creator/import/gnu/arm/5.4.1/bin/../lib/gcc/arm-none-eabi/5.4.1/../../../../arm-none-eabi/lib/armv7-m\libg_nano.a(lib_a-nano-msizer.o)
                0x00008140                _malloc_usable_size_r
 .text._close   0x00008154       0x10 e:/cypress/psoc creator/4.2/psoc creator/import/gnu/arm/5.4.1/bin/../lib/gcc/arm-none-eabi/5.4.1/../../../../arm-none-eabi/lib/armv7-m\libnosys.a(close.o)
                0x00008154                _close
 .text._fstat   0x00008164       0x10 e:/cypress/psoc creator/4.2/psoc creator/import/gnu/arm/5.4.1/bin/../lib/gcc/arm-none-eabi/5.4.1/../../../../arm-none-eabi/lib/armv7-m\libnosys.a(fstat.o)
                0x00008164                _fstat
 .text._isatty  0x00008174       0x10 e:/cypress/psoc creator/4.2/psoc creator/import/gnu/arm/5.4.1/bin/../lib/gcc/arm-none-eabi/5.4.1/../../../../arm-none-eabi/lib/armv7-m\libnosys.a(isatty.o)
                0x00008174                _isatty
 .text._lseek   0x00008184       0x10 e:/cypress/psoc creator/4.2/psoc creator/import/gnu/arm/5.4.1/bin/../lib/gcc/arm-none-eabi/5.4.1/../../../../arm-none-eabi/lib/armv7-m\libnosys.a(lseek.o)
                0x00008184                _lseek
 .text._read    0x00008194       0x10 e:/cypress/psoc creator/4.2/psoc creator/import/gnu/arm/5.4.1/bin/../lib/gcc/arm-none-eabi/5.4.1/../../../../arm-none-eabi/lib/armv7-m\libnosys.a(read.o)
                0x00008194                _read
 .text._write   0x000081a4       0x10 e:/cypress/psoc creator/4.2/psoc creator/import/gnu/arm/5.4.1/bin/../lib/gcc/arm-none-eabi/5.4.1/../../../../arm-none-eabi/lib/armv7-m\libnosys.a(write.o)
                0x000081a4                _write
 *(.plt)
 *(.gnu.warning)
 *(.glue_7t)
 .glue_7t       0x000081b4        0x0 linker stubs
 *(.glue_7)
 .glue_7        0x000081b4        0x0 linker stubs
 *(.vfp11_veneer)
 .vfp11_veneer  0x000081b4        0x0 linker stubs
 *(.bootloader)
 *(.ARM.extab* .gnu.linkonce.armextab.*)
 *(.gcc_except_table)

.v4_bx          0x000081b4        0x0
 .v4_bx         0x000081b4        0x0 linker stubs

.iplt           0x000081b4        0x0
 .iplt          0x000081b4        0x0 e:/cypress/psoc creator/4.2/psoc creator/import/gnu/arm/5.4.1/bin/../lib/gcc/arm-none-eabi/5.4.1/armv7-m/crtbegin.o

.eh_frame_hdr
 *(.eh_frame_hdr)

.eh_frame       0x000081b4        0x4
 *(.eh_frame)
 .eh_frame      0x000081b4        0x0 e:/cypress/psoc creator/4.2/psoc creator/import/gnu/arm/5.4.1/bin/../lib/gcc/arm-none-eabi/5.4.1/armv7-m/crtbegin.o
 .eh_frame      0x000081b4        0x4 e:/cypress/psoc creator/4.2/psoc creator/import/gnu/arm/5.4.1/bin/../lib/gcc/arm-none-eabi/5.4.1/armv7-m/crtend.o
                [!provide]                PROVIDE (__exidx_start, .)

.ARM.exidx
 *(.ARM.exidx* .gnu.linkonce.armexidx.*)
                0x000081b8                __exidx_end = .

.rodata         0x000081b8     0x11a0
 *(.rodata .rodata.* .gnu.linkonce.r.*)
 .rodata        0x000081b8       0x1b .\CortexM3\ARM_GCC_541\Debug\SSD1306.o
 *fill*         0x000081d3        0x1 
 .rodata        0x000081d4        0xc .\CortexM3\ARM_GCC_541\Debug\gfx.o
 .rodata        0x000081e0        0xc .\CortexM3\ARM_GCC_541\Debug\gfx_impl.o
 .rodata        0x000081ec       0x7c .\CortexM3\ARM_GCC_541\Debug\BME280_INTF.o
 .rodata        0x00008268      0xbbe .\CortexM3\ARM_GCC_541\Debug\command.o
 *fill*         0x00008e26        0x2 
 .rodata        0x00008e28      0x134 .\CortexM3\ARM_GCC_541\Debug\menu.o
 .rodata        0x00008f5c       0x58 .\CortexM3\ARM_GCC_541\Debug\cyfitter_cfg.o
 .rodata.str1.1
                0x00008fb4       0x81 e:/cypress/psoc creator/4.2/psoc creator/import/gnu/arm/5.4.1/bin/../lib/gcc/arm-none-eabi/5.4.1/../../../../arm-none-eabi/lib/armv7-m\libg_nano.a(lib_a-getopt.o)
                                 0x84 (size before relaxing)
 .rodata.str1.1
                0x00009035        0x2 e:/cypress/psoc creator/4.2/psoc creator/import/gnu/arm/5.4.1/bin/../lib/gcc/arm-none-eabi/5.4.1/../../../../arm-none-eabi/lib/armv7-m\libg_nano.a(lib_a-impure.o)
 *fill*         0x00009037        0x1 
 .rodata._global_impure_ptr
                0x00009038        0x4 e:/cypress/psoc creator/4.2/psoc creator/import/gnu/arm/5.4.1/bin/../lib/gcc/arm-none-eabi/5.4.1/../../../../arm-none-eabi/lib/armv7-m\libg_nano.a(lib_a-impure.o)
                0x00009038                _global_impure_ptr
 .rodata.str1.1
                0x0000903c       0x10 e:/cypress/psoc creator/4.2/psoc creator/import/gnu/arm/5.4.1/bin/../lib/gcc/arm-none-eabi/5.4.1/../../../../arm-none-eabi/lib/armv7-m\libg_nano.a(lib_a-nano-vfprintf_float.o)
                                 0x12 (size before relaxing)
 .rodata.str1.1
                0x0000904c       0x22 e:/cypress/psoc creator/4.2/psoc creator/import/gnu/arm/5.4.1/bin/../lib/gcc/arm-none-eabi/5.4.1/../../../../arm-none-eabi/lib/armv7-m\libg_nano.a(lib_a-nano-vfprintf_i.o)
 .rodata._ctype_
                0x0000906e      0x101 e:/cypress/psoc creator/4.2/psoc creator/import/gnu/arm/5.4.1/bin/../lib/gcc/arm-none-eabi/5.4.1/../../../../arm-none-eabi/lib/armv7-m\libg_nano.a(lib_a-ctype_.o)
                0x0000906e                _ctype_
 .rodata.str1.1
                0x0000916f        0xd e:/cypress/psoc creator/4.2/psoc creator/import/gnu/arm/5.4.1/bin/../lib/gcc/arm-none-eabi/5.4.1/../../../../arm-none-eabi/lib/armv7-m\libg_nano.a(lib_a-dtoa.o)
                                  0xf (size before relaxing)
 .rodata.str1.1
                0x0000917c        0x8 e:/cypress/psoc creator/4.2/psoc creator/import/gnu/arm/5.4.1/bin/../lib/gcc/arm-none-eabi/5.4.1/../../../../arm-none-eabi/lib/armv7-m\libg_nano.a(lib_a-locale.o)
                                  0xb (size before relaxing)
 *fill*         0x00009184        0x4 
 .rodata.__mprec_tens
                0x00009188       0xc8 e:/cypress/psoc creator/4.2/psoc creator/import/gnu/arm/5.4.1/bin/../lib/gcc/arm-none-eabi/5.4.1/../../../../arm-none-eabi/lib/armv7-m\libg_nano.a(lib_a-mprec.o)
                0x00009188                __mprec_tens
 .rodata.p05.5408
                0x00009250        0xc e:/cypress/psoc creator/4.2/psoc creator/import/gnu/arm/5.4.1/bin/../lib/gcc/arm-none-eabi/5.4.1/../../../../arm-none-eabi/lib/armv7-m\libg_nano.a(lib_a-mprec.o)
 *fill*         0x0000925c        0x4 
 .rodata.__mprec_bigtens
                0x00009260       0x28 e:/cypress/psoc creator/4.2/psoc creator/import/gnu/arm/5.4.1/bin/../lib/gcc/arm-none-eabi/5.4.1/../../../../arm-none-eabi/lib/armv7-m\libg_nano.a(lib_a-mprec.o)
                0x00009260                __mprec_bigtens
 .rodata.str1.1
                0x00009288       0x11 e:/cypress/psoc creator/4.2/psoc creator/import/gnu/arm/5.4.1/bin/../lib/gcc/arm-none-eabi/5.4.1/../../../../arm-none-eabi/lib/armv7-m\libg_nano.a(lib_a-nano-svfprintf.o)
 .rodata.str1.1
                0x00009299        0x4 e:/cypress/psoc creator/4.2/psoc creator/import/gnu/arm/5.4.1/bin/../lib/gcc/arm-none-eabi/5.4.1/../../../../arm-none-eabi/lib/armv7-m\libg_nano.a(lib_a-nano-svfscanf.o)
 *fill*         0x00009299        0x3 
 .rodata        0x0000929c        0xc e:/cypress/psoc creator/4.2/psoc creator/import/gnu/arm/5.4.1/bin/../lib/gcc/arm-none-eabi/5.4.1/../../../../arm-none-eabi/lib/armv7-m\libg_nano.a(lib_a-nano-vfscanf_i.o)
 .rodata.str1.1
                0x000092a8       0x1b e:/cypress/psoc creator/4.2/psoc creator/import/gnu/arm/5.4.1/bin/../lib/gcc/arm-none-eabi/5.4.1/../../../../arm-none-eabi/lib/armv7-m\libg_nano.a(lib_a-nano-vfscanf_i.o)
 *fill*         0x000092c3        0x1 
 .rodata.__sf_fake_stdin
                0x000092c4       0x20 e:/cypress/psoc creator/4.2/psoc creator/import/gnu/arm/5.4.1/bin/../lib/gcc/arm-none-eabi/5.4.1/../../../../arm-none-eabi/lib/armv7-m\libg_nano.a(lib_a-findfp.o)
                0x000092c4                __sf_fake_stdin
 .rodata.__sf_fake_stdout
                0x000092e4       0x20 e:/cypress/psoc creator/4.2/psoc creator/import/gnu/arm/5.4.1/bin/../lib/gcc/arm-none-eabi/5.4.1/../../../../arm-none-eabi/lib/armv7-m\libg_nano.a(lib_a-findfp.o)
                0x000092e4                __sf_fake_stdout
 .rodata.__sf_fake_stderr
                0x00009304       0x20 e:/cypress/psoc creator/4.2/psoc creator/import/gnu/arm/5.4.1/bin/../lib/gcc/arm-none-eabi/5.4.1/../../../../arm-none-eabi/lib/armv7-m\libg_nano.a(lib_a-findfp.o)
                0x00009304                __sf_fake_stderr
                0x00009324                . = ALIGN (0x4)
 *(.init)
 .init          0x00009324        0x4 e:/cypress/psoc creator/4.2/psoc creator/import/gnu/arm/5.4.1/bin/../lib/gcc/arm-none-eabi/5.4.1/armv7-m/crti.o
                0x00009324                _init
 .init          0x00009328        0x8 e:/cypress/psoc creator/4.2/psoc creator/import/gnu/arm/5.4.1/bin/../lib/gcc/arm-none-eabi/5.4.1/armv7-m/crtn.o
                0x00009330                . = ALIGN (0x4)
                0x00009330                __preinit_array_start = .
 *(.preinit_array)
                0x00009330                __preinit_array_end = .
                0x00009330                . = ALIGN (0x4)
                0x00009330                __init_array_start = .
 *(SORT(.init_array.*))
 *(.init_array)
 .init_array    0x00009330        0x4 e:/cypress/psoc creator/4.2/psoc creator/import/gnu/arm/5.4.1/bin/../lib/gcc/arm-none-eabi/5.4.1/armv7-m/crtbegin.o
 .init_array    0x00009334        0x4 .\CortexM3\ARM_GCC_541\Debug\Cm3Start.o
                0x00009338                __init_array_end = .
                0x00009338                . = ALIGN (0x4)
 *(.fini)
 .fini          0x00009338        0x4 e:/cypress/psoc creator/4.2/psoc creator/import/gnu/arm/5.4.1/bin/../lib/gcc/arm-none-eabi/5.4.1/armv7-m/crti.o
                0x00009338                _fini
 .fini          0x0000933c        0x8 e:/cypress/psoc creator/4.2/psoc creator/import/gnu/arm/5.4.1/bin/../lib/gcc/arm-none-eabi/5.4.1/armv7-m/crtn.o
                0x00009344                . = ALIGN (0x4)
                0x00009344                __fini_array_start = .
 *(.fini_array)
 .fini_array    0x00009344        0x4 e:/cypress/psoc creator/4.2/psoc creator/import/gnu/arm/5.4.1/bin/../lib/gcc/arm-none-eabi/5.4.1/armv7-m/crtbegin.o
 *(SORT(.fini_array.*))
                0x00009348                __fini_array_end = .
                0x00009348                . = ALIGN (0x4)
 *crtbegin.o(.ctors)
 *(EXCLUDE_FILE(*crtend.o) .ctors)
 *(SORT(.ctors.*))
 *crtend.o(.ctors)
                0x00009348                . = ALIGN (0x4)
 *crtbegin.o(.dtors)
 *(EXCLUDE_FILE(*crtend.o) .dtors)
 *(SORT(.dtors.*))
 *crtend.o(.dtors)
                0x00009348                . = ALIGN (0x4)
                0x00009348                __cy_regions = .
                0x00009348        0x4 LONG 0x9358 __cy_region_init_ram
                0x0000934c        0x4 LONG 0x1fff80c8 __cy_region_start_data
                0x00009350        0x4 LONG 0x6f8 __cy_region_init_size_ram
                0x00009354        0x4 LONG 0xeb8 __cy_region_zero_size_ram
                0x00009358                __cy_regions_end = .
                0x00009358                . = ALIGN (0x8)
                0x00009358                _etext = .

.cy_checksum_exclude
                0x00009358        0x0
 *(.cy_checksum_exclude)

.ramvectors     0x1fff8000       0xc0
                0x1fff8000                __cy_region_start_ram = .
 *(.ramvectors)
 .ramvectors    0x1fff8000       0xc0 .\CortexM3\ARM_GCC_541\Debug\Cm3Start.o
                0x1fff8000                CyRamVectors

.noinit         0x1fff80c0        0x5
 *(.noinit)
 .noinit        0x1fff80c0        0x4 .\CortexM3\ARM_GCC_541\Debug\Cm3Start.o
 .noinit        0x1fff80c4        0x1 .\CortexM3\ARM_GCC_541\Debug\Rhea.a(CyLib.o)
                0x1fff80c4                CyResetStatus

.data           0x1fff80c8      0x6f8 load address 0x00009358
                0x1fff80c8                __cy_region_start_data = .
 *(.jcr)
 .jcr           0x1fff80c8        0x0 e:/cypress/psoc creator/4.2/psoc creator/import/gnu/arm/5.4.1/bin/../lib/gcc/arm-none-eabi/5.4.1/armv7-m/crtbegin.o
 .jcr           0x1fff80c8        0x4 e:/cypress/psoc creator/4.2/psoc creator/import/gnu/arm/5.4.1/bin/../lib/gcc/arm-none-eabi/5.4.1/armv7-m/crtend.o
 *(.got.plt)
 *(.got)
 *(.shdata)
 *(.data .data.* .gnu.linkonce.d.*)
 .data          0x1fff80cc      0x640 .\CortexM3\ARM_GCC_541\Debug\gfx.o
                0x1fff80cc                codefont_8x8_data
                0x1fff83ec                codefont_8x8_descriptors
 .data          0x1fff870c        0x4 .\CortexM3\ARM_GCC_541\Debug\Cm3Start.o
 .data.optopt   0x1fff8710        0x4 e:/cypress/psoc creator/4.2/psoc creator/import/gnu/arm/5.4.1/bin/../lib/gcc/arm-none-eabi/5.4.1/../../../../arm-none-eabi/lib/armv7-m\libg_nano.a(lib_a-getopt.o)
                0x1fff8710                optopt
 .data.opterr   0x1fff8714        0x4 e:/cypress/psoc creator/4.2/psoc creator/import/gnu/arm/5.4.1/bin/../lib/gcc/arm-none-eabi/5.4.1/../../../../arm-none-eabi/lib/armv7-m\libg_nano.a(lib_a-getopt.o)
                0x1fff8714                opterr
 .data.impure_data
                0x1fff8718       0x60 e:/cypress/psoc creator/4.2/psoc creator/import/gnu/arm/5.4.1/bin/../lib/gcc/arm-none-eabi/5.4.1/../../../../arm-none-eabi/lib/armv7-m\libg_nano.a(lib_a-impure.o)
 .data._impure_ptr
                0x1fff8778        0x4 e:/cypress/psoc creator/4.2/psoc creator/import/gnu/arm/5.4.1/bin/../lib/gcc/arm-none-eabi/5.4.1/../../../../arm-none-eabi/lib/armv7-m\libg_nano.a(lib_a-impure.o)
                0x1fff8778                _impure_ptr
 .data.__ctype_ptr__
                0x1fff877c        0x4 e:/cypress/psoc creator/4.2/psoc creator/import/gnu/arm/5.4.1/bin/../lib/gcc/arm-none-eabi/5.4.1/../../../../arm-none-eabi/lib/armv7-m\libg_nano.a(lib_a-ctype_.o)
                0x1fff877c                __ctype_ptr__
 .data.lconv    0x1fff8780       0x38 e:/cypress/psoc creator/4.2/psoc creator/import/gnu/arm/5.4.1/bin/../lib/gcc/arm-none-eabi/5.4.1/../../../../arm-none-eabi/lib/armv7-m\libg_nano.a(lib_a-locale.o)
 .data.environ  0x1fff87b8        0x4 e:/cypress/psoc creator/4.2/psoc creator/import/gnu/arm/5.4.1/bin/../lib/gcc/arm-none-eabi/5.4.1/../../../../arm-none-eabi/lib/armv7-m\libg_nano.a(lib_a-environ.o)
                0x1fff87b8                environ
                0x1fff87c0                . = ALIGN (0x8)
 *fill*         0x1fff87bc        0x4 
 *(.ram)
                0x1fff87c0                _edata = .

.igot.plt       0x1fff87c0        0x0 load address 0x00009a50
 .igot.plt      0x1fff87c0        0x0 e:/cypress/psoc creator/4.2/psoc creator/import/gnu/arm/5.4.1/bin/../lib/gcc/arm-none-eabi/5.4.1/armv7-m/crtbegin.o

.bss            0x1fff87c0      0xeb8 load address 0x00009a50
                0x1fff87c0                PROVIDE (__bss_start__, .)
 *(.shbss)
 *(.bss .bss.* .gnu.linkonce.b.*)
 .bss           0x1fff87c0       0x1c e:/cypress/psoc creator/4.2/psoc creator/import/gnu/arm/5.4.1/bin/../lib/gcc/arm-none-eabi/5.4.1/armv7-m/crtbegin.o
 .bss           0x1fff87dc       0x41 .\CortexM3\ARM_GCC_541\Debug\BME280.o
 *fill*         0x1fff881d        0x3 
 .bss           0x1fff8820      0x40c .\CortexM3\ARM_GCC_541\Debug\SSD1306.o
 .bss           0x1fff8c2c       0x10 .\CortexM3\ARM_GCC_541\Debug\gfx.o
 *fill*         0x1fff8c3c        0x4 
 .bss           0x1fff8c40      0x810 .\CortexM3\ARM_GCC_541\Debug\sensor.o
 .bss           0x1fff9450        0x1 .\CortexM3\ARM_GCC_541\Debug\command.o
                0x1fff9450                serial_data_ready
 .bss           0x1fff9451        0x3 .\CortexM3\ARM_GCC_541\Debug\input.o
                0x1fff9451                button_enter_pressed
                0x1fff9452                button_right_pressed
                0x1fff9453                button_left_pressed
 *fill*         0x1fff9454        0x4 
 .bss           0x1fff9458       0xd8 .\CortexM3\ARM_GCC_541\Debug\menu.o
 .bss           0x1fff9530        0x1 .\CortexM3\ARM_GCC_541\Debug\Rhea.a(I2C.o)
                0x1fff9530                I2C_initVar
 .bss           0x1fff9531        0x2 .\CortexM3\ARM_GCC_541\Debug\Rhea.a(UART.o)
                0x1fff9531                UART_initVar
 .bss           0x1fff9533        0x1 .\CortexM3\ARM_GCC_541\Debug\Rhea.a(SENSOR_TIMER.o)
                0x1fff9533                SENSOR_TIMER_initVar
 .bss.optwhere  0x1fff9534        0x4 e:/cypress/psoc creator/4.2/psoc creator/import/gnu/arm/5.4.1/bin/../lib/gcc/arm-none-eabi/5.4.1/../../../../arm-none-eabi/lib/armv7-m\libg_nano.a(lib_a-getopt.o)
 .bss.optind    0x1fff9538        0x4 e:/cypress/psoc creator/4.2/psoc creator/import/gnu/arm/5.4.1/bin/../lib/gcc/arm-none-eabi/5.4.1/../../../../arm-none-eabi/lib/armv7-m\libg_nano.a(lib_a-getopt.o)
                0x1fff9538                optind
 .bss.optarg    0x1fff953c        0x4 e:/cypress/psoc creator/4.2/psoc creator/import/gnu/arm/5.4.1/bin/../lib/gcc/arm-none-eabi/5.4.1/../../../../arm-none-eabi/lib/armv7-m\libg_nano.a(lib_a-getopt.o)
                0x1fff953c                optarg
 .bss.__malloc_sbrk_start
                0x1fff9540        0x4 e:/cypress/psoc creator/4.2/psoc creator/import/gnu/arm/5.4.1/bin/../lib/gcc/arm-none-eabi/5.4.1/../../../../arm-none-eabi/lib/armv7-m\libg_nano.a(lib_a-nano-mallocr.o)
                0x1fff9540                __malloc_sbrk_start
 .bss.__malloc_free_list
                0x1fff9544        0x4 e:/cypress/psoc creator/4.2/psoc creator/import/gnu/arm/5.4.1/bin/../lib/gcc/arm-none-eabi/5.4.1/../../../../arm-none-eabi/lib/armv7-m\libg_nano.a(lib_a-nano-mallocr.o)
                0x1fff9544                __malloc_free_list
 .bss.initial_env
                0x1fff9548        0x4 e:/cypress/psoc creator/4.2/psoc creator/import/gnu/arm/5.4.1/bin/../lib/gcc/arm-none-eabi/5.4.1/../../../../arm-none-eabi/lib/armv7-m\libg_nano.a(lib_a-environ.o)
 *(COMMON)
 COMMON         0x1fff954c      0x105 .\CortexM3\ARM_GCC_541\Debug\command.o
                0x1fff954c                bufferSize
                0x1fff9550                serialBuffer
 *fill*         0x1fff9651        0x3 
 COMMON         0x1fff9654        0x8 .\CortexM3\ARM_GCC_541\Debug\menu.o
                0x1fff9654                mainStateMachine
 COMMON         0x1fff965c        0x1 .\CortexM3\ARM_GCC_541\Debug\Rhea.a(I2C.o)
                0x1fff965c                I2C_state
 *fill*         0x1fff965d        0x3 
 COMMON         0x1fff9660       0x10 .\CortexM3\ARM_GCC_541\Debug\Rhea.a(I2C_MASTER.o)
                0x1fff9660                I2C_mstrWrBufIndex
                0x1fff9661                I2C_mstrWrBufSize
                0x1fff9662                I2C_mstrStatus
                0x1fff9664                I2C_mstrRdBufPtr
                0x1fff9668                I2C_mstrControl
                0x1fff9669                I2C_mstrRdBufSize
                0x1fff966a                I2C_mstrRdBufIndex
                0x1fff966c                I2C_mstrWrBufPtr
 COMMON         0x1fff9670        0x4 e:/cypress/psoc creator/4.2/psoc creator/import/gnu/arm/5.4.1/bin/../lib/gcc/arm-none-eabi/5.4.1/../../../../arm-none-eabi/lib/armv7-m\libg_nano.a(lib_a-reent.o)
                0x1fff9670                errno
                0x1fff9678                . = ALIGN (0x8)
 *fill*         0x1fff9674        0x4 
 *(.ram.b)
                0x1fff9678                _end = .
                0x1fff9678                __end = .
                0x1fff9678                PROVIDE (end, .)
                0x1fff9678                PROVIDE (__bss_end__, .)
                0x00009358                __cy_region_init_ram = LOADADDR (.data)
                0x000006f8                __cy_region_init_size_ram = (_edata - ADDR (.data))
                0x00000eb8                __cy_region_zero_size_ram = (_end - _edata)

.heap           0x1fff9678       0x80 load address 0x00009a50
                0x1fff9678                . = _end
                0x1fff96f8                . = (. + 0x80)
 *fill*         0x1fff9678       0x80 
                0x1fff96f8                __cy_heap_limit = .

.stack          0x20007800      0x800
                0x20007800                __cy_stack_limit = .
                0x20008000                . = (. + 0x800)
 *fill*         0x20007800      0x800 
                0x00000001                ASSERT ((__cy_stack_limit >= __cy_heap_limit), region RAM overflowed with stack)
                0x00000000                cy_checksum_exclude_size = (CY_APPL_LOADABLE == 0x1)?SIZEOF (.cy_checksum_exclude):0x0
                0x00000001                ASSERT ((cy_checksum_exclude_size <= CY_CHECKSUM_EXCLUDE_SIZE), CY_BOOT: Section .cy_checksum_exclude size exceedes specified limit.)

.cyloadermeta
 *(.cyloadermeta)

.cyloadablemeta
 *(.cyloadablemeta)

.cyconfigecc    0x80000000      0x498
 *(.cyconfigecc)
 .cyconfigecc   0x80000000      0x498 .\CortexM3\ARM_GCC_541\Debug\cymetadata.o
                0x80000000                cy_meta_configecc

.cycustnvl      0x90000000        0x4
 *(.cycustnvl)
 .cycustnvl     0x90000000        0x4 .\CortexM3\ARM_GCC_541\Debug\cymetadata.o
                0x90000000                cy_meta_custnvl

.cywolatch      0x90100000        0x4
 *(.cywolatch)
 .cywolatch     0x90100000        0x4 .\CortexM3\ARM_GCC_541\Debug\cymetadata.o
                0x90100000                cy_meta_wonvl

.cyeeprom       0x90200000        0x0
 *(.cyeeprom)
                0x00000001                ASSERT ((. <= ((0x90200000 + ee_offset) + ee_size)), .cyeeprom data will not fit in EEPROM)

.cyflashprotect
                0x90400000      0x100
 *(.cyflashprotect)
 .cyflashprotect
                0x90400000      0x100 .\CortexM3\ARM_GCC_541\Debug\cymetadata.o
                0x90400000                cy_meta_flashprotect

.cymeta         0x90500000        0xc
 *(.cymeta)
 .cymeta        0x90500000        0xc .\CortexM3\ARM_GCC_541\Debug\cymetadata.o
                0x90500000                cy_metadata

.rel.dyn        0x00009a50        0x0 load address 0x9050000c
 .rel.iplt      0x00009a50        0x0 e:/cypress/psoc creator/4.2/psoc creator/import/gnu/arm/5.4.1/bin/../lib/gcc/arm-none-eabi/5.4.1/armv7-m/crtbegin.o

.stab           0x00000000       0x9c
 *(.stab)
 .stab          0x00000000       0x24 e:/cypress/psoc creator/4.2/psoc creator/import/gnu/arm/5.4.1/bin/../lib/gcc/arm-none-eabi/5.4.1/../../../../arm-none-eabi/lib/armv7-m\libnosys.a(close.o)
 .stab          0x00000024       0x18 e:/cypress/psoc creator/4.2/psoc creator/import/gnu/arm/5.4.1/bin/../lib/gcc/arm-none-eabi/5.4.1/../../../../arm-none-eabi/lib/armv7-m\libnosys.a(fstat.o)
                                 0x24 (size before relaxing)
 .stab          0x0000003c       0x18 e:/cypress/psoc creator/4.2/psoc creator/import/gnu/arm/5.4.1/bin/../lib/gcc/arm-none-eabi/5.4.1/../../../../arm-none-eabi/lib/armv7-m\libnosys.a(isatty.o)
                                 0x24 (size before relaxing)
 .stab          0x00000054       0x18 e:/cypress/psoc creator/4.2/psoc creator/import/gnu/arm/5.4.1/bin/../lib/gcc/arm-none-eabi/5.4.1/../../../../arm-none-eabi/lib/armv7-m\libnosys.a(lseek.o)
                                 0x24 (size before relaxing)
 .stab          0x0000006c       0x18 e:/cypress/psoc creator/4.2/psoc creator/import/gnu/arm/5.4.1/bin/../lib/gcc/arm-none-eabi/5.4.1/../../../../arm-none-eabi/lib/armv7-m\libnosys.a(read.o)
                                 0x24 (size before relaxing)
 .stab          0x00000084       0x18 e:/cypress/psoc creator/4.2/psoc creator/import/gnu/arm/5.4.1/bin/../lib/gcc/arm-none-eabi/5.4.1/../../../../arm-none-eabi/lib/armv7-m\libnosys.a(write.o)
                                 0x24 (size before relaxing)

.stabstr        0x00000000      0x14d
 *(.stabstr)
 .stabstr       0x00000000      0x14d e:/cypress/psoc creator/4.2/psoc creator/import/gnu/arm/5.4.1/bin/../lib/gcc/arm-none-eabi/5.4.1/../../../../arm-none-eabi/lib/armv7-m\libnosys.a(close.o)

.debug
 *(.debug)

.line
 *(.line)

.debug_srcinfo
 *(.debug_srcinfo)

.debug_sfnames
 *(.debug_sfnames)

.debug_aranges  0x00000000     0x15b8
 *(.debug_aranges)
 .debug_aranges
                0x00000000      0x108 .\CortexM3\ARM_GCC_541\Debug\BME280.o
 .debug_aranges
                0x00000108      0x298 .\CortexM3\ARM_GCC_541\Debug\MCP7940N.o
 .debug_aranges
                0x000003a0       0x68 .\CortexM3\ARM_GCC_541\Debug\SSD1306.o
 .debug_aranges
                0x00000408       0xc0 .\CortexM3\ARM_GCC_541\Debug\gfx.o
 .debug_aranges
                0x000004c8       0x40 .\CortexM3\ARM_GCC_541\Debug\gfx_impl.o
 .debug_aranges
                0x00000508       0x40 .\CortexM3\ARM_GCC_541\Debug\i2c_rhea.o
 .debug_aranges
                0x00000548       0x40 .\CortexM3\ARM_GCC_541\Debug\i2c_impl.o
 .debug_aranges
                0x00000588       0x30 .\CortexM3\ARM_GCC_541\Debug\alarm.o
 .debug_aranges
                0x000005b8       0x50 .\CortexM3\ARM_GCC_541\Debug\datetime.o
 .debug_aranges
                0x00000608       0x68 .\CortexM3\ARM_GCC_541\Debug\rtc.o
 .debug_aranges
                0x00000670       0x78 .\CortexM3\ARM_GCC_541\Debug\rtc_impl.o
 .debug_aranges
                0x000006e8       0x88 .\CortexM3\ARM_GCC_541\Debug\BME280_INTF.o
 .debug_aranges
                0x00000770       0x68 .\CortexM3\ARM_GCC_541\Debug\sensor.o
 .debug_aranges
                0x000007d8       0x20 .\CortexM3\ARM_GCC_541\Debug\sensor_impl.o
 .debug_aranges
                0x000007f8       0x38 .\CortexM3\ARM_GCC_541\Debug\uart_impl.o
 .debug_aranges
                0x00000830       0x78 .\CortexM3\ARM_GCC_541\Debug\uart_rhea.o
 .debug_aranges
                0x000008a8       0x20 .\CortexM3\ARM_GCC_541\Debug\state.o
 .debug_aranges
                0x000008c8       0x60 .\CortexM3\ARM_GCC_541\Debug\command.o
 .debug_aranges
                0x00000928       0x38 .\CortexM3\ARM_GCC_541\Debug\input.o
 .debug_aranges
                0x00000960       0xa0 .\CortexM3\ARM_GCC_541\Debug\menu.o
 .debug_aranges
                0x00000a00       0x30 .\CortexM3\ARM_GCC_541\Debug\main.o
 .debug_aranges
                0x00000a30       0x60 .\CortexM3\ARM_GCC_541\Debug\cyfitter_cfg.o
 .debug_aranges
                0x00000a90       0x18 .\CortexM3\ARM_GCC_541\Debug\cymetadata.o
 .debug_aranges
                0x00000aa8       0x48 .\CortexM3\ARM_GCC_541\Debug\Cm3Start.o
 .debug_aranges
                0x00000af0       0x38 .\CortexM3\ARM_GCC_541\Debug\Rhea.a(I2C.o)
 .debug_aranges
                0x00000b28       0x20 .\CortexM3\ARM_GCC_541\Debug\Rhea.a(I2C_INT.o)
 .debug_aranges
                0x00000b48       0x38 .\CortexM3\ARM_GCC_541\Debug\Rhea.a(I2C_PM.o)
 .debug_aranges
                0x00000b80       0x80 .\CortexM3\ARM_GCC_541\Debug\Rhea.a(I2C_MASTER.o)
 .debug_aranges
                0x00000c00       0xf0 .\CortexM3\ARM_GCC_541\Debug\Rhea.a(UART.o)
 .debug_aranges
                0x00000cf0       0x80 .\CortexM3\ARM_GCC_541\Debug\Rhea.a(RTC_INTR.o)
 .debug_aranges
                0x00000d70       0x70 .\CortexM3\ARM_GCC_541\Debug\Rhea.a(DEBOUNCE_CLK.o)
 .debug_aranges
                0x00000de0       0x80 .\CortexM3\ARM_GCC_541\Debug\Rhea.a(BTN_RIGHT_INTR.o)
 .debug_aranges
                0x00000e60       0x80 .\CortexM3\ARM_GCC_541\Debug\Rhea.a(BTN_LEFT_INTR.o)
 .debug_aranges
                0x00000ee0       0x80 .\CortexM3\ARM_GCC_541\Debug\Rhea.a(BTN_ENTER_INTR.o)
 .debug_aranges
                0x00000f60       0x88 .\CortexM3\ARM_GCC_541\Debug\Rhea.a(SENSOR_TIMER.o)
 .debug_aranges
                0x00000fe8       0x80 .\CortexM3\ARM_GCC_541\Debug\Rhea.a(SENSOR_1MS.o)
 .debug_aranges
                0x00001068       0x70 .\CortexM3\ARM_GCC_541\Debug\Rhea.a(UART_IntClock.o)
 .debug_aranges
                0x000010d8      0x2a0 .\CortexM3\ARM_GCC_541\Debug\Rhea.a(CyLib.o)
 .debug_aranges
                0x00001378       0x98 .\CortexM3\ARM_GCC_541\Debug\Rhea.a(cyPm.o)
 .debug_aranges
                0x00001410       0x80 .\CortexM3\ARM_GCC_541\Debug\Rhea.a(UART_RX_INTR.o)
 .debug_aranges
                0x00001490       0x20 .\CortexM3\ARM_GCC_541\Debug\Rhea.a(CyBootAsmGnu.o)
 .debug_aranges
                0x000014b0       0x88 .\CortexM3\ARM_GCC_541\Debug\Rhea.a(CyFlash.o)
 .debug_aranges
                0x00001538       0x80 .\CortexM3\ARM_GCC_541\Debug\Rhea.a(CySpc.o)

.debug_pubnames
 *(.debug_pubnames)

.debug_info     0x00000000     0xa5ea
 *(.debug_info .gnu.linkonce.wi.*)
 .debug_info    0x00000000      0x929 .\CortexM3\ARM_GCC_541\Debug\BME280.o
 .debug_info    0x00000929     0x1464 .\CortexM3\ARM_GCC_541\Debug\MCP7940N.o
 .debug_info    0x00001d8d      0x325 .\CortexM3\ARM_GCC_541\Debug\SSD1306.o
 .debug_info    0x000020b2      0x919 .\CortexM3\ARM_GCC_541\Debug\gfx.o
 .debug_info    0x000029cb      0x229 .\CortexM3\ARM_GCC_541\Debug\gfx_impl.o
 .debug_info    0x00002bf4      0x11e .\CortexM3\ARM_GCC_541\Debug\i2c_rhea.o
 .debug_info    0x00002d12      0x16c .\CortexM3\ARM_GCC_541\Debug\i2c_impl.o
 .debug_info    0x00002e7e      0x313 .\CortexM3\ARM_GCC_541\Debug\alarm.o
 .debug_info    0x00003191      0x5fd .\CortexM3\ARM_GCC_541\Debug\datetime.o
 .debug_info    0x0000378e      0x44b .\CortexM3\ARM_GCC_541\Debug\rtc.o
 .debug_info    0x00003bd9      0x6e8 .\CortexM3\ARM_GCC_541\Debug\rtc_impl.o
 .debug_info    0x000042c1      0x2ea .\CortexM3\ARM_GCC_541\Debug\BME280_INTF.o
 .debug_info    0x000045ab      0x4ba .\CortexM3\ARM_GCC_541\Debug\sensor.o
 .debug_info    0x00004a65       0xc7 .\CortexM3\ARM_GCC_541\Debug\sensor_impl.o
 .debug_info    0x00004b2c      0x141 .\CortexM3\ARM_GCC_541\Debug\uart_impl.o
 .debug_info    0x00004c6d      0x31a .\CortexM3\ARM_GCC_541\Debug\uart_rhea.o
 .debug_info    0x00004f87      0x19c .\CortexM3\ARM_GCC_541\Debug\state.o
 .debug_info    0x00005123      0x499 .\CortexM3\ARM_GCC_541\Debug\command.o
 .debug_info    0x000055bc      0x148 .\CortexM3\ARM_GCC_541\Debug\input.o
 .debug_info    0x00005704      0x51e .\CortexM3\ARM_GCC_541\Debug\menu.o
 .debug_info    0x00005c22      0x1de .\CortexM3\ARM_GCC_541\Debug\main.o
 .debug_info    0x00005e00      0x452 .\CortexM3\ARM_GCC_541\Debug\cyfitter_cfg.o
 .debug_info    0x00006252      0x136 .\CortexM3\ARM_GCC_541\Debug\cymetadata.o
 .debug_info    0x00006388      0x32b .\CortexM3\ARM_GCC_541\Debug\Cm3Start.o
 .debug_info    0x000066b3      0x201 .\CortexM3\ARM_GCC_541\Debug\Rhea.a(I2C.o)
 .debug_info    0x000068b4      0x156 .\CortexM3\ARM_GCC_541\Debug\Rhea.a(I2C_INT.o)
 .debug_info    0x00006a0a      0x19a .\CortexM3\ARM_GCC_541\Debug\Rhea.a(I2C_PM.o)
 .debug_info    0x00006ba4      0x3f8 .\CortexM3\ARM_GCC_541\Debug\Rhea.a(I2C_MASTER.o)
 .debug_info    0x00006f9c      0x50a .\CortexM3\ARM_GCC_541\Debug\Rhea.a(UART.o)
 .debug_info    0x000074a6      0x241 .\CortexM3\ARM_GCC_541\Debug\Rhea.a(RTC_INTR.o)
 .debug_info    0x000076e7      0x25d .\CortexM3\ARM_GCC_541\Debug\Rhea.a(DEBOUNCE_CLK.o)
 .debug_info    0x00007944      0x241 .\CortexM3\ARM_GCC_541\Debug\Rhea.a(BTN_RIGHT_INTR.o)
 .debug_info    0x00007b85      0x241 .\CortexM3\ARM_GCC_541\Debug\Rhea.a(BTN_LEFT_INTR.o)
 .debug_info    0x00007dc6      0x241 .\CortexM3\ARM_GCC_541\Debug\Rhea.a(BTN_ENTER_INTR.o)
 .debug_info    0x00008007      0x245 .\CortexM3\ARM_GCC_541\Debug\Rhea.a(SENSOR_TIMER.o)
 .debug_info    0x0000824c      0x241 .\CortexM3\ARM_GCC_541\Debug\Rhea.a(SENSOR_1MS.o)
 .debug_info    0x0000848d      0x25d .\CortexM3\ARM_GCC_541\Debug\Rhea.a(UART_IntClock.o)
 .debug_info    0x000086ea      0xe51 .\CortexM3\ARM_GCC_541\Debug\Rhea.a(CyLib.o)
 .debug_info    0x0000953b      0x57a .\CortexM3\ARM_GCC_541\Debug\Rhea.a(cyPm.o)
 .debug_info    0x00009ab5      0x241 .\CortexM3\ARM_GCC_541\Debug\Rhea.a(UART_RX_INTR.o)
 .debug_info    0x00009cf6       0x7b .\CortexM3\ARM_GCC_541\Debug\Rhea.a(CyBootAsmGnu.o)
 .debug_info    0x00009d71      0x3b9 .\CortexM3\ARM_GCC_541\Debug\Rhea.a(CyFlash.o)
 .debug_info    0x0000a12a      0x4c0 .\CortexM3\ARM_GCC_541\Debug\Rhea.a(CySpc.o)

.debug_abbrev   0x00000000     0x330b
 *(.debug_abbrev)
 .debug_abbrev  0x00000000      0x209 .\CortexM3\ARM_GCC_541\Debug\BME280.o
 .debug_abbrev  0x00000209      0x25a .\CortexM3\ARM_GCC_541\Debug\MCP7940N.o
 .debug_abbrev  0x00000463      0x153 .\CortexM3\ARM_GCC_541\Debug\SSD1306.o
 .debug_abbrev  0x000005b6      0x192 .\CortexM3\ARM_GCC_541\Debug\gfx.o
 .debug_abbrev  0x00000748       0xec .\CortexM3\ARM_GCC_541\Debug\gfx_impl.o
 .debug_abbrev  0x00000834       0xbb .\CortexM3\ARM_GCC_541\Debug\i2c_rhea.o
 .debug_abbrev  0x000008ef       0xbb .\CortexM3\ARM_GCC_541\Debug\i2c_impl.o
 .debug_abbrev  0x000009aa      0x10a .\CortexM3\ARM_GCC_541\Debug\alarm.o
 .debug_abbrev  0x00000ab4      0x14f .\CortexM3\ARM_GCC_541\Debug\datetime.o
 .debug_abbrev  0x00000c03      0x182 .\CortexM3\ARM_GCC_541\Debug\rtc.o
 .debug_abbrev  0x00000d85      0x1ac .\CortexM3\ARM_GCC_541\Debug\rtc_impl.o
 .debug_abbrev  0x00000f31       0xee .\CortexM3\ARM_GCC_541\Debug\BME280_INTF.o
 .debug_abbrev  0x0000101f      0x12e .\CortexM3\ARM_GCC_541\Debug\sensor.o
 .debug_abbrev  0x0000114d       0x67 .\CortexM3\ARM_GCC_541\Debug\sensor_impl.o
 .debug_abbrev  0x000011b4       0xaa .\CortexM3\ARM_GCC_541\Debug\uart_impl.o
 .debug_abbrev  0x0000125e       0xf0 .\CortexM3\ARM_GCC_541\Debug\uart_rhea.o
 .debug_abbrev  0x0000134e       0x9f .\CortexM3\ARM_GCC_541\Debug\state.o
 .debug_abbrev  0x000013ed      0x1be .\CortexM3\ARM_GCC_541\Debug\command.o
 .debug_abbrev  0x000015ab       0x90 .\CortexM3\ARM_GCC_541\Debug\input.o
 .debug_abbrev  0x0000163b      0x10a .\CortexM3\ARM_GCC_541\Debug\menu.o
 .debug_abbrev  0x00001745       0xd4 .\CortexM3\ARM_GCC_541\Debug\main.o
 .debug_abbrev  0x00001819      0x1b7 .\CortexM3\ARM_GCC_541\Debug\cyfitter_cfg.o
 .debug_abbrev  0x000019d0       0x77 .\CortexM3\ARM_GCC_541\Debug\cymetadata.o
 .debug_abbrev  0x00001a47      0x1d6 .\CortexM3\ARM_GCC_541\Debug\Cm3Start.o
 .debug_abbrev  0x00001c1d       0xe2 .\CortexM3\ARM_GCC_541\Debug\Rhea.a(I2C.o)
 .debug_abbrev  0x00001cff       0x81 .\CortexM3\ARM_GCC_541\Debug\Rhea.a(I2C_INT.o)
 .debug_abbrev  0x00001d80       0xf8 .\CortexM3\ARM_GCC_541\Debug\Rhea.a(I2C_PM.o)
 .debug_abbrev  0x00001e78      0x11e .\CortexM3\ARM_GCC_541\Debug\Rhea.a(I2C_MASTER.o)
 .debug_abbrev  0x00001f96      0x163 .\CortexM3\ARM_GCC_541\Debug\Rhea.a(UART.o)
 .debug_abbrev  0x000020f9      0x172 .\CortexM3\ARM_GCC_541\Debug\Rhea.a(RTC_INTR.o)
 .debug_abbrev  0x0000226b      0x11d .\CortexM3\ARM_GCC_541\Debug\Rhea.a(DEBOUNCE_CLK.o)
 .debug_abbrev  0x00002388      0x172 .\CortexM3\ARM_GCC_541\Debug\Rhea.a(BTN_RIGHT_INTR.o)
 .debug_abbrev  0x000024fa      0x172 .\CortexM3\ARM_GCC_541\Debug\Rhea.a(BTN_LEFT_INTR.o)
 .debug_abbrev  0x0000266c      0x172 .\CortexM3\ARM_GCC_541\Debug\Rhea.a(BTN_ENTER_INTR.o)
 .debug_abbrev  0x000027de       0xe9 .\CortexM3\ARM_GCC_541\Debug\Rhea.a(SENSOR_TIMER.o)
 .debug_abbrev  0x000028c7      0x172 .\CortexM3\ARM_GCC_541\Debug\Rhea.a(SENSOR_1MS.o)
 .debug_abbrev  0x00002a39      0x11d .\CortexM3\ARM_GCC_541\Debug\Rhea.a(UART_IntClock.o)
 .debug_abbrev  0x00002b56      0x217 .\CortexM3\ARM_GCC_541\Debug\Rhea.a(CyLib.o)
 .debug_abbrev  0x00002d6d      0x161 .\CortexM3\ARM_GCC_541\Debug\Rhea.a(cyPm.o)
 .debug_abbrev  0x00002ece      0x172 .\CortexM3\ARM_GCC_541\Debug\Rhea.a(UART_RX_INTR.o)
 .debug_abbrev  0x00003040       0x14 .\CortexM3\ARM_GCC_541\Debug\Rhea.a(CyBootAsmGnu.o)
 .debug_abbrev  0x00003054      0x14b .\CortexM3\ARM_GCC_541\Debug\Rhea.a(CyFlash.o)
 .debug_abbrev  0x0000319f      0x16c .\CortexM3\ARM_GCC_541\Debug\Rhea.a(CySpc.o)

.debug_line     0x00000000     0x62c4
 *(.debug_line)
 .debug_line    0x00000000      0x48f .\CortexM3\ARM_GCC_541\Debug\BME280.o
 .debug_line    0x0000048f      0x927 .\CortexM3\ARM_GCC_541\Debug\MCP7940N.o
 .debug_line    0x00000db6      0x237 .\CortexM3\ARM_GCC_541\Debug\SSD1306.o
 .debug_line    0x00000fed      0x3f3 .\CortexM3\ARM_GCC_541\Debug\gfx.o
 .debug_line    0x000013e0      0x1c1 .\CortexM3\ARM_GCC_541\Debug\gfx_impl.o
 .debug_line    0x000015a1      0x15f .\CortexM3\ARM_GCC_541\Debug\i2c_rhea.o
 .debug_line    0x00001700      0x184 .\CortexM3\ARM_GCC_541\Debug\i2c_impl.o
 .debug_line    0x00001884      0x203 .\CortexM3\ARM_GCC_541\Debug\alarm.o
 .debug_line    0x00001a87      0x404 .\CortexM3\ARM_GCC_541\Debug\datetime.o
 .debug_line    0x00001e8b      0x2a8 .\CortexM3\ARM_GCC_541\Debug\rtc.o
 .debug_line    0x00002133      0x304 .\CortexM3\ARM_GCC_541\Debug\rtc_impl.o
 .debug_line    0x00002437      0x273 .\CortexM3\ARM_GCC_541\Debug\BME280_INTF.o
 .debug_line    0x000026aa      0x290 .\CortexM3\ARM_GCC_541\Debug\sensor.o
 .debug_line    0x0000293a      0x149 .\CortexM3\ARM_GCC_541\Debug\sensor_impl.o
 .debug_line    0x00002a83      0x174 .\CortexM3\ARM_GCC_541\Debug\uart_impl.o
 .debug_line    0x00002bf7      0x236 .\CortexM3\ARM_GCC_541\Debug\uart_rhea.o
 .debug_line    0x00002e2d      0x148 .\CortexM3\ARM_GCC_541\Debug\state.o
 .debug_line    0x00002f75      0x2ef .\CortexM3\ARM_GCC_541\Debug\command.o
 .debug_line    0x00003264      0x17f .\CortexM3\ARM_GCC_541\Debug\input.o
 .debug_line    0x000033e3      0x311 .\CortexM3\ARM_GCC_541\Debug\menu.o
 .debug_line    0x000036f4      0x1ca .\CortexM3\ARM_GCC_541\Debug\main.o
 .debug_line    0x000038be      0x205 .\CortexM3\ARM_GCC_541\Debug\cyfitter_cfg.o
 .debug_line    0x00003ac3      0x119 .\CortexM3\ARM_GCC_541\Debug\cymetadata.o
 .debug_line    0x00003bdc      0x1c8 .\CortexM3\ARM_GCC_541\Debug\Cm3Start.o
 .debug_line    0x00003da4       0xd5 .\CortexM3\ARM_GCC_541\Debug\Rhea.a(I2C.o)
 .debug_line    0x00003e79      0x13b .\CortexM3\ARM_GCC_541\Debug\Rhea.a(I2C_INT.o)
 .debug_line    0x00003fb4       0xbb .\CortexM3\ARM_GCC_541\Debug\Rhea.a(I2C_PM.o)
 .debug_line    0x0000406f      0x1e8 .\CortexM3\ARM_GCC_541\Debug\Rhea.a(I2C_MASTER.o)
 .debug_line    0x00004257      0x2e2 .\CortexM3\ARM_GCC_541\Debug\Rhea.a(UART.o)
 .debug_line    0x00004539      0x153 .\CortexM3\ARM_GCC_541\Debug\Rhea.a(RTC_INTR.o)
 .debug_line    0x0000468c      0x1ab .\CortexM3\ARM_GCC_541\Debug\Rhea.a(DEBOUNCE_CLK.o)
 .debug_line    0x00004837      0x159 .\CortexM3\ARM_GCC_541\Debug\Rhea.a(BTN_RIGHT_INTR.o)
 .debug_line    0x00004990      0x158 .\CortexM3\ARM_GCC_541\Debug\Rhea.a(BTN_LEFT_INTR.o)
 .debug_line    0x00004ae8      0x149 .\CortexM3\ARM_GCC_541\Debug\Rhea.a(BTN_ENTER_INTR.o)
 .debug_line    0x00004c31      0x164 .\CortexM3\ARM_GCC_541\Debug\Rhea.a(SENSOR_TIMER.o)
 .debug_line    0x00004d95      0x155 .\CortexM3\ARM_GCC_541\Debug\Rhea.a(SENSOR_1MS.o)
 .debug_line    0x00004eea      0x1ac .\CortexM3\ARM_GCC_541\Debug\Rhea.a(UART_IntClock.o)
 .debug_line    0x00005096      0x883 .\CortexM3\ARM_GCC_541\Debug\Rhea.a(CyLib.o)
 .debug_line    0x00005919      0x38e .\CortexM3\ARM_GCC_541\Debug\Rhea.a(cyPm.o)
 .debug_line    0x00005ca7      0x157 .\CortexM3\ARM_GCC_541\Debug\Rhea.a(UART_RX_INTR.o)
 .debug_line    0x00005dfe       0x66 .\CortexM3\ARM_GCC_541\Debug\Rhea.a(CyBootAsmGnu.o)
 .debug_line    0x00005e64      0x22f .\CortexM3\ARM_GCC_541\Debug\Rhea.a(CyFlash.o)
 .debug_line    0x00006093      0x231 .\CortexM3\ARM_GCC_541\Debug\Rhea.a(CySpc.o)

.debug_frame    0x00000000     0x6b40
 *(.debug_frame)
 .debug_frame   0x00000000      0x474 .\CortexM3\ARM_GCC_541\Debug\BME280.o
 .debug_frame   0x00000474      0xbe8 .\CortexM3\ARM_GCC_541\Debug\MCP7940N.o
 .debug_frame   0x0000105c      0x18c .\CortexM3\ARM_GCC_541\Debug\SSD1306.o
 .debug_frame   0x000011e8      0x344 .\CortexM3\ARM_GCC_541\Debug\gfx.o
 .debug_frame   0x0000152c       0xcc .\CortexM3\ARM_GCC_541\Debug\gfx_impl.o
 .debug_frame   0x000015f8       0xc0 .\CortexM3\ARM_GCC_541\Debug\i2c_rhea.o
 .debug_frame   0x000016b8       0xc0 .\CortexM3\ARM_GCC_541\Debug\i2c_impl.o
 .debug_frame   0x00001778       0x90 .\CortexM3\ARM_GCC_541\Debug\alarm.o
 .debug_frame   0x00001808      0x164 .\CortexM3\ARM_GCC_541\Debug\datetime.o
 .debug_frame   0x0000196c      0x1a0 .\CortexM3\ARM_GCC_541\Debug\rtc.o
 .debug_frame   0x00001b0c      0x1ec .\CortexM3\ARM_GCC_541\Debug\rtc_impl.o
 .debug_frame   0x00001cf8      0x230 .\CortexM3\ARM_GCC_541\Debug\BME280_INTF.o
 .debug_frame   0x00001f28      0x1c8 .\CortexM3\ARM_GCC_541\Debug\sensor.o
 .debug_frame   0x000020f0       0x2c .\CortexM3\ARM_GCC_541\Debug\sensor_impl.o
 .debug_frame   0x0000211c       0x94 .\CortexM3\ARM_GCC_541\Debug\uart_impl.o
 .debug_frame   0x000021b0      0x1c8 .\CortexM3\ARM_GCC_541\Debug\uart_rhea.o
 .debug_frame   0x00002378       0x38 .\CortexM3\ARM_GCC_541\Debug\state.o
 .debug_frame   0x000023b0      0x14c .\CortexM3\ARM_GCC_541\Debug\command.o
 .debug_frame   0x000024fc       0x98 .\CortexM3\ARM_GCC_541\Debug\input.o
 .debug_frame   0x00002594      0x2c4 .\CortexM3\ARM_GCC_541\Debug\menu.o
 .debug_frame   0x00002858       0x74 .\CortexM3\ARM_GCC_541\Debug\main.o
 .debug_frame   0x000028cc      0x16c .\CortexM3\ARM_GCC_541\Debug\cyfitter_cfg.o
 .debug_frame   0x00002a38       0xd8 .\CortexM3\ARM_GCC_541\Debug\Cm3Start.o
 .debug_frame   0x00002b10       0x98 .\CortexM3\ARM_GCC_541\Debug\Rhea.a(I2C.o)
 .debug_frame   0x00002ba8       0x38 .\CortexM3\ARM_GCC_541\Debug\Rhea.a(I2C_INT.o)
 .debug_frame   0x00002be0       0x94 .\CortexM3\ARM_GCC_541\Debug\Rhea.a(I2C_PM.o)
 .debug_frame   0x00002c74      0x208 .\CortexM3\ARM_GCC_541\Debug\Rhea.a(I2C_MASTER.o)
 .debug_frame   0x00002e7c      0x42c .\CortexM3\ARM_GCC_541\Debug\Rhea.a(UART.o)
 .debug_frame   0x000032a8      0x1e8 .\CortexM3\ARM_GCC_541\Debug\Rhea.a(RTC_INTR.o)
 .debug_frame   0x00003490      0x1b4 .\CortexM3\ARM_GCC_541\Debug\Rhea.a(DEBOUNCE_CLK.o)
 .debug_frame   0x00003644      0x1e8 .\CortexM3\ARM_GCC_541\Debug\Rhea.a(BTN_RIGHT_INTR.o)
 .debug_frame   0x0000382c      0x1e8 .\CortexM3\ARM_GCC_541\Debug\Rhea.a(BTN_LEFT_INTR.o)
 .debug_frame   0x00003a14      0x1e8 .\CortexM3\ARM_GCC_541\Debug\Rhea.a(BTN_ENTER_INTR.o)
 .debug_frame   0x00003bfc      0x208 .\CortexM3\ARM_GCC_541\Debug\Rhea.a(SENSOR_TIMER.o)
 .debug_frame   0x00003e04      0x1e8 .\CortexM3\ARM_GCC_541\Debug\Rhea.a(SENSOR_1MS.o)
 .debug_frame   0x00003fec      0x1b4 .\CortexM3\ARM_GCC_541\Debug\Rhea.a(UART_IntClock.o)
 .debug_frame   0x000041a0      0xc0c .\CortexM3\ARM_GCC_541\Debug\Rhea.a(CyLib.o)
 .debug_frame   0x00004dac      0x234 .\CortexM3\ARM_GCC_541\Debug\Rhea.a(cyPm.o)
 .debug_frame   0x00004fe0      0x1e8 .\CortexM3\ARM_GCC_541\Debug\Rhea.a(UART_RX_INTR.o)
 .debug_frame   0x000051c8      0x238 .\CortexM3\ARM_GCC_541\Debug\Rhea.a(CyFlash.o)
 .debug_frame   0x00005400      0x228 .\CortexM3\ARM_GCC_541\Debug\Rhea.a(CySpc.o)
 .debug_frame   0x00005628       0x34 e:/cypress/psoc creator/4.2/psoc creator/import/gnu/arm/5.4.1/bin/../lib/gcc/arm-none-eabi/5.4.1/../../../../arm-none-eabi/lib/armv7-m\libm.a(lib_a-s_floor.o)
 .debug_frame   0x0000565c       0x44 e:/cypress/psoc creator/4.2/psoc creator/import/gnu/arm/5.4.1/bin/../lib/gcc/arm-none-eabi/5.4.1/../../../../arm-none-eabi/lib/armv7-m\libm.a(lib_a-w_sqrt.o)
 .debug_frame   0x000056a0       0x30 e:/cypress/psoc creator/4.2/psoc creator/import/gnu/arm/5.4.1/bin/../lib/gcc/arm-none-eabi/5.4.1/../../../../arm-none-eabi/lib/armv7-m\libm.a(lib_a-e_sqrt.o)
 .debug_frame   0x000056d0       0x20 e:/cypress/psoc creator/4.2/psoc creator/import/gnu/arm/5.4.1/bin/../lib/gcc/arm-none-eabi/5.4.1/../../../../arm-none-eabi/lib/armv7-m\libm.a(lib_a-s_matherr.o)
 .debug_frame   0x000056f0       0x44 e:/cypress/psoc creator/4.2/psoc creator/import/gnu/arm/5.4.1/bin/../lib/gcc/arm-none-eabi/5.4.1/armv7-m\libgcc.a(_aeabi_ldivmod.o)
 .debug_frame   0x00005734       0x3c e:/cypress/psoc creator/4.2/psoc creator/import/gnu/arm/5.4.1/bin/../lib/gcc/arm-none-eabi/5.4.1/armv7-m\libgcc.a(_fixdfdi.o)
 .debug_frame   0x00005770       0x2c e:/cypress/psoc creator/4.2/psoc creator/import/gnu/arm/5.4.1/bin/../lib/gcc/arm-none-eabi/5.4.1/armv7-m\libgcc.a(_fixunsdfdi.o)
 .debug_frame   0x0000579c       0x38 e:/cypress/psoc creator/4.2/psoc creator/import/gnu/arm/5.4.1/bin/../lib/gcc/arm-none-eabi/5.4.1/armv7-m\libgcc.a(_udivmoddi4.o)
 .debug_frame   0x000057d4       0x20 e:/cypress/psoc creator/4.2/psoc creator/import/gnu/arm/5.4.1/bin/../lib/gcc/arm-none-eabi/5.4.1/../../../../arm-none-eabi/lib/armv7-m\libg_nano.a(lib_a-errno.o)
 .debug_frame   0x000057f4       0x28 e:/cypress/psoc creator/4.2/psoc creator/import/gnu/arm/5.4.1/bin/../lib/gcc/arm-none-eabi/5.4.1/../../../../arm-none-eabi/lib/armv7-m\libg_nano.a(lib_a-exit.o)
 .debug_frame   0x0000581c      0x144 e:/cypress/psoc creator/4.2/psoc creator/import/gnu/arm/5.4.1/bin/../lib/gcc/arm-none-eabi/5.4.1/../../../../arm-none-eabi/lib/armv7-m\libg_nano.a(lib_a-getopt.o)
 .debug_frame   0x00005960       0x2c e:/cypress/psoc creator/4.2/psoc creator/import/gnu/arm/5.4.1/bin/../lib/gcc/arm-none-eabi/5.4.1/../../../../arm-none-eabi/lib/armv7-m\libg_nano.a(lib_a-init.o)
 .debug_frame   0x0000598c       0x28 e:/cypress/psoc creator/4.2/psoc creator/import/gnu/arm/5.4.1/bin/../lib/gcc/arm-none-eabi/5.4.1/../../../../arm-none-eabi/lib/armv7-m\libg_nano.a(lib_a-memcmp.o)
 .debug_frame   0x000059b4       0x28 e:/cypress/psoc creator/4.2/psoc creator/import/gnu/arm/5.4.1/bin/../lib/gcc/arm-none-eabi/5.4.1/../../../../arm-none-eabi/lib/armv7-m\libg_nano.a(lib_a-memcpy-stub.o)
 .debug_frame   0x000059dc       0x20 e:/cypress/psoc creator/4.2/psoc creator/import/gnu/arm/5.4.1/bin/../lib/gcc/arm-none-eabi/5.4.1/../../../../arm-none-eabi/lib/armv7-m\libg_nano.a(lib_a-memset.o)
 .debug_frame   0x000059fc       0x8c e:/cypress/psoc creator/4.2/psoc creator/import/gnu/arm/5.4.1/bin/../lib/gcc/arm-none-eabi/5.4.1/../../../../arm-none-eabi/lib/armv7-m\libg_nano.a(lib_a-nano-vfprintf_float.o)
 .debug_frame   0x00005a88       0x60 e:/cypress/psoc creator/4.2/psoc creator/import/gnu/arm/5.4.1/bin/../lib/gcc/arm-none-eabi/5.4.1/../../../../arm-none-eabi/lib/armv7-m\libg_nano.a(lib_a-nano-vfprintf_i.o)
 .debug_frame   0x00005ae8       0x70 e:/cypress/psoc creator/4.2/psoc creator/import/gnu/arm/5.4.1/bin/../lib/gcc/arm-none-eabi/5.4.1/../../../../arm-none-eabi/lib/armv7-m\libg_nano.a(lib_a-sprintf.o)
 .debug_frame   0x00005b58       0x80 e:/cypress/psoc creator/4.2/psoc creator/import/gnu/arm/5.4.1/bin/../lib/gcc/arm-none-eabi/5.4.1/../../../../arm-none-eabi/lib/armv7-m\libg_nano.a(lib_a-sscanf.o)
 .debug_frame   0x00005bd8       0x88 e:/cypress/psoc creator/4.2/psoc creator/import/gnu/arm/5.4.1/bin/../lib/gcc/arm-none-eabi/5.4.1/../../../../arm-none-eabi/lib/armv7-m\libg_nano.a(lib_a-stdio.o)
 .debug_frame   0x00005c60       0x28 e:/cypress/psoc creator/4.2/psoc creator/import/gnu/arm/5.4.1/bin/../lib/gcc/arm-none-eabi/5.4.1/../../../../arm-none-eabi/lib/armv7-m\libg_nano.a(lib_a-strcat.o)
 .debug_frame   0x00005c88       0x20 e:/cypress/psoc creator/4.2/psoc creator/import/gnu/arm/5.4.1/bin/../lib/gcc/arm-none-eabi/5.4.1/../../../../arm-none-eabi/lib/armv7-m\libg_nano.a(lib_a-strchr.o)
 .debug_frame   0x00005ca8       0x20 e:/cypress/psoc creator/4.2/psoc creator/import/gnu/arm/5.4.1/bin/../lib/gcc/arm-none-eabi/5.4.1/../../../../arm-none-eabi/lib/armv7-m\libg_nano.a(lib_a-strcmp.o)
 .debug_frame   0x00005cc8       0x20 e:/cypress/psoc creator/4.2/psoc creator/import/gnu/arm/5.4.1/bin/../lib/gcc/arm-none-eabi/5.4.1/../../../../arm-none-eabi/lib/armv7-m\libg_nano.a(lib_a-strcpy.o)
 .debug_frame   0x00005ce8       0x38 e:/cypress/psoc creator/4.2/psoc creator/import/gnu/arm/5.4.1/bin/../lib/gcc/arm-none-eabi/5.4.1/../../../../arm-none-eabi/lib/armv7-m\libg_nano.a(lib_a-strtok.o)
 .debug_frame   0x00005d20       0x40 e:/cypress/psoc creator/4.2/psoc creator/import/gnu/arm/5.4.1/bin/../lib/gcc/arm-none-eabi/5.4.1/../../../../arm-none-eabi/lib/armv7-m\libg_nano.a(lib_a-strtok_r.o)
 .debug_frame   0x00005d60       0x44 e:/cypress/psoc creator/4.2/psoc creator/import/gnu/arm/5.4.1/bin/../lib/gcc/arm-none-eabi/5.4.1/../../../../arm-none-eabi/lib/armv7-m\libg_nano.a(lib_a-strtol.o)
 .debug_frame   0x00005da4       0x2c e:/cypress/psoc creator/4.2/psoc creator/import/gnu/arm/5.4.1/bin/../lib/gcc/arm-none-eabi/5.4.1/../../../../arm-none-eabi/lib/armv7-m\libg_nano.a(lib_a-writer.o)
 .debug_frame   0x00005dd0       0x2c e:/cypress/psoc creator/4.2/psoc creator/import/gnu/arm/5.4.1/bin/../lib/gcc/arm-none-eabi/5.4.1/../../../../arm-none-eabi/lib/armv7-m\libg_nano.a(lib_a-closer.o)
 .debug_frame   0x00005dfc       0x6c e:/cypress/psoc creator/4.2/psoc creator/import/gnu/arm/5.4.1/bin/../lib/gcc/arm-none-eabi/5.4.1/../../../../arm-none-eabi/lib/armv7-m\libg_nano.a(lib_a-dtoa.o)
 .debug_frame   0x00005e68       0x44 e:/cypress/psoc creator/4.2/psoc creator/import/gnu/arm/5.4.1/bin/../lib/gcc/arm-none-eabi/5.4.1/../../../../arm-none-eabi/lib/armv7-m\libg_nano.a(lib_a-fputc.o)
 .debug_frame   0x00005eac       0x3c e:/cypress/psoc creator/4.2/psoc creator/import/gnu/arm/5.4.1/bin/../lib/gcc/arm-none-eabi/5.4.1/../../../../arm-none-eabi/lib/armv7-m\libg_nano.a(lib_a-fputs.o)
 .debug_frame   0x00005ee8       0x38 e:/cypress/psoc creator/4.2/psoc creator/import/gnu/arm/5.4.1/bin/../lib/gcc/arm-none-eabi/5.4.1/../../../../arm-none-eabi/lib/armv7-m\libg_nano.a(lib_a-getenv.o)
 .debug_frame   0x00005f20       0x50 e:/cypress/psoc creator/4.2/psoc creator/import/gnu/arm/5.4.1/bin/../lib/gcc/arm-none-eabi/5.4.1/../../../../arm-none-eabi/lib/armv7-m\libg_nano.a(lib_a-getenv_r.o)
 .debug_frame   0x00005f70       0x98 e:/cypress/psoc creator/4.2/psoc creator/import/gnu/arm/5.4.1/bin/../lib/gcc/arm-none-eabi/5.4.1/../../../../arm-none-eabi/lib/armv7-m\libg_nano.a(lib_a-locale.o)
 .debug_frame   0x00006008       0x2c e:/cypress/psoc creator/4.2/psoc creator/import/gnu/arm/5.4.1/bin/../lib/gcc/arm-none-eabi/5.4.1/../../../../arm-none-eabi/lib/armv7-m\libg_nano.a(lib_a-lseekr.o)
 .debug_frame   0x00006034       0x30 e:/cypress/psoc creator/4.2/psoc creator/import/gnu/arm/5.4.1/bin/../lib/gcc/arm-none-eabi/5.4.1/../../../../arm-none-eabi/lib/armv7-m\libg_nano.a(lib_a-malloc.o)
 .debug_frame   0x00006064       0x28 e:/cypress/psoc creator/4.2/psoc creator/import/gnu/arm/5.4.1/bin/../lib/gcc/arm-none-eabi/5.4.1/../../../../arm-none-eabi/lib/armv7-m\libg_nano.a(lib_a-memchr-stub.o)
 .debug_frame   0x0000608c      0x234 e:/cypress/psoc creator/4.2/psoc creator/import/gnu/arm/5.4.1/bin/../lib/gcc/arm-none-eabi/5.4.1/../../../../arm-none-eabi/lib/armv7-m\libg_nano.a(lib_a-mprec.o)
 .debug_frame   0x000062c0       0x2c e:/cypress/psoc creator/4.2/psoc creator/import/gnu/arm/5.4.1/bin/../lib/gcc/arm-none-eabi/5.4.1/../../../../arm-none-eabi/lib/armv7-m\libg_nano.a(lib_a-nano-callocr.o)
 .debug_frame   0x000062ec       0x38 e:/cypress/psoc creator/4.2/psoc creator/import/gnu/arm/5.4.1/bin/../lib/gcc/arm-none-eabi/5.4.1/../../../../arm-none-eabi/lib/armv7-m\libg_nano.a(lib_a-nano-freer.o)
 .debug_frame   0x00006324       0x2c e:/cypress/psoc creator/4.2/psoc creator/import/gnu/arm/5.4.1/bin/../lib/gcc/arm-none-eabi/5.4.1/../../../../arm-none-eabi/lib/armv7-m\libg_nano.a(lib_a-nano-mallocr.o)
 .debug_frame   0x00006350       0x90 e:/cypress/psoc creator/4.2/psoc creator/import/gnu/arm/5.4.1/bin/../lib/gcc/arm-none-eabi/5.4.1/../../../../arm-none-eabi/lib/armv7-m\libg_nano.a(lib_a-nano-svfprintf.o)
 .debug_frame   0x000063e0       0x74 e:/cypress/psoc creator/4.2/psoc creator/import/gnu/arm/5.4.1/bin/../lib/gcc/arm-none-eabi/5.4.1/../../../../arm-none-eabi/lib/armv7-m\libg_nano.a(lib_a-nano-svfscanf.o)
 .debug_frame   0x00006454       0x60 e:/cypress/psoc creator/4.2/psoc creator/import/gnu/arm/5.4.1/bin/../lib/gcc/arm-none-eabi/5.4.1/../../../../arm-none-eabi/lib/armv7-m\libg_nano.a(lib_a-nano-vfscanf_i.o)
 .debug_frame   0x000064b4       0x48 e:/cypress/psoc creator/4.2/psoc creator/import/gnu/arm/5.4.1/bin/../lib/gcc/arm-none-eabi/5.4.1/../../../../arm-none-eabi/lib/armv7-m\libg_nano.a(lib_a-putc.o)
 .debug_frame   0x000064fc       0x2c e:/cypress/psoc creator/4.2/psoc creator/import/gnu/arm/5.4.1/bin/../lib/gcc/arm-none-eabi/5.4.1/../../../../arm-none-eabi/lib/armv7-m\libg_nano.a(lib_a-readr.o)
 .debug_frame   0x00006528       0x5c e:/cypress/psoc creator/4.2/psoc creator/import/gnu/arm/5.4.1/bin/../lib/gcc/arm-none-eabi/5.4.1/../../../../arm-none-eabi/lib/armv7-m\libg_nano.a(lib_a-reent.o)
 .debug_frame   0x00006584       0x2c e:/cypress/psoc creator/4.2/psoc creator/import/gnu/arm/5.4.1/bin/../lib/gcc/arm-none-eabi/5.4.1/../../../../arm-none-eabi/lib/armv7-m\libg_nano.a(lib_a-sbrkr.o)
 .debug_frame   0x000065b0       0x2c e:/cypress/psoc creator/4.2/psoc creator/import/gnu/arm/5.4.1/bin/../lib/gcc/arm-none-eabi/5.4.1/../../../../arm-none-eabi/lib/armv7-m\libg_nano.a(lib_a-sccl.o)
 .debug_frame   0x000065dc       0x2c e:/cypress/psoc creator/4.2/psoc creator/import/gnu/arm/5.4.1/bin/../lib/gcc/arm-none-eabi/5.4.1/../../../../arm-none-eabi/lib/armv7-m\libg_nano.a(lib_a-strncmp.o)
 .debug_frame   0x00006608       0x44 e:/cypress/psoc creator/4.2/psoc creator/import/gnu/arm/5.4.1/bin/../lib/gcc/arm-none-eabi/5.4.1/../../../../arm-none-eabi/lib/armv7-m\libg_nano.a(lib_a-strtoul.o)
 .debug_frame   0x0000664c       0x60 e:/cypress/psoc creator/4.2/psoc creator/import/gnu/arm/5.4.1/bin/../lib/gcc/arm-none-eabi/5.4.1/../../../../arm-none-eabi/lib/armv7-m\libg_nano.a(lib_a-ungetc.o)
 .debug_frame   0x000066ac       0x40 e:/cypress/psoc creator/4.2/psoc creator/import/gnu/arm/5.4.1/bin/../lib/gcc/arm-none-eabi/5.4.1/../../../../arm-none-eabi/lib/armv7-m\libg_nano.a(lib_a-wbuf.o)
 .debug_frame   0x000066ec       0x2c e:/cypress/psoc creator/4.2/psoc creator/import/gnu/arm/5.4.1/bin/../lib/gcc/arm-none-eabi/5.4.1/../../../../arm-none-eabi/lib/armv7-m\libg_nano.a(lib_a-wsetup.o)
 .debug_frame   0x00006718       0x30 e:/cypress/psoc creator/4.2/psoc creator/import/gnu/arm/5.4.1/bin/../lib/gcc/arm-none-eabi/5.4.1/../../../../arm-none-eabi/lib/armv7-m\libg_nano.a(lib_a-envlock.o)
 .debug_frame   0x00006748       0x68 e:/cypress/psoc creator/4.2/psoc creator/import/gnu/arm/5.4.1/bin/../lib/gcc/arm-none-eabi/5.4.1/../../../../arm-none-eabi/lib/armv7-m\libg_nano.a(lib_a-fflush.o)
 .debug_frame   0x000067b0      0x11c e:/cypress/psoc creator/4.2/psoc creator/import/gnu/arm/5.4.1/bin/../lib/gcc/arm-none-eabi/5.4.1/../../../../arm-none-eabi/lib/armv7-m\libg_nano.a(lib_a-findfp.o)
 .debug_frame   0x000068cc       0x54 e:/cypress/psoc creator/4.2/psoc creator/import/gnu/arm/5.4.1/bin/../lib/gcc/arm-none-eabi/5.4.1/../../../../arm-none-eabi/lib/armv7-m\libg_nano.a(lib_a-fwalk.o)
 .debug_frame   0x00006920       0x54 e:/cypress/psoc creator/4.2/psoc creator/import/gnu/arm/5.4.1/bin/../lib/gcc/arm-none-eabi/5.4.1/../../../../arm-none-eabi/lib/armv7-m\libg_nano.a(lib_a-makebuf.o)
 .debug_frame   0x00006974       0x28 e:/cypress/psoc creator/4.2/psoc creator/import/gnu/arm/5.4.1/bin/../lib/gcc/arm-none-eabi/5.4.1/../../../../arm-none-eabi/lib/armv7-m\libg_nano.a(lib_a-memmove.o)
 .debug_frame   0x0000699c       0x30 e:/cypress/psoc creator/4.2/psoc creator/import/gnu/arm/5.4.1/bin/../lib/gcc/arm-none-eabi/5.4.1/../../../../arm-none-eabi/lib/armv7-m\libg_nano.a(lib_a-mlock.o)
 .debug_frame   0x000069cc       0x3c e:/cypress/psoc creator/4.2/psoc creator/import/gnu/arm/5.4.1/bin/../lib/gcc/arm-none-eabi/5.4.1/../../../../arm-none-eabi/lib/armv7-m\libg_nano.a(lib_a-nano-reallocr.o)
 .debug_frame   0x00006a08       0x2c e:/cypress/psoc creator/4.2/psoc creator/import/gnu/arm/5.4.1/bin/../lib/gcc/arm-none-eabi/5.4.1/../../../../arm-none-eabi/lib/armv7-m\libg_nano.a(lib_a-fstatr.o)
 .debug_frame   0x00006a34       0x2c e:/cypress/psoc creator/4.2/psoc creator/import/gnu/arm/5.4.1/bin/../lib/gcc/arm-none-eabi/5.4.1/../../../../arm-none-eabi/lib/armv7-m\libg_nano.a(lib_a-isattyr.o)
 .debug_frame   0x00006a60       0x20 e:/cypress/psoc creator/4.2/psoc creator/import/gnu/arm/5.4.1/bin/../lib/gcc/arm-none-eabi/5.4.1/../../../../arm-none-eabi/lib/armv7-m\libg_nano.a(lib_a-nano-msizer.o)
 .debug_frame   0x00006a80       0x20 e:/cypress/psoc creator/4.2/psoc creator/import/gnu/arm/5.4.1/bin/../lib/gcc/arm-none-eabi/5.4.1/../../../../arm-none-eabi/lib/armv7-m\libnosys.a(close.o)
 .debug_frame   0x00006aa0       0x20 e:/cypress/psoc creator/4.2/psoc creator/import/gnu/arm/5.4.1/bin/../lib/gcc/arm-none-eabi/5.4.1/../../../../arm-none-eabi/lib/armv7-m\libnosys.a(fstat.o)
 .debug_frame   0x00006ac0       0x20 e:/cypress/psoc creator/4.2/psoc creator/import/gnu/arm/5.4.1/bin/../lib/gcc/arm-none-eabi/5.4.1/../../../../arm-none-eabi/lib/armv7-m\libnosys.a(isatty.o)
 .debug_frame   0x00006ae0       0x20 e:/cypress/psoc creator/4.2/psoc creator/import/gnu/arm/5.4.1/bin/../lib/gcc/arm-none-eabi/5.4.1/../../../../arm-none-eabi/lib/armv7-m\libnosys.a(lseek.o)
 .debug_frame   0x00006b00       0x20 e:/cypress/psoc creator/4.2/psoc creator/import/gnu/arm/5.4.1/bin/../lib/gcc/arm-none-eabi/5.4.1/../../../../arm-none-eabi/lib/armv7-m\libnosys.a(read.o)
 .debug_frame   0x00006b20       0x20 e:/cypress/psoc creator/4.2/psoc creator/import/gnu/arm/5.4.1/bin/../lib/gcc/arm-none-eabi/5.4.1/../../../../arm-none-eabi/lib/armv7-m\libnosys.a(write.o)

.debug_str      0x00000000     0x4c8f
 *(.debug_str)
 .debug_str     0x00000000      0x6ae .\CortexM3\ARM_GCC_541\Debug\BME280.o
                                0x760 (size before relaxing)
 .debug_str     0x000006ae      0x9c5 .\CortexM3\ARM_GCC_541\Debug\MCP7940N.o
                                0xbce (size before relaxing)
 .debug_str     0x00001073      0x162 .\CortexM3\ARM_GCC_541\Debug\SSD1306.o
                                0x315 (size before relaxing)
 .debug_str     0x000011d5      0x32d .\CortexM3\ARM_GCC_541\Debug\gfx.o
                                0x4fe (size before relaxing)
 .debug_str     0x00001502       0x91 .\CortexM3\ARM_GCC_541\Debug\gfx_impl.o
                                0x2b5 (size before relaxing)
 .debug_str     0x00001593       0x94 .\CortexM3\ARM_GCC_541\Debug\i2c_rhea.o
                                0x1ed (size before relaxing)
 .debug_str     0x00001627       0xa3 .\CortexM3\ARM_GCC_541\Debug\i2c_impl.o
                                0x24c (size before relaxing)
 .debug_str     0x000016ca      0x193 .\CortexM3\ARM_GCC_541\Debug\alarm.o
                                0x360 (size before relaxing)
 .debug_str     0x0000185d      0x1c7 .\CortexM3\ARM_GCC_541\Debug\datetime.o
                                0x43f (size before relaxing)
 .debug_str     0x00001a24      0x19a .\CortexM3\ARM_GCC_541\Debug\rtc.o
                                0x410 (size before relaxing)
 .debug_str     0x00001bbe      0x229 .\CortexM3\ARM_GCC_541\Debug\rtc_impl.o
                                0x573 (size before relaxing)
 .debug_str     0x00001de7      0x176 .\CortexM3\ARM_GCC_541\Debug\BME280_INTF.o
                                0x34b (size before relaxing)
 .debug_str     0x00001f5d      0x299 .\CortexM3\ARM_GCC_541\Debug\sensor.o
                                0x439 (size before relaxing)
 .debug_str     0x000021f6       0x36 .\CortexM3\ARM_GCC_541\Debug\sensor_impl.o
                                0x1bb (size before relaxing)
 .debug_str     0x0000222c       0x7f .\CortexM3\ARM_GCC_541\Debug\uart_impl.o
                                0x22f (size before relaxing)
 .debug_str     0x000022ab      0x118 .\CortexM3\ARM_GCC_541\Debug\uart_rhea.o
                                0x2e7 (size before relaxing)
 .debug_str     0x000023c3       0xe5 .\CortexM3\ARM_GCC_541\Debug\state.o
                                0x247 (size before relaxing)
 .debug_str     0x000024a8      0x152 .\CortexM3\ARM_GCC_541\Debug\command.o
                                0x320 (size before relaxing)
 .debug_str     0x000025fa       0xa1 .\CortexM3\ARM_GCC_541\Debug\input.o
                                0x238 (size before relaxing)
 .debug_str     0x0000269b      0x288 .\CortexM3\ARM_GCC_541\Debug\menu.o
                                0x52a (size before relaxing)
 .debug_str     0x00002923       0x59 .\CortexM3\ARM_GCC_541\Debug\main.o
                                0x291 (size before relaxing)
 .debug_str     0x0000297c      0x196 .\CortexM3\ARM_GCC_541\Debug\cyfitter_cfg.o
                                0x323 (size before relaxing)
 .debug_str     0x00002b12       0x75 .\CortexM3\ARM_GCC_541\Debug\cymetadata.o
                                0x1cf (size before relaxing)
 .debug_str     0x00002b87      0x123 .\CortexM3\ARM_GCC_541\Debug\Cm3Start.o
                                0x2c2 (size before relaxing)
 .debug_str     0x00002caa       0xec .\CortexM3\ARM_GCC_541\Debug\Rhea.a(I2C.o)
                                0x271 (size before relaxing)
 .debug_str     0x00002d96       0x86 .\CortexM3\ARM_GCC_541\Debug\Rhea.a(I2C_INT.o)
                                0x243 (size before relaxing)
 .debug_str     0x00002e1c       0x56 .\CortexM3\ARM_GCC_541\Debug\Rhea.a(I2C_PM.o)
                                0x227 (size before relaxing)
 .debug_str     0x00002e72      0x170 .\CortexM3\ARM_GCC_541\Debug\Rhea.a(I2C_MASTER.o)
                                0x38f (size before relaxing)
 .debug_str     0x00002fe2      0x26f .\CortexM3\ARM_GCC_541\Debug\Rhea.a(UART.o)
                                0x40c (size before relaxing)
 .debug_str     0x00003251      0x128 .\CortexM3\ARM_GCC_541\Debug\Rhea.a(RTC_INTR.o)
                                0x2bb (size before relaxing)
 .debug_str     0x00003379      0x19e .\CortexM3\ARM_GCC_541\Debug\Rhea.a(DEBOUNCE_CLK.o)
                                0x315 (size before relaxing)
 .debug_str     0x00003517      0x164 .\CortexM3\ARM_GCC_541\Debug\Rhea.a(BTN_RIGHT_INTR.o)
                                0x30f (size before relaxing)
 .debug_str     0x0000367b      0x156 .\CortexM3\ARM_GCC_541\Debug\Rhea.a(BTN_LEFT_INTR.o)
                                0x301 (size before relaxing)
 .debug_str     0x000037d1      0x164 .\CortexM3\ARM_GCC_541\Debug\Rhea.a(BTN_ENTER_INTR.o)
                                0x30f (size before relaxing)
 .debug_str     0x00003935      0x1c3 .\CortexM3\ARM_GCC_541\Debug\Rhea.a(SENSOR_TIMER.o)
                                0x350 (size before relaxing)
 .debug_str     0x00003af8      0x12c .\CortexM3\ARM_GCC_541\Debug\Rhea.a(SENSOR_1MS.o)
                                0x2d7 (size before relaxing)
 .debug_str     0x00003c24      0x15f .\CortexM3\ARM_GCC_541\Debug\Rhea.a(UART_IntClock.o)
                                0x321 (size before relaxing)
 .debug_str     0x00003d83      0x7d7 .\CortexM3\ARM_GCC_541\Debug\Rhea.a(CyLib.o)
                                0x9d5 (size before relaxing)
 .debug_str     0x0000455a      0x371 .\CortexM3\ARM_GCC_541\Debug\Rhea.a(cyPm.o)
                                0x52e (size before relaxing)
 .debug_str     0x000048cb      0x148 .\CortexM3\ARM_GCC_541\Debug\Rhea.a(UART_RX_INTR.o)
                                0x2f3 (size before relaxing)
 .debug_str     0x00004a13      0x14f .\CortexM3\ARM_GCC_541\Debug\Rhea.a(CyFlash.o)
                                0x2f2 (size before relaxing)
 .debug_str     0x00004b62      0x12d .\CortexM3\ARM_GCC_541\Debug\Rhea.a(CySpc.o)
                                0x2ec (size before relaxing)

.debug_loc
 *(.debug_loc)

.debug_macinfo
 *(.debug_macinfo)

.debug_ranges   0x00000000     0x12f0
 *(.debug_ranges)
 .debug_ranges  0x00000000       0xf8 .\CortexM3\ARM_GCC_541\Debug\BME280.o
 .debug_ranges  0x000000f8      0x288 .\CortexM3\ARM_GCC_541\Debug\MCP7940N.o
 .debug_ranges  0x00000380       0x58 .\CortexM3\ARM_GCC_541\Debug\SSD1306.o
 .debug_ranges  0x000003d8       0xb0 .\CortexM3\ARM_GCC_541\Debug\gfx.o
 .debug_ranges  0x00000488       0x30 .\CortexM3\ARM_GCC_541\Debug\gfx_impl.o
 .debug_ranges  0x000004b8       0x30 .\CortexM3\ARM_GCC_541\Debug\i2c_rhea.o
 .debug_ranges  0x000004e8       0x30 .\CortexM3\ARM_GCC_541\Debug\i2c_impl.o
 .debug_ranges  0x00000518       0x20 .\CortexM3\ARM_GCC_541\Debug\alarm.o
 .debug_ranges  0x00000538       0x40 .\CortexM3\ARM_GCC_541\Debug\datetime.o
 .debug_ranges  0x00000578       0x58 .\CortexM3\ARM_GCC_541\Debug\rtc.o
 .debug_ranges  0x000005d0       0x68 .\CortexM3\ARM_GCC_541\Debug\rtc_impl.o
 .debug_ranges  0x00000638       0x78 .\CortexM3\ARM_GCC_541\Debug\BME280_INTF.o
 .debug_ranges  0x000006b0       0x58 .\CortexM3\ARM_GCC_541\Debug\sensor.o
 .debug_ranges  0x00000708       0x10 .\CortexM3\ARM_GCC_541\Debug\sensor_impl.o
 .debug_ranges  0x00000718       0x28 .\CortexM3\ARM_GCC_541\Debug\uart_impl.o
 .debug_ranges  0x00000740       0x68 .\CortexM3\ARM_GCC_541\Debug\uart_rhea.o
 .debug_ranges  0x000007a8       0x10 .\CortexM3\ARM_GCC_541\Debug\state.o
 .debug_ranges  0x000007b8       0x50 .\CortexM3\ARM_GCC_541\Debug\command.o
 .debug_ranges  0x00000808       0x28 .\CortexM3\ARM_GCC_541\Debug\input.o
 .debug_ranges  0x00000830       0x90 .\CortexM3\ARM_GCC_541\Debug\menu.o
 .debug_ranges  0x000008c0       0x20 .\CortexM3\ARM_GCC_541\Debug\main.o
 .debug_ranges  0x000008e0       0x50 .\CortexM3\ARM_GCC_541\Debug\cyfitter_cfg.o
 .debug_ranges  0x00000930       0x38 .\CortexM3\ARM_GCC_541\Debug\Cm3Start.o
 .debug_ranges  0x00000968       0x28 .\CortexM3\ARM_GCC_541\Debug\Rhea.a(I2C.o)
 .debug_ranges  0x00000990       0x10 .\CortexM3\ARM_GCC_541\Debug\Rhea.a(I2C_INT.o)
 .debug_ranges  0x000009a0       0x28 .\CortexM3\ARM_GCC_541\Debug\Rhea.a(I2C_PM.o)
 .debug_ranges  0x000009c8       0x70 .\CortexM3\ARM_GCC_541\Debug\Rhea.a(I2C_MASTER.o)
 .debug_ranges  0x00000a38       0xe0 .\CortexM3\ARM_GCC_541\Debug\Rhea.a(UART.o)
 .debug_ranges  0x00000b18       0x70 .\CortexM3\ARM_GCC_541\Debug\Rhea.a(RTC_INTR.o)
 .debug_ranges  0x00000b88       0x60 .\CortexM3\ARM_GCC_541\Debug\Rhea.a(DEBOUNCE_CLK.o)
 .debug_ranges  0x00000be8       0x70 .\CortexM3\ARM_GCC_541\Debug\Rhea.a(BTN_RIGHT_INTR.o)
 .debug_ranges  0x00000c58       0x70 .\CortexM3\ARM_GCC_541\Debug\Rhea.a(BTN_LEFT_INTR.o)
 .debug_ranges  0x00000cc8       0x70 .\CortexM3\ARM_GCC_541\Debug\Rhea.a(BTN_ENTER_INTR.o)
 .debug_ranges  0x00000d38       0x78 .\CortexM3\ARM_GCC_541\Debug\Rhea.a(SENSOR_TIMER.o)
 .debug_ranges  0x00000db0       0x70 .\CortexM3\ARM_GCC_541\Debug\Rhea.a(SENSOR_1MS.o)
 .debug_ranges  0x00000e20       0x60 .\CortexM3\ARM_GCC_541\Debug\Rhea.a(UART_IntClock.o)
 .debug_ranges  0x00000e80      0x290 .\CortexM3\ARM_GCC_541\Debug\Rhea.a(CyLib.o)
 .debug_ranges  0x00001110       0x88 .\CortexM3\ARM_GCC_541\Debug\Rhea.a(cyPm.o)
 .debug_ranges  0x00001198       0x70 .\CortexM3\ARM_GCC_541\Debug\Rhea.a(UART_RX_INTR.o)
 .debug_ranges  0x00001208       0x78 .\CortexM3\ARM_GCC_541\Debug\Rhea.a(CyFlash.o)
 .debug_ranges  0x00001280       0x70 .\CortexM3\ARM_GCC_541\Debug\Rhea.a(CySpc.o)

.comment        0x00000000       0x6e
 .comment       0x00000000       0x6e .\CortexM3\ARM_GCC_541\Debug\BME280.o
                                 0x6f (size before relaxing)
 .comment       0x0000006e       0x6f .\CortexM3\ARM_GCC_541\Debug\MCP7940N.o
 .comment       0x0000006e       0x6f .\CortexM3\ARM_GCC_541\Debug\SSD1306.o
 .comment       0x0000006e       0x6f .\CortexM3\ARM_GCC_541\Debug\gfx.o
 .comment       0x0000006e       0x6f .\CortexM3\ARM_GCC_541\Debug\gfx_impl.o
 .comment       0x0000006e       0x6f .\CortexM3\ARM_GCC_541\Debug\i2c_rhea.o
 .comment       0x0000006e       0x6f .\CortexM3\ARM_GCC_541\Debug\i2c_impl.o
 .comment       0x0000006e       0x6f .\CortexM3\ARM_GCC_541\Debug\alarm.o
 .comment       0x0000006e       0x6f .\CortexM3\ARM_GCC_541\Debug\datetime.o
 .comment       0x0000006e       0x6f .\CortexM3\ARM_GCC_541\Debug\rtc.o
 .comment       0x0000006e       0x6f .\CortexM3\ARM_GCC_541\Debug\rtc_impl.o
 .comment       0x0000006e       0x6f .\CortexM3\ARM_GCC_541\Debug\BME280_INTF.o
 .comment       0x0000006e       0x6f .\CortexM3\ARM_GCC_541\Debug\sensor.o
 .comment       0x0000006e       0x6f .\CortexM3\ARM_GCC_541\Debug\sensor_impl.o
 .comment       0x0000006e       0x6f .\CortexM3\ARM_GCC_541\Debug\uart_impl.o
 .comment       0x0000006e       0x6f .\CortexM3\ARM_GCC_541\Debug\uart_rhea.o
 .comment       0x0000006e       0x6f .\CortexM3\ARM_GCC_541\Debug\state.o
 .comment       0x0000006e       0x6f .\CortexM3\ARM_GCC_541\Debug\command.o
 .comment       0x0000006e       0x6f .\CortexM3\ARM_GCC_541\Debug\input.o
 .comment       0x0000006e       0x6f .\CortexM3\ARM_GCC_541\Debug\menu.o
 .comment       0x0000006e       0x6f .\CortexM3\ARM_GCC_541\Debug\main.o
 .comment       0x0000006e       0x6f .\CortexM3\ARM_GCC_541\Debug\cyfitter_cfg.o
 .comment       0x0000006e       0x6f .\CortexM3\ARM_GCC_541\Debug\cymetadata.o
 .comment       0x0000006e       0x6f .\CortexM3\ARM_GCC_541\Debug\Cm3Start.o
 .comment       0x0000006e       0x6f .\CortexM3\ARM_GCC_541\Debug\Rhea.a(I2C.o)
 .comment       0x0000006e       0x6f .\CortexM3\ARM_GCC_541\Debug\Rhea.a(I2C_INT.o)
 .comment       0x0000006e       0x6f .\CortexM3\ARM_GCC_541\Debug\Rhea.a(I2C_PM.o)
 .comment       0x0000006e       0x6f .\CortexM3\ARM_GCC_541\Debug\Rhea.a(I2C_MASTER.o)
 .comment       0x0000006e       0x6f .\CortexM3\ARM_GCC_541\Debug\Rhea.a(UART.o)
 .comment       0x0000006e       0x6f .\CortexM3\ARM_GCC_541\Debug\Rhea.a(RTC_INTR.o)
 .comment       0x0000006e       0x6f .\CortexM3\ARM_GCC_541\Debug\Rhea.a(DEBOUNCE_CLK.o)
 .comment       0x0000006e       0x6f .\CortexM3\ARM_GCC_541\Debug\Rhea.a(BTN_RIGHT_INTR.o)
 .comment       0x0000006e       0x6f .\CortexM3\ARM_GCC_541\Debug\Rhea.a(BTN_LEFT_INTR.o)
 .comment       0x0000006e       0x6f .\CortexM3\ARM_GCC_541\Debug\Rhea.a(BTN_ENTER_INTR.o)
 .comment       0x0000006e       0x6f .\CortexM3\ARM_GCC_541\Debug\Rhea.a(SENSOR_TIMER.o)
 .comment       0x0000006e       0x6f .\CortexM3\ARM_GCC_541\Debug\Rhea.a(SENSOR_1MS.o)
 .comment       0x0000006e       0x6f .\CortexM3\ARM_GCC_541\Debug\Rhea.a(UART_IntClock.o)
 .comment       0x0000006e       0x6f .\CortexM3\ARM_GCC_541\Debug\Rhea.a(CyLib.o)
 .comment       0x0000006e       0x6f .\CortexM3\ARM_GCC_541\Debug\Rhea.a(cyPm.o)
 .comment       0x0000006e       0x6f .\CortexM3\ARM_GCC_541\Debug\Rhea.a(UART_RX_INTR.o)
 .comment       0x0000006e       0x6f .\CortexM3\ARM_GCC_541\Debug\Rhea.a(CyFlash.o)
 .comment       0x0000006e       0x6f .\CortexM3\ARM_GCC_541\Debug\Rhea.a(CySpc.o)

.debug_weaknames
 *(.debug_weaknames)

.debug_funcnames
 *(.debug_funcnames)

.debug_typenames
 *(.debug_typenames)

.debug_varnames
 *(.debug_varnames)

.note.gnu.arm.ident
 *(.note.gnu.arm.ident)

.ARM.attributes
                0x00000000       0x29
 *(.ARM.attributes)
 .ARM.attributes
                0x00000000       0x1d e:/cypress/psoc creator/4.2/psoc creator/import/gnu/arm/5.4.1/bin/../lib/gcc/arm-none-eabi/5.4.1/armv7-m/crti.o
 .ARM.attributes
                0x0000001d       0x2d e:/cypress/psoc creator/4.2/psoc creator/import/gnu/arm/5.4.1/bin/../lib/gcc/arm-none-eabi/5.4.1/armv7-m/crtbegin.o
 .ARM.attributes
                0x0000004a       0x1b e:/cypress/psoc creator/4.2/psoc creator/import/gnu/arm/5.4.1/bin/../lib/gcc/arm-none-eabi/5.4.1/../../../../arm-none-eabi/lib/armv7-m/crt0.o
 .ARM.attributes
                0x00000065       0x33 .\CortexM3\ARM_GCC_541\Debug\BME280.o
 .ARM.attributes
                0x00000098       0x33 .\CortexM3\ARM_GCC_541\Debug\MCP7940N.o
 .ARM.attributes
                0x000000cb       0x33 .\CortexM3\ARM_GCC_541\Debug\SSD1306.o
 .ARM.attributes
                0x000000fe       0x33 .\CortexM3\ARM_GCC_541\Debug\gfx.o
 .ARM.attributes
                0x00000131       0x33 .\CortexM3\ARM_GCC_541\Debug\gfx_impl.o
 .ARM.attributes
                0x00000164       0x33 .\CortexM3\ARM_GCC_541\Debug\i2c_rhea.o
 .ARM.attributes
                0x00000197       0x33 .\CortexM3\ARM_GCC_541\Debug\i2c_impl.o
 .ARM.attributes
                0x000001ca       0x33 .\CortexM3\ARM_GCC_541\Debug\alarm.o
 .ARM.attributes
                0x000001fd       0x33 .\CortexM3\ARM_GCC_541\Debug\datetime.o
 .ARM.attributes
                0x00000230       0x33 .\CortexM3\ARM_GCC_541\Debug\rtc.o
 .ARM.attributes
                0x00000263       0x33 .\CortexM3\ARM_GCC_541\Debug\rtc_impl.o
 .ARM.attributes
                0x00000296       0x33 .\CortexM3\ARM_GCC_541\Debug\BME280_INTF.o
 .ARM.attributes
                0x000002c9       0x33 .\CortexM3\ARM_GCC_541\Debug\sensor.o
 .ARM.attributes
                0x000002fc       0x33 .\CortexM3\ARM_GCC_541\Debug\sensor_impl.o
 .ARM.attributes
                0x0000032f       0x33 .\CortexM3\ARM_GCC_541\Debug\uart_impl.o
 .ARM.attributes
                0x00000362       0x33 .\CortexM3\ARM_GCC_541\Debug\uart_rhea.o
 .ARM.attributes
                0x00000395       0x33 .\CortexM3\ARM_GCC_541\Debug\state.o
 .ARM.attributes
                0x000003c8       0x33 .\CortexM3\ARM_GCC_541\Debug\command.o
 .ARM.attributes
                0x000003fb       0x33 .\CortexM3\ARM_GCC_541\Debug\input.o
 .ARM.attributes
                0x0000042e       0x33 .\CortexM3\ARM_GCC_541\Debug\menu.o
 .ARM.attributes
                0x00000461       0x33 .\CortexM3\ARM_GCC_541\Debug\main.o
 .ARM.attributes
                0x00000494       0x33 .\CortexM3\ARM_GCC_541\Debug\cyfitter_cfg.o
 .ARM.attributes
                0x000004c7       0x33 .\CortexM3\ARM_GCC_541\Debug\cymetadata.o
 .ARM.attributes
                0x000004fa       0x33 .\CortexM3\ARM_GCC_541\Debug\Cm3Start.o
 .ARM.attributes
                0x0000052d       0x33 .\CortexM3\ARM_GCC_541\Debug\Rhea.a(I2C.o)
 .ARM.attributes
                0x00000560       0x33 .\CortexM3\ARM_GCC_541\Debug\Rhea.a(I2C_INT.o)
 .ARM.attributes
                0x00000593       0x33 .\CortexM3\ARM_GCC_541\Debug\Rhea.a(I2C_PM.o)
 .ARM.attributes
                0x000005c6       0x33 .\CortexM3\ARM_GCC_541\Debug\Rhea.a(I2C_MASTER.o)
 .ARM.attributes
                0x000005f9       0x33 .\CortexM3\ARM_GCC_541\Debug\Rhea.a(UART.o)
 .ARM.attributes
                0x0000062c       0x33 .\CortexM3\ARM_GCC_541\Debug\Rhea.a(RTC_INTR.o)
 .ARM.attributes
                0x0000065f       0x33 .\CortexM3\ARM_GCC_541\Debug\Rhea.a(DEBOUNCE_CLK.o)
 .ARM.attributes
                0x00000692       0x33 .\CortexM3\ARM_GCC_541\Debug\Rhea.a(BTN_RIGHT_INTR.o)
 .ARM.attributes
                0x000006c5       0x33 .\CortexM3\ARM_GCC_541\Debug\Rhea.a(BTN_LEFT_INTR.o)
 .ARM.attributes
                0x000006f8       0x33 .\CortexM3\ARM_GCC_541\Debug\Rhea.a(BTN_ENTER_INTR.o)
 .ARM.attributes
                0x0000072b       0x33 .\CortexM3\ARM_GCC_541\Debug\Rhea.a(SENSOR_TIMER.o)
 .ARM.attributes
                0x0000075e       0x33 .\CortexM3\ARM_GCC_541\Debug\Rhea.a(SENSOR_1MS.o)
 .ARM.attributes
                0x00000791       0x33 .\CortexM3\ARM_GCC_541\Debug\Rhea.a(UART_IntClock.o)
 .ARM.attributes
                0x000007c4       0x33 .\CortexM3\ARM_GCC_541\Debug\Rhea.a(CyLib.o)
 .ARM.attributes
                0x000007f7       0x33 .\CortexM3\ARM_GCC_541\Debug\Rhea.a(cyPm.o)
 .ARM.attributes
                0x0000082a       0x33 .\CortexM3\ARM_GCC_541\Debug\Rhea.a(UART_RX_INTR.o)
 .ARM.attributes
                0x0000085d       0x21 .\CortexM3\ARM_GCC_541\Debug\Rhea.a(CyBootAsmGnu.o)
 .ARM.attributes
                0x0000087e       0x33 .\CortexM3\ARM_GCC_541\Debug\Rhea.a(CyFlash.o)
 .ARM.attributes
                0x000008b1       0x33 .\CortexM3\ARM_GCC_541\Debug\Rhea.a(CySpc.o)
 .ARM.attributes
                0x000008e4       0x2d e:/cypress/psoc creator/4.2/psoc creator/import/gnu/arm/5.4.1/bin/../lib/gcc/arm-none-eabi/5.4.1/../../../../arm-none-eabi/lib/armv7-m\libm.a(lib_a-s_floor.o)
 .ARM.attributes
                0x00000911       0x2d e:/cypress/psoc creator/4.2/psoc creator/import/gnu/arm/5.4.1/bin/../lib/gcc/arm-none-eabi/5.4.1/../../../../arm-none-eabi/lib/armv7-m\libm.a(lib_a-w_sqrt.o)
 .ARM.attributes
                0x0000093e       0x2d e:/cypress/psoc creator/4.2/psoc creator/import/gnu/arm/5.4.1/bin/../lib/gcc/arm-none-eabi/5.4.1/../../../../arm-none-eabi/lib/armv7-m\libm.a(lib_a-e_sqrt.o)
 .ARM.attributes
                0x0000096b       0x2d e:/cypress/psoc creator/4.2/psoc creator/import/gnu/arm/5.4.1/bin/../lib/gcc/arm-none-eabi/5.4.1/../../../../arm-none-eabi/lib/armv7-m\libm.a(lib_a-s_lib_ver.o)
 .ARM.attributes
                0x00000998       0x2d e:/cypress/psoc creator/4.2/psoc creator/import/gnu/arm/5.4.1/bin/../lib/gcc/arm-none-eabi/5.4.1/../../../../arm-none-eabi/lib/armv7-m\libm.a(lib_a-s_matherr.o)
 .ARM.attributes
                0x000009c5       0x1d e:/cypress/psoc creator/4.2/psoc creator/import/gnu/arm/5.4.1/bin/../lib/gcc/arm-none-eabi/5.4.1/armv7-m\libgcc.a(_arm_addsubdf3.o)
 .ARM.attributes
                0x000009e2       0x1d e:/cypress/psoc creator/4.2/psoc creator/import/gnu/arm/5.4.1/bin/../lib/gcc/arm-none-eabi/5.4.1/armv7-m\libgcc.a(_arm_muldivdf3.o)
 .ARM.attributes
                0x000009ff       0x1d e:/cypress/psoc creator/4.2/psoc creator/import/gnu/arm/5.4.1/bin/../lib/gcc/arm-none-eabi/5.4.1/armv7-m\libgcc.a(_arm_cmpdf2.o)
 .ARM.attributes
                0x00000a1c       0x1d e:/cypress/psoc creator/4.2/psoc creator/import/gnu/arm/5.4.1/bin/../lib/gcc/arm-none-eabi/5.4.1/armv7-m\libgcc.a(_arm_unorddf2.o)
 .ARM.attributes
                0x00000a39       0x1d e:/cypress/psoc creator/4.2/psoc creator/import/gnu/arm/5.4.1/bin/../lib/gcc/arm-none-eabi/5.4.1/armv7-m\libgcc.a(_arm_fixdfsi.o)
 .ARM.attributes
                0x00000a56       0x1d e:/cypress/psoc creator/4.2/psoc creator/import/gnu/arm/5.4.1/bin/../lib/gcc/arm-none-eabi/5.4.1/armv7-m\libgcc.a(_arm_fixunsdfsi.o)
 .ARM.attributes
                0x00000a73       0x1d e:/cypress/psoc creator/4.2/psoc creator/import/gnu/arm/5.4.1/bin/../lib/gcc/arm-none-eabi/5.4.1/armv7-m\libgcc.a(_arm_addsubsf3.o)
 .ARM.attributes
                0x00000a90       0x1d e:/cypress/psoc creator/4.2/psoc creator/import/gnu/arm/5.4.1/bin/../lib/gcc/arm-none-eabi/5.4.1/armv7-m\libgcc.a(_arm_muldivsf3.o)
 .ARM.attributes
                0x00000aad       0x1d e:/cypress/psoc creator/4.2/psoc creator/import/gnu/arm/5.4.1/bin/../lib/gcc/arm-none-eabi/5.4.1/armv7-m\libgcc.a(_arm_fixsfsi.o)
 .ARM.attributes
                0x00000aca       0x1d e:/cypress/psoc creator/4.2/psoc creator/import/gnu/arm/5.4.1/bin/../lib/gcc/arm-none-eabi/5.4.1/armv7-m\libgcc.a(_aeabi_ldivmod.o)
 .ARM.attributes
                0x00000ae7       0x2d e:/cypress/psoc creator/4.2/psoc creator/import/gnu/arm/5.4.1/bin/../lib/gcc/arm-none-eabi/5.4.1/armv7-m\libgcc.a(_fixdfdi.o)
 .ARM.attributes
                0x00000b14       0x2d e:/cypress/psoc creator/4.2/psoc creator/import/gnu/arm/5.4.1/bin/../lib/gcc/arm-none-eabi/5.4.1/armv7-m\libgcc.a(_fixunsdfdi.o)
 .ARM.attributes
                0x00000b41       0x2d e:/cypress/psoc creator/4.2/psoc creator/import/gnu/arm/5.4.1/bin/../lib/gcc/arm-none-eabi/5.4.1/armv7-m\libgcc.a(_udivmoddi4.o)
 .ARM.attributes
                0x00000b6e       0x1d e:/cypress/psoc creator/4.2/psoc creator/import/gnu/arm/5.4.1/bin/../lib/gcc/arm-none-eabi/5.4.1/armv7-m\libgcc.a(_dvmd_tls.o)
 .ARM.attributes
                0x00000b8b       0x2d e:/cypress/psoc creator/4.2/psoc creator/import/gnu/arm/5.4.1/bin/../lib/gcc/arm-none-eabi/5.4.1/../../../../arm-none-eabi/lib/armv7-m\libg_nano.a(lib_a-errno.o)
 .ARM.attributes
                0x00000bb8       0x2d e:/cypress/psoc creator/4.2/psoc creator/import/gnu/arm/5.4.1/bin/../lib/gcc/arm-none-eabi/5.4.1/../../../../arm-none-eabi/lib/armv7-m\libg_nano.a(lib_a-exit.o)
 .ARM.attributes
                0x00000be5       0x2d e:/cypress/psoc creator/4.2/psoc creator/import/gnu/arm/5.4.1/bin/../lib/gcc/arm-none-eabi/5.4.1/../../../../arm-none-eabi/lib/armv7-m\libg_nano.a(lib_a-getopt.o)
 .ARM.attributes
                0x00000c12       0x2d e:/cypress/psoc creator/4.2/psoc creator/import/gnu/arm/5.4.1/bin/../lib/gcc/arm-none-eabi/5.4.1/../../../../arm-none-eabi/lib/armv7-m\libg_nano.a(lib_a-impure.o)
 .ARM.attributes
                0x00000c3f       0x2d e:/cypress/psoc creator/4.2/psoc creator/import/gnu/arm/5.4.1/bin/../lib/gcc/arm-none-eabi/5.4.1/../../../../arm-none-eabi/lib/armv7-m\libg_nano.a(lib_a-init.o)
 .ARM.attributes
                0x00000c6c       0x2d e:/cypress/psoc creator/4.2/psoc creator/import/gnu/arm/5.4.1/bin/../lib/gcc/arm-none-eabi/5.4.1/../../../../arm-none-eabi/lib/armv7-m\libg_nano.a(lib_a-memcmp.o)
 .ARM.attributes
                0x00000c99       0x2d e:/cypress/psoc creator/4.2/psoc creator/import/gnu/arm/5.4.1/bin/../lib/gcc/arm-none-eabi/5.4.1/../../../../arm-none-eabi/lib/armv7-m\libg_nano.a(lib_a-memcpy-stub.o)
 .ARM.attributes
                0x00000cc6       0x2d e:/cypress/psoc creator/4.2/psoc creator/import/gnu/arm/5.4.1/bin/../lib/gcc/arm-none-eabi/5.4.1/../../../../arm-none-eabi/lib/armv7-m\libg_nano.a(lib_a-memset.o)
 .ARM.attributes
                0x00000cf3       0x2d e:/cypress/psoc creator/4.2/psoc creator/import/gnu/arm/5.4.1/bin/../lib/gcc/arm-none-eabi/5.4.1/../../../../arm-none-eabi/lib/armv7-m\libg_nano.a(lib_a-nano-vfprintf_float.o)
 .ARM.attributes
                0x00000d20       0x2d e:/cypress/psoc creator/4.2/psoc creator/import/gnu/arm/5.4.1/bin/../lib/gcc/arm-none-eabi/5.4.1/../../../../arm-none-eabi/lib/armv7-m\libg_nano.a(lib_a-nano-vfprintf_i.o)
 .ARM.attributes
                0x00000d4d       0x2d e:/cypress/psoc creator/4.2/psoc creator/import/gnu/arm/5.4.1/bin/../lib/gcc/arm-none-eabi/5.4.1/../../../../arm-none-eabi/lib/armv7-m\libg_nano.a(lib_a-sprintf.o)
 .ARM.attributes
                0x00000d7a       0x2d e:/cypress/psoc creator/4.2/psoc creator/import/gnu/arm/5.4.1/bin/../lib/gcc/arm-none-eabi/5.4.1/../../../../arm-none-eabi/lib/armv7-m\libg_nano.a(lib_a-sscanf.o)
 .ARM.attributes
                0x00000da7       0x2d e:/cypress/psoc creator/4.2/psoc creator/import/gnu/arm/5.4.1/bin/../lib/gcc/arm-none-eabi/5.4.1/../../../../arm-none-eabi/lib/armv7-m\libg_nano.a(lib_a-stdio.o)
 .ARM.attributes
                0x00000dd4       0x2d e:/cypress/psoc creator/4.2/psoc creator/import/gnu/arm/5.4.1/bin/../lib/gcc/arm-none-eabi/5.4.1/../../../../arm-none-eabi/lib/armv7-m\libg_nano.a(lib_a-strcat.o)
 .ARM.attributes
                0x00000e01       0x2d e:/cypress/psoc creator/4.2/psoc creator/import/gnu/arm/5.4.1/bin/../lib/gcc/arm-none-eabi/5.4.1/../../../../arm-none-eabi/lib/armv7-m\libg_nano.a(lib_a-strchr.o)
 .ARM.attributes
                0x00000e2e       0x1b e:/cypress/psoc creator/4.2/psoc creator/import/gnu/arm/5.4.1/bin/../lib/gcc/arm-none-eabi/5.4.1/../../../../arm-none-eabi/lib/armv7-m\libg_nano.a(lib_a-strcmp.o)
 .ARM.attributes
                0x00000e49       0x2d e:/cypress/psoc creator/4.2/psoc creator/import/gnu/arm/5.4.1/bin/../lib/gcc/arm-none-eabi/5.4.1/../../../../arm-none-eabi/lib/armv7-m\libg_nano.a(lib_a-strcpy.o)
 .ARM.attributes
                0x00000e76       0x17 e:/cypress/psoc creator/4.2/psoc creator/import/gnu/arm/5.4.1/bin/../lib/gcc/arm-none-eabi/5.4.1/../../../../arm-none-eabi/lib/armv7-m\libg_nano.a(lib_a-strlen.o)
 .ARM.attributes
                0x00000e8d       0x2d e:/cypress/psoc creator/4.2/psoc creator/import/gnu/arm/5.4.1/bin/../lib/gcc/arm-none-eabi/5.4.1/../../../../arm-none-eabi/lib/armv7-m\libg_nano.a(lib_a-strtok.o)
 .ARM.attributes
                0x00000eba       0x2d e:/cypress/psoc creator/4.2/psoc creator/import/gnu/arm/5.4.1/bin/../lib/gcc/arm-none-eabi/5.4.1/../../../../arm-none-eabi/lib/armv7-m\libg_nano.a(lib_a-strtok_r.o)
 .ARM.attributes
                0x00000ee7       0x2d e:/cypress/psoc creator/4.2/psoc creator/import/gnu/arm/5.4.1/bin/../lib/gcc/arm-none-eabi/5.4.1/../../../../arm-none-eabi/lib/armv7-m\libg_nano.a(lib_a-strtol.o)
 .ARM.attributes
                0x00000f14       0x2d e:/cypress/psoc creator/4.2/psoc creator/import/gnu/arm/5.4.1/bin/../lib/gcc/arm-none-eabi/5.4.1/../../../../arm-none-eabi/lib/armv7-m\libg_nano.a(lib_a-writer.o)
 .ARM.attributes
                0x00000f41       0x2d e:/cypress/psoc creator/4.2/psoc creator/import/gnu/arm/5.4.1/bin/../lib/gcc/arm-none-eabi/5.4.1/../../../../arm-none-eabi/lib/armv7-m\libg_nano.a(lib_a-closer.o)
 .ARM.attributes
                0x00000f6e       0x2d e:/cypress/psoc creator/4.2/psoc creator/import/gnu/arm/5.4.1/bin/../lib/gcc/arm-none-eabi/5.4.1/../../../../arm-none-eabi/lib/armv7-m\libg_nano.a(lib_a-ctype_.o)
 .ARM.attributes
                0x00000f9b       0x2d e:/cypress/psoc creator/4.2/psoc creator/import/gnu/arm/5.4.1/bin/../lib/gcc/arm-none-eabi/5.4.1/../../../../arm-none-eabi/lib/armv7-m\libg_nano.a(lib_a-dtoa.o)
 .ARM.attributes
                0x00000fc8       0x2d e:/cypress/psoc creator/4.2/psoc creator/import/gnu/arm/5.4.1/bin/../lib/gcc/arm-none-eabi/5.4.1/../../../../arm-none-eabi/lib/armv7-m\libg_nano.a(lib_a-fputc.o)
 .ARM.attributes
                0x00000ff5       0x2d e:/cypress/psoc creator/4.2/psoc creator/import/gnu/arm/5.4.1/bin/../lib/gcc/arm-none-eabi/5.4.1/../../../../arm-none-eabi/lib/armv7-m\libg_nano.a(lib_a-fputs.o)
 .ARM.attributes
                0x00001022       0x2d e:/cypress/psoc creator/4.2/psoc creator/import/gnu/arm/5.4.1/bin/../lib/gcc/arm-none-eabi/5.4.1/../../../../arm-none-eabi/lib/armv7-m\libg_nano.a(lib_a-getenv.o)
 .ARM.attributes
                0x0000104f       0x2d e:/cypress/psoc creator/4.2/psoc creator/import/gnu/arm/5.4.1/bin/../lib/gcc/arm-none-eabi/5.4.1/../../../../arm-none-eabi/lib/armv7-m\libg_nano.a(lib_a-getenv_r.o)
 .ARM.attributes
                0x0000107c       0x2d e:/cypress/psoc creator/4.2/psoc creator/import/gnu/arm/5.4.1/bin/../lib/gcc/arm-none-eabi/5.4.1/../../../../arm-none-eabi/lib/armv7-m\libg_nano.a(lib_a-locale.o)
 .ARM.attributes
                0x000010a9       0x2d e:/cypress/psoc creator/4.2/psoc creator/import/gnu/arm/5.4.1/bin/../lib/gcc/arm-none-eabi/5.4.1/../../../../arm-none-eabi/lib/armv7-m\libg_nano.a(lib_a-lseekr.o)
 .ARM.attributes
                0x000010d6       0x2d e:/cypress/psoc creator/4.2/psoc creator/import/gnu/arm/5.4.1/bin/../lib/gcc/arm-none-eabi/5.4.1/../../../../arm-none-eabi/lib/armv7-m\libg_nano.a(lib_a-malloc.o)
 .ARM.attributes
                0x00001103       0x2d e:/cypress/psoc creator/4.2/psoc creator/import/gnu/arm/5.4.1/bin/../lib/gcc/arm-none-eabi/5.4.1/../../../../arm-none-eabi/lib/armv7-m\libg_nano.a(lib_a-memchr-stub.o)
 .ARM.attributes
                0x00001130       0x2d e:/cypress/psoc creator/4.2/psoc creator/import/gnu/arm/5.4.1/bin/../lib/gcc/arm-none-eabi/5.4.1/../../../../arm-none-eabi/lib/armv7-m\libg_nano.a(lib_a-mprec.o)
 .ARM.attributes
                0x0000115d       0x2d e:/cypress/psoc creator/4.2/psoc creator/import/gnu/arm/5.4.1/bin/../lib/gcc/arm-none-eabi/5.4.1/../../../../arm-none-eabi/lib/armv7-m\libg_nano.a(lib_a-nano-callocr.o)
 .ARM.attributes
                0x0000118a       0x2d e:/cypress/psoc creator/4.2/psoc creator/import/gnu/arm/5.4.1/bin/../lib/gcc/arm-none-eabi/5.4.1/../../../../arm-none-eabi/lib/armv7-m\libg_nano.a(lib_a-nano-freer.o)
 .ARM.attributes
                0x000011b7       0x2d e:/cypress/psoc creator/4.2/psoc creator/import/gnu/arm/5.4.1/bin/../lib/gcc/arm-none-eabi/5.4.1/../../../../arm-none-eabi/lib/armv7-m\libg_nano.a(lib_a-nano-mallocr.o)
 .ARM.attributes
                0x000011e4       0x2d e:/cypress/psoc creator/4.2/psoc creator/import/gnu/arm/5.4.1/bin/../lib/gcc/arm-none-eabi/5.4.1/../../../../arm-none-eabi/lib/armv7-m\libg_nano.a(lib_a-nano-svfprintf.o)
 .ARM.attributes
                0x00001211       0x2d e:/cypress/psoc creator/4.2/psoc creator/import/gnu/arm/5.4.1/bin/../lib/gcc/arm-none-eabi/5.4.1/../../../../arm-none-eabi/lib/armv7-m\libg_nano.a(lib_a-nano-svfscanf.o)
 .ARM.attributes
                0x0000123e       0x2d e:/cypress/psoc creator/4.2/psoc creator/import/gnu/arm/5.4.1/bin/../lib/gcc/arm-none-eabi/5.4.1/../../../../arm-none-eabi/lib/armv7-m\libg_nano.a(lib_a-nano-vfscanf_i.o)
 .ARM.attributes
                0x0000126b       0x2d e:/cypress/psoc creator/4.2/psoc creator/import/gnu/arm/5.4.1/bin/../lib/gcc/arm-none-eabi/5.4.1/../../../../arm-none-eabi/lib/armv7-m\libg_nano.a(lib_a-putc.o)
 .ARM.attributes
                0x00001298       0x2d e:/cypress/psoc creator/4.2/psoc creator/import/gnu/arm/5.4.1/bin/../lib/gcc/arm-none-eabi/5.4.1/../../../../arm-none-eabi/lib/armv7-m\libg_nano.a(lib_a-readr.o)
 .ARM.attributes
                0x000012c5       0x2d e:/cypress/psoc creator/4.2/psoc creator/import/gnu/arm/5.4.1/bin/../lib/gcc/arm-none-eabi/5.4.1/../../../../arm-none-eabi/lib/armv7-m\libg_nano.a(lib_a-reent.o)
 .ARM.attributes
                0x000012f2       0x2d e:/cypress/psoc creator/4.2/psoc creator/import/gnu/arm/5.4.1/bin/../lib/gcc/arm-none-eabi/5.4.1/../../../../arm-none-eabi/lib/armv7-m\libg_nano.a(lib_a-sbrkr.o)
 .ARM.attributes
                0x0000131f       0x2d e:/cypress/psoc creator/4.2/psoc creator/import/gnu/arm/5.4.1/bin/../lib/gcc/arm-none-eabi/5.4.1/../../../../arm-none-eabi/lib/armv7-m\libg_nano.a(lib_a-sccl.o)
 .ARM.attributes
                0x0000134c       0x2d e:/cypress/psoc creator/4.2/psoc creator/import/gnu/arm/5.4.1/bin/../lib/gcc/arm-none-eabi/5.4.1/../../../../arm-none-eabi/lib/armv7-m\libg_nano.a(lib_a-strncmp.o)
 .ARM.attributes
                0x00001379       0x2d e:/cypress/psoc creator/4.2/psoc creator/import/gnu/arm/5.4.1/bin/../lib/gcc/arm-none-eabi/5.4.1/../../../../arm-none-eabi/lib/armv7-m\libg_nano.a(lib_a-strtoul.o)
 .ARM.attributes
                0x000013a6       0x2d e:/cypress/psoc creator/4.2/psoc creator/import/gnu/arm/5.4.1/bin/../lib/gcc/arm-none-eabi/5.4.1/../../../../arm-none-eabi/lib/armv7-m\libg_nano.a(lib_a-ungetc.o)
 .ARM.attributes
                0x000013d3       0x2d e:/cypress/psoc creator/4.2/psoc creator/import/gnu/arm/5.4.1/bin/../lib/gcc/arm-none-eabi/5.4.1/../../../../arm-none-eabi/lib/armv7-m\libg_nano.a(lib_a-wbuf.o)
 .ARM.attributes
                0x00001400       0x2d e:/cypress/psoc creator/4.2/psoc creator/import/gnu/arm/5.4.1/bin/../lib/gcc/arm-none-eabi/5.4.1/../../../../arm-none-eabi/lib/armv7-m\libg_nano.a(lib_a-wsetup.o)
 .ARM.attributes
                0x0000142d       0x2d e:/cypress/psoc creator/4.2/psoc creator/import/gnu/arm/5.4.1/bin/../lib/gcc/arm-none-eabi/5.4.1/../../../../arm-none-eabi/lib/armv7-m\libg_nano.a(lib_a-environ.o)
 .ARM.attributes
                0x0000145a       0x2d e:/cypress/psoc creator/4.2/psoc creator/import/gnu/arm/5.4.1/bin/../lib/gcc/arm-none-eabi/5.4.1/../../../../arm-none-eabi/lib/armv7-m\libg_nano.a(lib_a-envlock.o)
 .ARM.attributes
                0x00001487       0x2d e:/cypress/psoc creator/4.2/psoc creator/import/gnu/arm/5.4.1/bin/../lib/gcc/arm-none-eabi/5.4.1/../../../../arm-none-eabi/lib/armv7-m\libg_nano.a(lib_a-fflush.o)
 .ARM.attributes
                0x000014b4       0x2d e:/cypress/psoc creator/4.2/psoc creator/import/gnu/arm/5.4.1/bin/../lib/gcc/arm-none-eabi/5.4.1/../../../../arm-none-eabi/lib/armv7-m\libg_nano.a(lib_a-findfp.o)
 .ARM.attributes
                0x000014e1       0x2d e:/cypress/psoc creator/4.2/psoc creator/import/gnu/arm/5.4.1/bin/../lib/gcc/arm-none-eabi/5.4.1/../../../../arm-none-eabi/lib/armv7-m\libg_nano.a(lib_a-fwalk.o)
 .ARM.attributes
                0x0000150e       0x2d e:/cypress/psoc creator/4.2/psoc creator/import/gnu/arm/5.4.1/bin/../lib/gcc/arm-none-eabi/5.4.1/../../../../arm-none-eabi/lib/armv7-m\libg_nano.a(lib_a-makebuf.o)
 .ARM.attributes
                0x0000153b       0x2d e:/cypress/psoc creator/4.2/psoc creator/import/gnu/arm/5.4.1/bin/../lib/gcc/arm-none-eabi/5.4.1/../../../../arm-none-eabi/lib/armv7-m\libg_nano.a(lib_a-memmove.o)
 .ARM.attributes
                0x00001568       0x2d e:/cypress/psoc creator/4.2/psoc creator/import/gnu/arm/5.4.1/bin/../lib/gcc/arm-none-eabi/5.4.1/../../../../arm-none-eabi/lib/armv7-m\libg_nano.a(lib_a-mlock.o)
 .ARM.attributes
                0x00001595       0x2d e:/cypress/psoc creator/4.2/psoc creator/import/gnu/arm/5.4.1/bin/../lib/gcc/arm-none-eabi/5.4.1/../../../../arm-none-eabi/lib/armv7-m\libg_nano.a(lib_a-nano-reallocr.o)
 .ARM.attributes
                0x000015c2       0x2d e:/cypress/psoc creator/4.2/psoc creator/import/gnu/arm/5.4.1/bin/../lib/gcc/arm-none-eabi/5.4.1/../../../../arm-none-eabi/lib/armv7-m\libg_nano.a(lib_a-fstatr.o)
 .ARM.attributes
                0x000015ef       0x2d e:/cypress/psoc creator/4.2/psoc creator/import/gnu/arm/5.4.1/bin/../lib/gcc/arm-none-eabi/5.4.1/../../../../arm-none-eabi/lib/armv7-m\libg_nano.a(lib_a-isattyr.o)
 .ARM.attributes
                0x0000161c       0x2d e:/cypress/psoc creator/4.2/psoc creator/import/gnu/arm/5.4.1/bin/../lib/gcc/arm-none-eabi/5.4.1/../../../../arm-none-eabi/lib/armv7-m\libg_nano.a(lib_a-nano-msizer.o)
 .ARM.attributes
                0x00001649       0x2d e:/cypress/psoc creator/4.2/psoc creator/import/gnu/arm/5.4.1/bin/../lib/gcc/arm-none-eabi/5.4.1/armv7-m/crtend.o
 .ARM.attributes
                0x00001676       0x1d e:/cypress/psoc creator/4.2/psoc creator/import/gnu/arm/5.4.1/bin/../lib/gcc/arm-none-eabi/5.4.1/armv7-m/crtn.o
 .ARM.attributes
                0x00001693       0x2d e:/cypress/psoc creator/4.2/psoc creator/import/gnu/arm/5.4.1/bin/../lib/gcc/arm-none-eabi/5.4.1/../../../../arm-none-eabi/lib/armv7-m\libnosys.a(close.o)
 .ARM.attributes
                0x000016c0       0x2d e:/cypress/psoc creator/4.2/psoc creator/import/gnu/arm/5.4.1/bin/../lib/gcc/arm-none-eabi/5.4.1/../../../../arm-none-eabi/lib/armv7-m\libnosys.a(fstat.o)
 .ARM.attributes
                0x000016ed       0x2d e:/cypress/psoc creator/4.2/psoc creator/import/gnu/arm/5.4.1/bin/../lib/gcc/arm-none-eabi/5.4.1/../../../../arm-none-eabi/lib/armv7-m\libnosys.a(isatty.o)
 .ARM.attributes
                0x0000171a       0x2d e:/cypress/psoc creator/4.2/psoc creator/import/gnu/arm/5.4.1/bin/../lib/gcc/arm-none-eabi/5.4.1/../../../../arm-none-eabi/lib/armv7-m\libnosys.a(lseek.o)
 .ARM.attributes
                0x00001747       0x2d e:/cypress/psoc creator/4.2/psoc creator/import/gnu/arm/5.4.1/bin/../lib/gcc/arm-none-eabi/5.4.1/../../../../arm-none-eabi/lib/armv7-m\libnosys.a(read.o)
 .ARM.attributes
                0x00001774       0x2d e:/cypress/psoc creator/4.2/psoc creator/import/gnu/arm/5.4.1/bin/../lib/gcc/arm-none-eabi/5.4.1/../../../../arm-none-eabi/lib/armv7-m\libnosys.a(write.o)

/DISCARD/
 *(.note.GNU-stack)
OUTPUT(E:\Cypress\Projects\RheaWorkspace\Rhea.cydsn\CortexM3\ARM_GCC_541\Debug\Rhea.elf elf32-littlearm)
