ARM GAS  C:\Users\GYULAI~1\AppData\Local\Temp\ccZu9sJJ.s 			page 1


   1              		.syntax unified
   2              		.cpu cortex-m3
   3              		.fpu softvfp
   4              		.eabi_attribute 20, 1
   5              		.eabi_attribute 21, 1
   6              		.eabi_attribute 23, 3
   7              		.eabi_attribute 24, 1
   8              		.eabi_attribute 25, 1
   9              		.eabi_attribute 26, 1
  10              		.eabi_attribute 30, 6
  11              		.eabi_attribute 34, 1
  12              		.eabi_attribute 18, 4
  13              		.thumb
  14              		.syntax unified
  15              		.file	"rtc.c"
  16              		.text
  17              	.Ltext0:
  18              		.cfi_sections	.debug_frame
  19              		.section	.rodata
  20              		.align	2
  21              		.type	rhea_rtc_datetimeFormatGeneral, %object
  22              		.size	rhea_rtc_datetimeFormatGeneral, 20
  23              	rhea_rtc_datetimeFormatGeneral:
  24 0000 59595959 		.ascii	"YYYY/MM/dd hh:mm:ss\000"
  24      2F4D4D2F 
  24      64642068 
  24      683A6D6D 
  24      3A737300 
  25              		.align	2
  26              		.type	rhea_rtc_datetimeFormatGeneralUS, %object
  27              		.size	rhea_rtc_datetimeFormatGeneralUS, 22
  28              	rhea_rtc_datetimeFormatGeneralUS:
  29 0014 64642F4D 		.ascii	"dd/MM/YYYY hh:mm:ss t\000"
  29      4D2F5959 
  29      59592068 
  29      683A6D6D 
  29      3A737320 
  30 002a 0000     		.align	2
  31              		.type	rhea_rtc_datetimeFormatFull, %object
  32              		.size	rhea_rtc_datetimeFormatFull, 22
  33              	rhea_rtc_datetimeFormatFull:
  34 002c 772C204D 		.ascii	"w, MMMM d, YYYY h:m:s\000"
  34      4D4D4D20 
  34      642C2059 
  34      59595920 
  34      683A6D3A 
  35              		.comm	rhea_rtc_powerFailTimestamp,8,4
  36              		.comm	rhea_rtc_powerUpTimestamp,8,4
  37              		.bss
  38              		.align	2
  39              	rhea_rtc_alarmCallbacks:
  40 0000 00000000 		.space	128
  40      00000000 
  40      00000000 
  40      00000000 
  40      00000000 
  41              		.comm	rhea_rtc_alarmRegistry,384,4
ARM GAS  C:\Users\GYULAI~1\AppData\Local\Temp\ccZu9sJJ.s 			page 2


  42              	rhea_rtc_alarmOccured:
  43 0080 00       		.space	1
  44              		.section	.text.rhea_rtc_Initialize,"ax",%progbits
  45              		.align	2
  46              		.global	rhea_rtc_Initialize
  47              		.thumb
  48              		.thumb_func
  49              		.type	rhea_rtc_Initialize, %function
  50              	rhea_rtc_Initialize:
  51              	.LFB0:
  52              		.file 1 "rhea\\rtc\\rtc.c"
   1:rhea\rtc/rtc.c **** /*********************************************************************************
   2:rhea\rtc/rtc.c ****  * Copyright (c) 2020 Peter Gyulai
   3:rhea\rtc/rtc.c ****  *
   4:rhea\rtc/rtc.c ****  * Permission is hereby granted, free of charge, to any person obtaining a copy
   5:rhea\rtc/rtc.c ****  * of this software and associated documentation files (the "Software"), to deal
   6:rhea\rtc/rtc.c ****  * in the Software without restriction, including without limitation the rights
   7:rhea\rtc/rtc.c ****  * to use, copy, modify, merge, publish, distribute, sublicense, and/or sell
   8:rhea\rtc/rtc.c ****  * copies of the Software, and to permit persons to whom the Software is
   9:rhea\rtc/rtc.c ****  * furnished to do so, subject to the following conditions:
  10:rhea\rtc/rtc.c ****  *
  11:rhea\rtc/rtc.c ****  * The above copyright notice and this permission notice shall be included in all
  12:rhea\rtc/rtc.c ****  * copies or substantial portions of the Software.
  13:rhea\rtc/rtc.c ****  *
  14:rhea\rtc/rtc.c ****  * THE SOFTWARE IS PROVIDED "AS IS", WITHOUT WARRANTY OF ANY KIND,
  15:rhea\rtc/rtc.c ****  * EXPRESS OR IMPLIED, INCLUDING BUT NOT LIMITED TO THE WARRANTIES OF
  16:rhea\rtc/rtc.c ****  * MERCHANTABILITY, FITNESS FOR A PARTICULAR PURPOSE AND NONINFRINGEMENT.
  17:rhea\rtc/rtc.c ****  * IN NO EVENT SHALL THE AUTHORS OR COPYRIGHT HOLDERS BE LIABLE FOR ANY CLAIM,
  18:rhea\rtc/rtc.c ****  * DAMAGES OR OTHER LIABILITY, WHETHER IN AN ACTION OF CONTRACT, TORT OR
  19:rhea\rtc/rtc.c ****  * OTHERWISE, ARISING FROM, OUT OF OR IN CONNECTION WITH THE SOFTWARE OR THE USE
  20:rhea\rtc/rtc.c ****  * OR OTHER DEALINGS IN THE SOFTWARE.
  21:rhea\rtc/rtc.c **** **********************************************************************************/
  22:rhea\rtc/rtc.c **** 
  23:rhea\rtc/rtc.c **** /**
  24:rhea\rtc/rtc.c ****  * @file    Rhea_RTC.c
  25:rhea\rtc/rtc.c ****  * @author  Peter Gyulai
  26:rhea\rtc/rtc.c ****  * @version 1.0.0
  27:rhea\rtc/rtc.c ****  * @date    2020.04.19
  28:rhea\rtc/rtc.c ****  * @brief   Library implementation.
  29:rhea\rtc/rtc.c ****  * @details
  30:rhea\rtc/rtc.c ****  * This file contains the function definitions used by the Rhea RTC library.
  31:rhea\rtc/rtc.c ****  */
  32:rhea\rtc/rtc.c **** 
  33:rhea\rtc/rtc.c ****  // Doxygen documentation duplication suppression
  34:rhea\rtc/rtc.c **** #ifndef DOXYGEN_SHOULD_SKIP_THIS
  35:rhea\rtc/rtc.c ****     
  36:rhea\rtc/rtc.c **** // Standard includes
  37:rhea\rtc/rtc.c **** #include <stdlib.h>
  38:rhea\rtc/rtc.c **** 
  39:rhea\rtc/rtc.c **** // Project includes
  40:rhea\rtc/rtc.c **** #include "rtc.h"
  41:rhea\rtc/rtc.c **** #include "rtc_impl.h"
  42:rhea\rtc/rtc.c ****     
  43:rhea\rtc/rtc.c **** 
  44:rhea\rtc/rtc.c **** // Static datetime storing the last power-fail
  45:rhea\rtc/rtc.c **** rhea_rtc_datetime rhea_rtc_powerFailTimestamp;
  46:rhea\rtc/rtc.c **** 
ARM GAS  C:\Users\GYULAI~1\AppData\Local\Temp\ccZu9sJJ.s 			page 3


  47:rhea\rtc/rtc.c **** // Static datetime storing the last power-up
  48:rhea\rtc/rtc.c **** rhea_rtc_datetime rhea_rtc_powerUpTimestamp;
  49:rhea\rtc/rtc.c **** 
  50:rhea\rtc/rtc.c **** // Total size of the alarm registry
  51:rhea\rtc/rtc.c **** #define RHEA_RTC_ALARM_REGISTRY_SIZE (RHEA_RTC_HARDWARE_ALARM_COUNT + RHEA_RTC_SOFTWARE_ALARM_COUNT
  52:rhea\rtc/rtc.c **** 
  53:rhea\rtc/rtc.c **** // Static array to store alarm callbacks
  54:rhea\rtc/rtc.c **** static rhea_rtc_alarmCallback rhea_rtc_alarmCallbacks[RHEA_RTC_ALARM_REGISTRY_SIZE];
  55:rhea\rtc/rtc.c **** 
  56:rhea\rtc/rtc.c **** // Static array to store alarms
  57:rhea\rtc/rtc.c **** rhea_rtc_alarm rhea_rtc_alarmRegistry[RHEA_RTC_ALARM_REGISTRY_SIZE];
  58:rhea\rtc/rtc.c **** 
  59:rhea\rtc/rtc.c **** // Static volatile flag indicating an alarm interrupt has occured
  60:rhea\rtc/rtc.c **** static volatile uint8_t rhea_rtc_alarmOccured = 0;
  61:rhea\rtc/rtc.c **** 
  62:rhea\rtc/rtc.c **** void rhea_rtc_Initialize(void) {
  53              		.loc 1 62 0
  54              		.cfi_startproc
  55              		@ args = 0, pretend = 0, frame = 0
  56              		@ frame_needed = 1, uses_anonymous_args = 0
  57 0000 80B5     		push	{r7, lr}
  58              		.cfi_def_cfa_offset 8
  59              		.cfi_offset 7, -8
  60              		.cfi_offset 14, -4
  61 0002 00AF     		add	r7, sp, #0
  62              		.cfi_def_cfa_register 7
  63:rhea\rtc/rtc.c **** 
  64:rhea\rtc/rtc.c ****     // Invoking driver implementation
  65:rhea\rtc/rtc.c ****     rhea_rtc_initialize_impl();
  63              		.loc 1 65 0
  64 0004 FFF7FEFF 		bl	rhea_rtc_initialize_impl
  66:rhea\rtc/rtc.c **** 
  67:rhea\rtc/rtc.c ****     // Loading alarms from persistent storage
  68:rhea\rtc/rtc.c ****     rhea_rtc_loadAlarms_impl();
  65              		.loc 1 68 0
  66 0008 FFF7FEFF 		bl	rhea_rtc_loadAlarms_impl
  69:rhea\rtc/rtc.c **** }
  67              		.loc 1 69 0
  68 000c 00BF     		nop
  69 000e 80BD     		pop	{r7, pc}
  70              		.cfi_endproc
  71              	.LFE0:
  72              		.size	rhea_rtc_Initialize, .-rhea_rtc_Initialize
  73              		.section	.text.rhea_rtc_Now,"ax",%progbits
  74              		.align	2
  75              		.global	rhea_rtc_Now
  76              		.thumb
  77              		.thumb_func
  78              		.type	rhea_rtc_Now, %function
  79              	rhea_rtc_Now:
  80              	.LFB1:
  70:rhea\rtc/rtc.c **** 
  71:rhea\rtc/rtc.c **** rhea_rtc_datetime rhea_rtc_Now(void) {
  81              		.loc 1 71 0
  82              		.cfi_startproc
  83              		@ args = 0, pretend = 0, frame = 8
  84              		@ frame_needed = 1, uses_anonymous_args = 0
ARM GAS  C:\Users\GYULAI~1\AppData\Local\Temp\ccZu9sJJ.s 			page 4


  85 0000 80B5     		push	{r7, lr}
  86              		.cfi_def_cfa_offset 8
  87              		.cfi_offset 7, -8
  88              		.cfi_offset 14, -4
  89 0002 82B0     		sub	sp, sp, #8
  90              		.cfi_def_cfa_offset 16
  91 0004 00AF     		add	r7, sp, #0
  92              		.cfi_def_cfa_register 7
  93 0006 7860     		str	r0, [r7, #4]
  72:rhea\rtc/rtc.c **** 
  73:rhea\rtc/rtc.c ****     // Returning current datetime
  74:rhea\rtc/rtc.c ****     return rhea_rtc_now_impl();
  94              		.loc 1 74 0
  95 0008 7B68     		ldr	r3, [r7, #4]
  96 000a 1846     		mov	r0, r3
  97 000c FFF7FEFF 		bl	rhea_rtc_now_impl
  75:rhea\rtc/rtc.c **** }
  98              		.loc 1 75 0
  99 0010 7868     		ldr	r0, [r7, #4]
 100 0012 0837     		adds	r7, r7, #8
 101              		.cfi_def_cfa_offset 8
 102 0014 BD46     		mov	sp, r7
 103              		.cfi_def_cfa_register 13
 104              		@ sp needed
 105 0016 80BD     		pop	{r7, pc}
 106              		.cfi_endproc
 107              	.LFE1:
 108              		.size	rhea_rtc_Now, .-rhea_rtc_Now
 109              		.section	.text.rhea_rtc_SetDatetime,"ax",%progbits
 110              		.align	2
 111              		.global	rhea_rtc_SetDatetime
 112              		.thumb
 113              		.thumb_func
 114              		.type	rhea_rtc_SetDatetime, %function
 115              	rhea_rtc_SetDatetime:
 116              	.LFB2:
  76:rhea\rtc/rtc.c **** 
  77:rhea\rtc/rtc.c **** void rhea_rtc_SetDatetime(const rhea_rtc_datetime now) {
 117              		.loc 1 77 0
 118              		.cfi_startproc
 119              		@ args = 0, pretend = 0, frame = 8
 120              		@ frame_needed = 1, uses_anonymous_args = 0
 121 0000 80B5     		push	{r7, lr}
 122              		.cfi_def_cfa_offset 8
 123              		.cfi_offset 7, -8
 124              		.cfi_offset 14, -4
 125 0002 82B0     		sub	sp, sp, #8
 126              		.cfi_def_cfa_offset 16
 127 0004 00AF     		add	r7, sp, #0
 128              		.cfi_def_cfa_register 7
 129 0006 3B46     		mov	r3, r7
 130 0008 83E80300 		stmia	r3, {r0, r1}
  78:rhea\rtc/rtc.c **** 
  79:rhea\rtc/rtc.c ****     // Setting current datetime
  80:rhea\rtc/rtc.c ****     rhea_rtc_setDatetime_impl(now);
 131              		.loc 1 80 0
 132 000c 3B46     		mov	r3, r7
ARM GAS  C:\Users\GYULAI~1\AppData\Local\Temp\ccZu9sJJ.s 			page 5


 133 000e 93E80300 		ldmia	r3, {r0, r1}
 134 0012 FFF7FEFF 		bl	rhea_rtc_setDatetime_impl
  81:rhea\rtc/rtc.c **** }
 135              		.loc 1 81 0
 136 0016 00BF     		nop
 137 0018 0837     		adds	r7, r7, #8
 138              		.cfi_def_cfa_offset 8
 139 001a BD46     		mov	sp, r7
 140              		.cfi_def_cfa_register 13
 141              		@ sp needed
 142 001c 80BD     		pop	{r7, pc}
 143              		.cfi_endproc
 144              	.LFE2:
 145              		.size	rhea_rtc_SetDatetime, .-rhea_rtc_SetDatetime
 146 001e 00BF     		.section	.text.rhea_rtc_PowerUp,"ax",%progbits
 147              		.align	2
 148              		.global	rhea_rtc_PowerUp
 149              		.thumb
 150              		.thumb_func
 151              		.type	rhea_rtc_PowerUp, %function
 152              	rhea_rtc_PowerUp:
 153              	.LFB3:
  82:rhea\rtc/rtc.c **** 
  83:rhea\rtc/rtc.c **** rhea_rtc_datetime rhea_rtc_PowerUp(void) {
 154              		.loc 1 83 0
 155              		.cfi_startproc
 156              		@ args = 0, pretend = 0, frame = 8
 157              		@ frame_needed = 1, uses_anonymous_args = 0
 158              		@ link register save eliminated.
 159 0000 80B4     		push	{r7}
 160              		.cfi_def_cfa_offset 4
 161              		.cfi_offset 7, -4
 162 0002 83B0     		sub	sp, sp, #12
 163              		.cfi_def_cfa_offset 16
 164 0004 00AF     		add	r7, sp, #0
 165              		.cfi_def_cfa_register 7
 166 0006 7860     		str	r0, [r7, #4]
  84:rhea\rtc/rtc.c **** 
  85:rhea\rtc/rtc.c ****     // Returning timestamp
  86:rhea\rtc/rtc.c ****     return rhea_rtc_powerUpTimestamp;
 167              		.loc 1 86 0
 168 0008 7B68     		ldr	r3, [r7, #4]
 169 000a 054A     		ldr	r2, .L7
 170 000c 1168     		ldr	r1, [r2]	@ unaligned
 171 000e 5268     		ldr	r2, [r2, #4]	@ unaligned
 172 0010 1960     		str	r1, [r3]	@ unaligned
 173 0012 5A60     		str	r2, [r3, #4]	@ unaligned
  87:rhea\rtc/rtc.c **** }
 174              		.loc 1 87 0
 175 0014 7868     		ldr	r0, [r7, #4]
 176 0016 0C37     		adds	r7, r7, #12
 177              		.cfi_def_cfa_offset 4
 178 0018 BD46     		mov	sp, r7
 179              		.cfi_def_cfa_register 13
 180              		@ sp needed
 181 001a 80BC     		pop	{r7}
 182              		.cfi_restore 7
ARM GAS  C:\Users\GYULAI~1\AppData\Local\Temp\ccZu9sJJ.s 			page 6


 183              		.cfi_def_cfa_offset 0
 184 001c 7047     		bx	lr
 185              	.L8:
 186 001e 00BF     		.align	2
 187              	.L7:
 188 0020 00000000 		.word	rhea_rtc_powerUpTimestamp
 189              		.cfi_endproc
 190              	.LFE3:
 191              		.size	rhea_rtc_PowerUp, .-rhea_rtc_PowerUp
 192              		.section	.text.rhea_rtc_PowerFail,"ax",%progbits
 193              		.align	2
 194              		.global	rhea_rtc_PowerFail
 195              		.thumb
 196              		.thumb_func
 197              		.type	rhea_rtc_PowerFail, %function
 198              	rhea_rtc_PowerFail:
 199              	.LFB4:
  88:rhea\rtc/rtc.c **** 
  89:rhea\rtc/rtc.c **** rhea_rtc_datetime rhea_rtc_PowerFail(void) {
 200              		.loc 1 89 0
 201              		.cfi_startproc
 202              		@ args = 0, pretend = 0, frame = 8
 203              		@ frame_needed = 1, uses_anonymous_args = 0
 204              		@ link register save eliminated.
 205 0000 80B4     		push	{r7}
 206              		.cfi_def_cfa_offset 4
 207              		.cfi_offset 7, -4
 208 0002 83B0     		sub	sp, sp, #12
 209              		.cfi_def_cfa_offset 16
 210 0004 00AF     		add	r7, sp, #0
 211              		.cfi_def_cfa_register 7
 212 0006 7860     		str	r0, [r7, #4]
  90:rhea\rtc/rtc.c ****     
  91:rhea\rtc/rtc.c ****     // Returning datetime
  92:rhea\rtc/rtc.c ****     return rhea_rtc_powerFailTimestamp;
 213              		.loc 1 92 0
 214 0008 7B68     		ldr	r3, [r7, #4]
 215 000a 054A     		ldr	r2, .L11
 216 000c 1168     		ldr	r1, [r2]	@ unaligned
 217 000e 5268     		ldr	r2, [r2, #4]	@ unaligned
 218 0010 1960     		str	r1, [r3]	@ unaligned
 219 0012 5A60     		str	r2, [r3, #4]	@ unaligned
  93:rhea\rtc/rtc.c **** }
 220              		.loc 1 93 0
 221 0014 7868     		ldr	r0, [r7, #4]
 222 0016 0C37     		adds	r7, r7, #12
 223              		.cfi_def_cfa_offset 4
 224 0018 BD46     		mov	sp, r7
 225              		.cfi_def_cfa_register 13
 226              		@ sp needed
 227 001a 80BC     		pop	{r7}
 228              		.cfi_restore 7
 229              		.cfi_def_cfa_offset 0
 230 001c 7047     		bx	lr
 231              	.L12:
 232 001e 00BF     		.align	2
 233              	.L11:
ARM GAS  C:\Users\GYULAI~1\AppData\Local\Temp\ccZu9sJJ.s 			page 7


 234 0020 00000000 		.word	rhea_rtc_powerFailTimestamp
 235              		.cfi_endproc
 236              	.LFE4:
 237              		.size	rhea_rtc_PowerFail, .-rhea_rtc_PowerFail
 238              		.section	.text.rhea_rtc_ScheduleAlarms,"ax",%progbits
 239              		.align	2
 240              		.global	rhea_rtc_ScheduleAlarms
 241              		.thumb
 242              		.thumb_func
 243              		.type	rhea_rtc_ScheduleAlarms, %function
 244              	rhea_rtc_ScheduleAlarms:
 245              	.LFB5:
  94:rhea\rtc/rtc.c **** 
  95:rhea\rtc/rtc.c **** void rhea_rtc_ScheduleAlarms(void) {
 246              		.loc 1 95 0
 247              		.cfi_startproc
 248              		@ args = 0, pretend = 0, frame = 16
 249              		@ frame_needed = 1, uses_anonymous_args = 0
 250 0000 F0B5     		push	{r4, r5, r6, r7, lr}
 251              		.cfi_def_cfa_offset 20
 252              		.cfi_offset 4, -20
 253              		.cfi_offset 5, -16
 254              		.cfi_offset 6, -12
 255              		.cfi_offset 7, -8
 256              		.cfi_offset 14, -4
 257 0002 85B0     		sub	sp, sp, #20
 258              		.cfi_def_cfa_offset 40
 259 0004 00AF     		add	r7, sp, #0
 260              		.cfi_def_cfa_register 7
  96:rhea\rtc/rtc.c ****     
  97:rhea\rtc/rtc.c ****     // Disabling alarm interrupts
  98:rhea\rtc/rtc.c ****     rhea_rtc_disableAlarms_impl();
 261              		.loc 1 98 0
 262 0006 FFF7FEFF 		bl	rhea_rtc_disableAlarms_impl
  99:rhea\rtc/rtc.c ****     
 100:rhea\rtc/rtc.c ****     // Initial parameters
 101:rhea\rtc/rtc.c ****     rhea_rtc_alarm closestAlarm = rhea_rtc_alarmRegistry[0];
 263              		.loc 1 101 0
 264 000a 2B4A     		ldr	r2, .L20
 265 000c 3B46     		mov	r3, r7
 266 000e 1068     		ldr	r0, [r2]	@ unaligned
 267 0010 5168     		ldr	r1, [r2, #4]	@ unaligned
 268 0012 9268     		ldr	r2, [r2, #8]	@ unaligned
 269 0014 07C3     		stmia	r3!, {r0, r1, r2}
 102:rhea\rtc/rtc.c ****     uint8_t        foundActive = 0;
 270              		.loc 1 102 0
 271 0016 0023     		movs	r3, #0
 272 0018 FB73     		strb	r3, [r7, #15]
 273              	.LBB2:
 103:rhea\rtc/rtc.c ****     
 104:rhea\rtc/rtc.c ****     // Performing minimum search to find the alarm to trigger the soonest
 105:rhea\rtc/rtc.c ****     for(uint16_t i = 1; i < RHEA_RTC_ALARM_REGISTRY_SIZE; i++) {
 274              		.loc 1 105 0
 275 001a 0123     		movs	r3, #1
 276 001c BB81     		strh	r3, [r7, #12]	@ movhi
 277 001e 39E0     		b	.L14
 278              	.L16:
ARM GAS  C:\Users\GYULAI~1\AppData\Local\Temp\ccZu9sJJ.s 			page 8


 106:rhea\rtc/rtc.c ****         if(rhea_rtc_alarmRegistry[i].active && 
 279              		.loc 1 106 0
 280 0020 BA89     		ldrh	r2, [r7, #12]
 281 0022 2549     		ldr	r1, .L20
 282 0024 1346     		mov	r3, r2
 283 0026 5B00     		lsls	r3, r3, #1
 284 0028 1344     		add	r3, r3, r2
 285 002a 9B00     		lsls	r3, r3, #2
 286 002c 0B44     		add	r3, r3, r1
 287 002e 0933     		adds	r3, r3, #9
 288 0030 1B78     		ldrb	r3, [r3]	@ zero_extendqisi2
 289 0032 002B     		cmp	r3, #0
 290 0034 2BD0     		beq	.L15
 107:rhea\rtc/rtc.c ****            rhea_rtc_toSeconds(rhea_rtc_alarmRegistry[i].datetime) < rhea_rtc_toSeconds(closestAlarm
 291              		.loc 1 107 0 discriminator 1
 292 0036 BA89     		ldrh	r2, [r7, #12]
 293 0038 1F49     		ldr	r1, .L20
 294 003a 1346     		mov	r3, r2
 295 003c 5B00     		lsls	r3, r3, #1
 296 003e 1344     		add	r3, r3, r2
 297 0040 9B00     		lsls	r3, r3, #2
 298 0042 0B44     		add	r3, r3, r1
 299 0044 1A68     		ldr	r2, [r3]	@ unaligned
 300 0046 0021     		movs	r1, #0
 301 0048 1146     		mov	r1, r2
 302 004a 5B68     		ldr	r3, [r3, #4]	@ unaligned
 303 004c 0022     		movs	r2, #0
 304 004e 1A46     		mov	r2, r3
 305 0050 0846     		mov	r0, r1
 306 0052 1146     		mov	r1, r2
 307 0054 FFF7FEFF 		bl	rhea_rtc_toSeconds
 308 0058 0546     		mov	r5, r0
 309 005a 0E46     		mov	r6, r1
 310 005c 3B46     		mov	r3, r7
 311 005e 93E80300 		ldmia	r3, {r0, r1}
 312 0062 FFF7FEFF 		bl	rhea_rtc_toSeconds
 313 0066 0346     		mov	r3, r0
 314 0068 0C46     		mov	r4, r1
 106:rhea\rtc/rtc.c ****         if(rhea_rtc_alarmRegistry[i].active && 
 315              		.loc 1 106 0 discriminator 1
 316 006a 9D42     		cmp	r5, r3
 317 006c 76EB0403 		sbcs	r3, r6, r4
 318 0070 0DDA     		bge	.L15
 108:rhea\rtc/rtc.c ****         {
 109:rhea\rtc/rtc.c ****             closestAlarm = rhea_rtc_alarmRegistry[i];
 319              		.loc 1 109 0
 320 0072 BA89     		ldrh	r2, [r7, #12]
 321 0074 1049     		ldr	r1, .L20
 322 0076 1346     		mov	r3, r2
 323 0078 5B00     		lsls	r3, r3, #1
 324 007a 1344     		add	r3, r3, r2
 325 007c 9B00     		lsls	r3, r3, #2
 326 007e CA18     		adds	r2, r1, r3
 327 0080 3B46     		mov	r3, r7
 328 0082 1068     		ldr	r0, [r2]	@ unaligned
 329 0084 5168     		ldr	r1, [r2, #4]	@ unaligned
 330 0086 9268     		ldr	r2, [r2, #8]	@ unaligned
ARM GAS  C:\Users\GYULAI~1\AppData\Local\Temp\ccZu9sJJ.s 			page 9


 331 0088 07C3     		stmia	r3!, {r0, r1, r2}
 110:rhea\rtc/rtc.c ****             foundActive = 1;
 332              		.loc 1 110 0
 333 008a 0123     		movs	r3, #1
 334 008c FB73     		strb	r3, [r7, #15]
 335              	.L15:
 105:rhea\rtc/rtc.c ****         if(rhea_rtc_alarmRegistry[i].active && 
 336              		.loc 1 105 0 discriminator 2
 337 008e BB89     		ldrh	r3, [r7, #12]
 338 0090 0133     		adds	r3, r3, #1
 339 0092 BB81     		strh	r3, [r7, #12]	@ movhi
 340              	.L14:
 105:rhea\rtc/rtc.c ****         if(rhea_rtc_alarmRegistry[i].active && 
 341              		.loc 1 105 0 is_stmt 0 discriminator 1
 342 0094 BB89     		ldrh	r3, [r7, #12]
 343 0096 1F2B     		cmp	r3, #31
 344 0098 C2D9     		bls	.L16
 345              	.LBE2:
 111:rhea\rtc/rtc.c ****         }
 112:rhea\rtc/rtc.c ****     }
 113:rhea\rtc/rtc.c ****         
 114:rhea\rtc/rtc.c ****     // Checking whether an active alarm is found
 115:rhea\rtc/rtc.c ****     if(!foundActive) return;
 346              		.loc 1 115 0 is_stmt 1
 347 009a FB7B     		ldrb	r3, [r7, #15]	@ zero_extendqisi2
 348 009c 002B     		cmp	r3, #0
 349 009e 07D0     		beq	.L19
 116:rhea\rtc/rtc.c **** 
 117:rhea\rtc/rtc.c ****     // Installing alarm to hardware
 118:rhea\rtc/rtc.c ****     rhea_rtc_setAlarmDatetime_impl(closestAlarm.datetime);
 350              		.loc 1 118 0
 351 00a0 3B46     		mov	r3, r7
 352 00a2 93E80300 		ldmia	r3, {r0, r1}
 353 00a6 FFF7FEFF 		bl	rhea_rtc_setAlarmDatetime_impl
 119:rhea\rtc/rtc.c ****     rhea_rtc_enableAlarms_impl();
 354              		.loc 1 119 0
 355 00aa FFF7FEFF 		bl	rhea_rtc_enableAlarms_impl
 356 00ae 00E0     		b	.L13
 357              	.L19:
 115:rhea\rtc/rtc.c **** 
 358              		.loc 1 115 0
 359 00b0 00BF     		nop
 360              	.L13:
 120:rhea\rtc/rtc.c **** }
 361              		.loc 1 120 0
 362 00b2 1437     		adds	r7, r7, #20
 363              		.cfi_def_cfa_offset 20
 364 00b4 BD46     		mov	sp, r7
 365              		.cfi_def_cfa_register 13
 366              		@ sp needed
 367 00b6 F0BD     		pop	{r4, r5, r6, r7, pc}
 368              	.L21:
 369              		.align	2
 370              	.L20:
 371 00b8 00000000 		.word	rhea_rtc_alarmRegistry
 372              		.cfi_endproc
 373              	.LFE5:
ARM GAS  C:\Users\GYULAI~1\AppData\Local\Temp\ccZu9sJJ.s 			page 10


 374              		.size	rhea_rtc_ScheduleAlarms, .-rhea_rtc_ScheduleAlarms
 375              		.section	.text.rhea_rtc_AddAlarm,"ax",%progbits
 376              		.align	2
 377              		.global	rhea_rtc_AddAlarm
 378              		.thumb
 379              		.thumb_func
 380              		.type	rhea_rtc_AddAlarm, %function
 381              	rhea_rtc_AddAlarm:
 382              	.LFB6:
 121:rhea\rtc/rtc.c **** 
 122:rhea\rtc/rtc.c **** int16_t rhea_rtc_AddAlarm(rhea_rtc_datetime datetime, uint8_t recurring, uint8_t mode, uint8_t pers
 123:rhea\rtc/rtc.c ****                           rhea_rtc_alarmCallback callback) 
 124:rhea\rtc/rtc.c **** {
 383              		.loc 1 124 0
 384              		.cfi_startproc
 385              		@ args = 8, pretend = 0, frame = 40
 386              		@ frame_needed = 1, uses_anonymous_args = 0
 387 0000 90B5     		push	{r4, r7, lr}
 388              		.cfi_def_cfa_offset 12
 389              		.cfi_offset 4, -12
 390              		.cfi_offset 7, -8
 391              		.cfi_offset 14, -4
 392 0002 8BB0     		sub	sp, sp, #44
 393              		.cfi_def_cfa_offset 56
 394 0004 00AF     		add	r7, sp, #0
 395              		.cfi_def_cfa_register 7
 396 0006 07F10804 		add	r4, r7, #8
 397 000a 84E80300 		stmia	r4, {r0, r1}
 398 000e 1146     		mov	r1, r2
 399 0010 1A46     		mov	r2, r3
 400 0012 0B46     		mov	r3, r1
 401 0014 FB71     		strb	r3, [r7, #7]
 402 0016 1346     		mov	r3, r2
 403 0018 BB71     		strb	r3, [r7, #6]
 125:rhea\rtc/rtc.c ****     // Constructing alarm object
 126:rhea\rtc/rtc.c ****     rhea_rtc_alarm alarm = {datetime, recurring, 1, mode};
 404              		.loc 1 126 0
 405 001a 07F11403 		add	r3, r7, #20
 406 001e 07F10802 		add	r2, r7, #8
 407 0022 92E80300 		ldmia	r2, {r0, r1}
 408 0026 83E80300 		stmia	r3, {r0, r1}
 409 002a FB79     		ldrb	r3, [r7, #7]
 410 002c 3B77     		strb	r3, [r7, #28]
 411 002e 0123     		movs	r3, #1
 412 0030 7B77     		strb	r3, [r7, #29]
 413 0032 BB79     		ldrb	r3, [r7, #6]
 414 0034 BB77     		strb	r3, [r7, #30]
 127:rhea\rtc/rtc.c ****     
 128:rhea\rtc/rtc.c ****     // Determining start index based on persistency
 129:rhea\rtc/rtc.c ****     uint16_t start = persistent ? 0 : RHEA_RTC_HARDWARE_ALARM_COUNT;
 415              		.loc 1 129 0
 416 0036 97F83830 		ldrb	r3, [r7, #56]	@ zero_extendqisi2
 417 003a 002B     		cmp	r3, #0
 418 003c 01D0     		beq	.L23
 419              		.loc 1 129 0 is_stmt 0 discriminator 1
 420 003e 0023     		movs	r3, #0
 421 0040 00E0     		b	.L24
ARM GAS  C:\Users\GYULAI~1\AppData\Local\Temp\ccZu9sJJ.s 			page 11


 422              	.L23:
 423              		.loc 1 129 0 discriminator 2
 424 0042 0823     		movs	r3, #8
 425              	.L24:
 426              		.loc 1 129 0 discriminator 4
 427 0044 BB84     		strh	r3, [r7, #36]	@ movhi
 130:rhea\rtc/rtc.c ****     uint16_t end = persistent ? RHEA_RTC_HARDWARE_ALARM_COUNT : RHEA_RTC_ALARM_REGISTRY_SIZE;
 428              		.loc 1 130 0 is_stmt 1 discriminator 4
 429 0046 97F83830 		ldrb	r3, [r7, #56]	@ zero_extendqisi2
 430 004a 002B     		cmp	r3, #0
 431 004c 01D0     		beq	.L25
 432              		.loc 1 130 0 is_stmt 0 discriminator 1
 433 004e 0823     		movs	r3, #8
 434 0050 00E0     		b	.L26
 435              	.L25:
 436              		.loc 1 130 0 discriminator 2
 437 0052 2023     		movs	r3, #32
 438              	.L26:
 439              		.loc 1 130 0 discriminator 4
 440 0054 7B84     		strh	r3, [r7, #34]	@ movhi
 441              	.LBB3:
 131:rhea\rtc/rtc.c ****     
 132:rhea\rtc/rtc.c ****     // Finding empty alarm slot in the registry
 133:rhea\rtc/rtc.c ****     for(uint16_t i = start; i < end; i++) {
 442              		.loc 1 133 0 is_stmt 1 discriminator 4
 443 0056 BB8C     		ldrh	r3, [r7, #36]	@ movhi
 444 0058 FB84     		strh	r3, [r7, #38]	@ movhi
 445 005a 2BE0     		b	.L27
 446              	.L31:
 134:rhea\rtc/rtc.c ****         if(!rhea_rtc_alarmRegistry[i].active) {
 447              		.loc 1 134 0
 448 005c FA8C     		ldrh	r2, [r7, #38]
 449 005e 1A49     		ldr	r1, .L33
 450 0060 1346     		mov	r3, r2
 451 0062 5B00     		lsls	r3, r3, #1
 452 0064 1344     		add	r3, r3, r2
 453 0066 9B00     		lsls	r3, r3, #2
 454 0068 0B44     		add	r3, r3, r1
 455 006a 0933     		adds	r3, r3, #9
 456 006c 1B78     		ldrb	r3, [r3]	@ zero_extendqisi2
 457 006e 002B     		cmp	r3, #0
 458 0070 1DD1     		bne	.L28
 135:rhea\rtc/rtc.c ****             
 136:rhea\rtc/rtc.c ****             // Registering alarm
 137:rhea\rtc/rtc.c ****             rhea_rtc_alarmRegistry[i] = alarm;
 459              		.loc 1 137 0
 460 0072 FA8C     		ldrh	r2, [r7, #38]
 461 0074 1449     		ldr	r1, .L33
 462 0076 1346     		mov	r3, r2
 463 0078 5B00     		lsls	r3, r3, #1
 464 007a 1344     		add	r3, r3, r2
 465 007c 9B00     		lsls	r3, r3, #2
 466 007e 0B44     		add	r3, r3, r1
 467 0080 1C46     		mov	r4, r3
 468 0082 07F11403 		add	r3, r7, #20
 469 0086 07CB     		ldmia	r3!, {r0, r1, r2}
 470 0088 2060     		str	r0, [r4]	@ unaligned
ARM GAS  C:\Users\GYULAI~1\AppData\Local\Temp\ccZu9sJJ.s 			page 12


 471 008a 6160     		str	r1, [r4, #4]	@ unaligned
 472 008c A260     		str	r2, [r4, #8]	@ unaligned
 138:rhea\rtc/rtc.c ****             rhea_rtc_alarmCallbacks[i] = callback;
 473              		.loc 1 138 0
 474 008e FB8C     		ldrh	r3, [r7, #38]
 475 0090 0E49     		ldr	r1, .L33+4
 476 0092 FA6B     		ldr	r2, [r7, #60]
 477 0094 41F82320 		str	r2, [r1, r3, lsl #2]
 139:rhea\rtc/rtc.c ****             
 140:rhea\rtc/rtc.c ****             // Saving persistent alarm to external SRAM
 141:rhea\rtc/rtc.c ****             if(persistent) rhea_rtc_storeAlarms_impl();
 478              		.loc 1 141 0
 479 0098 97F83830 		ldrb	r3, [r7, #56]	@ zero_extendqisi2
 480 009c 002B     		cmp	r3, #0
 481 009e 01D0     		beq	.L29
 482              		.loc 1 141 0 is_stmt 0 discriminator 1
 483 00a0 FFF7FEFF 		bl	rhea_rtc_storeAlarms_impl
 484              	.L29:
 142:rhea\rtc/rtc.c ****             
 143:rhea\rtc/rtc.c ****             // Rescheduling alarms to hardware
 144:rhea\rtc/rtc.c ****             rhea_rtc_ScheduleAlarms();
 485              		.loc 1 144 0 is_stmt 1
 486 00a4 FFF7FEFF 		bl	rhea_rtc_ScheduleAlarms
 145:rhea\rtc/rtc.c ****             
 146:rhea\rtc/rtc.c ****             return i;
 487              		.loc 1 146 0
 488 00a8 B7F92630 		ldrsh	r3, [r7, #38]
 489 00ac 08E0     		b	.L32
 490              	.L28:
 133:rhea\rtc/rtc.c ****         if(!rhea_rtc_alarmRegistry[i].active) {
 491              		.loc 1 133 0 discriminator 2
 492 00ae FB8C     		ldrh	r3, [r7, #38]
 493 00b0 0133     		adds	r3, r3, #1
 494 00b2 FB84     		strh	r3, [r7, #38]	@ movhi
 495              	.L27:
 133:rhea\rtc/rtc.c ****         if(!rhea_rtc_alarmRegistry[i].active) {
 496              		.loc 1 133 0 is_stmt 0 discriminator 1
 497 00b4 FA8C     		ldrh	r2, [r7, #38]
 498 00b6 7B8C     		ldrh	r3, [r7, #34]
 499 00b8 9A42     		cmp	r2, r3
 500 00ba CFD3     		bcc	.L31
 501              	.LBE3:
 147:rhea\rtc/rtc.c ****         }
 148:rhea\rtc/rtc.c ****     }
 149:rhea\rtc/rtc.c ****     
 150:rhea\rtc/rtc.c ****     return -1;
 502              		.loc 1 150 0 is_stmt 1
 503 00bc 4FF0FF33 		mov	r3, #-1
 504              	.L32:
 151:rhea\rtc/rtc.c **** }
 505              		.loc 1 151 0 discriminator 1
 506 00c0 1846     		mov	r0, r3
 507 00c2 2C37     		adds	r7, r7, #44
 508              		.cfi_def_cfa_offset 12
 509 00c4 BD46     		mov	sp, r7
 510              		.cfi_def_cfa_register 13
 511              		@ sp needed
ARM GAS  C:\Users\GYULAI~1\AppData\Local\Temp\ccZu9sJJ.s 			page 13


 512 00c6 90BD     		pop	{r4, r7, pc}
 513              	.L34:
 514              		.align	2
 515              	.L33:
 516 00c8 00000000 		.word	rhea_rtc_alarmRegistry
 517 00cc 00000000 		.word	rhea_rtc_alarmCallbacks
 518              		.cfi_endproc
 519              	.LFE6:
 520              		.size	rhea_rtc_AddAlarm, .-rhea_rtc_AddAlarm
 521              		.section	.text.rhea_rtc_DeleteAlarm,"ax",%progbits
 522              		.align	2
 523              		.global	rhea_rtc_DeleteAlarm
 524              		.thumb
 525              		.thumb_func
 526              		.type	rhea_rtc_DeleteAlarm, %function
 527              	rhea_rtc_DeleteAlarm:
 528              	.LFB7:
 152:rhea\rtc/rtc.c **** 
 153:rhea\rtc/rtc.c **** void rhea_rtc_DeleteAlarm(uint16_t id) {
 529              		.loc 1 153 0
 530              		.cfi_startproc
 531              		@ args = 0, pretend = 0, frame = 8
 532              		@ frame_needed = 1, uses_anonymous_args = 0
 533 0000 80B5     		push	{r7, lr}
 534              		.cfi_def_cfa_offset 8
 535              		.cfi_offset 7, -8
 536              		.cfi_offset 14, -4
 537 0002 82B0     		sub	sp, sp, #8
 538              		.cfi_def_cfa_offset 16
 539 0004 00AF     		add	r7, sp, #0
 540              		.cfi_def_cfa_register 7
 541 0006 0346     		mov	r3, r0
 542 0008 FB80     		strh	r3, [r7, #6]	@ movhi
 154:rhea\rtc/rtc.c ****     
 155:rhea\rtc/rtc.c ****     // Checking alarm ID
 156:rhea\rtc/rtc.c ****     if(id >= RHEA_RTC_ALARM_REGISTRY_SIZE) return;
 543              		.loc 1 156 0
 544 000a FB88     		ldrh	r3, [r7, #6]
 545 000c 1F2B     		cmp	r3, #31
 546 000e 16D8     		bhi	.L39
 157:rhea\rtc/rtc.c ****     
 158:rhea\rtc/rtc.c ****     // Deactivating alarm in the registry
 159:rhea\rtc/rtc.c ****     rhea_rtc_alarmRegistry[id].active = 0;
 547              		.loc 1 159 0
 548 0010 FA88     		ldrh	r2, [r7, #6]
 549 0012 0D49     		ldr	r1, .L40
 550 0014 1346     		mov	r3, r2
 551 0016 5B00     		lsls	r3, r3, #1
 552 0018 1344     		add	r3, r3, r2
 553 001a 9B00     		lsls	r3, r3, #2
 554 001c 0B44     		add	r3, r3, r1
 555 001e 0933     		adds	r3, r3, #9
 556 0020 0022     		movs	r2, #0
 557 0022 1A70     		strb	r2, [r3]
 160:rhea\rtc/rtc.c ****     rhea_rtc_alarmCallbacks[id] = NULL;
 558              		.loc 1 160 0
 559 0024 FB88     		ldrh	r3, [r7, #6]
ARM GAS  C:\Users\GYULAI~1\AppData\Local\Temp\ccZu9sJJ.s 			page 14


 560 0026 094A     		ldr	r2, .L40+4
 561 0028 0021     		movs	r1, #0
 562 002a 42F82310 		str	r1, [r2, r3, lsl #2]
 161:rhea\rtc/rtc.c ****     
 162:rhea\rtc/rtc.c ****     // Deactivating persistent alarm in the RTC SRAM
 163:rhea\rtc/rtc.c ****     if(id < RHEA_RTC_HARDWARE_ALARM_COUNT) rhea_rtc_storeAlarms_impl();
 563              		.loc 1 163 0
 564 002e FB88     		ldrh	r3, [r7, #6]
 565 0030 072B     		cmp	r3, #7
 566 0032 01D8     		bhi	.L38
 567              		.loc 1 163 0 is_stmt 0 discriminator 1
 568 0034 FFF7FEFF 		bl	rhea_rtc_storeAlarms_impl
 569              	.L38:
 164:rhea\rtc/rtc.c ****     
 165:rhea\rtc/rtc.c ****     // Rescheduling alarms to hardware
 166:rhea\rtc/rtc.c ****     rhea_rtc_ScheduleAlarms();
 570              		.loc 1 166 0 is_stmt 1
 571 0038 FFF7FEFF 		bl	rhea_rtc_ScheduleAlarms
 572 003c 00E0     		b	.L35
 573              	.L39:
 156:rhea\rtc/rtc.c ****     
 574              		.loc 1 156 0
 575 003e 00BF     		nop
 576              	.L35:
 167:rhea\rtc/rtc.c **** }
 577              		.loc 1 167 0
 578 0040 0837     		adds	r7, r7, #8
 579              		.cfi_def_cfa_offset 8
 580 0042 BD46     		mov	sp, r7
 581              		.cfi_def_cfa_register 13
 582              		@ sp needed
 583 0044 80BD     		pop	{r7, pc}
 584              	.L41:
 585 0046 00BF     		.align	2
 586              	.L40:
 587 0048 00000000 		.word	rhea_rtc_alarmRegistry
 588 004c 00000000 		.word	rhea_rtc_alarmCallbacks
 589              		.cfi_endproc
 590              	.LFE7:
 591              		.size	rhea_rtc_DeleteAlarm, .-rhea_rtc_DeleteAlarm
 592              		.section	.text.rhea_rtc_HandleAlarms,"ax",%progbits
 593              		.align	2
 594              		.global	rhea_rtc_HandleAlarms
 595              		.thumb
 596              		.thumb_func
 597              		.type	rhea_rtc_HandleAlarms, %function
 598              	rhea_rtc_HandleAlarms:
 599              	.LFB8:
 168:rhea\rtc/rtc.c **** 
 169:rhea\rtc/rtc.c **** void rhea_rtc_HandleAlarms(void) {
 600              		.loc 1 169 0
 601              		.cfi_startproc
 602              		@ args = 0, pretend = 0, frame = 32
 603              		@ frame_needed = 1, uses_anonymous_args = 0
 604 0000 90B5     		push	{r4, r7, lr}
 605              		.cfi_def_cfa_offset 12
 606              		.cfi_offset 4, -12
ARM GAS  C:\Users\GYULAI~1\AppData\Local\Temp\ccZu9sJJ.s 			page 15


 607              		.cfi_offset 7, -8
 608              		.cfi_offset 14, -4
 609 0002 89B0     		sub	sp, sp, #36
 610              		.cfi_def_cfa_offset 48
 611 0004 00AF     		add	r7, sp, #0
 612              		.cfi_def_cfa_register 7
 170:rhea\rtc/rtc.c ****     
 171:rhea\rtc/rtc.c ****     // Checking interrupt indicator
 172:rhea\rtc/rtc.c ****     if(!rhea_rtc_alarmOccured) return;
 613              		.loc 1 172 0
 614 0006 3A4B     		ldr	r3, .L51
 615 0008 1B78     		ldrb	r3, [r3]
 616 000a DBB2     		uxtb	r3, r3
 617 000c 002B     		cmp	r3, #0
 618 000e 6BD0     		beq	.L50
 173:rhea\rtc/rtc.c ****     
 174:rhea\rtc/rtc.c ****     // Clearing interrupt indicator
 175:rhea\rtc/rtc.c ****     rhea_rtc_alarmOccured = 0;
 619              		.loc 1 175 0
 620 0010 374B     		ldr	r3, .L51
 621 0012 0022     		movs	r2, #0
 622 0014 1A70     		strb	r2, [r3]
 176:rhea\rtc/rtc.c ****     
 177:rhea\rtc/rtc.c ****     // Current timestamp
 178:rhea\rtc/rtc.c ****     int64_t nowSeconds = rhea_rtc_toSeconds(rhea_rtc_Now());
 623              		.loc 1 178 0
 624 0016 3B46     		mov	r3, r7
 625 0018 1846     		mov	r0, r3
 626 001a FFF7FEFF 		bl	rhea_rtc_Now
 627 001e 3B46     		mov	r3, r7
 628 0020 93E80300 		ldmia	r3, {r0, r1}
 629 0024 FFF7FEFF 		bl	rhea_rtc_toSeconds
 630 0028 C7E90401 		strd	r0, [r7, #16]
 631              	.LBB4:
 179:rhea\rtc/rtc.c ****     
 180:rhea\rtc/rtc.c ****     // Checking active alarms 
 181:rhea\rtc/rtc.c ****     for(uint16_t i = 0; i < RHEA_RTC_ALARM_REGISTRY_SIZE; i++) {
 632              		.loc 1 181 0
 633 002c 0023     		movs	r3, #0
 634 002e FB83     		strh	r3, [r7, #30]	@ movhi
 635 0030 54E0     		b	.L45
 636              	.L49:
 182:rhea\rtc/rtc.c ****         
 183:rhea\rtc/rtc.c ****         // Determining if the alarm is active and should have triggered by now
 184:rhea\rtc/rtc.c ****         if(rhea_rtc_alarmRegistry[i].active && 
 637              		.loc 1 184 0
 638 0032 FA8B     		ldrh	r2, [r7, #30]
 639 0034 2F49     		ldr	r1, .L51+4
 640 0036 1346     		mov	r3, r2
 641 0038 5B00     		lsls	r3, r3, #1
 642 003a 1344     		add	r3, r3, r2
 643 003c 9B00     		lsls	r3, r3, #2
 644 003e 0B44     		add	r3, r3, r1
 645 0040 0933     		adds	r3, r3, #9
 646 0042 1B78     		ldrb	r3, [r3]	@ zero_extendqisi2
 647 0044 002B     		cmp	r3, #0
 648 0046 46D0     		beq	.L46
ARM GAS  C:\Users\GYULAI~1\AppData\Local\Temp\ccZu9sJJ.s 			page 16


 185:rhea\rtc/rtc.c ****            rhea_rtc_toSeconds(rhea_rtc_alarmRegistry[i].datetime) < nowSeconds) 
 649              		.loc 1 185 0 discriminator 1
 650 0048 FA8B     		ldrh	r2, [r7, #30]
 651 004a 2A49     		ldr	r1, .L51+4
 652 004c 1346     		mov	r3, r2
 653 004e 5B00     		lsls	r3, r3, #1
 654 0050 1344     		add	r3, r3, r2
 655 0052 9B00     		lsls	r3, r3, #2
 656 0054 0B44     		add	r3, r3, r1
 657 0056 1A68     		ldr	r2, [r3]	@ unaligned
 658 0058 0021     		movs	r1, #0
 659 005a 1146     		mov	r1, r2
 660 005c 5B68     		ldr	r3, [r3, #4]	@ unaligned
 661 005e 0022     		movs	r2, #0
 662 0060 1A46     		mov	r2, r3
 663 0062 0846     		mov	r0, r1
 664 0064 1146     		mov	r1, r2
 665 0066 FFF7FEFF 		bl	rhea_rtc_toSeconds
 666 006a 0A46     		mov	r2, r1
 667 006c 0146     		mov	r1, r0
 184:rhea\rtc/rtc.c ****            rhea_rtc_toSeconds(rhea_rtc_alarmRegistry[i].datetime) < nowSeconds) 
 668              		.loc 1 184 0 discriminator 1
 669 006e D7E90434 		ldrd	r3, [r7, #16]
 670 0072 9942     		cmp	r1, r3
 671 0074 72EB0403 		sbcs	r3, r2, r4
 672 0078 2DDA     		bge	.L46
 186:rhea\rtc/rtc.c ****         {    
 187:rhea\rtc/rtc.c ****             // Activating callback
 188:rhea\rtc/rtc.c ****             if(rhea_rtc_alarmCallbacks[i]) {
 673              		.loc 1 188 0
 674 007a FB8B     		ldrh	r3, [r7, #30]
 675 007c 1E4A     		ldr	r2, .L51+8
 676 007e 52F82330 		ldr	r3, [r2, r3, lsl #2]
 677 0082 002B     		cmp	r3, #0
 678 0084 04D0     		beq	.L47
 189:rhea\rtc/rtc.c ****                 rhea_rtc_alarmCallbacks[i]();
 679              		.loc 1 189 0
 680 0086 FB8B     		ldrh	r3, [r7, #30]
 681 0088 1B4A     		ldr	r2, .L51+8
 682 008a 52F82330 		ldr	r3, [r2, r3, lsl #2]
 683 008e 9847     		blx	r3
 684              	.L47:
 190:rhea\rtc/rtc.c ****             }
 191:rhea\rtc/rtc.c ****             
 192:rhea\rtc/rtc.c ****             // Deleting alarm if it's one-shot 
 193:rhea\rtc/rtc.c ****             if(!rhea_rtc_alarmRegistry[i].recurring) {
 685              		.loc 1 193 0
 686 0090 FA8B     		ldrh	r2, [r7, #30]
 687 0092 1849     		ldr	r1, .L51+4
 688 0094 1346     		mov	r3, r2
 689 0096 5B00     		lsls	r3, r3, #1
 690 0098 1344     		add	r3, r3, r2
 691 009a 9B00     		lsls	r3, r3, #2
 692 009c 0B44     		add	r3, r3, r1
 693 009e 0833     		adds	r3, r3, #8
 694 00a0 1B78     		ldrb	r3, [r3]	@ zero_extendqisi2
 695 00a2 002B     		cmp	r3, #0
ARM GAS  C:\Users\GYULAI~1\AppData\Local\Temp\ccZu9sJJ.s 			page 17


 696 00a4 04D1     		bne	.L48
 194:rhea\rtc/rtc.c ****                 rhea_rtc_DeleteAlarm(i);
 697              		.loc 1 194 0
 698 00a6 FB8B     		ldrh	r3, [r7, #30]
 699 00a8 1846     		mov	r0, r3
 700 00aa FFF7FEFF 		bl	rhea_rtc_DeleteAlarm
 701 00ae 12E0     		b	.L46
 702              	.L48:
 195:rhea\rtc/rtc.c ****             }
 196:rhea\rtc/rtc.c ****             // Restarting alarm if it's recurring
 197:rhea\rtc/rtc.c ****             else {
 198:rhea\rtc/rtc.c ****                 rhea_rtc_normalizeAlarm(&rhea_rtc_alarmRegistry[i], rhea_rtc_Now());    
 703              		.loc 1 198 0
 704 00b0 FA8B     		ldrh	r2, [r7, #30]
 705 00b2 1346     		mov	r3, r2
 706 00b4 5B00     		lsls	r3, r3, #1
 707 00b6 1344     		add	r3, r3, r2
 708 00b8 9B00     		lsls	r3, r3, #2
 709 00ba 0E4A     		ldr	r2, .L51+4
 710 00bc 9C18     		adds	r4, r3, r2
 711 00be 07F10803 		add	r3, r7, #8
 712 00c2 1846     		mov	r0, r3
 713 00c4 FFF7FEFF 		bl	rhea_rtc_Now
 714 00c8 07F10803 		add	r3, r7, #8
 715 00cc 93E80600 		ldmia	r3, {r1, r2}
 716 00d0 2046     		mov	r0, r4
 717 00d2 FFF7FEFF 		bl	rhea_rtc_normalizeAlarm
 718              	.L46:
 181:rhea\rtc/rtc.c ****         
 719              		.loc 1 181 0 discriminator 2
 720 00d6 FB8B     		ldrh	r3, [r7, #30]
 721 00d8 0133     		adds	r3, r3, #1
 722 00da FB83     		strh	r3, [r7, #30]	@ movhi
 723              	.L45:
 181:rhea\rtc/rtc.c ****         
 724              		.loc 1 181 0 is_stmt 0 discriminator 1
 725 00dc FB8B     		ldrh	r3, [r7, #30]
 726 00de 1F2B     		cmp	r3, #31
 727 00e0 A7D9     		bls	.L49
 728              	.LBE4:
 199:rhea\rtc/rtc.c ****             }
 200:rhea\rtc/rtc.c ****         }
 201:rhea\rtc/rtc.c ****     }
 202:rhea\rtc/rtc.c ****     
 203:rhea\rtc/rtc.c ****     // Rescheduling alarms to hardware
 204:rhea\rtc/rtc.c ****     rhea_rtc_ScheduleAlarms();
 729              		.loc 1 204 0 is_stmt 1
 730 00e2 FFF7FEFF 		bl	rhea_rtc_ScheduleAlarms
 731 00e6 00E0     		b	.L42
 732              	.L50:
 172:rhea\rtc/rtc.c ****     
 733              		.loc 1 172 0
 734 00e8 00BF     		nop
 735              	.L42:
 205:rhea\rtc/rtc.c **** }
 736              		.loc 1 205 0
 737 00ea 2437     		adds	r7, r7, #36
ARM GAS  C:\Users\GYULAI~1\AppData\Local\Temp\ccZu9sJJ.s 			page 18


 738              		.cfi_def_cfa_offset 12
 739 00ec BD46     		mov	sp, r7
 740              		.cfi_def_cfa_register 13
 741              		@ sp needed
 742 00ee 90BD     		pop	{r4, r7, pc}
 743              	.L52:
 744              		.align	2
 745              	.L51:
 746 00f0 80000000 		.word	rhea_rtc_alarmOccured
 747 00f4 00000000 		.word	rhea_rtc_alarmRegistry
 748 00f8 00000000 		.word	rhea_rtc_alarmCallbacks
 749              		.cfi_endproc
 750              	.LFE8:
 751              		.size	rhea_rtc_HandleAlarms, .-rhea_rtc_HandleAlarms
 752              		.section	.text.rhea_rtc_alarmISR,"ax",%progbits
 753              		.align	2
 754              		.global	rhea_rtc_alarmISR
 755              		.thumb
 756              		.thumb_func
 757              		.type	rhea_rtc_alarmISR, %function
 758              	rhea_rtc_alarmISR:
 759              	.LFB9:
 206:rhea\rtc/rtc.c **** 
 207:rhea\rtc/rtc.c **** void rhea_rtc_alarmISR(void) {
 760              		.loc 1 207 0
 761              		.cfi_startproc
 762              		@ args = 0, pretend = 0, frame = 0
 763              		@ frame_needed = 1, uses_anonymous_args = 0
 764              		@ link register save eliminated.
 765 0000 80B4     		push	{r7}
 766              		.cfi_def_cfa_offset 4
 767              		.cfi_offset 7, -4
 768 0002 00AF     		add	r7, sp, #0
 769              		.cfi_def_cfa_register 7
 208:rhea\rtc/rtc.c ****     rhea_rtc_alarmOccured = 1;   
 770              		.loc 1 208 0
 771 0004 034B     		ldr	r3, .L54
 772 0006 0122     		movs	r2, #1
 773 0008 1A70     		strb	r2, [r3]
 209:rhea\rtc/rtc.c **** }
 774              		.loc 1 209 0
 775 000a 00BF     		nop
 776 000c BD46     		mov	sp, r7
 777              		.cfi_def_cfa_register 13
 778              		@ sp needed
 779 000e 80BC     		pop	{r7}
 780              		.cfi_restore 7
 781              		.cfi_def_cfa_offset 0
 782 0010 7047     		bx	lr
 783              	.L55:
 784 0012 00BF     		.align	2
 785              	.L54:
 786 0014 80000000 		.word	rhea_rtc_alarmOccured
 787              		.cfi_endproc
 788              	.LFE9:
 789              		.size	rhea_rtc_alarmISR, .-rhea_rtc_alarmISR
 790              		.text
ARM GAS  C:\Users\GYULAI~1\AppData\Local\Temp\ccZu9sJJ.s 			page 19


 791              	.Letext0:
 792              		.file 2 "e:\\cypress\\psoc creator\\4.2\\psoc creator\\import\\gnu\\arm\\5.4.1\\arm-none-eabi\\inc
 793              		.file 3 "e:\\cypress\\psoc creator\\4.2\\psoc creator\\import\\gnu\\arm\\5.4.1\\arm-none-eabi\\inc
 794              		.file 4 "rhea\\rtc\\datetime/datetime.h"
 795              		.file 5 "rhea\\rtc\\alarm/alarm.h"
 796              		.file 6 "rhea\\rtc\\rtc.h"
 797              		.section	.debug_info,"",%progbits
 798              	.Ldebug_info0:
 799 0000 47040000 		.4byte	0x447
 800 0004 0400     		.2byte	0x4
 801 0006 00000000 		.4byte	.Ldebug_abbrev0
 802 000a 04       		.byte	0x4
 803 000b 01       		.uleb128 0x1
 804 000c 23000000 		.4byte	.LASF58
 805 0010 0C       		.byte	0xc
 806 0011 07030000 		.4byte	.LASF59
 807 0015 B2020000 		.4byte	.LASF60
 808 0019 00000000 		.4byte	.Ldebug_ranges0+0
 809 001d 00000000 		.4byte	0
 810 0021 00000000 		.4byte	.Ldebug_line0
 811 0025 02       		.uleb128 0x2
 812 0026 04       		.byte	0x4
 813 0027 07       		.byte	0x7
 814 0028 56010000 		.4byte	.LASF0
 815 002c 03       		.uleb128 0x3
 816 002d 04       		.byte	0x4
 817 002e 05       		.byte	0x5
 818 002f 696E7400 		.ascii	"int\000"
 819 0033 02       		.uleb128 0x2
 820 0034 08       		.byte	0x8
 821 0035 05       		.byte	0x5
 822 0036 DA000000 		.4byte	.LASF1
 823 003a 02       		.uleb128 0x2
 824 003b 08       		.byte	0x8
 825 003c 04       		.byte	0x4
 826 003d 2D020000 		.4byte	.LASF2
 827 0041 02       		.uleb128 0x2
 828 0042 01       		.byte	0x1
 829 0043 06       		.byte	0x6
 830 0044 E8000000 		.4byte	.LASF3
 831 0048 04       		.uleb128 0x4
 832 0049 19000000 		.4byte	.LASF5
 833 004d 02       		.byte	0x2
 834 004e 1D       		.byte	0x1d
 835 004f 53000000 		.4byte	0x53
 836 0053 02       		.uleb128 0x2
 837 0054 01       		.byte	0x1
 838 0055 08       		.byte	0x8
 839 0056 6C020000 		.4byte	.LASF4
 840 005a 04       		.uleb128 0x4
 841 005b 46010000 		.4byte	.LASF6
 842 005f 02       		.byte	0x2
 843 0060 29       		.byte	0x29
 844 0061 65000000 		.4byte	0x65
 845 0065 02       		.uleb128 0x2
 846 0066 02       		.byte	0x2
 847 0067 05       		.byte	0x5
ARM GAS  C:\Users\GYULAI~1\AppData\Local\Temp\ccZu9sJJ.s 			page 20


 848 0068 7A020000 		.4byte	.LASF7
 849 006c 04       		.uleb128 0x4
 850 006d F4020000 		.4byte	.LASF8
 851 0071 02       		.byte	0x2
 852 0072 2B       		.byte	0x2b
 853 0073 77000000 		.4byte	0x77
 854 0077 02       		.uleb128 0x2
 855 0078 02       		.byte	0x2
 856 0079 07       		.byte	0x7
 857 007a A5010000 		.4byte	.LASF9
 858 007e 02       		.uleb128 0x2
 859 007f 04       		.byte	0x4
 860 0080 05       		.byte	0x5
 861 0081 21010000 		.4byte	.LASF10
 862 0085 02       		.uleb128 0x2
 863 0086 04       		.byte	0x4
 864 0087 07       		.byte	0x7
 865 0088 77010000 		.4byte	.LASF11
 866 008c 04       		.uleb128 0x4
 867 008d C8000000 		.4byte	.LASF12
 868 0091 02       		.byte	0x2
 869 0092 59       		.byte	0x59
 870 0093 33000000 		.4byte	0x33
 871 0097 02       		.uleb128 0x2
 872 0098 08       		.byte	0x8
 873 0099 07       		.byte	0x7
 874 009a B1000000 		.4byte	.LASF13
 875 009e 02       		.uleb128 0x2
 876 009f 04       		.byte	0x4
 877 00a0 07       		.byte	0x7
 878 00a1 24020000 		.4byte	.LASF14
 879 00a5 02       		.uleb128 0x2
 880 00a6 01       		.byte	0x1
 881 00a7 08       		.byte	0x8
 882 00a8 EA020000 		.4byte	.LASF15
 883 00ac 05       		.uleb128 0x5
 884 00ad 04       		.byte	0x4
 885 00ae B2000000 		.4byte	0xb2
 886 00b2 06       		.uleb128 0x6
 887 00b3 07       		.uleb128 0x7
 888 00b4 A5000000 		.4byte	0xa5
 889 00b8 04       		.uleb128 0x4
 890 00b9 84030000 		.4byte	.LASF16
 891 00bd 03       		.byte	0x3
 892 00be 18       		.byte	0x18
 893 00bf 48000000 		.4byte	0x48
 894 00c3 04       		.uleb128 0x4
 895 00c4 D2000000 		.4byte	.LASF17
 896 00c8 03       		.byte	0x3
 897 00c9 20       		.byte	0x20
 898 00ca 5A000000 		.4byte	0x5a
 899 00ce 04       		.uleb128 0x4
 900 00cf 30010000 		.4byte	.LASF18
 901 00d3 03       		.byte	0x3
 902 00d4 24       		.byte	0x24
 903 00d5 6C000000 		.4byte	0x6c
 904 00d9 04       		.uleb128 0x4
ARM GAS  C:\Users\GYULAI~1\AppData\Local\Temp\ccZu9sJJ.s 			page 21


 905 00da CC030000 		.4byte	.LASF19
 906 00de 03       		.byte	0x3
 907 00df 38       		.byte	0x38
 908 00e0 8C000000 		.4byte	0x8c
 909 00e4 08       		.uleb128 0x8
 910 00e5 08       		.byte	0x8
 911 00e6 04       		.byte	0x4
 912 00e7 30       		.byte	0x30
 913 00e8 41010000 		.4byte	0x141
 914 00ec 09       		.uleb128 0x9
 915 00ed 1C010000 		.4byte	.LASF20
 916 00f1 04       		.byte	0x4
 917 00f2 31       		.byte	0x31
 918 00f3 CE000000 		.4byte	0xce
 919 00f7 00       		.byte	0
 920 00f8 09       		.uleb128 0x9
 921 00f9 50010000 		.4byte	.LASF21
 922 00fd 04       		.byte	0x4
 923 00fe 32       		.byte	0x32
 924 00ff B8000000 		.4byte	0xb8
 925 0103 02       		.byte	0x2
 926 0104 09       		.uleb128 0x9
 927 0105 B8010000 		.4byte	.LASF22
 928 0109 04       		.byte	0x4
 929 010a 33       		.byte	0x33
 930 010b B8000000 		.4byte	0xb8
 931 010f 03       		.byte	0x3
 932 0110 09       		.uleb128 0x9
 933 0111 FF020000 		.4byte	.LASF23
 934 0115 04       		.byte	0x4
 935 0116 34       		.byte	0x34
 936 0117 B8000000 		.4byte	0xb8
 937 011b 04       		.byte	0x4
 938 011c 09       		.uleb128 0x9
 939 011d 39020000 		.4byte	.LASF24
 940 0121 04       		.byte	0x4
 941 0122 35       		.byte	0x35
 942 0123 B8000000 		.4byte	0xb8
 943 0127 05       		.byte	0x5
 944 0128 09       		.uleb128 0x9
 945 0129 43030000 		.4byte	.LASF25
 946 012d 04       		.byte	0x4
 947 012e 36       		.byte	0x36
 948 012f B8000000 		.4byte	0xb8
 949 0133 06       		.byte	0x6
 950 0134 09       		.uleb128 0x9
 951 0135 15010000 		.4byte	.LASF26
 952 0139 04       		.byte	0x4
 953 013a 37       		.byte	0x37
 954 013b B8000000 		.4byte	0xb8
 955 013f 07       		.byte	0x7
 956 0140 00       		.byte	0
 957 0141 04       		.uleb128 0x4
 958 0142 60030000 		.4byte	.LASF27
 959 0146 04       		.byte	0x4
 960 0147 38       		.byte	0x38
 961 0148 E4000000 		.4byte	0xe4
ARM GAS  C:\Users\GYULAI~1\AppData\Local\Temp\ccZu9sJJ.s 			page 22


 962 014c 0A       		.uleb128 0xa
 963 014d 0A000000 		.4byte	.LASF32
 964 0151 0C       		.byte	0xc
 965 0152 05       		.byte	0x5
 966 0153 48       		.byte	0x48
 967 0154 89010000 		.4byte	0x189
 968 0158 09       		.uleb128 0x9
 969 0159 1B020000 		.4byte	.LASF28
 970 015d 05       		.byte	0x5
 971 015e 49       		.byte	0x49
 972 015f 41010000 		.4byte	0x141
 973 0163 00       		.byte	0
 974 0164 09       		.uleb128 0x9
 975 0165 00000000 		.4byte	.LASF29
 976 0169 05       		.byte	0x5
 977 016a 4A       		.byte	0x4a
 978 016b B8000000 		.4byte	0xb8
 979 016f 08       		.byte	0x8
 980 0170 09       		.uleb128 0x9
 981 0171 63010000 		.4byte	.LASF30
 982 0175 05       		.byte	0x5
 983 0176 4B       		.byte	0x4b
 984 0177 B8000000 		.4byte	0xb8
 985 017b 09       		.byte	0x9
 986 017c 09       		.uleb128 0x9
 987 017d EF020000 		.4byte	.LASF31
 988 0181 05       		.byte	0x5
 989 0182 4C       		.byte	0x4c
 990 0183 B8000000 		.4byte	0xb8
 991 0187 0A       		.byte	0xa
 992 0188 00       		.byte	0
 993 0189 04       		.uleb128 0x4
 994 018a 0A000000 		.4byte	.LASF32
 995 018e 05       		.byte	0x5
 996 018f 50       		.byte	0x50
 997 0190 4C010000 		.4byte	0x14c
 998 0194 04       		.uleb128 0x4
 999 0195 3E020000 		.4byte	.LASF33
 1000 0199 06       		.byte	0x6
 1001 019a 45       		.byte	0x45
 1002 019b AC000000 		.4byte	0xac
 1003 019f 0B       		.uleb128 0xb
 1004 01a0 C6010000 		.4byte	.LASF48
 1005 01a4 01       		.byte	0x1
 1006 01a5 3E       		.byte	0x3e
 1007 01a6 00000000 		.4byte	.LFB0
 1008 01aa 10000000 		.4byte	.LFE0-.LFB0
 1009 01ae 01       		.uleb128 0x1
 1010 01af 9C       		.byte	0x9c
 1011 01b0 0C       		.uleb128 0xc
 1012 01b1 39010000 		.4byte	.LASF34
 1013 01b5 01       		.byte	0x1
 1014 01b6 47       		.byte	0x47
 1015 01b7 41010000 		.4byte	0x141
 1016 01bb 00000000 		.4byte	.LFB1
 1017 01bf 18000000 		.4byte	.LFE1-.LFB1
 1018 01c3 01       		.uleb128 0x1
ARM GAS  C:\Users\GYULAI~1\AppData\Local\Temp\ccZu9sJJ.s 			page 23


 1019 01c4 9C       		.byte	0x9c
 1020 01c5 0D       		.uleb128 0xd
 1021 01c6 8C030000 		.4byte	.LASF37
 1022 01ca 01       		.byte	0x1
 1023 01cb 4D       		.byte	0x4d
 1024 01cc 00000000 		.4byte	.LFB2
 1025 01d0 1E000000 		.4byte	.LFE2-.LFB2
 1026 01d4 01       		.uleb128 0x1
 1027 01d5 9C       		.byte	0x9c
 1028 01d6 E9010000 		.4byte	0x1e9
 1029 01da 0E       		.uleb128 0xe
 1030 01db 6E6F7700 		.ascii	"now\000"
 1031 01df 01       		.byte	0x1
 1032 01e0 4D       		.byte	0x4d
 1033 01e1 E9010000 		.4byte	0x1e9
 1034 01e5 02       		.uleb128 0x2
 1035 01e6 91       		.byte	0x91
 1036 01e7 70       		.sleb128 -16
 1037 01e8 00       		.byte	0
 1038 01e9 07       		.uleb128 0x7
 1039 01ea 41010000 		.4byte	0x141
 1040 01ee 0F       		.uleb128 0xf
 1041 01ef 84020000 		.4byte	.LASF35
 1042 01f3 01       		.byte	0x1
 1043 01f4 53       		.byte	0x53
 1044 01f5 41010000 		.4byte	0x141
 1045 01f9 00000000 		.4byte	.LFB3
 1046 01fd 24000000 		.4byte	.LFE3-.LFB3
 1047 0201 01       		.uleb128 0x1
 1048 0202 9C       		.byte	0x9c
 1049 0203 0F       		.uleb128 0xf
 1050 0204 DA010000 		.4byte	.LASF36
 1051 0208 01       		.byte	0x1
 1052 0209 59       		.byte	0x59
 1053 020a 41010000 		.4byte	0x141
 1054 020e 00000000 		.4byte	.LFB4
 1055 0212 24000000 		.4byte	.LFE4-.LFB4
 1056 0216 01       		.uleb128 0x1
 1057 0217 9C       		.byte	0x9c
 1058 0218 0D       		.uleb128 0xd
 1059 0219 ED010000 		.4byte	.LASF38
 1060 021d 01       		.byte	0x1
 1061 021e 5F       		.byte	0x5f
 1062 021f 00000000 		.4byte	.LFB5
 1063 0223 BC000000 		.4byte	.LFE5-.LFB5
 1064 0227 01       		.uleb128 0x1
 1065 0228 9C       		.byte	0x9c
 1066 0229 60020000 		.4byte	0x260
 1067 022d 10       		.uleb128 0x10
 1068 022e 6A010000 		.4byte	.LASF39
 1069 0232 01       		.byte	0x1
 1070 0233 65       		.byte	0x65
 1071 0234 89010000 		.4byte	0x189
 1072 0238 02       		.uleb128 0x2
 1073 0239 91       		.byte	0x91
 1074 023a 58       		.sleb128 -40
 1075 023b 10       		.uleb128 0x10
ARM GAS  C:\Users\GYULAI~1\AppData\Local\Temp\ccZu9sJJ.s 			page 24


 1076 023c C0030000 		.4byte	.LASF40
 1077 0240 01       		.byte	0x1
 1078 0241 66       		.byte	0x66
 1079 0242 B8000000 		.4byte	0xb8
 1080 0246 02       		.uleb128 0x2
 1081 0247 91       		.byte	0x91
 1082 0248 67       		.sleb128 -25
 1083 0249 11       		.uleb128 0x11
 1084 024a 1A000000 		.4byte	.LBB2
 1085 024e 80000000 		.4byte	.LBE2-.LBB2
 1086 0252 12       		.uleb128 0x12
 1087 0253 6900     		.ascii	"i\000"
 1088 0255 01       		.byte	0x1
 1089 0256 69       		.byte	0x69
 1090 0257 CE000000 		.4byte	0xce
 1091 025b 02       		.uleb128 0x2
 1092 025c 91       		.byte	0x91
 1093 025d 64       		.sleb128 -28
 1094 025e 00       		.byte	0
 1095 025f 00       		.byte	0
 1096 0260 13       		.uleb128 0x13
 1097 0261 95020000 		.4byte	.LASF61
 1098 0265 01       		.byte	0x1
 1099 0266 7A       		.byte	0x7a
 1100 0267 C3000000 		.4byte	0xc3
 1101 026b 00000000 		.4byte	.LFB6
 1102 026f D0000000 		.4byte	.LFE6-.LFB6
 1103 0273 01       		.uleb128 0x1
 1104 0274 9C       		.byte	0x9c
 1105 0275 00030000 		.4byte	0x300
 1106 0279 14       		.uleb128 0x14
 1107 027a 1B020000 		.4byte	.LASF28
 1108 027e 01       		.byte	0x1
 1109 027f 7A       		.byte	0x7a
 1110 0280 41010000 		.4byte	0x141
 1111 0284 02       		.uleb128 0x2
 1112 0285 91       		.byte	0x91
 1113 0286 50       		.sleb128 -48
 1114 0287 14       		.uleb128 0x14
 1115 0288 00000000 		.4byte	.LASF29
 1116 028c 01       		.byte	0x1
 1117 028d 7A       		.byte	0x7a
 1118 028e B8000000 		.4byte	0xb8
 1119 0292 02       		.uleb128 0x2
 1120 0293 91       		.byte	0x91
 1121 0294 4F       		.sleb128 -49
 1122 0295 14       		.uleb128 0x14
 1123 0296 EF020000 		.4byte	.LASF31
 1124 029a 01       		.byte	0x1
 1125 029b 7A       		.byte	0x7a
 1126 029c B8000000 		.4byte	0xb8
 1127 02a0 02       		.uleb128 0x2
 1128 02a1 91       		.byte	0x91
 1129 02a2 4E       		.sleb128 -50
 1130 02a3 14       		.uleb128 0x14
 1131 02a4 DF020000 		.4byte	.LASF41
 1132 02a8 01       		.byte	0x1
ARM GAS  C:\Users\GYULAI~1\AppData\Local\Temp\ccZu9sJJ.s 			page 25


 1133 02a9 7A       		.byte	0x7a
 1134 02aa B8000000 		.4byte	0xb8
 1135 02ae 02       		.uleb128 0x2
 1136 02af 91       		.byte	0x91
 1137 02b0 00       		.sleb128 0
 1138 02b1 14       		.uleb128 0x14
 1139 02b2 BD010000 		.4byte	.LASF42
 1140 02b6 01       		.byte	0x1
 1141 02b7 7B       		.byte	0x7b
 1142 02b8 94010000 		.4byte	0x194
 1143 02bc 02       		.uleb128 0x2
 1144 02bd 91       		.byte	0x91
 1145 02be 04       		.sleb128 4
 1146 02bf 10       		.uleb128 0x10
 1147 02c0 2A010000 		.4byte	.LASF43
 1148 02c4 01       		.byte	0x1
 1149 02c5 7E       		.byte	0x7e
 1150 02c6 89010000 		.4byte	0x189
 1151 02ca 02       		.uleb128 0x2
 1152 02cb 91       		.byte	0x91
 1153 02cc 5C       		.sleb128 -36
 1154 02cd 10       		.uleb128 0x10
 1155 02ce D4030000 		.4byte	.LASF44
 1156 02d2 01       		.byte	0x1
 1157 02d3 81       		.byte	0x81
 1158 02d4 CE000000 		.4byte	0xce
 1159 02d8 02       		.uleb128 0x2
 1160 02d9 91       		.byte	0x91
 1161 02da 6C       		.sleb128 -20
 1162 02db 12       		.uleb128 0x12
 1163 02dc 656E6400 		.ascii	"end\000"
 1164 02e0 01       		.byte	0x1
 1165 02e1 82       		.byte	0x82
 1166 02e2 CE000000 		.4byte	0xce
 1167 02e6 02       		.uleb128 0x2
 1168 02e7 91       		.byte	0x91
 1169 02e8 6A       		.sleb128 -22
 1170 02e9 11       		.uleb128 0x11
 1171 02ea 56000000 		.4byte	.LBB3
 1172 02ee 66000000 		.4byte	.LBE3-.LBB3
 1173 02f2 12       		.uleb128 0x12
 1174 02f3 6900     		.ascii	"i\000"
 1175 02f5 01       		.byte	0x1
 1176 02f6 85       		.byte	0x85
 1177 02f7 CE000000 		.4byte	0xce
 1178 02fb 02       		.uleb128 0x2
 1179 02fc 91       		.byte	0x91
 1180 02fd 6E       		.sleb128 -18
 1181 02fe 00       		.byte	0
 1182 02ff 00       		.byte	0
 1183 0300 0D       		.uleb128 0xd
 1184 0301 16030000 		.4byte	.LASF45
 1185 0305 01       		.byte	0x1
 1186 0306 99       		.byte	0x99
 1187 0307 00000000 		.4byte	.LFB7
 1188 030b 50000000 		.4byte	.LFE7-.LFB7
 1189 030f 01       		.uleb128 0x1
ARM GAS  C:\Users\GYULAI~1\AppData\Local\Temp\ccZu9sJJ.s 			page 26


 1190 0310 9C       		.byte	0x9c
 1191 0311 23030000 		.4byte	0x323
 1192 0315 0E       		.uleb128 0xe
 1193 0316 696400   		.ascii	"id\000"
 1194 0319 01       		.byte	0x1
 1195 031a 99       		.byte	0x99
 1196 031b CE000000 		.4byte	0xce
 1197 031f 02       		.uleb128 0x2
 1198 0320 91       		.byte	0x91
 1199 0321 76       		.sleb128 -10
 1200 0322 00       		.byte	0
 1201 0323 0D       		.uleb128 0xd
 1202 0324 05020000 		.4byte	.LASF46
 1203 0328 01       		.byte	0x1
 1204 0329 A9       		.byte	0xa9
 1205 032a 00000000 		.4byte	.LFB8
 1206 032e FC000000 		.4byte	.LFE8-.LFB8
 1207 0332 01       		.uleb128 0x1
 1208 0333 9C       		.byte	0x9c
 1209 0334 5D030000 		.4byte	0x35d
 1210 0338 10       		.uleb128 0x10
 1211 0339 A7020000 		.4byte	.LASF47
 1212 033d 01       		.byte	0x1
 1213 033e B2       		.byte	0xb2
 1214 033f D9000000 		.4byte	0xd9
 1215 0343 02       		.uleb128 0x2
 1216 0344 91       		.byte	0x91
 1217 0345 60       		.sleb128 -32
 1218 0346 11       		.uleb128 0x11
 1219 0347 2C000000 		.4byte	.LBB4
 1220 034b B6000000 		.4byte	.LBE4-.LBB4
 1221 034f 12       		.uleb128 0x12
 1222 0350 6900     		.ascii	"i\000"
 1223 0352 01       		.byte	0x1
 1224 0353 B5       		.byte	0xb5
 1225 0354 CE000000 		.4byte	0xce
 1226 0358 02       		.uleb128 0x2
 1227 0359 91       		.byte	0x91
 1228 035a 6E       		.sleb128 -18
 1229 035b 00       		.byte	0
 1230 035c 00       		.byte	0
 1231 035d 15       		.uleb128 0x15
 1232 035e 72030000 		.4byte	.LASF49
 1233 0362 01       		.byte	0x1
 1234 0363 CF       		.byte	0xcf
 1235 0364 00000000 		.4byte	.LFB9
 1236 0368 18000000 		.4byte	.LFE9-.LFB9
 1237 036c 01       		.uleb128 0x1
 1238 036d 9C       		.byte	0x9c
 1239 036e 16       		.uleb128 0x16
 1240 036f B3000000 		.4byte	0xb3
 1241 0373 7E030000 		.4byte	0x37e
 1242 0377 17       		.uleb128 0x17
 1243 0378 9E000000 		.4byte	0x9e
 1244 037c 13       		.byte	0x13
 1245 037d 00       		.byte	0
 1246 037e 10       		.uleb128 0x10
ARM GAS  C:\Users\GYULAI~1\AppData\Local\Temp\ccZu9sJJ.s 			page 27


 1247 037f A1030000 		.4byte	.LASF50
 1248 0383 04       		.byte	0x4
 1249 0384 48       		.byte	0x48
 1250 0385 8F030000 		.4byte	0x38f
 1251 0389 05       		.uleb128 0x5
 1252 038a 03       		.byte	0x3
 1253 038b 00000000 		.4byte	rhea_rtc_datetimeFormatGeneral
 1254 038f 07       		.uleb128 0x7
 1255 0390 6E030000 		.4byte	0x36e
 1256 0394 16       		.uleb128 0x16
 1257 0395 B3000000 		.4byte	0xb3
 1258 0399 A4030000 		.4byte	0x3a4
 1259 039d 17       		.uleb128 0x17
 1260 039e 9E000000 		.4byte	0x9e
 1261 03a2 15       		.byte	0x15
 1262 03a3 00       		.byte	0
 1263 03a4 10       		.uleb128 0x10
 1264 03a5 F4000000 		.4byte	.LASF51
 1265 03a9 04       		.byte	0x4
 1266 03aa 4A       		.byte	0x4a
 1267 03ab B5030000 		.4byte	0x3b5
 1268 03af 05       		.uleb128 0x5
 1269 03b0 03       		.byte	0x3
 1270 03b1 14000000 		.4byte	rhea_rtc_datetimeFormatGeneralUS
 1271 03b5 07       		.uleb128 0x7
 1272 03b6 94030000 		.4byte	0x394
 1273 03ba 10       		.uleb128 0x10
 1274 03bb 89010000 		.4byte	.LASF52
 1275 03bf 04       		.byte	0x4
 1276 03c0 4C       		.byte	0x4c
 1277 03c1 CB030000 		.4byte	0x3cb
 1278 03c5 05       		.uleb128 0x5
 1279 03c6 03       		.byte	0x3
 1280 03c7 2C000000 		.4byte	rhea_rtc_datetimeFormatFull
 1281 03cb 07       		.uleb128 0x7
 1282 03cc 94030000 		.4byte	0x394
 1283 03d0 16       		.uleb128 0x16
 1284 03d1 94010000 		.4byte	0x194
 1285 03d5 E0030000 		.4byte	0x3e0
 1286 03d9 17       		.uleb128 0x17
 1287 03da 9E000000 		.4byte	0x9e
 1288 03de 1F       		.byte	0x1f
 1289 03df 00       		.byte	0
 1290 03e0 10       		.uleb128 0x10
 1291 03e1 2B030000 		.4byte	.LASF53
 1292 03e5 01       		.byte	0x1
 1293 03e6 36       		.byte	0x36
 1294 03e7 D0030000 		.4byte	0x3d0
 1295 03eb 05       		.uleb128 0x5
 1296 03ec 03       		.byte	0x3
 1297 03ed 00000000 		.4byte	rhea_rtc_alarmCallbacks
 1298 03f1 10       		.uleb128 0x10
 1299 03f2 4A030000 		.4byte	.LASF54
 1300 03f6 01       		.byte	0x1
 1301 03f7 3C       		.byte	0x3c
 1302 03f8 02040000 		.4byte	0x402
 1303 03fc 05       		.uleb128 0x5
ARM GAS  C:\Users\GYULAI~1\AppData\Local\Temp\ccZu9sJJ.s 			page 28


 1304 03fd 03       		.byte	0x3
 1305 03fe 80000000 		.4byte	rhea_rtc_alarmOccured
 1306 0402 18       		.uleb128 0x18
 1307 0403 B8000000 		.4byte	0xb8
 1308 0407 19       		.uleb128 0x19
 1309 0408 F4030000 		.4byte	.LASF55
 1310 040c 01       		.byte	0x1
 1311 040d 2D       		.byte	0x2d
 1312 040e 41010000 		.4byte	0x141
 1313 0412 05       		.uleb128 0x5
 1314 0413 03       		.byte	0x3
 1315 0414 00000000 		.4byte	rhea_rtc_powerFailTimestamp
 1316 0418 19       		.uleb128 0x19
 1317 0419 DA030000 		.4byte	.LASF56
 1318 041d 01       		.byte	0x1
 1319 041e 30       		.byte	0x30
 1320 041f 41010000 		.4byte	0x141
 1321 0423 05       		.uleb128 0x5
 1322 0424 03       		.byte	0x3
 1323 0425 00000000 		.4byte	rhea_rtc_powerUpTimestamp
 1324 0429 16       		.uleb128 0x16
 1325 042a 89010000 		.4byte	0x189
 1326 042e 39040000 		.4byte	0x439
 1327 0432 17       		.uleb128 0x17
 1328 0433 9E000000 		.4byte	0x9e
 1329 0437 1F       		.byte	0x1f
 1330 0438 00       		.byte	0
 1331 0439 19       		.uleb128 0x19
 1332 043a 55020000 		.4byte	.LASF57
 1333 043e 01       		.byte	0x1
 1334 043f 39       		.byte	0x39
 1335 0440 29040000 		.4byte	0x429
 1336 0444 05       		.uleb128 0x5
 1337 0445 03       		.byte	0x3
 1338 0446 00000000 		.4byte	rhea_rtc_alarmRegistry
 1339 044a 00       		.byte	0
 1340              		.section	.debug_abbrev,"",%progbits
 1341              	.Ldebug_abbrev0:
 1342 0000 01       		.uleb128 0x1
 1343 0001 11       		.uleb128 0x11
 1344 0002 01       		.byte	0x1
 1345 0003 25       		.uleb128 0x25
 1346 0004 0E       		.uleb128 0xe
 1347 0005 13       		.uleb128 0x13
 1348 0006 0B       		.uleb128 0xb
 1349 0007 03       		.uleb128 0x3
 1350 0008 0E       		.uleb128 0xe
 1351 0009 1B       		.uleb128 0x1b
 1352 000a 0E       		.uleb128 0xe
 1353 000b 55       		.uleb128 0x55
 1354 000c 17       		.uleb128 0x17
 1355 000d 11       		.uleb128 0x11
 1356 000e 01       		.uleb128 0x1
 1357 000f 10       		.uleb128 0x10
 1358 0010 17       		.uleb128 0x17
 1359 0011 00       		.byte	0
 1360 0012 00       		.byte	0
ARM GAS  C:\Users\GYULAI~1\AppData\Local\Temp\ccZu9sJJ.s 			page 29


 1361 0013 02       		.uleb128 0x2
 1362 0014 24       		.uleb128 0x24
 1363 0015 00       		.byte	0
 1364 0016 0B       		.uleb128 0xb
 1365 0017 0B       		.uleb128 0xb
 1366 0018 3E       		.uleb128 0x3e
 1367 0019 0B       		.uleb128 0xb
 1368 001a 03       		.uleb128 0x3
 1369 001b 0E       		.uleb128 0xe
 1370 001c 00       		.byte	0
 1371 001d 00       		.byte	0
 1372 001e 03       		.uleb128 0x3
 1373 001f 24       		.uleb128 0x24
 1374 0020 00       		.byte	0
 1375 0021 0B       		.uleb128 0xb
 1376 0022 0B       		.uleb128 0xb
 1377 0023 3E       		.uleb128 0x3e
 1378 0024 0B       		.uleb128 0xb
 1379 0025 03       		.uleb128 0x3
 1380 0026 08       		.uleb128 0x8
 1381 0027 00       		.byte	0
 1382 0028 00       		.byte	0
 1383 0029 04       		.uleb128 0x4
 1384 002a 16       		.uleb128 0x16
 1385 002b 00       		.byte	0
 1386 002c 03       		.uleb128 0x3
 1387 002d 0E       		.uleb128 0xe
 1388 002e 3A       		.uleb128 0x3a
 1389 002f 0B       		.uleb128 0xb
 1390 0030 3B       		.uleb128 0x3b
 1391 0031 0B       		.uleb128 0xb
 1392 0032 49       		.uleb128 0x49
 1393 0033 13       		.uleb128 0x13
 1394 0034 00       		.byte	0
 1395 0035 00       		.byte	0
 1396 0036 05       		.uleb128 0x5
 1397 0037 0F       		.uleb128 0xf
 1398 0038 00       		.byte	0
 1399 0039 0B       		.uleb128 0xb
 1400 003a 0B       		.uleb128 0xb
 1401 003b 49       		.uleb128 0x49
 1402 003c 13       		.uleb128 0x13
 1403 003d 00       		.byte	0
 1404 003e 00       		.byte	0
 1405 003f 06       		.uleb128 0x6
 1406 0040 15       		.uleb128 0x15
 1407 0041 00       		.byte	0
 1408 0042 27       		.uleb128 0x27
 1409 0043 19       		.uleb128 0x19
 1410 0044 00       		.byte	0
 1411 0045 00       		.byte	0
 1412 0046 07       		.uleb128 0x7
 1413 0047 26       		.uleb128 0x26
 1414 0048 00       		.byte	0
 1415 0049 49       		.uleb128 0x49
 1416 004a 13       		.uleb128 0x13
 1417 004b 00       		.byte	0
ARM GAS  C:\Users\GYULAI~1\AppData\Local\Temp\ccZu9sJJ.s 			page 30


 1418 004c 00       		.byte	0
 1419 004d 08       		.uleb128 0x8
 1420 004e 13       		.uleb128 0x13
 1421 004f 01       		.byte	0x1
 1422 0050 0B       		.uleb128 0xb
 1423 0051 0B       		.uleb128 0xb
 1424 0052 3A       		.uleb128 0x3a
 1425 0053 0B       		.uleb128 0xb
 1426 0054 3B       		.uleb128 0x3b
 1427 0055 0B       		.uleb128 0xb
 1428 0056 01       		.uleb128 0x1
 1429 0057 13       		.uleb128 0x13
 1430 0058 00       		.byte	0
 1431 0059 00       		.byte	0
 1432 005a 09       		.uleb128 0x9
 1433 005b 0D       		.uleb128 0xd
 1434 005c 00       		.byte	0
 1435 005d 03       		.uleb128 0x3
 1436 005e 0E       		.uleb128 0xe
 1437 005f 3A       		.uleb128 0x3a
 1438 0060 0B       		.uleb128 0xb
 1439 0061 3B       		.uleb128 0x3b
 1440 0062 0B       		.uleb128 0xb
 1441 0063 49       		.uleb128 0x49
 1442 0064 13       		.uleb128 0x13
 1443 0065 38       		.uleb128 0x38
 1444 0066 0B       		.uleb128 0xb
 1445 0067 00       		.byte	0
 1446 0068 00       		.byte	0
 1447 0069 0A       		.uleb128 0xa
 1448 006a 13       		.uleb128 0x13
 1449 006b 01       		.byte	0x1
 1450 006c 03       		.uleb128 0x3
 1451 006d 0E       		.uleb128 0xe
 1452 006e 0B       		.uleb128 0xb
 1453 006f 0B       		.uleb128 0xb
 1454 0070 3A       		.uleb128 0x3a
 1455 0071 0B       		.uleb128 0xb
 1456 0072 3B       		.uleb128 0x3b
 1457 0073 0B       		.uleb128 0xb
 1458 0074 01       		.uleb128 0x1
 1459 0075 13       		.uleb128 0x13
 1460 0076 00       		.byte	0
 1461 0077 00       		.byte	0
 1462 0078 0B       		.uleb128 0xb
 1463 0079 2E       		.uleb128 0x2e
 1464 007a 00       		.byte	0
 1465 007b 3F       		.uleb128 0x3f
 1466 007c 19       		.uleb128 0x19
 1467 007d 03       		.uleb128 0x3
 1468 007e 0E       		.uleb128 0xe
 1469 007f 3A       		.uleb128 0x3a
 1470 0080 0B       		.uleb128 0xb
 1471 0081 3B       		.uleb128 0x3b
 1472 0082 0B       		.uleb128 0xb
 1473 0083 27       		.uleb128 0x27
 1474 0084 19       		.uleb128 0x19
ARM GAS  C:\Users\GYULAI~1\AppData\Local\Temp\ccZu9sJJ.s 			page 31


 1475 0085 11       		.uleb128 0x11
 1476 0086 01       		.uleb128 0x1
 1477 0087 12       		.uleb128 0x12
 1478 0088 06       		.uleb128 0x6
 1479 0089 40       		.uleb128 0x40
 1480 008a 18       		.uleb128 0x18
 1481 008b 9642     		.uleb128 0x2116
 1482 008d 19       		.uleb128 0x19
 1483 008e 00       		.byte	0
 1484 008f 00       		.byte	0
 1485 0090 0C       		.uleb128 0xc
 1486 0091 2E       		.uleb128 0x2e
 1487 0092 00       		.byte	0
 1488 0093 3F       		.uleb128 0x3f
 1489 0094 19       		.uleb128 0x19
 1490 0095 03       		.uleb128 0x3
 1491 0096 0E       		.uleb128 0xe
 1492 0097 3A       		.uleb128 0x3a
 1493 0098 0B       		.uleb128 0xb
 1494 0099 3B       		.uleb128 0x3b
 1495 009a 0B       		.uleb128 0xb
 1496 009b 27       		.uleb128 0x27
 1497 009c 19       		.uleb128 0x19
 1498 009d 49       		.uleb128 0x49
 1499 009e 13       		.uleb128 0x13
 1500 009f 11       		.uleb128 0x11
 1501 00a0 01       		.uleb128 0x1
 1502 00a1 12       		.uleb128 0x12
 1503 00a2 06       		.uleb128 0x6
 1504 00a3 40       		.uleb128 0x40
 1505 00a4 18       		.uleb128 0x18
 1506 00a5 9642     		.uleb128 0x2116
 1507 00a7 19       		.uleb128 0x19
 1508 00a8 00       		.byte	0
 1509 00a9 00       		.byte	0
 1510 00aa 0D       		.uleb128 0xd
 1511 00ab 2E       		.uleb128 0x2e
 1512 00ac 01       		.byte	0x1
 1513 00ad 3F       		.uleb128 0x3f
 1514 00ae 19       		.uleb128 0x19
 1515 00af 03       		.uleb128 0x3
 1516 00b0 0E       		.uleb128 0xe
 1517 00b1 3A       		.uleb128 0x3a
 1518 00b2 0B       		.uleb128 0xb
 1519 00b3 3B       		.uleb128 0x3b
 1520 00b4 0B       		.uleb128 0xb
 1521 00b5 27       		.uleb128 0x27
 1522 00b6 19       		.uleb128 0x19
 1523 00b7 11       		.uleb128 0x11
 1524 00b8 01       		.uleb128 0x1
 1525 00b9 12       		.uleb128 0x12
 1526 00ba 06       		.uleb128 0x6
 1527 00bb 40       		.uleb128 0x40
 1528 00bc 18       		.uleb128 0x18
 1529 00bd 9642     		.uleb128 0x2116
 1530 00bf 19       		.uleb128 0x19
 1531 00c0 01       		.uleb128 0x1
ARM GAS  C:\Users\GYULAI~1\AppData\Local\Temp\ccZu9sJJ.s 			page 32


 1532 00c1 13       		.uleb128 0x13
 1533 00c2 00       		.byte	0
 1534 00c3 00       		.byte	0
 1535 00c4 0E       		.uleb128 0xe
 1536 00c5 05       		.uleb128 0x5
 1537 00c6 00       		.byte	0
 1538 00c7 03       		.uleb128 0x3
 1539 00c8 08       		.uleb128 0x8
 1540 00c9 3A       		.uleb128 0x3a
 1541 00ca 0B       		.uleb128 0xb
 1542 00cb 3B       		.uleb128 0x3b
 1543 00cc 0B       		.uleb128 0xb
 1544 00cd 49       		.uleb128 0x49
 1545 00ce 13       		.uleb128 0x13
 1546 00cf 02       		.uleb128 0x2
 1547 00d0 18       		.uleb128 0x18
 1548 00d1 00       		.byte	0
 1549 00d2 00       		.byte	0
 1550 00d3 0F       		.uleb128 0xf
 1551 00d4 2E       		.uleb128 0x2e
 1552 00d5 00       		.byte	0
 1553 00d6 3F       		.uleb128 0x3f
 1554 00d7 19       		.uleb128 0x19
 1555 00d8 03       		.uleb128 0x3
 1556 00d9 0E       		.uleb128 0xe
 1557 00da 3A       		.uleb128 0x3a
 1558 00db 0B       		.uleb128 0xb
 1559 00dc 3B       		.uleb128 0x3b
 1560 00dd 0B       		.uleb128 0xb
 1561 00de 27       		.uleb128 0x27
 1562 00df 19       		.uleb128 0x19
 1563 00e0 49       		.uleb128 0x49
 1564 00e1 13       		.uleb128 0x13
 1565 00e2 11       		.uleb128 0x11
 1566 00e3 01       		.uleb128 0x1
 1567 00e4 12       		.uleb128 0x12
 1568 00e5 06       		.uleb128 0x6
 1569 00e6 40       		.uleb128 0x40
 1570 00e7 18       		.uleb128 0x18
 1571 00e8 9742     		.uleb128 0x2117
 1572 00ea 19       		.uleb128 0x19
 1573 00eb 00       		.byte	0
 1574 00ec 00       		.byte	0
 1575 00ed 10       		.uleb128 0x10
 1576 00ee 34       		.uleb128 0x34
 1577 00ef 00       		.byte	0
 1578 00f0 03       		.uleb128 0x3
 1579 00f1 0E       		.uleb128 0xe
 1580 00f2 3A       		.uleb128 0x3a
 1581 00f3 0B       		.uleb128 0xb
 1582 00f4 3B       		.uleb128 0x3b
 1583 00f5 0B       		.uleb128 0xb
 1584 00f6 49       		.uleb128 0x49
 1585 00f7 13       		.uleb128 0x13
 1586 00f8 02       		.uleb128 0x2
 1587 00f9 18       		.uleb128 0x18
 1588 00fa 00       		.byte	0
ARM GAS  C:\Users\GYULAI~1\AppData\Local\Temp\ccZu9sJJ.s 			page 33


 1589 00fb 00       		.byte	0
 1590 00fc 11       		.uleb128 0x11
 1591 00fd 0B       		.uleb128 0xb
 1592 00fe 01       		.byte	0x1
 1593 00ff 11       		.uleb128 0x11
 1594 0100 01       		.uleb128 0x1
 1595 0101 12       		.uleb128 0x12
 1596 0102 06       		.uleb128 0x6
 1597 0103 00       		.byte	0
 1598 0104 00       		.byte	0
 1599 0105 12       		.uleb128 0x12
 1600 0106 34       		.uleb128 0x34
 1601 0107 00       		.byte	0
 1602 0108 03       		.uleb128 0x3
 1603 0109 08       		.uleb128 0x8
 1604 010a 3A       		.uleb128 0x3a
 1605 010b 0B       		.uleb128 0xb
 1606 010c 3B       		.uleb128 0x3b
 1607 010d 0B       		.uleb128 0xb
 1608 010e 49       		.uleb128 0x49
 1609 010f 13       		.uleb128 0x13
 1610 0110 02       		.uleb128 0x2
 1611 0111 18       		.uleb128 0x18
 1612 0112 00       		.byte	0
 1613 0113 00       		.byte	0
 1614 0114 13       		.uleb128 0x13
 1615 0115 2E       		.uleb128 0x2e
 1616 0116 01       		.byte	0x1
 1617 0117 3F       		.uleb128 0x3f
 1618 0118 19       		.uleb128 0x19
 1619 0119 03       		.uleb128 0x3
 1620 011a 0E       		.uleb128 0xe
 1621 011b 3A       		.uleb128 0x3a
 1622 011c 0B       		.uleb128 0xb
 1623 011d 3B       		.uleb128 0x3b
 1624 011e 0B       		.uleb128 0xb
 1625 011f 27       		.uleb128 0x27
 1626 0120 19       		.uleb128 0x19
 1627 0121 49       		.uleb128 0x49
 1628 0122 13       		.uleb128 0x13
 1629 0123 11       		.uleb128 0x11
 1630 0124 01       		.uleb128 0x1
 1631 0125 12       		.uleb128 0x12
 1632 0126 06       		.uleb128 0x6
 1633 0127 40       		.uleb128 0x40
 1634 0128 18       		.uleb128 0x18
 1635 0129 9642     		.uleb128 0x2116
 1636 012b 19       		.uleb128 0x19
 1637 012c 01       		.uleb128 0x1
 1638 012d 13       		.uleb128 0x13
 1639 012e 00       		.byte	0
 1640 012f 00       		.byte	0
 1641 0130 14       		.uleb128 0x14
 1642 0131 05       		.uleb128 0x5
 1643 0132 00       		.byte	0
 1644 0133 03       		.uleb128 0x3
 1645 0134 0E       		.uleb128 0xe
ARM GAS  C:\Users\GYULAI~1\AppData\Local\Temp\ccZu9sJJ.s 			page 34


 1646 0135 3A       		.uleb128 0x3a
 1647 0136 0B       		.uleb128 0xb
 1648 0137 3B       		.uleb128 0x3b
 1649 0138 0B       		.uleb128 0xb
 1650 0139 49       		.uleb128 0x49
 1651 013a 13       		.uleb128 0x13
 1652 013b 02       		.uleb128 0x2
 1653 013c 18       		.uleb128 0x18
 1654 013d 00       		.byte	0
 1655 013e 00       		.byte	0
 1656 013f 15       		.uleb128 0x15
 1657 0140 2E       		.uleb128 0x2e
 1658 0141 00       		.byte	0
 1659 0142 3F       		.uleb128 0x3f
 1660 0143 19       		.uleb128 0x19
 1661 0144 03       		.uleb128 0x3
 1662 0145 0E       		.uleb128 0xe
 1663 0146 3A       		.uleb128 0x3a
 1664 0147 0B       		.uleb128 0xb
 1665 0148 3B       		.uleb128 0x3b
 1666 0149 0B       		.uleb128 0xb
 1667 014a 27       		.uleb128 0x27
 1668 014b 19       		.uleb128 0x19
 1669 014c 11       		.uleb128 0x11
 1670 014d 01       		.uleb128 0x1
 1671 014e 12       		.uleb128 0x12
 1672 014f 06       		.uleb128 0x6
 1673 0150 40       		.uleb128 0x40
 1674 0151 18       		.uleb128 0x18
 1675 0152 9742     		.uleb128 0x2117
 1676 0154 19       		.uleb128 0x19
 1677 0155 00       		.byte	0
 1678 0156 00       		.byte	0
 1679 0157 16       		.uleb128 0x16
 1680 0158 01       		.uleb128 0x1
 1681 0159 01       		.byte	0x1
 1682 015a 49       		.uleb128 0x49
 1683 015b 13       		.uleb128 0x13
 1684 015c 01       		.uleb128 0x1
 1685 015d 13       		.uleb128 0x13
 1686 015e 00       		.byte	0
 1687 015f 00       		.byte	0
 1688 0160 17       		.uleb128 0x17
 1689 0161 21       		.uleb128 0x21
 1690 0162 00       		.byte	0
 1691 0163 49       		.uleb128 0x49
 1692 0164 13       		.uleb128 0x13
 1693 0165 2F       		.uleb128 0x2f
 1694 0166 0B       		.uleb128 0xb
 1695 0167 00       		.byte	0
 1696 0168 00       		.byte	0
 1697 0169 18       		.uleb128 0x18
 1698 016a 35       		.uleb128 0x35
 1699 016b 00       		.byte	0
 1700 016c 49       		.uleb128 0x49
 1701 016d 13       		.uleb128 0x13
 1702 016e 00       		.byte	0
ARM GAS  C:\Users\GYULAI~1\AppData\Local\Temp\ccZu9sJJ.s 			page 35


 1703 016f 00       		.byte	0
 1704 0170 19       		.uleb128 0x19
 1705 0171 34       		.uleb128 0x34
 1706 0172 00       		.byte	0
 1707 0173 03       		.uleb128 0x3
 1708 0174 0E       		.uleb128 0xe
 1709 0175 3A       		.uleb128 0x3a
 1710 0176 0B       		.uleb128 0xb
 1711 0177 3B       		.uleb128 0x3b
 1712 0178 0B       		.uleb128 0xb
 1713 0179 49       		.uleb128 0x49
 1714 017a 13       		.uleb128 0x13
 1715 017b 3F       		.uleb128 0x3f
 1716 017c 19       		.uleb128 0x19
 1717 017d 02       		.uleb128 0x2
 1718 017e 18       		.uleb128 0x18
 1719 017f 00       		.byte	0
 1720 0180 00       		.byte	0
 1721 0181 00       		.byte	0
 1722              		.section	.debug_aranges,"",%progbits
 1723 0000 64000000 		.4byte	0x64
 1724 0004 0200     		.2byte	0x2
 1725 0006 00000000 		.4byte	.Ldebug_info0
 1726 000a 04       		.byte	0x4
 1727 000b 00       		.byte	0
 1728 000c 0000     		.2byte	0
 1729 000e 0000     		.2byte	0
 1730 0010 00000000 		.4byte	.LFB0
 1731 0014 10000000 		.4byte	.LFE0-.LFB0
 1732 0018 00000000 		.4byte	.LFB1
 1733 001c 18000000 		.4byte	.LFE1-.LFB1
 1734 0020 00000000 		.4byte	.LFB2
 1735 0024 1E000000 		.4byte	.LFE2-.LFB2
 1736 0028 00000000 		.4byte	.LFB3
 1737 002c 24000000 		.4byte	.LFE3-.LFB3
 1738 0030 00000000 		.4byte	.LFB4
 1739 0034 24000000 		.4byte	.LFE4-.LFB4
 1740 0038 00000000 		.4byte	.LFB5
 1741 003c BC000000 		.4byte	.LFE5-.LFB5
 1742 0040 00000000 		.4byte	.LFB6
 1743 0044 D0000000 		.4byte	.LFE6-.LFB6
 1744 0048 00000000 		.4byte	.LFB7
 1745 004c 50000000 		.4byte	.LFE7-.LFB7
 1746 0050 00000000 		.4byte	.LFB8
 1747 0054 FC000000 		.4byte	.LFE8-.LFB8
 1748 0058 00000000 		.4byte	.LFB9
 1749 005c 18000000 		.4byte	.LFE9-.LFB9
 1750 0060 00000000 		.4byte	0
 1751 0064 00000000 		.4byte	0
 1752              		.section	.debug_ranges,"",%progbits
 1753              	.Ldebug_ranges0:
 1754 0000 00000000 		.4byte	.LFB0
 1755 0004 10000000 		.4byte	.LFE0
 1756 0008 00000000 		.4byte	.LFB1
 1757 000c 18000000 		.4byte	.LFE1
 1758 0010 00000000 		.4byte	.LFB2
 1759 0014 1E000000 		.4byte	.LFE2
ARM GAS  C:\Users\GYULAI~1\AppData\Local\Temp\ccZu9sJJ.s 			page 36


 1760 0018 00000000 		.4byte	.LFB3
 1761 001c 24000000 		.4byte	.LFE3
 1762 0020 00000000 		.4byte	.LFB4
 1763 0024 24000000 		.4byte	.LFE4
 1764 0028 00000000 		.4byte	.LFB5
 1765 002c BC000000 		.4byte	.LFE5
 1766 0030 00000000 		.4byte	.LFB6
 1767 0034 D0000000 		.4byte	.LFE6
 1768 0038 00000000 		.4byte	.LFB7
 1769 003c 50000000 		.4byte	.LFE7
 1770 0040 00000000 		.4byte	.LFB8
 1771 0044 FC000000 		.4byte	.LFE8
 1772 0048 00000000 		.4byte	.LFB9
 1773 004c 18000000 		.4byte	.LFE9
 1774 0050 00000000 		.4byte	0
 1775 0054 00000000 		.4byte	0
 1776              		.section	.debug_line,"",%progbits
 1777              	.Ldebug_line0:
 1778 0000 A4020000 		.section	.debug_str,"MS",%progbits,1
 1778      02003D01 
 1778      00000201 
 1778      FB0E0D00 
 1778      01010101 
 1779              	.LASF29:
 1780 0000 72656375 		.ascii	"recurring\000"
 1780      7272696E 
 1780      6700
 1781              	.LASF32:
 1782 000a 72686561 		.ascii	"rhea_rtc_alarm\000"
 1782      5F727463 
 1782      5F616C61 
 1782      726D00
 1783              	.LASF5:
 1784 0019 5F5F7569 		.ascii	"__uint8_t\000"
 1784      6E74385F 
 1784      7400
 1785              	.LASF58:
 1786 0023 474E5520 		.ascii	"GNU C11 5.4.1 20160609 (release) [ARM/embedded-5-br"
 1786      43313120 
 1786      352E342E 
 1786      31203230 
 1786      31363036 
 1787 0056 616E6368 		.ascii	"anch revision 237715] -mcpu=cortex-m3 -mthumb -g -O"
 1787      20726576 
 1787      6973696F 
 1787      6E203233 
 1787      37373135 
 1788 0089 30202D66 		.ascii	"0 -ffunction-sections -ffat-lto-objects\000"
 1788      66756E63 
 1788      74696F6E 
 1788      2D736563 
 1788      74696F6E 
 1789              	.LASF13:
 1790 00b1 6C6F6E67 		.ascii	"long long unsigned int\000"
 1790      206C6F6E 
 1790      6720756E 
 1790      7369676E 
ARM GAS  C:\Users\GYULAI~1\AppData\Local\Temp\ccZu9sJJ.s 			page 37


 1790      65642069 
 1791              	.LASF12:
 1792 00c8 5F5F696E 		.ascii	"__int64_t\000"
 1792      7436345F 
 1792      7400
 1793              	.LASF17:
 1794 00d2 696E7431 		.ascii	"int16_t\000"
 1794      365F7400 
 1795              	.LASF1:
 1796 00da 6C6F6E67 		.ascii	"long long int\000"
 1796      206C6F6E 
 1796      6720696E 
 1796      7400
 1797              	.LASF3:
 1798 00e8 7369676E 		.ascii	"signed char\000"
 1798      65642063 
 1798      68617200 
 1799              	.LASF51:
 1800 00f4 72686561 		.ascii	"rhea_rtc_datetimeFormatGeneralUS\000"
 1800      5F727463 
 1800      5F646174 
 1800      6574696D 
 1800      65466F72 
 1801              	.LASF26:
 1802 0115 7365636F 		.ascii	"second\000"
 1802      6E6400
 1803              	.LASF20:
 1804 011c 79656172 		.ascii	"year\000"
 1804      00
 1805              	.LASF10:
 1806 0121 6C6F6E67 		.ascii	"long int\000"
 1806      20696E74 
 1806      00
 1807              	.LASF43:
 1808 012a 616C6172 		.ascii	"alarm\000"
 1808      6D00
 1809              	.LASF18:
 1810 0130 75696E74 		.ascii	"uint16_t\000"
 1810      31365F74 
 1810      00
 1811              	.LASF34:
 1812 0139 72686561 		.ascii	"rhea_rtc_Now\000"
 1812      5F727463 
 1812      5F4E6F77 
 1812      00
 1813              	.LASF6:
 1814 0146 5F5F696E 		.ascii	"__int16_t\000"
 1814      7431365F 
 1814      7400
 1815              	.LASF21:
 1816 0150 6D6F6E74 		.ascii	"month\000"
 1816      6800
 1817              	.LASF0:
 1818 0156 756E7369 		.ascii	"unsigned int\000"
 1818      676E6564 
 1818      20696E74 
 1818      00
ARM GAS  C:\Users\GYULAI~1\AppData\Local\Temp\ccZu9sJJ.s 			page 38


 1819              	.LASF30:
 1820 0163 61637469 		.ascii	"active\000"
 1820      766500
 1821              	.LASF39:
 1822 016a 636C6F73 		.ascii	"closestAlarm\000"
 1822      65737441 
 1822      6C61726D 
 1822      00
 1823              	.LASF11:
 1824 0177 6C6F6E67 		.ascii	"long unsigned int\000"
 1824      20756E73 
 1824      69676E65 
 1824      6420696E 
 1824      7400
 1825              	.LASF52:
 1826 0189 72686561 		.ascii	"rhea_rtc_datetimeFormatFull\000"
 1826      5F727463 
 1826      5F646174 
 1826      6574696D 
 1826      65466F72 
 1827              	.LASF9:
 1828 01a5 73686F72 		.ascii	"short unsigned int\000"
 1828      7420756E 
 1828      7369676E 
 1828      65642069 
 1828      6E7400
 1829              	.LASF22:
 1830 01b8 64617465 		.ascii	"date\000"
 1830      00
 1831              	.LASF42:
 1832 01bd 63616C6C 		.ascii	"callback\000"
 1832      6261636B 
 1832      00
 1833              	.LASF48:
 1834 01c6 72686561 		.ascii	"rhea_rtc_Initialize\000"
 1834      5F727463 
 1834      5F496E69 
 1834      7469616C 
 1834      697A6500 
 1835              	.LASF36:
 1836 01da 72686561 		.ascii	"rhea_rtc_PowerFail\000"
 1836      5F727463 
 1836      5F506F77 
 1836      65724661 
 1836      696C00
 1837              	.LASF38:
 1838 01ed 72686561 		.ascii	"rhea_rtc_ScheduleAlarms\000"
 1838      5F727463 
 1838      5F536368 
 1838      6564756C 
 1838      65416C61 
 1839              	.LASF46:
 1840 0205 72686561 		.ascii	"rhea_rtc_HandleAlarms\000"
 1840      5F727463 
 1840      5F48616E 
 1840      646C6541 
 1840      6C61726D 
ARM GAS  C:\Users\GYULAI~1\AppData\Local\Temp\ccZu9sJJ.s 			page 39


 1841              	.LASF28:
 1842 021b 64617465 		.ascii	"datetime\000"
 1842      74696D65 
 1842      00
 1843              	.LASF14:
 1844 0224 73697A65 		.ascii	"sizetype\000"
 1844      74797065 
 1844      00
 1845              	.LASF2:
 1846 022d 6C6F6E67 		.ascii	"long double\000"
 1846      20646F75 
 1846      626C6500 
 1847              	.LASF24:
 1848 0239 686F7572 		.ascii	"hour\000"
 1848      00
 1849              	.LASF33:
 1850 023e 72686561 		.ascii	"rhea_rtc_alarmCallback\000"
 1850      5F727463 
 1850      5F616C61 
 1850      726D4361 
 1850      6C6C6261 
 1851              	.LASF57:
 1852 0255 72686561 		.ascii	"rhea_rtc_alarmRegistry\000"
 1852      5F727463 
 1852      5F616C61 
 1852      726D5265 
 1852      67697374 
 1853              	.LASF4:
 1854 026c 756E7369 		.ascii	"unsigned char\000"
 1854      676E6564 
 1854      20636861 
 1854      7200
 1855              	.LASF7:
 1856 027a 73686F72 		.ascii	"short int\000"
 1856      7420696E 
 1856      7400
 1857              	.LASF35:
 1858 0284 72686561 		.ascii	"rhea_rtc_PowerUp\000"
 1858      5F727463 
 1858      5F506F77 
 1858      65725570 
 1858      00
 1859              	.LASF61:
 1860 0295 72686561 		.ascii	"rhea_rtc_AddAlarm\000"
 1860      5F727463 
 1860      5F416464 
 1860      416C6172 
 1860      6D00
 1861              	.LASF47:
 1862 02a7 6E6F7753 		.ascii	"nowSeconds\000"
 1862      65636F6E 
 1862      647300
 1863              	.LASF60:
 1864 02b2 453A5C43 		.ascii	"E:\\Cypress\\Projects\\RheaWorkspace\\Rhea.cydsn\000"
 1864      79707265 
 1864      73735C50 
 1864      726F6A65 
ARM GAS  C:\Users\GYULAI~1\AppData\Local\Temp\ccZu9sJJ.s 			page 40


 1864      6374735C 
 1865              	.LASF41:
 1866 02df 70657273 		.ascii	"persistent\000"
 1866      69737465 
 1866      6E7400
 1867              	.LASF15:
 1868 02ea 63686172 		.ascii	"char\000"
 1868      00
 1869              	.LASF31:
 1870 02ef 6D6F6465 		.ascii	"mode\000"
 1870      00
 1871              	.LASF8:
 1872 02f4 5F5F7569 		.ascii	"__uint16_t\000"
 1872      6E743136 
 1872      5F7400
 1873              	.LASF23:
 1874 02ff 7765656B 		.ascii	"weekday\000"
 1874      64617900 
 1875              	.LASF59:
 1876 0307 72686561 		.ascii	"rhea\\rtc\\rtc.c\000"
 1876      5C727463 
 1876      5C727463 
 1876      2E6300
 1877              	.LASF45:
 1878 0316 72686561 		.ascii	"rhea_rtc_DeleteAlarm\000"
 1878      5F727463 
 1878      5F44656C 
 1878      65746541 
 1878      6C61726D 
 1879              	.LASF53:
 1880 032b 72686561 		.ascii	"rhea_rtc_alarmCallbacks\000"
 1880      5F727463 
 1880      5F616C61 
 1880      726D4361 
 1880      6C6C6261 
 1881              	.LASF25:
 1882 0343 6D696E75 		.ascii	"minute\000"
 1882      746500
 1883              	.LASF54:
 1884 034a 72686561 		.ascii	"rhea_rtc_alarmOccured\000"
 1884      5F727463 
 1884      5F616C61 
 1884      726D4F63 
 1884      63757265 
 1885              	.LASF27:
 1886 0360 72686561 		.ascii	"rhea_rtc_datetime\000"
 1886      5F727463 
 1886      5F646174 
 1886      6574696D 
 1886      6500
 1887              	.LASF49:
 1888 0372 72686561 		.ascii	"rhea_rtc_alarmISR\000"
 1888      5F727463 
 1888      5F616C61 
 1888      726D4953 
 1888      5200
 1889              	.LASF16:
ARM GAS  C:\Users\GYULAI~1\AppData\Local\Temp\ccZu9sJJ.s 			page 41


 1890 0384 75696E74 		.ascii	"uint8_t\000"
 1890      385F7400 
 1891              	.LASF37:
 1892 038c 72686561 		.ascii	"rhea_rtc_SetDatetime\000"
 1892      5F727463 
 1892      5F536574 
 1892      44617465 
 1892      74696D65 
 1893              	.LASF50:
 1894 03a1 72686561 		.ascii	"rhea_rtc_datetimeFormatGeneral\000"
 1894      5F727463 
 1894      5F646174 
 1894      6574696D 
 1894      65466F72 
 1895              	.LASF40:
 1896 03c0 666F756E 		.ascii	"foundActive\000"
 1896      64416374 
 1896      69766500 
 1897              	.LASF19:
 1898 03cc 696E7436 		.ascii	"int64_t\000"
 1898      345F7400 
 1899              	.LASF44:
 1900 03d4 73746172 		.ascii	"start\000"
 1900      7400
 1901              	.LASF56:
 1902 03da 72686561 		.ascii	"rhea_rtc_powerUpTimestamp\000"
 1902      5F727463 
 1902      5F706F77 
 1902      65725570 
 1902      54696D65 
 1903              	.LASF55:
 1904 03f4 72686561 		.ascii	"rhea_rtc_powerFailTimestamp\000"
 1904      5F727463 
 1904      5F706F77 
 1904      65724661 
 1904      696C5469 
 1905              		.ident	"GCC: (GNU Tools for ARM Embedded Processors) 5.4.1 20160609 (release) [ARM/embedded-5-bran
