ARM GAS  C:\Users\GYULAI~1\AppData\Local\Temp\ccZu9sJJ.s 			page 1


   1              		.syntax unified
   2              		.cpu cortex-m3
   3              		.fpu softvfp
   4              		.eabi_attribute 20, 1
   5              		.eabi_attribute 21, 1
   6              		.eabi_attribute 23, 3
   7              		.eabi_attribute 24, 1
   8              		.eabi_attribute 25, 1
   9              		.eabi_attribute 26, 1
  10              		.eabi_attribute 30, 6
  11              		.eabi_attribute 34, 1
  12              		.eabi_attribute 18, 4
  13              		.thumb
  14              		.syntax unified
  15              		.file	"rtc.c"
  16              		.text
  17              	.Ltext0:
  18              		.cfi_sections	.debug_frame
  19              		.section	.rodata
  20              		.align	2
  21              		.type	rhea_rtc_datetimeFormatGeneral, %object
  22              		.size	rhea_rtc_datetimeFormatGeneral, 20
  23              	rhea_rtc_datetimeFormatGeneral:
  24 0000 59595959 		.ascii	"YYYY/MM/dd hh:mm:ss\000"
  24      2F4D4D2F 
  24      64642068 
  24      683A6D6D 
  24      3A737300 
  25              		.align	2
  26              		.type	rhea_rtc_datetimeFormatGeneralUS, %object
  27              		.size	rhea_rtc_datetimeFormatGeneralUS, 22
  28              	rhea_rtc_datetimeFormatGeneralUS:
  29 0014 64642F4D 		.ascii	"dd/MM/YYYY hh:mm:ss t\000"
  29      4D2F5959 
  29      59592068 
  29      683A6D6D 
  29      3A737320 
  30 002a 0000     		.align	2
  31              		.type	rhea_rtc_datetimeFormatFull, %object
  32              		.size	rhea_rtc_datetimeFormatFull, 22
  33              	rhea_rtc_datetimeFormatFull:
  34 002c 772C204D 		.ascii	"w, MMMM d, YYYY h:m:s\000"
  34      4D4D4D20 
  34      642C2059 
  34      59595920 
  34      683A6D3A 
  35              		.comm	rhea_rtc_powerFailTimestamp,8,4
  36              		.comm	rhea_rtc_powerUpTimestamp,8,4
  37              		.bss
  38              		.align	2
  39              	rhea_rtc_alarmCallbacks:
  40 0000 00000000 		.space	128
  40      00000000 
  40      00000000 
  40      00000000 
  40      00000000 
  41              		.comm	rhea_rtc_alarmRegistry,384,4
ARM GAS  C:\Users\GYULAI~1\AppData\Local\Temp\ccZu9sJJ.s 			page 2


  42              	rhea_rtc_alarmOccured:
  43 0080 00       		.space	1
  44              		.section	.text.rhea_rtc_Initialize,"ax",%progbits
  45              		.align	2
  46              		.global	rhea_rtc_Initialize
  47              		.thumb
  48              		.thumb_func
  49              		.type	rhea_rtc_Initialize, %function
  50              	rhea_rtc_Initialize:
  51              	.LFB0:
  52              		.file 1 "rhea\\rtc\\rtc.c"
   1:rhea\rtc/rtc.c **** /*********************************************************************************
   2:rhea\rtc/rtc.c ****  * Copyright (c) 2020 Peter Gyulai
   3:rhea\rtc/rtc.c ****  *
   4:rhea\rtc/rtc.c ****  * Permission is hereby granted, free of charge, to any person obtaining a copy
   5:rhea\rtc/rtc.c ****  * of this software and associated documentation files (the "Software"), to deal
   6:rhea\rtc/rtc.c ****  * in the Software without restriction, including without limitation the rights
   7:rhea\rtc/rtc.c ****  * to use, copy, modify, merge, publish, distribute, sublicense, and/or sell
   8:rhea\rtc/rtc.c ****  * copies of the Software, and to permit persons to whom the Software is
   9:rhea\rtc/rtc.c ****  * furnished to do so, subject to the following conditions:
  10:rhea\rtc/rtc.c ****  *
  11:rhea\rtc/rtc.c ****  * The above copyright notice and this permission notice shall be included in all
  12:rhea\rtc/rtc.c ****  * copies or substantial portions of the Software.
  13:rhea\rtc/rtc.c ****  *
  14:rhea\rtc/rtc.c ****  * THE SOFTWARE IS PROVIDED "AS IS", WITHOUT WARRANTY OF ANY KIND,
  15:rhea\rtc/rtc.c ****  * EXPRESS OR IMPLIED, INCLUDING BUT NOT LIMITED TO THE WARRANTIES OF
  16:rhea\rtc/rtc.c ****  * MERCHANTABILITY, FITNESS FOR A PARTICULAR PURPOSE AND NONINFRINGEMENT.
  17:rhea\rtc/rtc.c ****  * IN NO EVENT SHALL THE AUTHORS OR COPYRIGHT HOLDERS BE LIABLE FOR ANY CLAIM,
  18:rhea\rtc/rtc.c ****  * DAMAGES OR OTHER LIABILITY, WHETHER IN AN ACTION OF CONTRACT, TORT OR
  19:rhea\rtc/rtc.c ****  * OTHERWISE, ARISING FROM, OUT OF OR IN CONNECTION WITH THE SOFTWARE OR THE USE
  20:rhea\rtc/rtc.c ****  * OR OTHER DEALINGS IN THE SOFTWARE.
  21:rhea\rtc/rtc.c **** **********************************************************************************/
  22:rhea\rtc/rtc.c **** 
  23:rhea\rtc/rtc.c **** /**
  24:rhea\rtc/rtc.c ****  * @file    Rhea_RTC.c
  25:rhea\rtc/rtc.c ****  * @author  Peter Gyulai
  26:rhea\rtc/rtc.c ****  * @version 1.0.0
  27:rhea\rtc/rtc.c ****  * @date    2020.04.19
  28:rhea\rtc/rtc.c ****  * @brief   Library implementation.
  29:rhea\rtc/rtc.c ****  * @details
  30:rhea\rtc/rtc.c ****  * This file contains the function definitions used by the Rhea RTC library.
  31:rhea\rtc/rtc.c ****  */
  32:rhea\rtc/rtc.c **** 
  33:rhea\rtc/rtc.c ****  // Doxygen documentation duplication suppression
  34:rhea\rtc/rtc.c **** #ifndef DOXYGEN_SHOULD_SKIP_THIS
  35:rhea\rtc/rtc.c ****     
  36:rhea\rtc/rtc.c **** // Standard includes
  37:rhea\rtc/rtc.c **** #include <stdlib.h>
  38:rhea\rtc/rtc.c **** 
  39:rhea\rtc/rtc.c **** // Project includes
  40:rhea\rtc/rtc.c **** #include "rtc.h"
  41:rhea\rtc/rtc.c **** #include "rtc_impl.h"
  42:rhea\rtc/rtc.c ****     
  43:rhea\rtc/rtc.c **** 
  44:rhea\rtc/rtc.c **** // Static datetime storing the last power-fail
  45:rhea\rtc/rtc.c **** rhea_rtc_datetime rhea_rtc_powerFailTimestamp;
  46:rhea\rtc/rtc.c **** 
ARM GAS  C:\Users\GYULAI~1\AppData\Local\Temp\ccZu9sJJ.s 			page 3


  47:rhea\rtc/rtc.c **** // Static datetime storing the last power-up
  48:rhea\rtc/rtc.c **** rhea_rtc_datetime rhea_rtc_powerUpTimestamp;
  49:rhea\rtc/rtc.c **** 
  50:rhea\rtc/rtc.c **** // Total size of the alarm registry
  51:rhea\rtc/rtc.c **** #define RHEA_RTC_ALARM_REGISTRY_SIZE (RHEA_RTC_HARDWARE_ALARM_COUNT + RHEA_RTC_SOFTWARE_ALARM_COUNT
  52:rhea\rtc/rtc.c **** 
  53:rhea\rtc/rtc.c **** // Static array to store alarm callbacks
  54:rhea\rtc/rtc.c **** static rhea_rtc_alarmCallback rhea_rtc_alarmCallbacks[RHEA_RTC_ALARM_REGISTRY_SIZE];
  55:rhea\rtc/rtc.c **** 
  56:rhea\rtc/rtc.c **** // Static array to store alarms
  57:rhea\rtc/rtc.c **** rhea_rtc_alarm rhea_rtc_alarmRegistry[RHEA_RTC_ALARM_REGISTRY_SIZE];
  58:rhea\rtc/rtc.c **** 
  59:rhea\rtc/rtc.c **** // Static volatile flag indicating an alarm interrupt has occured
  60:rhea\rtc/rtc.c **** static volatile uint8_t rhea_rtc_alarmOccured = 0;
  61:rhea\rtc/rtc.c **** 
  62:rhea\rtc/rtc.c **** void rhea_rtc_Initialize(void) {
  53              		.loc 1 62 0
  54              		.cfi_startproc
  55              		@ args = 0, pretend = 0, frame = 0
  56              		@ frame_needed = 1, uses_anonymous_args = 0
  57 0000 80B5     		push	{r7, lr}
  58              		.cfi_def_cfa_offset 8
  59              		.cfi_offset 7, -8
  60              		.cfi_offset 14, -4
  61 0002 00AF     		add	r7, sp, #0
  62              		.cfi_def_cfa_register 7
  63:rhea\rtc/rtc.c **** 
  64:rhea\rtc/rtc.c ****     // Invoking driver implementation
  65:rhea\rtc/rtc.c ****     rhea_rtc_initialize_impl();
  63              		.loc 1 65 0
  64 0004 FFF7FEFF 		bl	rhea_rtc_initialize_impl
  66:rhea\rtc/rtc.c **** 
  67:rhea\rtc/rtc.c ****     // Loading alarms from persistent storage
  68:rhea\rtc/rtc.c ****     rhea_rtc_loadAlarms_impl();
  65              		.loc 1 68 0
  66 0008 FFF7FEFF 		bl	rhea_rtc_loadAlarms_impl
  69:rhea\rtc/rtc.c **** }
  67              		.loc 1 69 0
  68 000c 00BF     		nop
  69 000e 80BD     		pop	{r7, pc}
  70              		.cfi_endproc
  71              	.LFE0:
  72              		.size	rhea_rtc_Initialize, .-rhea_rtc_Initialize
  73              		.section	.text.rhea_rtc_Now,"ax",%progbits
  74              		.align	2
  75              		.global	rhea_rtc_Now
  76              		.thumb
  77              		.thumb_func
  78              		.type	rhea_rtc_Now, %function
  79              	rhea_rtc_Now:
  80              	.LFB1:
  70:rhea\rtc/rtc.c **** 
  71:rhea\rtc/rtc.c **** rhea_rtc_datetime rhea_rtc_Now(void) {
  81              		.loc 1 71 0
  82              		.cfi_startproc
  83              		@ args = 0, pretend = 0, frame = 8
  84              		@ frame_needed = 1, uses_anonymous_args = 0
ARM GAS  C:\Users\GYULAI~1\AppData\Local\Temp\ccZu9sJJ.s 			page 4


  85 0000 80B5     		push	{r7, lr}
  86              		.cfi_def_cfa_offset 8
  87              		.cfi_offset 7, -8
  88              		.cfi_offset 14, -4
  89 0002 82B0     		sub	sp, sp, #8
  90              		.cfi_def_cfa_offset 16
  91 0004 00AF     		add	r7, sp, #0
  92              		.cfi_def_cfa_register 7
  93 0006 7860     		str	r0, [r7, #4]
  72:rhea\rtc/rtc.c **** 
  73:rhea\rtc/rtc.c ****     // Returning current datetime
  74:rhea\rtc/rtc.c ****     return rhea_rtc_now_impl();
  94              		.loc 1 74 0
  95 0008 7B68     		ldr	r3, [r7, #4]
  96 000a 1846     		mov	r0, r3
  97 000c FFF7FEFF 		bl	rhea_rtc_now_impl
  75:rhea\rtc/rtc.c **** }
  98              		.loc 1 75 0
  99 0010 7868     		ldr	r0, [r7, #4]
 100 0012 0837     		adds	r7, r7, #8
 101              		.cfi_def_cfa_offset 8
 102 0014 BD46     		mov	sp, r7
 103              		.cfi_def_cfa_register 13
 104              		@ sp needed
 105 0016 80BD     		pop	{r7, pc}
 106              		.cfi_endproc
 107              	.LFE1:
 108              		.size	rhea_rtc_Now, .-rhea_rtc_Now
 109              		.section	.text.rhea_rtc_SetDatetime,"ax",%progbits
 110              		.align	2
 111              		.global	rhea_rtc_SetDatetime
 112              		.thumb
 113              		.thumb_func
 114              		.type	rhea_rtc_SetDatetime, %function
 115              	rhea_rtc_SetDatetime:
 116              	.LFB2:
  76:rhea\rtc/rtc.c **** 
  77:rhea\rtc/rtc.c **** void rhea_rtc_SetDatetime(const rhea_rtc_datetime now) {
 117              		.loc 1 77 0
 118              		.cfi_startproc
 119              		@ args = 0, pretend = 0, frame = 8
 120              		@ frame_needed = 1, uses_anonymous_args = 0
 121 0000 80B5     		push	{r7, lr}
 122              		.cfi_def_cfa_offset 8
 123              		.cfi_offset 7, -8
 124              		.cfi_offset 14, -4
 125 0002 82B0     		sub	sp, sp, #8
 126              		.cfi_def_cfa_offset 16
 127 0004 00AF     		add	r7, sp, #0
 128              		.cfi_def_cfa_register 7
 129 0006 3B46     		mov	r3, r7
 130 0008 83E80300 		stmia	r3, {r0, r1}
  78:rhea\rtc/rtc.c **** 
  79:rhea\rtc/rtc.c ****     // Setting current datetime
  80:rhea\rtc/rtc.c ****     rhea_rtc_setDatetime_impl(now);
 131              		.loc 1 80 0
 132 000c 3B46     		mov	r3, r7
ARM GAS  C:\Users\GYULAI~1\AppData\Local\Temp\ccZu9sJJ.s 			page 5


 133 000e 93E80300 		ldmia	r3, {r0, r1}
 134 0012 FFF7FEFF 		bl	rhea_rtc_setDatetime_impl
  81:rhea\rtc/rtc.c **** }
 135              		.loc 1 81 0
 136 0016 00BF     		nop
 137 0018 0837     		adds	r7, r7, #8
 138              		.cfi_def_cfa_offset 8
 139 001a BD46     		mov	sp, r7
 140              		.cfi_def_cfa_register 13
 141              		@ sp needed
 142 001c 80BD     		pop	{r7, pc}
 143              		.cfi_endproc
 144              	.LFE2:
 145              		.size	rhea_rtc_SetDatetime, .-rhea_rtc_SetDatetime
 146 001e 00BF     		.section	.text.rhea_rtc_PowerUp,"ax",%progbits
 147              		.align	2
 148              		.global	rhea_rtc_PowerUp
 149              		.thumb
 150              		.thumb_func
 151              		.type	rhea_rtc_PowerUp, %function
 152              	rhea_rtc_PowerUp:
 153              	.LFB3:
  82:rhea\rtc/rtc.c **** 
  83:rhea\rtc/rtc.c **** rhea_rtc_datetime rhea_rtc_PowerUp(void) {
 154              		.loc 1 83 0
 155              		.cfi_startproc
 156              		@ args = 0, pretend = 0, frame = 8
 157              		@ frame_needed = 1, uses_anonymous_args = 0
 158              		@ link register save eliminated.
 159 0000 80B4     		push	{r7}
 160              		.cfi_def_cfa_offset 4
 161              		.cfi_offset 7, -4
 162 0002 83B0     		sub	sp, sp, #12
 163              		.cfi_def_cfa_offset 16
 164 0004 00AF     		add	r7, sp, #0
 165              		.cfi_def_cfa_register 7
 166 0006 7860     		str	r0, [r7, #4]
  84:rhea\rtc/rtc.c **** 
  85:rhea\rtc/rtc.c ****     // Returning timestamp
  86:rhea\rtc/rtc.c ****     return rhea_rtc_powerUpTimestamp;
 167              		.loc 1 86 0
 168 0008 7B68     		ldr	r3, [r7, #4]
 169 000a 054A     		ldr	r2, .L7
 170 000c 1168     		ldr	r1, [r2]	@ unaligned
 171 000e 5268     		ldr	r2, [r2, #4]	@ unaligned
 172 0010 1960     		str	r1, [r3]	@ unaligned
 173 0012 5A60     		str	r2, [r3, #4]	@ unaligned
  87:rhea\rtc/rtc.c **** }
 174              		.loc 1 87 0
 175 0014 7868     		ldr	r0, [r7, #4]
 176 0016 0C37     		adds	r7, r7, #12
 177              		.cfi_def_cfa_offset 4
 178 0018 BD46     		mov	sp, r7
 179              		.cfi_def_cfa_register 13
 180              		@ sp needed
 181 001a 80BC     		pop	{r7}
 182              		.cfi_restore 7
ARM GAS  C:\Users\GYULAI~1\AppData\Local\Temp\ccZu9sJJ.s 			page 6


 183              		.cfi_def_cfa_offset 0
 184 001c 7047     		bx	lr
 185              	.L8:
 186 001e 00BF     		.align	2
 187              	.L7:
 188 0020 00000000 		.word	rhea_rtc_powerUpTimestamp
 189              		.cfi_endproc
 190              	.LFE3:
 191              		.size	rhea_rtc_PowerUp, .-rhea_rtc_PowerUp
 192              		.section	.text.rhea_rtc_PowerFail,"ax",%progbits
 193              		.align	2
 194              		.global	rhea_rtc_PowerFail
 195              		.thumb
 196              		.thumb_func
 197              		.type	rhea_rtc_PowerFail, %function
 198              	rhea_rtc_PowerFail:
 199              	.LFB4:
  88:rhea\rtc/rtc.c **** 
  89:rhea\rtc/rtc.c **** rhea_rtc_datetime rhea_rtc_PowerFail(void) {
 200              		.loc 1 89 0
 201              		.cfi_startproc
 202              		@ args = 0, pretend = 0, frame = 8
 203              		@ frame_needed = 1, uses_anonymous_args = 0
 204              		@ link register save eliminated.
 205 0000 80B4     		push	{r7}
 206              		.cfi_def_cfa_offset 4
 207              		.cfi_offset 7, -4
 208 0002 83B0     		sub	sp, sp, #12
 209              		.cfi_def_cfa_offset 16
 210 0004 00AF     		add	r7, sp, #0
 211              		.cfi_def_cfa_register 7
 212 0006 7860     		str	r0, [r7, #4]
  90:rhea\rtc/rtc.c ****     
  91:rhea\rtc/rtc.c ****     // Returning datetime
  92:rhea\rtc/rtc.c ****     return rhea_rtc_powerFailTimestamp;
 213              		.loc 1 92 0
 214 0008 7B68     		ldr	r3, [r7, #4]
 215 000a 054A     		ldr	r2, .L11
 216 000c 1168     		ldr	r1, [r2]	@ unaligned
 217 000e 5268     		ldr	r2, [r2, #4]	@ unaligned
 218 0010 1960     		str	r1, [r3]	@ unaligned
 219 0012 5A60     		str	r2, [r3, #4]	@ unaligned
  93:rhea\rtc/rtc.c **** }
 220              		.loc 1 93 0
 221 0014 7868     		ldr	r0, [r7, #4]
 222 0016 0C37     		adds	r7, r7, #12
 223              		.cfi_def_cfa_offset 4
 224 0018 BD46     		mov	sp, r7
 225              		.cfi_def_cfa_register 13
 226              		@ sp needed
 227 001a 80BC     		pop	{r7}
 228              		.cfi_restore 7
 229              		.cfi_def_cfa_offset 0
 230 001c 7047     		bx	lr
 231              	.L12:
 232 001e 00BF     		.align	2
 233              	.L11:
ARM GAS  C:\Users\GYULAI~1\AppData\Local\Temp\ccZu9sJJ.s 			page 7


 234 0020 00000000 		.word	rhea_rtc_powerFailTimestamp
 235              		.cfi_endproc
 236              	.LFE4:
 237              		.size	rhea_rtc_PowerFail, .-rhea_rtc_PowerFail
 238              		.section	.text.rhea_rtc_ScheduleAlarms,"ax",%progbits
 239              		.align	2
 240              		.global	rhea_rtc_ScheduleAlarms
 241              		.thumb
 242              		.thumb_func
 243              		.type	rhea_rtc_ScheduleAlarms, %function
 244              	rhea_rtc_ScheduleAlarms:
 245              	.LFB5:
  94:rhea\rtc/rtc.c **** 
  95:rhea\rtc/rtc.c **** void rhea_rtc_ScheduleAlarms(void) {
 246              		.loc 1 95 0
 247              		.cfi_startproc
 248              		@ args = 0, pretend = 0, frame = 16
 249              		@ frame_needed = 1, uses_anonymous_args = 0
 250 0000 F0B5     		push	{r4, r5, r6, r7, lr}
 251              		.cfi_def_cfa_offset 20
 252              		.cfi_offset 4, -20
 253              		.cfi_offset 5, -16
 254              		.cfi_offset 6, -12
 255              		.cfi_offset 7, -8
 256              		.cfi_offset 14, -4
 257 0002 85B0     		sub	sp, sp, #20
 258              		.cfi_def_cfa_offset 40
 259 0004 00AF     		add	r7, sp, #0
 260              		.cfi_def_cfa_register 7
  96:rhea\rtc/rtc.c ****     
  97:rhea\rtc/rtc.c ****     // Disabling alarm interrupts
  98:rhea\rtc/rtc.c ****     rhea_rtc_disableAlarms_impl();
 261              		.loc 1 98 0
 262 0006 FFF7FEFF 		bl	rhea_rtc_disableAlarms_impl
  99:rhea\rtc/rtc.c ****     
 100:rhea\rtc/rtc.c ****     // Initial parameters
 101:rhea\rtc/rtc.c ****     rhea_rtc_alarm closestAlarm = rhea_rtc_alarmRegistry[0];
 263              		.loc 1 101 0
 264 000a 2B4A     		ldr	r2, .L20
 265 000c 3B46     		mov	r3, r7
 266 000e 1068     		ldr	r0, [r2]	@ unaligned
 267 0010 5168     		ldr	r1, [r2, #4]	@ unaligned
 268 0012 9268     		ldr	r2, [r2, #8]	@ unaligned
 269 0014 07C3     		stmia	r3!, {r0, r1, r2}
 102:rhea\rtc/rtc.c ****     uint8_t        foundActive = 0;
 270              		.loc 1 102 0
 271 0016 0023     		movs	r3, #0
 272 0018 FB73     		strb	r3, [r7, #15]
 273              	.LBB2:
 103:rhea\rtc/rtc.c ****     
 104:rhea\rtc/rtc.c ****     // Performing minimum search to find the alarm to trigger the soonest
 105:rhea\rtc/rtc.c ****     for(uint16_t i = 1; i < RHEA_RTC_ALARM_REGISTRY_SIZE; i++) {
 274              		.loc 1 105 0
 275 001a 0123     		movs	r3, #1
 276 001c BB81     		strh	r3, [r7, #12]	@ movhi
 277 001e 39E0     		b	.L14
 278              	.L16:
ARM GAS  C:\Users\GYULAI~1\AppData\Local\Temp\ccZu9sJJ.s 			page 8


 106:rhea\rtc/rtc.c ****         if(rhea_rtc_alarmRegistry[i].active && 
 279              		.loc 1 106 0
 280 0020 BA89     		ldrh	r2, [r7, #12]
 281 0022 2549     		ldr	r1, .L20
 282 0024 1346     		mov	r3, r2
 283 0026 5B00     		lsls	r3, r3, #1
 284 0028 1344     		add	r3, r3, r2
 285 002a 9B00     		lsls	r3, r3, #2
 286 002c 0B44     		add	r3, r3, r1
 287 002e 0933     		adds	r3, r3, #9
 288 0030 1B78     		ldrb	r3, [r3]	@ zero_extendqisi2
 289 0032 002B     		cmp	r3, #0
 290 0034 2BD0     		beq	.L15
 107:rhea\rtc/rtc.c ****            rhea_rtc_toSeconds(rhea_rtc_alarmRegistry[i].datetime) < rhea_rtc_toSeconds(closestAlarm
 291              		.loc 1 107 0 discriminator 1
 292 0036 BA89     		ldrh	r2, [r7, #12]
 293 0038 1F49     		ldr	r1, .L20
 294 003a 1346     		mov	r3, r2
 295 003c 5B00     		lsls	r3, r3, #1
 296 003e 1344     		add	r3, r3, r2
 297 0040 9B00     		lsls	r3, r3, #2
 298 0042 0B44     		add	r3, r3, r1
 299 0044 1A68     		ldr	r2, [r3]	@ unaligned
 300 0046 0021     		movs	r1, #0
 301 0048 1146     		mov	r1, r2
 302 004a 5B68     		ldr	r3, [r3, #4]	@ unaligned
 303 004c 0022     		movs	r2, #0
 304 004e 1A46     		mov	r2, r3
 305 0050 0846     		mov	r0, r1
 306 0052 1146     		mov	r1, r2
 307 0054 FFF7FEFF 		bl	rhea_rtc_toSeconds
 308 0058 0546     		mov	r5, r0
 309 005a 0E46     		mov	r6, r1
 310 005c 3B46     		mov	r3, r7
 311 005e 93E80300 		ldmia	r3, {r0, r1}
 312 0062 FFF7FEFF 		bl	rhea_rtc_toSeconds
 313 0066 0346     		mov	r3, r0
 314 0068 0C46     		mov	r4, r1
 106:rhea\rtc/rtc.c ****         if(rhea_rtc_alarmRegistry[i].active && 
 315              		.loc 1 106 0 discriminator 1
 316 006a 9D42     		cmp	r5, r3
 317 006c 76EB0403 		sbcs	r3, r6, r4
 318 0070 0DDA     		bge	.L15
 108:rhea\rtc/rtc.c ****         {
 109:rhea\rtc/rtc.c ****             closestAlarm = rhea_rtc_alarmRegistry[i];
 319              		.loc 1 109 0
 320 0072 BA89     		ldrh	r2, [r7, #12]
 321 0074 1049     		ldr	r1, .L20
 322 0076 1346     		mov	r3, r2
 323 0078 5B00     		lsls	r3, r3, #1
 324 007a 1344     		add	r3, r3, r2
 325 007c 9B00     		lsls	r3, r3, #2
 326 007e CA18     		adds	r2, r1, r3
 327 0080 3B46     		mov	r3, r7
 328 0082 1068     		ldr	r0, [r2]	@ unaligned
 329 0084 5168     		ldr	r1, [r2, #4]	@ unaligned
 330 0086 9268     		ldr	r2, [r2, #8]	@ unaligned
ARM GAS  C:\Users\GYULAI~1\AppData\Local\Temp\ccZu9sJJ.s 			page 9


 331 0088 07C3     		stmia	r3!, {r0, r1, r2}
 110:rhea\rtc/rtc.c ****             foundActive = 1;
 332              		.loc 1 110 0
 333 008a 0123     		movs	r3, #1
 334 008c FB73     		strb	r3, [r7, #15]
 335              	.L15:
 105:rhea\rtc/rtc.c ****         if(rhea_rtc_alarmRegistry[i].active && 
 336              		.loc 1 105 0 discriminator 2
 337 008e BB89     		ldrh	r3, [r7, #12]
 338 0090 0133     		adds	r3, r3, #1
 339 0092 BB81     		strh	r3, [r7, #12]	@ movhi
 340              	.L14:
 105:rhea\rtc/rtc.c ****         if(rhea_rtc_alarmRegistry[i].active && 
 341              		.loc 1 105 0 is_stmt 0 discriminator 1
 342 0094 BB89     		ldrh	r3, [r7, #12]
 343 0096 1F2B     		cmp	r3, #31
 344 0098 C2D9     		bls	.L16
 345              	.LBE2:
 111:rhea\rtc/rtc.c ****         }
 112:rhea\rtc/rtc.c ****     }
 113:rhea\rtc/rtc.c ****         
 114:rhea\rtc/rtc.c ****     // Checking whether an active alarm is found
 115:rhea\rtc/rtc.c ****     if(!foundActive) return;
 346              		.loc 1 115 0 is_stmt 1
 347 009a FB7B     		ldrb	r3, [r7, #15]	@ zero_extendqisi2
 348 009c 002B     		cmp	r3, #0
 349 009e 07D0     		beq	.L19
 116:rhea\rtc/rtc.c **** 
 117:rhea\rtc/rtc.c ****     // Installing alarm to hardware
 118:rhea\rtc/rtc.c ****     rhea_rtc_setAlarmDatetime_impl(closestAlarm.datetime);
 350              		.loc 1 118 0
 351 00a0 3B46     		mov	r3, r7
 352 00a2 93E80300 		ldmia	r3, {r0, r1}
 353 00a6 FFF7FEFF 		bl	rhea_rtc_setAlarmDatetime_impl
 119:rhea\rtc/rtc.c ****     rhea_rtc_enableAlarms_impl();
 354              		.loc 1 119 0
 355 00aa FFF7FEFF 		bl	rhea_rtc_enableAlarms_impl
 356 00ae 00E0     		b	.L13
 357              	.L19:
 115:rhea\rtc/rtc.c **** 
 358              		.loc 1 115 0
 359 00b0 00BF     		nop
 360              	.L13:
 120:rhea\rtc/rtc.c **** }
 361              		.loc 1 120 0
 362 00b2 1437     		adds	r7, r7, #20
 363              		.cfi_def_cfa_offset 20
 364 00b4 BD46     		mov	sp, r7
 365              		.cfi_def_cfa_register 13
 366              		@ sp needed
 367 00b6 F0BD     		pop	{r4, r5, r6, r7, pc}
 368              	.L21:
 369              		.align	2
 370              	.L20:
 371 00b8 00000000 		.word	rhea_rtc_alarmRegistry
 372              		.cfi_endproc
 373              	.LFE5:
ARM GAS  C:\Users\GYULAI~1\AppData\Local\Temp\ccZu9sJJ.s 			page 10


 374              		.size	rhea_rtc_ScheduleAlarms, .-rhea_rtc_ScheduleAlarms
 375              		.section	.text.rhea_rtc_AddAlarm,"ax",%progbits
 376              		.align	2
 377              		.global	rhea_rtc_AddAlarm
 378              		.thumb
 379              		.thumb_func
 380              		.type	rhea_rtc_AddAlarm, %function
 381              	rhea_rtc_AddAlarm:
 382              	.LFB6:
 121:rhea\rtc/rtc.c **** 
 122:rhea\rtc/rtc.c **** int16_t rhea_rtc_AddAlarm(rhea_rtc_datetime datetime, uint8_t recurring, uint8_t mode, uint8_t pers
 123:rhea\rtc/rtc.c ****                           rhea_rtc_alarmCallback callback) 
 124:rhea\rtc/rtc.c **** {
 383              		.loc 1 124 0
 384              		.cfi_startproc
 385              		@ args = 8, pretend = 0, frame = 40
 386              		@ frame_needed = 1, uses_anonymous_args = 0
 387 0000 90B5     		push	{r4, r7, lr}
 388              		.cfi_def_cfa_offset 12
 389              		.cfi_offset 4, -12
 390              		.cfi_offset 7, -8
 391              		.cfi_offset 14, -4
 392 0002 8BB0     		sub	sp, sp, #44
 393              		.cfi_def_cfa_offset 56
 394 0004 00AF     		add	r7, sp, #0
 395              		.cfi_def_cfa_register 7
 396 0006 07F10804 		add	r4, r7, #8
 397 000a 84E80300 		stmia	r4, {r0, r1}
 398 000e 1146     		mov	r1, r2
 399 0010 1A46     		mov	r2, r3
 400 0012 0B46     		mov	r3, r1
 401 0014 FB71     		strb	r3, [r7, #7]
 402 0016 1346     		mov	r3, r2
 403 0018 BB71     		strb	r3, [r7, #6]
 125:rhea\rtc/rtc.c ****     // Constructing alarm object
 126:rhea\rtc/rtc.c ****     rhea_rtc_alarm alarm = {datetime, recurring, 1, mode};
 404              		.loc 1 126 0
 405 001a 07F11403 		add	r3, r7, #20
 406 001e 07F10802 		add	r2, r7, #8
 407 0022 92E80300 		ldmia	r2, {r0, r1}
 408 0026 83E80300 		stmia	r3, {r0, r1}
 409 002a FB79     		ldrb	r3, [r7, #7]
 410 002c 3B77     		strb	r3, [r7, #28]
 411 002e 0123     		movs	r3, #1
 412 0030 7B77     		strb	r3, [r7, #29]
 413 0032 BB79     		ldrb	r3, [r7, #6]
 414 0034 BB77     		strb	r3, [r7, #30]
 127:rhea\rtc/rtc.c ****     
 128:rhea\rtc/rtc.c ****     // Determining start index based on persistency
 129:rhea\rtc/rtc.c ****     uint16_t start = persistent ? 0 : RHEA_RTC_HARDWARE_ALARM_COUNT;
 415              		.loc 1 129 0
 416 0036 97F83830 		ldrb	r3, [r7, #56]	@ zero_extendqisi2
 417 003a 002B     		cmp	r3, #0
 418 003c 01D0     		beq	.L23
 419              		.loc 1 129 0 is_stmt 0 discriminator 1
 420 003e 0023     		movs	r3, #0
 421 0040 00E0     		b	.L24
ARM GAS  C:\Users\GYULAI~1\AppData\Local\Temp\ccZu9sJJ.s 			page 11


 422              	.L23:
 423              		.loc 1 129 0 discriminator 2
 424 0042 0823     		movs	r3, #8
 425              	.L24:
 426              		.loc 1 129 0 discriminator 4
 427 0044 BB84     		strh	r3, [r7, #36]	@ movhi
 130:rhea\rtc/rtc.c ****     uint16_t end = persistent ? RHEA_RTC_HARDWARE_ALARM_COUNT : RHEA_RTC_ALARM_REGISTRY_SIZE;
 428              		.loc 1 130 0 is_stmt 1 discriminator 4
 429 0046 97F83830 		ldrb	r3, [r7, #56]	@ zero_extendqisi2
 430 004a 002B     		cmp	r3, #0
 431 004c 01D0     		beq	.L25
 432              		.loc 1 130 0 is_stmt 0 discriminator 1
 433 004e 0823     		movs	r3, #8
 434 0050 00E0     		b	.L26
 435              	.L25:
 436              		.loc 1 130 0 discriminator 2
 437 0052 2023     		movs	r3, #32
 438              	.L26:
 439              		.loc 1 130 0 discriminator 4
 440 0054 7B84     		strh	r3, [r7, #34]	@ movhi
 441              	.LBB3:
 131:rhea\rtc/rtc.c ****     
 132:rhea\rtc/rtc.c ****     // Finding empty alarm slot in the registry
 133:rhea\rtc/rtc.c ****     for(uint16_t i = start; i < end; i++) {
 442              		.loc 1 133 0 is_stmt 1 discriminator 4
 443 0056 BB8C     		ldrh	r3, [r7, #36]	@ movhi
 444 0058 FB84     		strh	r3, [r7, #38]	@ movhi
 445 005a 2BE0     		b	.L27
 446              	.L31:
 134:rhea\rtc/rtc.c ****         if(!rhea_rtc_alarmRegistry[i].active) {
 447              		.loc 1 134 0
 448 005c FA8C     		ldrh	r2, [r7, #38]
 449 005e 1A49     		ldr	r1, .L33
 450 0060 1346     		mov	r3, r2
 451 0062 5B00     		lsls	r3, r3, #1
 452 0064 1344     		add	r3, r3, r2
 453 0066 9B00     		lsls	r3, r3, #2
 454 0068 0B44     		add	r3, r3, r1
 455 006a 0933     		adds	r3, r3, #9
 456 006c 1B78     		ldrb	r3, [r3]	@ zero_extendqisi2
 457 006e 002B     		cmp	r3, #0
 458 0070 1DD1     		bne	.L28
 135:rhea\rtc/rtc.c ****             
 136:rhea\rtc/rtc.c ****             // Registering alarm
 137:rhea\rtc/rtc.c ****             rhea_rtc_alarmRegistry[i] = alarm;
 459              		.loc 1 137 0
 460 0072 FA8C     		ldrh	r2, [r7, #38]
 461 0074 1449     		ldr	r1, .L33
 462 0076 1346     		mov	r3, r2
 463 0078 5B00     		lsls	r3, r3, #1
 464 007a 1344     		add	r3, r3, r2
 465 007c 9B00     		lsls	r3, r3, #2
 466 007e 0B44     		add	r3, r3, r1
 467 0080 1C46     		mov	r4, r3
 468 0082 07F11403 		add	r3, r7, #20
 469 0086 07CB     		ldmia	r3!, {r0, r1, r2}
 470 0088 2060     		str	r0, [r4]	@ unaligned
ARM GAS  C:\Users\GYULAI~1\AppData\Local\Temp\ccZu9sJJ.s 			page 12


 471 008a 6160     		str	r1, [r4, #4]	@ unaligned
 472 008c A260     		str	r2, [r4, #8]	@ unaligned
 138:rhea\rtc/rtc.c ****             rhea_rtc_alarmCallbacks[i] = callback;
 473              		.loc 1 138 0
 474 008e FB8C     		ldrh	r3, [r7, #38]
 475 0090 0E49     		ldr	r1, .L33+4
 476 0092 FA6B     		ldr	r2, [r7, #60]
 477 0094 41F82320 		str	r2, [r1, r3, lsl #2]
 139:rhea\rtc/rtc.c ****             
 140:rhea\rtc/rtc.c ****             // Saving persistent alarm to external SRAM
 141:rhea\rtc/rtc.c ****             if(persistent) rhea_rtc_storeAlarms_impl();
 478              		.loc 1 141 0
 479 0098 97F83830 		ldrb	r3, [r7, #56]	@ zero_extendqisi2
 480 009c 002B     		cmp	r3, #0
 481 009e 01D0     		beq	.L29
 482              		.loc 1 141 0 is_stmt 0 discriminator 1
 483 00a0 FFF7FEFF 		bl	rhea_rtc_storeAlarms_impl
 484              	.L29:
 142:rhea\rtc/rtc.c ****             
 143:rhea\rtc/rtc.c ****             // Rescheduling alarms to hardware
 144:rhea\rtc/rtc.c ****             rhea_rtc_ScheduleAlarms();
 485              		.loc 1 144 0 is_stmt 1
 486 00a4 FFF7FEFF 		bl	rhea_rtc_ScheduleAlarms
 145:rhea\rtc/rtc.c ****             
 146:rhea\rtc/rtc.c ****             return i;
 487              		.loc 1 146 0
 488 00a8 B7F92630 		ldrsh	r3, [r7, #38]
 489 00ac 08E0     		b	.L32
 490              	.L28:
 133:rhea\rtc/rtc.c ****         if(!rhea_rtc_alarmRegistry[i].active) {
 491              		.loc 1 133 0 discriminator 2
 492 00ae FB8C     		ldrh	r3, [r7, #38]
 493 00b0 0133     		adds	r3, r3, #1
 494 00b2 FB84     		strh	r3, [r7, #38]	@ movhi
 495              	.L27:
 133:rhea\rtc/rtc.c ****         if(!rhea_rtc_alarmRegistry[i].active) {
 496              		.loc 1 133 0 is_stmt 0 discriminator 1
 497 00b4 FA8C     		ldrh	r2, [r7, #38]
 498 00b6 7B8C     		ldrh	r3, [r7, #34]
 499 00b8 9A42     		cmp	r2, r3
 500 00ba CFD3     		bcc	.L31
 501              	.LBE3:
 147:rhea\rtc/rtc.c ****         }
 148:rhea\rtc/rtc.c ****     }
 149:rhea\rtc/rtc.c ****     
 150:rhea\rtc/rtc.c ****     return -1;
 502              		.loc 1 150 0 is_stmt 1
 503 00bc 4FF0FF33 		mov	r3, #-1
 504              	.L32:
 151:rhea\rtc/rtc.c **** }
 505              		.loc 1 151 0 discriminator 1
 506 00c0 1846     		mov	r0, r3
 507 00c2 2C37     		adds	r7, r7, #44
 508              		.cfi_def_cfa_offset 12
 509 00c4 BD46     		mov	sp, r7
 510              		.cfi_def_cfa_register 13
 511              		@ sp needed
ARM GAS  C:\Users\GYULAI~1\AppData\Local\Temp\ccZu9sJJ.s 			page 13


 512 00c6 90BD     		pop	{r4, r7, pc}
 513              	.L34:
 514              		.align	2
 515              	.L33:
 516 00c8 00000000 		.word	rhea_rtc_alarmRegistry
 517 00cc 00000000 		.word	rhea_rtc_alarmCallbacks
 518              		.cfi_endproc
 519              	.LFE6:
 520              		.size	rhea_rtc_AddAlarm, .-rhea_rtc_AddAlarm
 521              		.section	.text.rhea_rtc_DeleteAlarm,"ax",%progbits
 522              		.align	2
 523              		.global	rhea_rtc_DeleteAlarm
 524              		.thumb
 525              		.thumb_func
 526              		.type	rhea_rtc_DeleteAlarm, %function
 527              	rhea_rtc_DeleteAlarm:
 528              	.LFB7:
 152:rhea\rtc/rtc.c **** 
 153:rhea\rtc/rtc.c **** void rhea_rtc_DeleteAlarm(uint16_t id) {
 529              		.loc 1 153 0
 530              		.cfi_startproc
 531              		@ args = 0, pretend = 0, frame = 8
 532              		@ frame_needed = 1, uses_anonymous_args = 0
 533 0000 80B5     		push	{r7, lr}
 534              		.cfi_def_cfa_offset 8
 535              		.cfi_offset 7, -8
 536              		.cfi_offset 14, -4
 537 0002 82B0     		sub	sp, sp, #8
 538              		.cfi_def_cfa_offset 16
 539 0004 00AF     		add	r7, sp, #0
 540              		.cfi_def_cfa_register 7
 541 0006 0346     		mov	r3, r0
 542 0008 FB80     		strh	r3, [r7, #6]	@ movhi
 154:rhea\rtc/rtc.c ****     
 155:rhea\rtc/rtc.c ****     // Checking alarm ID
 156:rhea\rtc/rtc.c ****     if(id >= RHEA_RTC_ALARM_REGISTRY_SIZE) return;
 543              		.loc 1 156 0
 544 000a FB88     		ldrh	r3, [r7, #6]
 545 000c 1F2B     		cmp	r3, #31
 546 000e 16D8     		bhi	.L39
 157:rhea\rtc/rtc.c ****     
 158:rhea\rtc/rtc.c ****     // Deactivating alarm in the registry
 159:rhea\rtc/rtc.c ****     rhea_rtc_alarmRegistry[id].active = 0;
 547              		.loc 1 159 0
 548 0010 FA88     		ldrh	r2, [r7, #6]
 549 0012 0D49     		ldr	r1, .L40
 550 0014 1346     		mov	r3, r2
 551 0016 5B00     		lsls	r3, r3, #1
 552 0018 1344     		add	r3, r3, r2
 553 001a 9B00     		lsls	r3, r3, #2
 554 001c 0B44     		add	r3, r3, r1
 555 001e 0933     		adds	r3, r3, #9
 556 0020 0022     		movs	r2, #0
 557 0022 1A70     		strb	r2, [r3]
 160:rhea\rtc/rtc.c ****     rhea_rtc_alarmCallbacks[id] = NULL;
 558              		.loc 1 160 0
 559 0024 FB88     		ldrh	r3, [r7, #6]
ARM GAS  C:\Users\GYULAI~1\AppData\Local\Temp\ccZu9sJJ.s 			page 14


 560 0026 094A     		ldr	r2, .L40+4
 561 0028 0021     		movs	r1, #0
 562 002a 42F82310 		str	r1, [r2, r3, lsl #2]
 161:rhea\rtc/rtc.c ****     
 162:rhea\rtc/rtc.c ****     // Deactivating persistent alarm in the RTC SRAM
 163:rhea\rtc/rtc.c ****     if(id < RHEA_RTC_HARDWARE_ALARM_COUNT) rhea_rtc_storeAlarms_impl();
 563              		.loc 1 163 0
 564 002e FB88     		ldrh	r3, [r7, #6]
 565 0030 072B     		cmp	r3, #7
 566 0032 01D8     		bhi	.L38
 567              		.loc 1 163 0 is_stmt 0 discriminator 1
 568 0034 FFF7FEFF 		bl	rhea_rtc_storeAlarms_impl
 569              	.L38:
 164:rhea\rtc/rtc.c ****     
 165:rhea\rtc/rtc.c ****     // Rescheduling alarms to hardware
 166:rhea\rtc/rtc.c ****     rhea_rtc_ScheduleAlarms();
 570              		.loc 1 166 0 is_stmt 1
 571 0038 FFF7FEFF 		bl	rhea_rtc_ScheduleAlarms
 572 003c 00E0     		b	.L35
 573              	.L39:
 156:rhea\rtc/rtc.c ****     
 574              		.loc 1 156 0
 575 003e 00BF     		nop
 576              	.L35:
 167:rhea\rtc/rtc.c **** }
 577              		.loc 1 167 0
 578 0040 0837     		adds	r7, r7, #8
 579              		.cfi_def_cfa_offset 8
 580 0042 BD46     		mov	sp, r7
 581              		.cfi_def_cfa_register 13
 582              		@ sp needed
 583 0044 80BD     		pop	{r7, pc}
 584              	.L41:
 585 0046 00BF     		.align	2
 586              	.L40:
 587 0048 00000000 		.word	rhea_rtc_alarmRegistry
 588 004c 00000000 		.word	rhea_rtc_alarmCallbacks
 589              		.cfi_endproc
 590              	.LFE7:
 591              		.size	rhea_rtc_DeleteAlarm, .-rhea_rtc_DeleteAlarm
 592              		.section	.text.rhea_rtc_HandleAlarms,"ax",%progbits
 593              		.align	2
 594              		.global	rhea_rtc_HandleAlarms
 595              		.thumb
 596              		.thumb_func
 597              		.type	rhea_rtc_HandleAlarms, %function
 598              	rhea_rtc_HandleAlarms:
 599              	.LFB8:
 168:rhea\rtc/rtc.c **** 
 169:rhea\rtc/rtc.c **** void rhea_rtc_HandleAlarms(void) {
 600              		.loc 1 169 0
 601              		.cfi_startproc
 602              		@ args = 0, pretend = 0, frame = 32
 603              		@ frame_needed = 1, uses_anonymous_args = 0
 604 0000 90B5     		push	{r4, r7, lr}
 605              		.cfi_def_cfa_offset 12
 606              		.cfi_offset 4, -12
ARM GAS  C:\Users\GYULAI~1\AppData\Local\Temp\ccZu9sJJ.s 			page 15


 607              		.cfi_offset 7, -8
 608              		.cfi_offset 14, -4
 609 0002 89B0     		sub	sp, sp, #36
 610              		.cfi_def_cfa_offset 48
 611 0004 00AF     		add	r7, sp, #0
 612              		.cfi_def_cfa_register 7
 170:rhea\rtc/rtc.c ****     
 171:rhea\rtc/rtc.c ****     // Checking interrupt indicator
 172:rhea\rtc/rtc.c ****     if(!rhea_rtc_alarmOccured) return;
 613              		.loc 1 172 0
 614 0006 3A4B     		ldr	r3, .L51
 615 0008 1B78     		ldrb	r3, [r3]
 616 000a DBB2     		uxtb	r3, r3
 617 000c 002B     		cmp	r3, #0
 618 000e 6BD0     		beq	.L50
 173:rhea\rtc/rtc.c ****     
 174:rhea\rtc/rtc.c ****     // Clearing interrupt indicator
 175:rhea\rtc/rtc.c ****     rhea_rtc_alarmOccured = 0;
 619              		.loc 1 175 0
 620 0010 374B     		ldr	r3, .L51
 621 0012 0022     		movs	r2, #0
 622 0014 1A70     		strb	r2, [r3]
 176:rhea\rtc/rtc.c ****     
 177:rhea\rtc/rtc.c ****     // Current timestamp
 178:rhea\rtc/rtc.c ****     int64_t nowSeconds = rhea_rtc_toSeconds(rhea_rtc_Now());
 623              		.loc 1 178 0
 624 0016 3B46     		mov	r3, r7
 625 0018 1846     		mov	r0, r3
 626 001a FFF7FEFF 		bl	rhea_rtc_Now
 627 001e 3B46     		mov	r3, r7
 628 0020 93E80300 		ldmia	r3, {r0, r1}
 629 0024 FFF7FEFF 		bl	rhea_rtc_toSeconds
 630 0028 C7E90401 		strd	r0, [r7, #16]
 631              	.LBB4:
 179:rhea\rtc/rtc.c ****     
 180:rhea\rtc/rtc.c ****     // Checking active alarms 
 181:rhea\rtc/rtc.c ****     for(uint16_t i = 0; i < RHEA_RTC_ALARM_REGISTRY_SIZE; i++) {
 632              		.loc 1 181 0
 633 002c 0023     		movs	r3, #0
 634 002e FB83     		strh	r3, [r7, #30]	@ movhi
 635 0030 54E0     		b	.L45
 636              	.L49:
 182:rhea\rtc/rtc.c ****         
 183:rhea\rtc/rtc.c ****         // Determining if the alarm is active and should have triggered by now
 184:rhea\rtc/rtc.c ****         if(rhea_rtc_alarmRegistry[i].active && 
 637              		.loc 1 184 0
 638 0032 FA8B     		ldrh	r2, [r7, #30]
 639 0034 2F49     		ldr	r1, .L51+4
 640 0036 1346     		mov	r3, r2
 641 0038 5B00     		lsls	r3, r3, #1
 642 003a 1344     		add	r3, r3, r2
 643 003c 9B00     		lsls	r3, r3, #2
 644 003e 0B44     		add	r3, r3, r1
 645 0040 0933     		adds	r3, r3, #9
 646 0042 1B78     		ldrb	r3, [r3]	@ zero_extendqisi2
 647 0044 002B     		cmp	r3, #0
 648 0046 46D0     		beq	.L46
ARM GAS  C:\Users\GYULAI~1\AppData\Local\Temp\ccZu9sJJ.s 			page 16


 185:rhea\rtc/rtc.c ****            rhea_rtc_toSeconds(rhea_rtc_alarmRegistry[i].datetime) < nowSeconds) 
 649              		.loc 1 185 0 discriminator 1
 650 0048 FA8B     		ldrh	r2, [r7, #30]
 651 004a 2A49     		ldr	r1, .L51+4
 652 004c 1346     		mov	r3, r2
 653 004e 5B00     		lsls	r3, r3, #1
 654 0050 1344     		add	r3, r3, r2
 655 0052 9B00     		lsls	r3, r3, #2
 656 0054 0B44     		add	r3, r3, r1
 657 0056 1A68     		ldr	r2, [r3]	@ unaligned
 658 0058 0021     		movs	r1, #0
 659 005a 1146     		mov	r1, r2
 660 005c 5B68     		ldr	r3, [r3, #4]	@ unaligned
 661 005e 0022     		movs	r2, #0
 662 0060 1A46     		mov	r2, r3
 663 0062 0846     		mov	r0, r1
 664 0064 1146     		mov	r1, r2
 665 0066 FFF7FEFF 		bl	rhea_rtc_toSeconds
 666 006a 0A46     		mov	r2, r1
 667 006c 0146     		mov	r1, r0
 184:rhea\rtc/rtc.c ****            rhea_rtc_toSeconds(rhea_rtc_alarmRegistry[i].datetime) < nowSeconds) 
 668              		.loc 1 184 0 discriminator 1
 669 006e D7E90434 		ldrd	r3, [r7, #16]
 670 0072 9942     		cmp	r1, r3
 671 0074 72EB0403 		sbcs	r3, r2, r4
 672 0078 2DDA     		bge	.L46
 186:rhea\rtc/rtc.c ****         {    
 187:rhea\rtc/rtc.c ****             // Activating callback
 188:rhea\rtc/rtc.c ****             if(rhea_rtc_alarmCallbacks[i]) {
 673              		.loc 1 188 0
 674 007a FB8B     		ldrh	r3, [r7, #30]
 675 007c 1E4A     		ldr	r2, .L51+8
 676 007e 52F82330 		ldr	r3, [r2, r3, lsl #2]
 677 0082 002B     		cmp	r3, #0
 678 0084 04D0     		beq	.L47
 189:rhea\rtc/rtc.c ****                 rhea_rtc_alarmCallbacks[i]();
 679              		.loc 1 189 0
 680 0086 FB8B     		ldrh	r3, [r7, #30]
 681 0088 1B4A     		ldr	r2, .L51+8
 682 008a 52F82330 		ldr	r3, [r2, r3, lsl #2]
 683 008e 9847     		blx	r3
 684              	.L47:
 190:rhea\rtc/rtc.c ****             }
 191:rhea\rtc/rtc.c ****             
 192:rhea\rtc/rtc.c ****             // Deleting alarm if it's one-shot 
 193:rhea\rtc/rtc.c ****             if(!rhea_rtc_alarmRegistry[i].recurring) {
 685              		.loc 1 193 0
 686 0090 FA8B     		ldrh	r2, [r7, #30]
 687 0092 1849     		ldr	r1, .L51+4
 688 0094 1346     		mov	r3, r2
 689 0096 5B00     		lsls	r3, r3, #1
 690 0098 1344     		add	r3, r3, r2
 691 009a 9B00     		lsls	r3, r3, #2
 692 009c 0B44     		add	r3, r3, r1
 693 009e 0833     		adds	r3, r3, #8
 694 00a0 1B78     		ldrb	r3, [r3]	@ zero_extendqisi2
 695 00a2 002B     		cmp	r3, #0
ARM GAS  C:\Users\GYULAI~1\AppData\Local\Temp\ccZu9sJJ.s 			page 17


 696 00a4 04D1     		bne	.L48
 194:rhea\rtc/rtc.c ****                 rhea_rtc_DeleteAlarm(i);
 697              		.loc 1 194 0
 698 00a6 FB8B     		ldrh	r3, [r7, #30]
 699 00a8 1846     		mov	r0, r3
 700 00aa FFF7FEFF 		bl	rhea_rtc_DeleteAlarm
 701 00ae 12E0     		b	.L46
 702              	.L48:
 195:rhea\rtc/rtc.c ****             }
 196:rhea\rtc/rtc.c ****             // Restarting alarm if it's recurring
 197:rhea\rtc/rtc.c ****             else {
 198:rhea\rtc/rtc.c ****                 rhea_rtc_normalizeAlarm(&rhea_rtc_alarmRegistry[i], rhea_rtc_Now());    
 703              		.loc 1 198 0
 704 00b0 FA8B     		ldrh	r2, [r7, #30]
 705 00b2 1346     		mov	r3, r2
 706 00b4 5B00     		lsls	r3, r3, #1
 707 00b6 1344     		add	r3, r3, r2
 708 00b8 9B00     		lsls	r3, r3, #2
 709 00ba 0E4A     		ldr	r2, .L51+4
 710 00bc 9C18     		adds	r4, r3, r2
 711 00be 07F10803 		add	r3, r7, #8
 712 00c2 1846     		mov	r0, r3
 713 00c4 FFF7FEFF 		bl	rhea_rtc_Now
 714 00c8 07F10803 		add	r3, r7, #8
 715 00cc 93E80600 		ldmia	r3, {r1, r2}
 716 00d0 2046     		mov	r0, r4
 717 00d2 FFF7FEFF 		bl	rhea_rtc_normalizeAlarm
 718              	.L46:
 181:rhea\rtc/rtc.c ****         
 719              		.loc 1 181 0 discriminator 2
 720 00d6 FB8B     		ldrh	r3, [r7, #30]
 721 00d8 0133     		adds	r3, r3, #1
 722 00da FB83     		strh	r3, [r7, #30]	@ movhi
 723              	.L45:
 181:rhea\rtc/rtc.c ****         
 724              		.loc 1 181 0 is_stmt 0 discriminator 1
 725 00dc FB8B     		ldrh	r3, [r7, #30]
 726 00de 1F2B     		cmp	r3, #31
 727 00e0 A7D9     		bls	.L49
 728              	.LBE4:
 199:rhea\rtc/rtc.c ****             }
 200:rhea\rtc/rtc.c ****         }
 201:rhea\rtc/rtc.c ****     }
 202:rhea\rtc/rtc.c ****     
 203:rhea\rtc/rtc.c ****     // Rescheduling alarms to hardware
 204:rhea\rtc/rtc.c ****     rhea_rtc_ScheduleAlarms();
 729              		.loc 1 204 0 is_stmt 1
 730 00e2 FFF7FEFF 		bl	rhea_rtc_ScheduleAlarms
 731 00e6 00E0     		b	.L42
 732              	.L50:
 172:rhea\rtc/rtc.c ****     
 733              		.loc 1 172 0
 734 00e8 00BF     		nop
 735              	.L42:
 205:rhea\rtc/rtc.c **** }
 736              		.loc 1 205 0
 737 00ea 2437     		adds	r7, r7, #36
ARM GAS  C:\Users\GYULAI~1\AppData\Local\Temp\ccZu9sJJ.s 			page 18


 738              		.cfi_def_cfa_offset 12
 739 00ec BD46     		mov	sp, r7
 740              		.cfi_def_cfa_register 13
 741              		@ sp needed
 742 00ee 90BD     		pop	{r4, r7, pc}
 743              	.L52:
 744              		.align	2
 745              	.L51:
 746 00f0 80000000 		.word	rhea_rtc_alarmOccured
 747 00f4 00000000 		.word	rhea_rtc_alarmRegistry
 748 00f8 00000000 		.word	rhea_rtc_alarmCallbacks
 749              		.cfi_endproc
 750              	.LFE8:
 751              		.size	rhea_rtc_HandleAlarms, .-rhea_rtc_HandleAlarms
 752              		.section	.text.rhea_rtc_alarmISR,"ax",%progbits
 753              		.align	2
 754              		.global	rhea_rtc_alarmISR
 755              		.thumb
 756              		.thumb_func
 757              		.type	rhea_rtc_alarmISR, %function
 758              	rhea_rtc_alarmISR:
 759              	.LFB9:
 206:rhea\rtc/rtc.c **** 
 207:rhea\rtc/rtc.c **** void rhea_rtc_alarmISR(void) {
 760              		.loc 1 207 0
 761              		.cfi_startproc
 762              		@ args = 0, pretend = 0, frame = 0
 763              		@ frame_needed = 1, uses_anonymous_args = 0
 764              		@ link register save eliminated.
 765 0000 80B4     		push	{r7}
 766              		.cfi_def_cfa_offset 4
 767              		.cfi_offset 7, -4
 768 0002 00AF     		add	r7, sp, #0
 769              		.cfi_def_cfa_register 7
 208:rhea\rtc/rtc.c ****     rhea_rtc_alarmOccured = 1;   
 770              		.loc 1 208 0
 771 0004 034B     		ldr	r3, .L54
 772 0006 0122     		movs	r2, #1
 773 0008 1A70     		strb	r2, [r3]
 209:rhea\rtc/rtc.c **** }
 774              		.loc 1 209 0
 775 000a 00BF     		nop
 776 000c BD46     		mov	sp, r7
 777              		.cfi_def_cfa_register 13
 778              		@ sp needed
 779 000e 80BC     		pop	{r7}
 780              		.cfi_restore 7
 781              		.cfi_def_cfa_offset 0
 782 0010 7047     		bx	lr
 783              	.L55:
 784 0012 00BF     		.align	2
 785              	.L54:
 786 0014 80000000 		.word	rhea_rtc_alarmOccured
 787              		.cfi_endproc
 788              	.LFE9:
 789              		.size	rhea_rtc_alarmISR, .-rhea_rtc_alarmISR
 790              		.text
ARM GAS  C:\Users\GYULAI~1\AppData\Local\Temp\ccZu9sJJ.s 			page 19


 791              	.Letext0:
 792              		.file 2 "e:\\cypress\\psoc creator\\4.2\\psoc creator\\import\\gnu\\arm\\5.4.1\\arm-none-eabi\\inc
 793              		.file 3 "e:\\cypress\\psoc creator\\4.2\\psoc creator\\import\\gnu\\arm\\5.4.1\\arm-none-eabi\\inc
 794              		.file 4 "rhea\\rtc\\datetime/datetime.h"
 795              		.file 5 "rhea\\rtc\\alarm/alarm.h"
 796              		.file 6 "rhea\\rtc\\rtc.h"