ARM GAS  C:\Users\GYULAI~1\AppData\Local\Temp\cc2oeyFO.s 			page 1


   1              		.syntax unified
   2              		.cpu cortex-m3
   3              		.fpu softvfp
   4              		.eabi_attribute 20, 1
   5              		.eabi_attribute 21, 1
   6              		.eabi_attribute 23, 3
   7              		.eabi_attribute 24, 1
   8              		.eabi_attribute 25, 1
   9              		.eabi_attribute 26, 1
  10              		.eabi_attribute 30, 1
  11              		.eabi_attribute 34, 1
  12              		.eabi_attribute 18, 4
  13              		.thumb
  14              		.syntax unified
  15              		.file	"rtc_impl.c"
  16              		.text
  17              	.Ltext0:
  18              		.cfi_sections	.debug_frame
  19              		.section	.text.rhea_rtc_enableAlarms_impl,"ax",%progbits
  20              		.align	2
  21              		.global	rhea_rtc_enableAlarms_impl
  22              		.thumb
  23              		.thumb_func
  24              		.type	rhea_rtc_enableAlarms_impl, %function
  25              	rhea_rtc_enableAlarms_impl:
  26              	.LFB66:
  27              		.file 1 "rhea\\rtc\\rtc_impl.c"
   1:rhea\rtc/rtc_impl.c **** /*********************************************************************************
   2:rhea\rtc/rtc_impl.c ****  * Copyright (c) 2020 Peter Gyulai
   3:rhea\rtc/rtc_impl.c ****  *
   4:rhea\rtc/rtc_impl.c ****  * Permission is hereby granted, free of charge, to any person obtaining a copy
   5:rhea\rtc/rtc_impl.c ****  * of this software and associated documentation files (the "Software"), to deal
   6:rhea\rtc/rtc_impl.c ****  * in the Software without restriction, including without limitation the rights
   7:rhea\rtc/rtc_impl.c ****  * to use, copy, modify, merge, publish, distribute, sublicense, and/or sell
   8:rhea\rtc/rtc_impl.c ****  * copies of the Software, and to permit persons to whom the Software is
   9:rhea\rtc/rtc_impl.c ****  * furnished to do so, subject to the following conditions:
  10:rhea\rtc/rtc_impl.c ****  *
  11:rhea\rtc/rtc_impl.c ****  * The above copyright notice and this permission notice shall be included in all
  12:rhea\rtc/rtc_impl.c ****  * copies or substantial portions of the Software.
  13:rhea\rtc/rtc_impl.c ****  *
  14:rhea\rtc/rtc_impl.c ****  * THE SOFTWARE IS PROVIDED "AS IS", WITHOUT WARRANTY OF ANY KIND,
  15:rhea\rtc/rtc_impl.c ****  * EXPRESS OR IMPLIED, INCLUDING BUT NOT LIMITED TO THE WARRANTIES OF
  16:rhea\rtc/rtc_impl.c ****  * MERCHANTABILITY, FITNESS FOR A PARTICULAR PURPOSE AND NONINFRINGEMENT.
  17:rhea\rtc/rtc_impl.c ****  * IN NO EVENT SHALL THE AUTHORS OR COPYRIGHT HOLDERS BE LIABLE FOR ANY CLAIM,
  18:rhea\rtc/rtc_impl.c ****  * DAMAGES OR OTHER LIABILITY, WHETHER IN AN ACTION OF CONTRACT, TORT OR
  19:rhea\rtc/rtc_impl.c ****  * OTHERWISE, ARISING FROM, OUT OF OR IN CONNECTION WITH THE SOFTWARE OR THE USE
  20:rhea\rtc/rtc_impl.c ****  * OR OTHER DEALINGS IN THE SOFTWARE.
  21:rhea\rtc/rtc_impl.c **** **********************************************************************************/
  22:rhea\rtc/rtc_impl.c **** 
  23:rhea\rtc/rtc_impl.c **** /**
  24:rhea\rtc/rtc_impl.c ****  * @file    rtc_impl.c
  25:rhea\rtc/rtc_impl.c ****  * @author  Peter Gyulai
  26:rhea\rtc/rtc_impl.c ****  * @version 1.0.0
  27:rhea\rtc/rtc_impl.c ****  * @date    2020.04.19
  28:rhea\rtc/rtc_impl.c ****  * @brief   RTC driver implementation.
  29:rhea\rtc/rtc_impl.c ****  * @details
  30:rhea\rtc/rtc_impl.c ****  * This file contains the RTC driver implementation. Implement the driver 
ARM GAS  C:\Users\GYULAI~1\AppData\Local\Temp\cc2oeyFO.s 			page 2


  31:rhea\rtc/rtc_impl.c ****  * functionality here when porting to a new RTC target driver.
  32:rhea\rtc/rtc_impl.c ****  */
  33:rhea\rtc/rtc_impl.c **** 
  34:rhea\rtc/rtc_impl.c **** // Including global configuration
  35:rhea\rtc/rtc_impl.c **** #include "../rhea_config.h"
  36:rhea\rtc/rtc_impl.c **** 
  37:rhea\rtc/rtc_impl.c **** // Including header for function declarations
  38:rhea\rtc/rtc_impl.c **** #include "rtc_config.h"
  39:rhea\rtc/rtc_impl.c **** #include "rtc_impl.h"
  40:rhea\rtc/rtc_impl.c **** #include "rtc.h"
  41:rhea\rtc/rtc_impl.c **** 
  42:rhea\rtc/rtc_impl.c **** // Target specific includes
  43:rhea\rtc/rtc_impl.c **** #if defined(RHEA_TARGET_PSOC5LP)			
  44:rhea\rtc/rtc_impl.c **** 	#include "project.h"
  45:rhea\rtc/rtc_impl.c **** #elif defined(RHEA_TARGET_ESP32)
  46:rhea\rtc/rtc_impl.c **** #endif
  47:rhea\rtc/rtc_impl.c **** 
  48:rhea\rtc/rtc_impl.c **** // Implementation for MCP7940N RTC target
  49:rhea\rtc/rtc_impl.c **** #if defined(RHEA_RTC_TARGET_MCP7940N)
  50:rhea\rtc/rtc_impl.c **** 
  51:rhea\rtc/rtc_impl.c **** 	// Checking configuration
  52:rhea\rtc/rtc_impl.c **** 	#if RHEA_RTC_HARDWARE_ALARM_COUNT > 8 
  53:rhea\rtc/rtc_impl.c **** 		#error MCP7940N driver does not support more than 8 hardware stored alarms.
  54:rhea\rtc/rtc_impl.c **** 	#endif
  55:rhea\rtc/rtc_impl.c **** 
  56:rhea\rtc/rtc_impl.c **** 	// Standard includes - memset()
  57:rhea\rtc/rtc_impl.c **** 	#include <string.h>
  58:rhea\rtc/rtc_impl.c **** 
  59:rhea\rtc/rtc_impl.c **** 	// Include RTC driver
  60:rhea\rtc/rtc_impl.c **** 	#include "../drivers/MCP7940N/MCP7940N.h"
  61:rhea\rtc/rtc_impl.c **** 
  62:rhea\rtc/rtc_impl.c **** 	// Include I2C driver
  63:rhea\rtc/rtc_impl.c **** 	#include "../i2c/i2c.h"
  64:rhea\rtc/rtc_impl.c **** 
  65:rhea\rtc/rtc_impl.c **** 	/**
  66:rhea\rtc/rtc_impl.c **** 	 * @brief 
  67:rhea\rtc/rtc_impl.c **** 	 * This structure is an extended representation of the alarm registers in
  68:rhea\rtc/rtc_impl.c **** 	 * the MCP7940N RTC chip. 
  69:rhea\rtc/rtc_impl.c **** 	 * @details 
  70:rhea\rtc/rtc_impl.c **** 	 * The bytes from ALMSEC to ALMMTH are mostly directly corresponding to the device
  71:rhea\rtc/rtc_impl.c **** 	 * alarm registers and are handled by using the MCP7940N driver library macros.
  72:rhea\rtc/rtc_impl.c **** 	 * The alarm mode bits of the ALMWKDAY field are storing a #rhea_rtc_alarmMode 
  73:rhea\rtc/rtc_impl.c **** 	 * value, which is NOT corresponding with the value to be stored in the MCP7940N.
  74:rhea\rtc/rtc_impl.c **** 	 * The extra field ALMYEAR is an extension to support alarms more than one year
  75:rhea\rtc/rtc_impl.c **** 	 * into the future. The lower 12 bits of ALMYEAR describe the year of the alarm
  76:rhea\rtc/rtc_impl.c **** 	 * in unsigned binary format. The upper 4 bits are flags associated with the
  77:rhea\rtc/rtc_impl.c **** 	 * alarm, accessible with the previously declared bitmask macros:
  78:rhea\rtc/rtc_impl.c **** 	 * - ACTIVE: Describes that the alarm is active or can be replaced.
  79:rhea\rtc/rtc_impl.c **** 	 * - RECURRING: Describes that the alarm is recurring after being reset.
  80:rhea\rtc/rtc_impl.c **** 	 * The structure is exactly 64 bits wide, so exactly 8 can be placed in the 
  81:rhea\rtc/rtc_impl.c **** 	 * MCP7940N's 64 byte SRAM memory, to be used as persistent alarms.
  82:rhea\rtc/rtc_impl.c **** 	 */
  83:rhea\rtc/rtc_impl.c **** 	struct rhea_rtc_alarmRegisterStruct {
  84:rhea\rtc/rtc_impl.c **** 	    uint8_t  ALMSEC;    /**< @brief Holds the Alarm seconds in BCD format. */
  85:rhea\rtc/rtc_impl.c **** 	    uint8_t  ALMMIN;    /**< @brief Holds the Alarm minutes in BCD format. */
  86:rhea\rtc/rtc_impl.c **** 	    uint8_t  ALMHOUR;   /**< @brief Holds the Alarm hours in 12+AMPM / 24 hour BCD format. */
  87:rhea\rtc/rtc_impl.c **** 	    uint8_t  ALMWKDAY;  /**< @brief Holds the Alarm weekday and the <i> IT flag, mode mask and pol
ARM GAS  C:\Users\GYULAI~1\AppData\Local\Temp\cc2oeyFO.s 			page 3


  88:rhea\rtc/rtc_impl.c **** 	    uint8_t  ALMDATE;   /**< @brief Holds the Alarm date in BCD format. */
  89:rhea\rtc/rtc_impl.c **** 	    uint8_t  ALMMTH;    /**< @brief Holds the Alarm month in BCD format. */
  90:rhea\rtc/rtc_impl.c **** 	    uint16_t ALMYEAR;   /**< @brief Holds the Alarm year and flags. */
  91:rhea\rtc/rtc_impl.c **** 	} __attribute__ ((packed));
  92:rhea\rtc/rtc_impl.c **** 
  93:rhea\rtc/rtc_impl.c **** 	/** @brief Defines a bitmask for the year bits of the ALMYEAR byte. */
  94:rhea\rtc/rtc_impl.c **** 	#define RHEA_RTC_ALMYEAR_YEAR       (0x0FFF)
  95:rhea\rtc/rtc_impl.c **** 	/** @brief Defines a bitmask for the ACTIVE bit of the ALMYEAR byte. */
  96:rhea\rtc/rtc_impl.c **** 	#define RHEA_RTC_ALMYEAR_ACTIVE     (0x1000)
  97:rhea\rtc/rtc_impl.c **** 	/** @brief Defines a bitmask for the RECURRING bit of the ALMYEAR byte. */
  98:rhea\rtc/rtc_impl.c **** 	#define RHEA_RTC_ALMYEAR_RECURRING  (0x2000)
  99:rhea\rtc/rtc_impl.c **** 
 100:rhea\rtc/rtc_impl.c **** 	// Typedef for omitting 'struct' keyword
 101:rhea\rtc/rtc_impl.c **** 	typedef struct rhea_rtc_alarmRegisterStruct rhea_rtc_alarmRegisterStruct;
 102:rhea\rtc/rtc_impl.c **** 
 103:rhea\rtc/rtc_impl.c **** 	// Forward declarations for driver specific functions
 104:rhea\rtc/rtc_impl.c **** 	rhea_rtc_alarm rhea_rtc_fromAlarmRegisterStruct(rhea_rtc_alarmRegisterStruct regs);
 105:rhea\rtc/rtc_impl.c **** 	rhea_rtc_alarmRegisterStruct rhea_rtc_toAlarmRegisterStruct(rhea_rtc_alarm alarm);
 106:rhea\rtc/rtc_impl.c ****     MCP7940N_Datetime toDriverDatetime(rhea_rtc_datetime datetime);
 107:rhea\rtc/rtc_impl.c ****     rhea_rtc_datetime fromDriverDatetime(MCP7940N_Datetime datetime);
 108:rhea\rtc/rtc_impl.c **** 
 109:rhea\rtc/rtc_impl.c **** 	void rhea_rtc_initialize_impl(void) {
 110:rhea\rtc/rtc_impl.c **** 
 111:rhea\rtc/rtc_impl.c **** 		// Function pointers to I2C driver
 112:rhea\rtc/rtc_impl.c **** 		MCP7940N_I2CControllerStruct controller = {
 113:rhea\rtc/rtc_impl.c **** 			.MasterSendStart = rhea_i2c_MasterSendStart,
 114:rhea\rtc/rtc_impl.c **** 			.MasterSendStop  = rhea_i2c_MasterSendStop,
 115:rhea\rtc/rtc_impl.c **** 			.MasterReadByte  = rhea_i2c_MasterReadByte,
 116:rhea\rtc/rtc_impl.c **** 			.MasterWriteByte = rhea_i2c_MasterWriteByte
 117:rhea\rtc/rtc_impl.c **** 		};
 118:rhea\rtc/rtc_impl.c **** 
 119:rhea\rtc/rtc_impl.c **** 		// Initializing the MCP7940N driver
 120:rhea\rtc/rtc_impl.c **** 		MCP7940N_SetI2CController(controller);
 121:rhea\rtc/rtc_impl.c **** 
 122:rhea\rtc/rtc_impl.c **** 		// Reading initial RTC register data
 123:rhea\rtc/rtc_impl.c **** 		MCP7940N_ReadRegisters();
 124:rhea\rtc/rtc_impl.c **** 
 125:rhea\rtc/rtc_impl.c ****         // Reading power-fail timestamp
 126:rhea\rtc/rtc_impl.c ****         rhea_rtc_powerFailTimestamp = fromDriverDatetime(MCP7940N_GetPowerFailDatetime());
 127:rhea\rtc/rtc_impl.c ****         
 128:rhea\rtc/rtc_impl.c ****         // Reading power-up timestamp
 129:rhea\rtc/rtc_impl.c ****         rhea_rtc_powerUpTimestamp = fromDriverDatetime(MCP7940N_GetPowerUpDatetime());
 130:rhea\rtc/rtc_impl.c **** 
 131:rhea\rtc/rtc_impl.c **** 		// Clearing power event timestamps
 132:rhea\rtc/rtc_impl.c **** 		MCP7940N_ClearPowerFailed();
 133:rhea\rtc/rtc_impl.c **** 
 134:rhea\rtc/rtc_impl.c **** 		// Enabling battery backup
 135:rhea\rtc/rtc_impl.c **** 		MCP7940N_EnableBattery();
 136:rhea\rtc/rtc_impl.c **** 
 137:rhea\rtc/rtc_impl.c **** 		// Setting alarm mode for multifunction pin
 138:rhea\rtc/rtc_impl.c **** 		MCP7940N_SetMFPMode(MCP7940N_MFP_ALARM);
 139:rhea\rtc/rtc_impl.c **** 
 140:rhea\rtc/rtc_impl.c **** 		// Setting oscillator trimming value
 141:rhea\rtc/rtc_impl.c **** 		MCP7940N_SetTrimmingValue(0);
 142:rhea\rtc/rtc_impl.c **** 
 143:rhea\rtc/rtc_impl.c **** 		// Disabling coarse trimming mode
 144:rhea\rtc/rtc_impl.c **** 		MCP7940N_DisableCoarseTrimming();
ARM GAS  C:\Users\GYULAI~1\AppData\Local\Temp\cc2oeyFO.s 			page 4


 145:rhea\rtc/rtc_impl.c **** 
 146:rhea\rtc/rtc_impl.c **** 		// Disabling alarms
 147:rhea\rtc/rtc_impl.c **** 		MCP7940N_DisableAlarm(MCP7940N_ALARM0);
 148:rhea\rtc/rtc_impl.c **** 		MCP7940N_DisableAlarm(MCP7940N_ALARM1);  
 149:rhea\rtc/rtc_impl.c **** 
 150:rhea\rtc/rtc_impl.c **** 		// Enable alarm interrupts
 151:rhea\rtc/rtc_impl.c **** 		#if defined(RHEA_TARGET_PSOC5LP) 
 152:rhea\rtc/rtc_impl.c **** 		
 153:rhea\rtc/rtc_impl.c **** 			// Enabling interrupt handler
 154:rhea\rtc/rtc_impl.c **** 			RTC_INTR_StartEx(rhea_rtc_alarmISR);
 155:rhea\rtc/rtc_impl.c **** 
 156:rhea\rtc/rtc_impl.c **** 		#elif defined(RHEA_TARGET_ESP32)
 157:rhea\rtc/rtc_impl.c **** 
 158:rhea\rtc/rtc_impl.c **** 			// Enabling interrupt handler
 159:rhea\rtc/rtc_impl.c **** 			#error ESP32: Enable interrupt handler!
 160:rhea\rtc/rtc_impl.c **** 
 161:rhea\rtc/rtc_impl.c **** 		#endif 
 162:rhea\rtc/rtc_impl.c **** 	}
 163:rhea\rtc/rtc_impl.c **** 
 164:rhea\rtc/rtc_impl.c **** 	rhea_rtc_datetime rhea_rtc_now_impl(void) {
 165:rhea\rtc/rtc_impl.c **** 		
 166:rhea\rtc/rtc_impl.c **** 		#if defined(RHEA_TARGET_PSOC5LP)
 167:rhea\rtc/rtc_impl.c **** 
 168:rhea\rtc/rtc_impl.c **** 			// Returning datetime
 169:rhea\rtc/rtc_impl.c **** 	    	return fromDriverDatetime(MCP7940N_GetDatetime());
 170:rhea\rtc/rtc_impl.c **** 
 171:rhea\rtc/rtc_impl.c **** 		#elif defined(RHEA_TARGET_ESP32)
 172:rhea\rtc/rtc_impl.c **** 
 173:rhea\rtc/rtc_impl.c **** 	    	// Returning datetime
 174:rhea\rtc/rtc_impl.c **** 	    	#error ESP32: Return current datetime!
 175:rhea\rtc/rtc_impl.c **** 
 176:rhea\rtc/rtc_impl.c **** 		#endif
 177:rhea\rtc/rtc_impl.c **** 	}
 178:rhea\rtc/rtc_impl.c **** 
 179:rhea\rtc/rtc_impl.c **** 	void rhea_rtc_setDatetime_impl(rhea_rtc_datetime newDatetime) {
 180:rhea\rtc/rtc_impl.c **** 
 181:rhea\rtc/rtc_impl.c **** 		#if defined(RHEA_TARGET_PSOC5LP)
 182:rhea\rtc/rtc_impl.c **** 
 183:rhea\rtc/rtc_impl.c **** 			// Updating datetime 
 184:rhea\rtc/rtc_impl.c ****     		MCP7940N_SetDatetime(toDriverDatetime(newDatetime));
 185:rhea\rtc/rtc_impl.c **** 
 186:rhea\rtc/rtc_impl.c **** 		#elif defined(RHEA_TARGET_ESP32)
 187:rhea\rtc/rtc_impl.c **** 
 188:rhea\rtc/rtc_impl.c **** 	    	// Updating datetime
 189:rhea\rtc/rtc_impl.c **** 	    	#error ESP32: Update current datetime!
 190:rhea\rtc/rtc_impl.c **** 
 191:rhea\rtc/rtc_impl.c **** 		#endif
 192:rhea\rtc/rtc_impl.c **** 	}
 193:rhea\rtc/rtc_impl.c **** 
 194:rhea\rtc/rtc_impl.c **** 	void rhea_rtc_enableAlarms_impl(void) {
  28              		.loc 1 194 0
  29              		.cfi_startproc
  30              		@ args = 0, pretend = 0, frame = 0
  31              		@ frame_needed = 0, uses_anonymous_args = 0
  32 0000 08B5     		push	{r3, lr}
  33              		.cfi_def_cfa_offset 8
  34              		.cfi_offset 3, -8
ARM GAS  C:\Users\GYULAI~1\AppData\Local\Temp\cc2oeyFO.s 			page 5


  35              		.cfi_offset 14, -4
 195:rhea\rtc/rtc_impl.c **** 
 196:rhea\rtc/rtc_impl.c **** 		// Enabling alarms
 197:rhea\rtc/rtc_impl.c **** 		MCP7940N_EnableAlarm(MCP7940N_ALARM1, MCP7940N_ALARM_MODE_ALL);
  36              		.loc 1 197 0
  37 0002 7021     		movs	r1, #112
  38 0004 0120     		movs	r0, #1
  39 0006 FFF7FEFF 		bl	MCP7940N_EnableAlarm
  40              	.LVL0:
  41 000a 08BD     		pop	{r3, pc}
  42              		.cfi_endproc
  43              	.LFE66:
  44              		.size	rhea_rtc_enableAlarms_impl, .-rhea_rtc_enableAlarms_impl
  45              		.section	.text.rhea_rtc_disableAlarms_impl,"ax",%progbits
  46              		.align	2
  47              		.global	rhea_rtc_disableAlarms_impl
  48              		.thumb
  49              		.thumb_func
  50              		.type	rhea_rtc_disableAlarms_impl, %function
  51              	rhea_rtc_disableAlarms_impl:
  52              	.LFB67:
 198:rhea\rtc/rtc_impl.c **** 	}
 199:rhea\rtc/rtc_impl.c **** 
 200:rhea\rtc/rtc_impl.c **** 	void rhea_rtc_disableAlarms_impl(void) {
  53              		.loc 1 200 0
  54              		.cfi_startproc
  55              		@ args = 0, pretend = 0, frame = 0
  56              		@ frame_needed = 0, uses_anonymous_args = 0
  57 0000 08B5     		push	{r3, lr}
  58              		.cfi_def_cfa_offset 8
  59              		.cfi_offset 3, -8
  60              		.cfi_offset 14, -4
 201:rhea\rtc/rtc_impl.c **** 
 202:rhea\rtc/rtc_impl.c **** 		// Disabling alarms
 203:rhea\rtc/rtc_impl.c **** 		MCP7940N_DisableAlarm(MCP7940N_ALARM1);
  61              		.loc 1 203 0
  62 0002 0120     		movs	r0, #1
  63 0004 FFF7FEFF 		bl	MCP7940N_DisableAlarm
  64              	.LVL1:
  65 0008 08BD     		pop	{r3, pc}
  66              		.cfi_endproc
  67              	.LFE67:
  68              		.size	rhea_rtc_disableAlarms_impl, .-rhea_rtc_disableAlarms_impl
  69 000a 00BF     		.section	.text.rhea_rtc_toAlarmRegisterStruct,"ax",%progbits
  70              		.align	2
  71              		.global	rhea_rtc_toAlarmRegisterStruct
  72              		.thumb
  73              		.thumb_func
  74              		.type	rhea_rtc_toAlarmRegisterStruct, %function
  75              	rhea_rtc_toAlarmRegisterStruct:
  76              	.LFB71:
 204:rhea\rtc/rtc_impl.c **** 	}
 205:rhea\rtc/rtc_impl.c **** 
 206:rhea\rtc/rtc_impl.c **** 	void rhea_rtc_setAlarmDatetime_impl(rhea_rtc_datetime alarmDatetime) {
 207:rhea\rtc/rtc_impl.c **** 
 208:rhea\rtc/rtc_impl.c **** 		// Setting alarm datetime 
 209:rhea\rtc/rtc_impl.c **** 		MCP7940N_SetAlarmDatetime(MCP7940N_ALARM1, toDriverDatetime(alarmDatetime));
ARM GAS  C:\Users\GYULAI~1\AppData\Local\Temp\cc2oeyFO.s 			page 6


 210:rhea\rtc/rtc_impl.c **** 	}
 211:rhea\rtc/rtc_impl.c **** 
 212:rhea\rtc/rtc_impl.c **** 	void rhea_rtc_loadAlarms_impl(void) {
 213:rhea\rtc/rtc_impl.c **** 
 214:rhea\rtc/rtc_impl.c **** 		// Array to load persistent alarms from SRAM
 215:rhea\rtc/rtc_impl.c **** 	    rhea_rtc_alarmRegisterStruct persistentAlarms[RHEA_RTC_HARDWARE_ALARM_COUNT];
 216:rhea\rtc/rtc_impl.c **** 
 217:rhea\rtc/rtc_impl.c **** 	    // Reading RTC-chip SRAM
 218:rhea\rtc/rtc_impl.c **** 	    MCP7940N_ReadSRAM(MCP7940N_SRAM_ADDRLOW, (uint8_t*) persistentAlarms, MCP7940N_SRAM_SIZE);
 219:rhea\rtc/rtc_impl.c **** 
 220:rhea\rtc/rtc_impl.c **** 	    // Decoding register representation of the alarm
 221:rhea\rtc/rtc_impl.c **** 	    for(uint8_t i = 0; i < RHEA_RTC_HARDWARE_ALARM_COUNT; i++) {
 222:rhea\rtc/rtc_impl.c **** 	        rhea_rtc_alarmRegistry[i] = rhea_rtc_fromAlarmRegisterStruct(persistentAlarms[i]);
 223:rhea\rtc/rtc_impl.c **** 	    }
 224:rhea\rtc/rtc_impl.c **** 	}
 225:rhea\rtc/rtc_impl.c **** 
 226:rhea\rtc/rtc_impl.c **** 	void rhea_rtc_storeAlarms_impl(void) {
 227:rhea\rtc/rtc_impl.c **** 
 228:rhea\rtc/rtc_impl.c **** 		// Array to store persistent alarms to SRAM
 229:rhea\rtc/rtc_impl.c **** 		rhea_rtc_alarmRegisterStruct persistentAlarms[RHEA_RTC_HARDWARE_ALARM_COUNT];
 230:rhea\rtc/rtc_impl.c **** 
 231:rhea\rtc/rtc_impl.c **** 		// 
 232:rhea\rtc/rtc_impl.c **** 		for(uint8_t i = 0; i < RHEA_RTC_HARDWARE_ALARM_COUNT; i++) {
 233:rhea\rtc/rtc_impl.c **** 			persistentAlarms[i] = rhea_rtc_toAlarmRegisterStruct(rhea_rtc_alarmRegistry[i]);
 234:rhea\rtc/rtc_impl.c **** 		}
 235:rhea\rtc/rtc_impl.c **** 
 236:rhea\rtc/rtc_impl.c **** 		// Writing RTC-chip SRAM
 237:rhea\rtc/rtc_impl.c **** 		MCP7940N_WriteSRAM(MCP7940N_SRAM_ADDRLOW, (uint8_t*) persistentAlarms, MCP7940N_SRAM_SIZE);
 238:rhea\rtc/rtc_impl.c **** 	}
 239:rhea\rtc/rtc_impl.c **** 
 240:rhea\rtc/rtc_impl.c **** 	rhea_rtc_alarmRegisterStruct rhea_rtc_toAlarmRegisterStruct(rhea_rtc_alarm alarm) {
  77              		.loc 1 240 0
  78              		.cfi_startproc
  79              		@ args = 0, pretend = 0, frame = 24
  80              		@ frame_needed = 0, uses_anonymous_args = 0
  81              		@ link register save eliminated.
  82              	.LVL2:
  83 0000 30B4     		push	{r4, r5}
  84              		.cfi_def_cfa_offset 8
  85              		.cfi_offset 4, -8
  86              		.cfi_offset 5, -4
  87 0002 86B0     		sub	sp, sp, #24
  88              		.cfi_def_cfa_offset 32
  89 0004 0446     		mov	r4, r0
  90 0006 01A8     		add	r0, sp, #4
  91              	.LVL3:
  92 0008 80E80E00 		stmia	r0, {r1, r2, r3}
 241:rhea\rtc/rtc_impl.c ****     
 242:rhea\rtc/rtc_impl.c **** 	    // Alarm register structure to populate
 243:rhea\rtc/rtc_impl.c **** 	    rhea_rtc_alarmRegisterStruct regs;
 244:rhea\rtc/rtc_impl.c **** 	    
 245:rhea\rtc/rtc_impl.c **** 	    // Clearing register content
 246:rhea\rtc/rtc_impl.c **** 	    memset(&regs, 0x00, sizeof(rhea_rtc_alarmRegisterStruct));
 247:rhea\rtc/rtc_impl.c **** 	    
 248:rhea\rtc/rtc_impl.c **** 	    // Setting seconds
 249:rhea\rtc/rtc_impl.c **** 	    uint8_t secOnes = alarm.datetime.second % 10;
  93              		.loc 1 249 0
ARM GAS  C:\Users\GYULAI~1\AppData\Local\Temp\cc2oeyFO.s 			page 7


  94 000c 9DF80B10 		ldrb	r1, [sp, #11]	@ zero_extendqisi2
  95 0010 3E4B     		ldr	r3, .L9
  96 0012 A3FB0102 		umull	r0, r2, r3, r1
  97 0016 D208     		lsrs	r2, r2, #3
  98 0018 02EB8200 		add	r0, r2, r2, lsl #2
  99 001c A1EB4001 		sub	r1, r1, r0, lsl #1
 100              	.LVL4:
 250:rhea\rtc/rtc_impl.c **** 	    uint8_t secTens = alarm.datetime.second / 10;
 251:rhea\rtc/rtc_impl.c **** 	    regs.ALMSEC |= (secOnes & MCP7940N_ALMxSEC_SECONE);
 101              		.loc 1 251 0
 102 0020 01F00F01 		and	r1, r1, #15
 103              	.LVL5:
 252:rhea\rtc/rtc_impl.c **** 	    regs.ALMSEC |= (secTens << 4 & MCP7940N_ALMxSEC_SECTEN);
 104              		.loc 1 252 0
 105 0024 1201     		lsls	r2, r2, #4
 106              	.LVL6:
 107 0026 02F07002 		and	r2, r2, #112
 108 002a 0A43     		orrs	r2, r2, r1
 109 002c 8DF81020 		strb	r2, [sp, #16]
 253:rhea\rtc/rtc_impl.c **** 	    
 254:rhea\rtc/rtc_impl.c **** 	    // Setting minutes
 255:rhea\rtc/rtc_impl.c **** 	    uint8_t minOnes = alarm.datetime.minute % 10;
 110              		.loc 1 255 0
 111 0030 9DF80A10 		ldrb	r1, [sp, #10]	@ zero_extendqisi2
 112 0034 A3FB0102 		umull	r0, r2, r3, r1
 113              	.LVL7:
 114 0038 D208     		lsrs	r2, r2, #3
 115 003a 02EB8200 		add	r0, r2, r2, lsl #2
 116 003e A1EB4001 		sub	r1, r1, r0, lsl #1
 117              	.LVL8:
 256:rhea\rtc/rtc_impl.c **** 	    uint8_t minTens = alarm.datetime.minute / 10;
 257:rhea\rtc/rtc_impl.c **** 	    regs.ALMMIN |= (minOnes & MCP7940N_ALMxMIN_MINONE);
 118              		.loc 1 257 0
 119 0042 01F00F01 		and	r1, r1, #15
 120              	.LVL9:
 258:rhea\rtc/rtc_impl.c **** 	    regs.ALMMIN |= (minTens << 4 & MCP7940N_ALMxMIN_MINTEN);
 121              		.loc 1 258 0
 122 0046 1201     		lsls	r2, r2, #4
 123              	.LVL10:
 124 0048 02F07002 		and	r2, r2, #112
 125 004c 0A43     		orrs	r2, r2, r1
 126 004e 8DF81120 		strb	r2, [sp, #17]
 259:rhea\rtc/rtc_impl.c **** 	    
 260:rhea\rtc/rtc_impl.c **** 	    // Setting hours
 261:rhea\rtc/rtc_impl.c **** 	    uint8_t hourOnes = alarm.datetime.hour % 10;
 127              		.loc 1 261 0
 128 0052 9DF80910 		ldrb	r1, [sp, #9]	@ zero_extendqisi2
 129 0056 A3FB0102 		umull	r0, r2, r3, r1
 130              	.LVL11:
 131 005a D208     		lsrs	r2, r2, #3
 132 005c 02EB8200 		add	r0, r2, r2, lsl #2
 133 0060 A1EB4001 		sub	r1, r1, r0, lsl #1
 134              	.LVL12:
 262:rhea\rtc/rtc_impl.c **** 	    uint8_t hourTens = alarm.datetime.hour / 10;
 263:rhea\rtc/rtc_impl.c **** 	    regs.ALMHOUR |= (hourOnes & MCP7940N_ALMxHOUR_HRONE);
 135              		.loc 1 263 0
 136 0064 01F00F01 		and	r1, r1, #15
ARM GAS  C:\Users\GYULAI~1\AppData\Local\Temp\cc2oeyFO.s 			page 8


 137              	.LVL13:
 264:rhea\rtc/rtc_impl.c **** 	    regs.ALMHOUR |= (hourTens << 4 & MCP7940N_ALMxHOUR_HRTEN);
 138              		.loc 1 264 0
 139 0068 1201     		lsls	r2, r2, #4
 140              	.LVL14:
 141 006a 02F03002 		and	r2, r2, #48
 142 006e 0A43     		orrs	r2, r2, r1
 143 0070 8DF81220 		strb	r2, [sp, #18]
 265:rhea\rtc/rtc_impl.c **** 	    
 266:rhea\rtc/rtc_impl.c **** 	    // Setting weekday
 267:rhea\rtc/rtc_impl.c **** 	    uint8_t weekday = alarm.datetime.weekday;
 144              		.loc 1 267 0
 145 0074 9DF80810 		ldrb	r1, [sp, #8]	@ zero_extendqisi2
 146              	.LVL15:
 268:rhea\rtc/rtc_impl.c **** 	    regs.ALMWKDAY |= (weekday & MCP7940N_ALMxWKDAY_WKDAY);
 147              		.loc 1 268 0
 148 0078 01F00701 		and	r1, r1, #7
 149              	.LVL16:
 269:rhea\rtc/rtc_impl.c **** 	    
 270:rhea\rtc/rtc_impl.c **** 	    // Setting date
 271:rhea\rtc/rtc_impl.c **** 	    uint8_t dateOnes = alarm.datetime.date % 10;
 150              		.loc 1 271 0
 151 007c 9DF80700 		ldrb	r0, [sp, #7]	@ zero_extendqisi2
 152              	.LVL17:
 153 0080 A3FB0052 		umull	r5, r2, r3, r0
 154 0084 D208     		lsrs	r2, r2, #3
 155 0086 02EB8205 		add	r5, r2, r2, lsl #2
 156 008a A0EB4500 		sub	r0, r0, r5, lsl #1
 157              	.LVL18:
 272:rhea\rtc/rtc_impl.c **** 	    uint8_t dateTens = alarm.datetime.date / 10;
 273:rhea\rtc/rtc_impl.c **** 	    regs.ALMDATE |= (dateOnes & MCP7940N_ALMxDATE_DATEONE);
 158              		.loc 1 273 0
 159 008e 00F00F00 		and	r0, r0, #15
 160              	.LVL19:
 274:rhea\rtc/rtc_impl.c **** 	    regs.ALMDATE |= (dateTens << 4 & MCP7940N_ALMxDATE_DATETEN);
 161              		.loc 1 274 0
 162 0092 1201     		lsls	r2, r2, #4
 163              	.LVL20:
 164 0094 02F03002 		and	r2, r2, #48
 165 0098 0243     		orrs	r2, r2, r0
 166 009a 8DF81420 		strb	r2, [sp, #20]
 275:rhea\rtc/rtc_impl.c **** 	    
 276:rhea\rtc/rtc_impl.c **** 	    // Setting month
 277:rhea\rtc/rtc_impl.c **** 	    uint8_t monthOnes = alarm.datetime.month % 10;
 167              		.loc 1 277 0
 168 009e 9DF80620 		ldrb	r2, [sp, #6]	@ zero_extendqisi2
 169 00a2 A3FB0203 		umull	r0, r3, r3, r2
 170              	.LVL21:
 171 00a6 DB08     		lsrs	r3, r3, #3
 172 00a8 03EB8300 		add	r0, r3, r3, lsl #2
 173 00ac A2EB4002 		sub	r2, r2, r0, lsl #1
 174              	.LVL22:
 278:rhea\rtc/rtc_impl.c **** 	    uint8_t monthTens = alarm.datetime.month / 10;
 279:rhea\rtc/rtc_impl.c **** 	    regs.ALMMTH |= (monthOnes & MCP7940N_ALMxMTH_MTHONE);
 175              		.loc 1 279 0
 176 00b0 02F00F02 		and	r2, r2, #15
 177              	.LVL23:
ARM GAS  C:\Users\GYULAI~1\AppData\Local\Temp\cc2oeyFO.s 			page 9


 280:rhea\rtc/rtc_impl.c **** 	    regs.ALMMTH |= (monthTens << 4 & MCP7940N_ALMxMTH_MTHTEN);
 178              		.loc 1 280 0
 179 00b4 1B01     		lsls	r3, r3, #4
 180              	.LVL24:
 181 00b6 03F01003 		and	r3, r3, #16
 182 00ba 1343     		orrs	r3, r3, r2
 183 00bc 8DF81530 		strb	r3, [sp, #21]
 184              	.LVL25:
 185 00c0 9DF80420 		ldrb	r2, [sp, #4]	@ zero_extendqisi2
 281:rhea\rtc/rtc_impl.c **** 	    
 282:rhea\rtc/rtc_impl.c **** 	    // Setting years
 283:rhea\rtc/rtc_impl.c **** 	    uint8_t years = alarm.datetime.year;
 284:rhea\rtc/rtc_impl.c **** 	    regs.ALMYEAR |= (years & RHEA_RTC_ALMYEAR_YEAR);
 186              		.loc 1 284 0
 187 00c4 ADF81620 		strh	r2, [sp, #22]	@ movhi
 285:rhea\rtc/rtc_impl.c **** 
 286:rhea\rtc/rtc_impl.c **** 	    // Setting mode
 287:rhea\rtc/rtc_impl.c **** 	    uint8_t mode = alarm.mode;
 188              		.loc 1 287 0
 189 00c8 9DF80E30 		ldrb	r3, [sp, #14]	@ zero_extendqisi2
 190              	.LVL26:
 288:rhea\rtc/rtc_impl.c **** 	    regs.ALMWKDAY |= (mode << 4 & MCP7940N_ALMxWKDAY_ALMxMSK);
 191              		.loc 1 288 0
 192 00cc 1B01     		lsls	r3, r3, #4
 193              	.LVL27:
 194 00ce 03F07003 		and	r3, r3, #112
 195 00d2 0B43     		orrs	r3, r3, r1
 289:rhea\rtc/rtc_impl.c **** 
 290:rhea\rtc/rtc_impl.c **** 	    // Setting polarity
 291:rhea\rtc/rtc_impl.c **** 	    regs.ALMWKDAY |= MCP7940N_ALARM_POLARITY_HIGH;
 196              		.loc 1 291 0
 197 00d4 63F07F03 		orn	r3, r3, #127
 198 00d8 8DF81330 		strb	r3, [sp, #19]
 292:rhea\rtc/rtc_impl.c **** 
 293:rhea\rtc/rtc_impl.c **** 	    // Setting ACTIVE flag
 294:rhea\rtc/rtc_impl.c **** 	    if(alarm.active) regs.ALMYEAR |= RHEA_RTC_ALMYEAR_ACTIVE;
 199              		.loc 1 294 0
 200 00dc 9DF80D30 		ldrb	r3, [sp, #13]	@ zero_extendqisi2
 201 00e0 1BB1     		cbz	r3, .L6
 202              		.loc 1 294 0 is_stmt 0 discriminator 1
 203 00e2 42F48052 		orr	r2, r2, #4096
 204 00e6 ADF81620 		strh	r2, [sp, #22]	@ movhi
 205              	.L6:
 295:rhea\rtc/rtc_impl.c **** 
 296:rhea\rtc/rtc_impl.c **** 	    // Setting RECURRING flag
 297:rhea\rtc/rtc_impl.c **** 	    if(alarm.recurring) regs.ALMYEAR |= RHEA_RTC_ALMYEAR_RECURRING;
 206              		.loc 1 297 0 is_stmt 1
 207 00ea 9DF80C30 		ldrb	r3, [sp, #12]	@ zero_extendqisi2
 208 00ee 2BB1     		cbz	r3, .L7
 209              		.loc 1 297 0 is_stmt 0 discriminator 1
 210 00f0 BDF81630 		ldrh	r3, [sp, #22]
 211 00f4 43F40053 		orr	r3, r3, #8192
 212 00f8 ADF81630 		strh	r3, [sp, #22]	@ movhi
 213              	.L7:
 298:rhea\rtc/rtc_impl.c **** 	        
 299:rhea\rtc/rtc_impl.c **** 	    return regs;
 214              		.loc 1 299 0 is_stmt 1
ARM GAS  C:\Users\GYULAI~1\AppData\Local\Temp\cc2oeyFO.s 			page 10


 215 00fc 04AB     		add	r3, sp, #16
 216 00fe 03CB     		ldmia	r3!, {r0, r1}
 217              	.LVL28:
 218 0100 2060     		str	r0, [r4]	@ unaligned
 219 0102 6160     		str	r1, [r4, #4]	@ unaligned
 300:rhea\rtc/rtc_impl.c **** 	}
 220              		.loc 1 300 0
 221 0104 2046     		mov	r0, r4
 222 0106 06B0     		add	sp, sp, #24
 223              		.cfi_def_cfa_offset 8
 224              		@ sp needed
 225 0108 30BC     		pop	{r4, r5}
 226              		.cfi_restore 5
 227              		.cfi_restore 4
 228              		.cfi_def_cfa_offset 0
 229              	.LVL29:
 230 010a 7047     		bx	lr
 231              	.L10:
 232              		.align	2
 233              	.L9:
 234 010c CDCCCCCC 		.word	-858993459
 235              		.cfi_endproc
 236              	.LFE71:
 237              		.size	rhea_rtc_toAlarmRegisterStruct, .-rhea_rtc_toAlarmRegisterStruct
 238              		.section	.text.rhea_rtc_storeAlarms_impl,"ax",%progbits
 239              		.align	2
 240              		.global	rhea_rtc_storeAlarms_impl
 241              		.thumb
 242              		.thumb_func
 243              		.type	rhea_rtc_storeAlarms_impl, %function
 244              	rhea_rtc_storeAlarms_impl:
 245              	.LFB70:
 226:rhea\rtc/rtc_impl.c **** 
 246              		.loc 1 226 0
 247              		.cfi_startproc
 248              		@ args = 0, pretend = 0, frame = 72
 249              		@ frame_needed = 0, uses_anonymous_args = 0
 250 0000 30B5     		push	{r4, r5, lr}
 251              		.cfi_def_cfa_offset 12
 252              		.cfi_offset 4, -12
 253              		.cfi_offset 5, -8
 254              		.cfi_offset 14, -4
 255 0002 93B0     		sub	sp, sp, #76
 256              		.cfi_def_cfa_offset 88
 257              	.LVL30:
 258              	.LBB2:
 232:rhea\rtc/rtc_impl.c **** 			persistentAlarms[i] = rhea_rtc_toAlarmRegisterStruct(rhea_rtc_alarmRegistry[i]);
 259              		.loc 1 232 0
 260 0004 0024     		movs	r4, #0
 261 0006 14E0     		b	.L12
 262              	.LVL31:
 263              	.L13:
 233:rhea\rtc/rtc_impl.c **** 		}
 264              		.loc 1 233 0 discriminator 3
 265 0008 12AB     		add	r3, sp, #72
 266 000a 03EBC405 		add	r5, r3, r4, lsl #3
 267 000e 04EB4402 		add	r2, r4, r4, lsl #1
ARM GAS  C:\Users\GYULAI~1\AppData\Local\Temp\cc2oeyFO.s 			page 11


 268 0012 9300     		lsls	r3, r2, #2
 269 0014 0B4A     		ldr	r2, .L15
 270 0016 1344     		add	r3, r3, r2
 271 0018 1968     		ldr	r1, [r3]	@ unaligned
 272 001a 5A68     		ldr	r2, [r3, #4]	@ unaligned
 273 001c 9B68     		ldr	r3, [r3, #8]	@ unaligned
 274 001e 6846     		mov	r0, sp
 275 0020 FFF7FEFF 		bl	rhea_rtc_toAlarmRegisterStruct
 276              	.LVL32:
 277 0024 A5F14003 		sub	r3, r5, #64
 278 0028 0098     		ldr	r0, [sp]	@ unaligned
 279 002a 0199     		ldr	r1, [sp, #4]	@ unaligned
 280 002c 03C3     		stmia	r3!, {r0, r1}
 232:rhea\rtc/rtc_impl.c **** 			persistentAlarms[i] = rhea_rtc_toAlarmRegisterStruct(rhea_rtc_alarmRegistry[i]);
 281              		.loc 1 232 0 discriminator 3
 282 002e 0134     		adds	r4, r4, #1
 283              	.LVL33:
 284 0030 E4B2     		uxtb	r4, r4
 285              	.LVL34:
 286              	.L12:
 232:rhea\rtc/rtc_impl.c **** 			persistentAlarms[i] = rhea_rtc_toAlarmRegisterStruct(rhea_rtc_alarmRegistry[i]);
 287              		.loc 1 232 0 is_stmt 0 discriminator 1
 288 0032 072C     		cmp	r4, #7
 289 0034 E8D9     		bls	.L13
 290              	.LBE2:
 237:rhea\rtc/rtc_impl.c **** 	}
 291              		.loc 1 237 0 is_stmt 1
 292 0036 4022     		movs	r2, #64
 293 0038 02A9     		add	r1, sp, #8
 294 003a 2020     		movs	r0, #32
 295 003c FFF7FEFF 		bl	MCP7940N_WriteSRAM
 296              	.LVL35:
 238:rhea\rtc/rtc_impl.c **** 
 297              		.loc 1 238 0
 298 0040 13B0     		add	sp, sp, #76
 299              		.cfi_def_cfa_offset 12
 300              		@ sp needed
 301 0042 30BD     		pop	{r4, r5, pc}
 302              	.LVL36:
 303              	.L16:
 304              		.align	2
 305              	.L15:
 306 0044 00000000 		.word	rhea_rtc_alarmRegistry
 307              		.cfi_endproc
 308              	.LFE70:
 309              		.size	rhea_rtc_storeAlarms_impl, .-rhea_rtc_storeAlarms_impl
 310              		.section	.text.rhea_rtc_fromAlarmRegisterStruct,"ax",%progbits
 311              		.align	2
 312              		.global	rhea_rtc_fromAlarmRegisterStruct
 313              		.thumb
 314              		.thumb_func
 315              		.type	rhea_rtc_fromAlarmRegisterStruct, %function
 316              	rhea_rtc_fromAlarmRegisterStruct:
 317              	.LFB72:
 301:rhea\rtc/rtc_impl.c **** 
 302:rhea\rtc/rtc_impl.c **** 	rhea_rtc_alarm rhea_rtc_fromAlarmRegisterStruct(rhea_rtc_alarmRegisterStruct alarm) {
 318              		.loc 1 302 0
ARM GAS  C:\Users\GYULAI~1\AppData\Local\Temp\cc2oeyFO.s 			page 12


 319              		.cfi_startproc
 320              		@ args = 0, pretend = 0, frame = 8
 321              		@ frame_needed = 0, uses_anonymous_args = 0
 322              		@ link register save eliminated.
 323              	.LVL37:
 324 0000 70B4     		push	{r4, r5, r6}
 325              		.cfi_def_cfa_offset 12
 326              		.cfi_offset 4, -12
 327              		.cfi_offset 5, -8
 328              		.cfi_offset 6, -4
 329 0002 83B0     		sub	sp, sp, #12
 330              		.cfi_def_cfa_offset 24
 331 0004 02AC     		add	r4, sp, #8
 332 0006 04E90600 		stmdb	r4, {r1, r2}
 303:rhea\rtc/rtc_impl.c **** 
 304:rhea\rtc/rtc_impl.c **** 	    // Regular alarm to populate
 305:rhea\rtc/rtc_impl.c **** 	    rhea_rtc_alarm regular;
 306:rhea\rtc/rtc_impl.c **** 
 307:rhea\rtc/rtc_impl.c **** 	    // Setting seconds
 308:rhea\rtc/rtc_impl.c **** 	    uint8_t secOnes = (alarm.ALMSEC & MCP7940N_ALMxSEC_SECONE);
 333              		.loc 1 308 0
 334 000a 9DF80020 		ldrb	r2, [sp]	@ zero_extendqisi2
 335 000e 02F00F04 		and	r4, r2, #15
 336              	.LVL38:
 309:rhea\rtc/rtc_impl.c **** 	    uint8_t secTens = (alarm.ALMSEC & MCP7940N_ALMxSEC_SECTEN) >> 4;
 337              		.loc 1 309 0
 338 0012 C2F30212 		ubfx	r2, r2, #4, #3
 339              	.LVL39:
 310:rhea\rtc/rtc_impl.c **** 	    regular.datetime.second = secTens * 10 + secOnes;
 340              		.loc 1 310 0
 341 0016 02EB8202 		add	r2, r2, r2, lsl #2
 342              	.LVL40:
 343 001a 5100     		lsls	r1, r2, #1
 344 001c 2144     		add	r1, r1, r4
 345 001e C171     		strb	r1, [r0, #7]
 311:rhea\rtc/rtc_impl.c **** 	    
 312:rhea\rtc/rtc_impl.c **** 	    // Setting minutes
 313:rhea\rtc/rtc_impl.c **** 	    uint8_t minOnes = (alarm.ALMMIN & MCP7940N_ALMxMIN_MINONE);
 346              		.loc 1 313 0
 347 0020 9DF80120 		ldrb	r2, [sp, #1]	@ zero_extendqisi2
 348 0024 02F00F04 		and	r4, r2, #15
 349              	.LVL41:
 314:rhea\rtc/rtc_impl.c **** 	    uint8_t minTens = (alarm.ALMMIN & MCP7940N_ALMxMIN_MINTEN) >> 4;
 350              		.loc 1 314 0
 351 0028 C2F30212 		ubfx	r2, r2, #4, #3
 352              	.LVL42:
 315:rhea\rtc/rtc_impl.c **** 	    regular.datetime.minute = minTens * 10 + minOnes;
 353              		.loc 1 315 0
 354 002c 02EB8202 		add	r2, r2, r2, lsl #2
 355              	.LVL43:
 356 0030 5100     		lsls	r1, r2, #1
 357 0032 2144     		add	r1, r1, r4
 358 0034 8171     		strb	r1, [r0, #6]
 316:rhea\rtc/rtc_impl.c **** 	    
 317:rhea\rtc/rtc_impl.c **** 	    // Setting hours
 318:rhea\rtc/rtc_impl.c **** 	    uint8_t hourOnes = (alarm.ALMHOUR & MCP7940N_ALMxHOUR_HRONE);
 359              		.loc 1 318 0
ARM GAS  C:\Users\GYULAI~1\AppData\Local\Temp\cc2oeyFO.s 			page 13


 360 0036 9DF80220 		ldrb	r2, [sp, #2]	@ zero_extendqisi2
 361 003a 02F00F04 		and	r4, r2, #15
 362              	.LVL44:
 319:rhea\rtc/rtc_impl.c **** 	    uint8_t hourTens = (alarm.ALMHOUR & MCP7940N_ALMxHOUR_HRTEN) >> 4;
 363              		.loc 1 319 0
 364 003e C2F30112 		ubfx	r2, r2, #4, #2
 365              	.LVL45:
 320:rhea\rtc/rtc_impl.c **** 	    regular.datetime.hour = hourTens * 10 + hourOnes;
 366              		.loc 1 320 0
 367 0042 02EB8202 		add	r2, r2, r2, lsl #2
 368              	.LVL46:
 369 0046 5100     		lsls	r1, r2, #1
 370 0048 2144     		add	r1, r1, r4
 371 004a 4171     		strb	r1, [r0, #5]
 321:rhea\rtc/rtc_impl.c **** 	    
 322:rhea\rtc/rtc_impl.c **** 	    // Setting weekday
 323:rhea\rtc/rtc_impl.c **** 	    regular.datetime.weekday = (alarm.ALMWKDAY & MCP7940N_ALMxWKDAY_WKDAY);
 372              		.loc 1 323 0
 373 004c 9DF80310 		ldrb	r1, [sp, #3]	@ zero_extendqisi2
 374 0050 01F00702 		and	r2, r1, #7
 375 0054 0271     		strb	r2, [r0, #4]
 324:rhea\rtc/rtc_impl.c **** 	    
 325:rhea\rtc/rtc_impl.c **** 	    // Setting date
 326:rhea\rtc/rtc_impl.c **** 	    uint8_t dateOnes = (alarm.ALMDATE & MCP7940N_ALMxDATE_DATEONE);
 376              		.loc 1 326 0
 377 0056 9DF80420 		ldrb	r2, [sp, #4]	@ zero_extendqisi2
 378 005a 02F00F05 		and	r5, r2, #15
 379              	.LVL47:
 327:rhea\rtc/rtc_impl.c **** 	    uint8_t dateTens = (alarm.ALMDATE & MCP7940N_ALMxDATE_DATETEN) >> 4;
 380              		.loc 1 327 0
 381 005e C2F30112 		ubfx	r2, r2, #4, #2
 382              	.LVL48:
 328:rhea\rtc/rtc_impl.c **** 	    regular.datetime.date = dateTens * 10 + dateOnes;
 383              		.loc 1 328 0
 384 0062 02EB8202 		add	r2, r2, r2, lsl #2
 385              	.LVL49:
 386 0066 5400     		lsls	r4, r2, #1
 387              	.LVL50:
 388 0068 2C44     		add	r4, r4, r5
 389 006a C470     		strb	r4, [r0, #3]
 329:rhea\rtc/rtc_impl.c **** 	    
 330:rhea\rtc/rtc_impl.c **** 	    // Setting month
 331:rhea\rtc/rtc_impl.c **** 	    uint8_t monthOnes = (alarm.ALMMTH & MCP7940N_ALMxMTH_MTHONE);
 390              		.loc 1 331 0
 391 006c 9DF80520 		ldrb	r2, [sp, #5]	@ zero_extendqisi2
 392 0070 02F00F06 		and	r6, r2, #15
 393              	.LVL51:
 332:rhea\rtc/rtc_impl.c **** 	    uint8_t monthTens = (alarm.ALMMTH & MCP7940N_ALMxMTH_MTHTEN) >> 4;
 394              		.loc 1 332 0
 395 0074 C2F30012 		ubfx	r2, r2, #4, #1
 396              	.LVL52:
 333:rhea\rtc/rtc_impl.c **** 	    regular.datetime.month = monthTens * 10 + monthOnes;
 397              		.loc 1 333 0
 398 0078 9500     		lsls	r5, r2, #2
 399              	.LVL53:
 400 007a 2A44     		add	r2, r2, r5
 401              	.LVL54:
ARM GAS  C:\Users\GYULAI~1\AppData\Local\Temp\cc2oeyFO.s 			page 14


 402 007c 5400     		lsls	r4, r2, #1
 403 007e 3444     		add	r4, r4, r6
 404 0080 8470     		strb	r4, [r0, #2]
 334:rhea\rtc/rtc_impl.c **** 	    
 335:rhea\rtc/rtc_impl.c **** 	    // Setting years
 336:rhea\rtc/rtc_impl.c **** 	    regular.datetime.year = (alarm.ALMYEAR & RHEA_RTC_ALMYEAR_YEAR);
 405              		.loc 1 336 0
 406 0082 BDF80620 		ldrh	r2, [sp, #6]
 407 0086 C2F30B04 		ubfx	r4, r2, #0, #12
 408 008a 0480     		strh	r4, [r0]	@ movhi
 337:rhea\rtc/rtc_impl.c **** 
 338:rhea\rtc/rtc_impl.c **** 	    // Setting mode
 339:rhea\rtc/rtc_impl.c **** 	    regular.mode = (alarm.ALMWKDAY & MCP7940N_ALMxWKDAY_ALMxMSK) >> 4;
 409              		.loc 1 339 0
 410 008c C1F30211 		ubfx	r1, r1, #4, #3
 411 0090 8172     		strb	r1, [r0, #10]
 340:rhea\rtc/rtc_impl.c **** 
 341:rhea\rtc/rtc_impl.c **** 	    // Setting ACTIVE flag
 342:rhea\rtc/rtc_impl.c **** 	    regular.active = (alarm.ALMYEAR & RHEA_RTC_ALMYEAR_ACTIVE) >> 12;
 412              		.loc 1 342 0
 413 0092 C2F30031 		ubfx	r1, r2, #12, #1
 414 0096 4172     		strb	r1, [r0, #9]
 343:rhea\rtc/rtc_impl.c **** 
 344:rhea\rtc/rtc_impl.c **** 	    // Setting RECURRING flag
 345:rhea\rtc/rtc_impl.c **** 	    regular.recurring = (alarm.ALMYEAR & RHEA_RTC_ALMYEAR_RECURRING) >> 13;
 415              		.loc 1 345 0
 416 0098 C2F34032 		ubfx	r2, r2, #13, #1
 417 009c 0272     		strb	r2, [r0, #8]
 346:rhea\rtc/rtc_impl.c **** 
 347:rhea\rtc/rtc_impl.c **** 	    return regular;
 348:rhea\rtc/rtc_impl.c **** 	}
 418              		.loc 1 348 0
 419 009e 03B0     		add	sp, sp, #12
 420              		.cfi_def_cfa_offset 12
 421              	.LVL55:
 422              		@ sp needed
 423 00a0 70BC     		pop	{r4, r5, r6}
 424              		.cfi_restore 6
 425              		.cfi_restore 5
 426              		.cfi_restore 4
 427              		.cfi_def_cfa_offset 0
 428              	.LVL56:
 429 00a2 7047     		bx	lr
 430              		.cfi_endproc
 431              	.LFE72:
 432              		.size	rhea_rtc_fromAlarmRegisterStruct, .-rhea_rtc_fromAlarmRegisterStruct
 433              		.section	.text.rhea_rtc_loadAlarms_impl,"ax",%progbits
 434              		.align	2
 435              		.global	rhea_rtc_loadAlarms_impl
 436              		.thumb
 437              		.thumb_func
 438              		.type	rhea_rtc_loadAlarms_impl, %function
 439              	rhea_rtc_loadAlarms_impl:
 440              	.LFB69:
 212:rhea\rtc/rtc_impl.c **** 
 441              		.loc 1 212 0
 442              		.cfi_startproc
ARM GAS  C:\Users\GYULAI~1\AppData\Local\Temp\cc2oeyFO.s 			page 15


 443              		@ args = 0, pretend = 0, frame = 80
 444              		@ frame_needed = 0, uses_anonymous_args = 0
 445 0000 F0B5     		push	{r4, r5, r6, r7, lr}
 446              		.cfi_def_cfa_offset 20
 447              		.cfi_offset 4, -20
 448              		.cfi_offset 5, -16
 449              		.cfi_offset 6, -12
 450              		.cfi_offset 7, -8
 451              		.cfi_offset 14, -4
 452 0002 95B0     		sub	sp, sp, #84
 453              		.cfi_def_cfa_offset 104
 218:rhea\rtc/rtc_impl.c **** 
 454              		.loc 1 218 0
 455 0004 4022     		movs	r2, #64
 456 0006 04A9     		add	r1, sp, #16
 457 0008 2020     		movs	r0, #32
 458 000a FFF7FEFF 		bl	MCP7940N_ReadSRAM
 459              	.LVL57:
 460              	.LBB3:
 221:rhea\rtc/rtc_impl.c **** 	        rhea_rtc_alarmRegistry[i] = rhea_rtc_fromAlarmRegisterStruct(persistentAlarms[i]);
 461              		.loc 1 221 0
 462 000e 0024     		movs	r4, #0
 463 0010 15E0     		b	.L20
 464              	.LVL58:
 465              	.L21:
 222:rhea\rtc/rtc_impl.c **** 	    }
 466              		.loc 1 222 0 discriminator 3
 467 0012 0D4F     		ldr	r7, .L23
 468 0014 04EB4403 		add	r3, r4, r4, lsl #1
 469 0018 9E00     		lsls	r6, r3, #2
 470 001a BD19     		adds	r5, r7, r6
 471 001c 14AB     		add	r3, sp, #80
 472 001e 03EBC403 		add	r3, r3, r4, lsl #3
 473 0022 403B     		subs	r3, r3, #64
 474 0024 93E80600 		ldmia	r3, {r1, r2}
 475 0028 6846     		mov	r0, sp
 476 002a FFF7FEFF 		bl	rhea_rtc_fromAlarmRegisterStruct
 477              	.LVL59:
 478 002e 0099     		ldr	r1, [sp]	@ unaligned
 479 0030 019A     		ldr	r2, [sp, #4]	@ unaligned
 480 0032 029B     		ldr	r3, [sp, #8]	@ unaligned
 481 0034 B951     		str	r1, [r7, r6]	@ unaligned
 482 0036 6A60     		str	r2, [r5, #4]	@ unaligned
 483 0038 AB60     		str	r3, [r5, #8]	@ unaligned
 221:rhea\rtc/rtc_impl.c **** 	        rhea_rtc_alarmRegistry[i] = rhea_rtc_fromAlarmRegisterStruct(persistentAlarms[i]);
 484              		.loc 1 221 0 discriminator 3
 485 003a 0134     		adds	r4, r4, #1
 486              	.LVL60:
 487 003c E4B2     		uxtb	r4, r4
 488              	.LVL61:
 489              	.L20:
 221:rhea\rtc/rtc_impl.c **** 	        rhea_rtc_alarmRegistry[i] = rhea_rtc_fromAlarmRegisterStruct(persistentAlarms[i]);
 490              		.loc 1 221 0 is_stmt 0 discriminator 1
 491 003e 072C     		cmp	r4, #7
 492 0040 E7D9     		bls	.L21
 493              	.LBE3:
 224:rhea\rtc/rtc_impl.c **** 
ARM GAS  C:\Users\GYULAI~1\AppData\Local\Temp\cc2oeyFO.s 			page 16


 494              		.loc 1 224 0 is_stmt 1
 495 0042 15B0     		add	sp, sp, #84
 496              		.cfi_def_cfa_offset 20
 497              		@ sp needed
 498 0044 F0BD     		pop	{r4, r5, r6, r7, pc}
 499              	.LVL62:
 500              	.L24:
 501 0046 00BF     		.align	2
 502              	.L23:
 503 0048 00000000 		.word	rhea_rtc_alarmRegistry
 504              		.cfi_endproc
 505              	.LFE69:
 506              		.size	rhea_rtc_loadAlarms_impl, .-rhea_rtc_loadAlarms_impl
 507              		.section	.text.toDriverDatetime,"ax",%progbits
 508              		.align	2
 509              		.global	toDriverDatetime
 510              		.thumb
 511              		.thumb_func
 512              		.type	toDriverDatetime, %function
 513              	toDriverDatetime:
 514              	.LFB73:
 349:rhea\rtc/rtc_impl.c ****     
 350:rhea\rtc/rtc_impl.c ****     MCP7940N_Datetime toDriverDatetime(rhea_rtc_datetime datetime) {
 515              		.loc 1 350 0
 516              		.cfi_startproc
 517              		@ args = 0, pretend = 0, frame = 8
 518              		@ frame_needed = 0, uses_anonymous_args = 0
 519              	.LVL63:
 520 0000 00B5     		push	{lr}
 521              		.cfi_def_cfa_offset 4
 522              		.cfi_offset 14, -4
 523 0002 83B0     		sub	sp, sp, #12
 524              		.cfi_def_cfa_offset 16
 525 0004 0DF1080E 		add	lr, sp, #8
 526 0008 0EE90600 		stmdb	lr, {r1, r2}
 351:rhea\rtc/rtc_impl.c ****         
 352:rhea\rtc/rtc_impl.c ****         // Creating driver datetime structure
 353:rhea\rtc/rtc_impl.c ****         MCP7940N_Datetime result;
 354:rhea\rtc/rtc_impl.c ****         
 355:rhea\rtc/rtc_impl.c ****         // Populating driver datetime
 356:rhea\rtc/rtc_impl.c ****         result.year = datetime.year;
 527              		.loc 1 356 0
 528 000c BDF80020 		ldrh	r2, [sp]
 529 0010 0280     		strh	r2, [r0]	@ movhi
 357:rhea\rtc/rtc_impl.c ****         result.month = datetime.month;
 530              		.loc 1 357 0
 531 0012 9DF80220 		ldrb	r2, [sp, #2]	@ zero_extendqisi2
 532 0016 8270     		strb	r2, [r0, #2]
 358:rhea\rtc/rtc_impl.c ****         result.date = datetime.date;
 533              		.loc 1 358 0
 534 0018 9DF80320 		ldrb	r2, [sp, #3]	@ zero_extendqisi2
 535 001c C270     		strb	r2, [r0, #3]
 359:rhea\rtc/rtc_impl.c ****         result.weekday = datetime.weekday;
 536              		.loc 1 359 0
 537 001e 9DF80420 		ldrb	r2, [sp, #4]	@ zero_extendqisi2
 538 0022 0271     		strb	r2, [r0, #4]
 360:rhea\rtc/rtc_impl.c ****         result.hour = datetime.hour;
ARM GAS  C:\Users\GYULAI~1\AppData\Local\Temp\cc2oeyFO.s 			page 17


 539              		.loc 1 360 0
 540 0024 9DF80520 		ldrb	r2, [sp, #5]	@ zero_extendqisi2
 541 0028 4271     		strb	r2, [r0, #5]
 361:rhea\rtc/rtc_impl.c ****         result.minute = datetime.minute;
 542              		.loc 1 361 0
 543 002a 9DF80620 		ldrb	r2, [sp, #6]	@ zero_extendqisi2
 544 002e 8271     		strb	r2, [r0, #6]
 362:rhea\rtc/rtc_impl.c ****         result.second = datetime.second;
 545              		.loc 1 362 0
 546 0030 9DF80720 		ldrb	r2, [sp, #7]	@ zero_extendqisi2
 547 0034 C271     		strb	r2, [r0, #7]
 363:rhea\rtc/rtc_impl.c ****         
 364:rhea\rtc/rtc_impl.c ****         return result;
 365:rhea\rtc/rtc_impl.c ****     }
 548              		.loc 1 365 0
 549 0036 03B0     		add	sp, sp, #12
 550              		.cfi_def_cfa_offset 4
 551              		@ sp needed
 552 0038 5DF804FB 		ldr	pc, [sp], #4
 553              		.cfi_endproc
 554              	.LFE73:
 555              		.size	toDriverDatetime, .-toDriverDatetime
 556              		.section	.text.rhea_rtc_setDatetime_impl,"ax",%progbits
 557              		.align	2
 558              		.global	rhea_rtc_setDatetime_impl
 559              		.thumb
 560              		.thumb_func
 561              		.type	rhea_rtc_setDatetime_impl, %function
 562              	rhea_rtc_setDatetime_impl:
 563              	.LFB65:
 179:rhea\rtc/rtc_impl.c **** 
 564              		.loc 1 179 0
 565              		.cfi_startproc
 566              		@ args = 0, pretend = 0, frame = 16
 567              		@ frame_needed = 0, uses_anonymous_args = 0
 568 0000 10B5     		push	{r4, lr}
 569              		.cfi_def_cfa_offset 8
 570              		.cfi_offset 4, -8
 571              		.cfi_offset 14, -4
 572 0002 84B0     		sub	sp, sp, #16
 573              		.cfi_def_cfa_offset 24
 574 0004 8DE80300 		stmia	sp, {r0, r1}
 184:rhea\rtc/rtc_impl.c **** 
 575              		.loc 1 184 0
 576 0008 02AC     		add	r4, sp, #8
 577 000a 9DE80600 		ldmia	sp, {r1, r2}
 578 000e 2046     		mov	r0, r4
 579 0010 FFF7FEFF 		bl	toDriverDatetime
 580              	.LVL64:
 581 0014 94E80300 		ldmia	r4, {r0, r1}
 582 0018 FFF7FEFF 		bl	MCP7940N_SetDatetime
 583              	.LVL65:
 192:rhea\rtc/rtc_impl.c **** 
 584              		.loc 1 192 0
 585 001c 04B0     		add	sp, sp, #16
 586              		.cfi_def_cfa_offset 8
 587              		@ sp needed
ARM GAS  C:\Users\GYULAI~1\AppData\Local\Temp\cc2oeyFO.s 			page 18


 588 001e 10BD     		pop	{r4, pc}
 589              		.cfi_endproc
 590              	.LFE65:
 591              		.size	rhea_rtc_setDatetime_impl, .-rhea_rtc_setDatetime_impl
 592              		.section	.text.rhea_rtc_setAlarmDatetime_impl,"ax",%progbits
 593              		.align	2
 594              		.global	rhea_rtc_setAlarmDatetime_impl
 595              		.thumb
 596              		.thumb_func
 597              		.type	rhea_rtc_setAlarmDatetime_impl, %function
 598              	rhea_rtc_setAlarmDatetime_impl:
 599              	.LFB68:
 206:rhea\rtc/rtc_impl.c **** 
 600              		.loc 1 206 0
 601              		.cfi_startproc
 602              		@ args = 0, pretend = 0, frame = 16
 603              		@ frame_needed = 0, uses_anonymous_args = 0
 604 0000 10B5     		push	{r4, lr}
 605              		.cfi_def_cfa_offset 8
 606              		.cfi_offset 4, -8
 607              		.cfi_offset 14, -4
 608 0002 84B0     		sub	sp, sp, #16
 609              		.cfi_def_cfa_offset 24
 610 0004 8DE80300 		stmia	sp, {r0, r1}
 209:rhea\rtc/rtc_impl.c **** 	}
 611              		.loc 1 209 0
 612 0008 02AC     		add	r4, sp, #8
 613 000a 9DE80600 		ldmia	sp, {r1, r2}
 614 000e 2046     		mov	r0, r4
 615 0010 FFF7FEFF 		bl	toDriverDatetime
 616              	.LVL66:
 617 0014 94E80600 		ldmia	r4, {r1, r2}
 618 0018 0120     		movs	r0, #1
 619 001a FFF7FEFF 		bl	MCP7940N_SetAlarmDatetime
 620              	.LVL67:
 210:rhea\rtc/rtc_impl.c **** 
 621              		.loc 1 210 0
 622 001e 04B0     		add	sp, sp, #16
 623              		.cfi_def_cfa_offset 8
 624              		@ sp needed
 625 0020 10BD     		pop	{r4, pc}
 626              		.cfi_endproc
 627              	.LFE68:
 628              		.size	rhea_rtc_setAlarmDatetime_impl, .-rhea_rtc_setAlarmDatetime_impl
 629 0022 00BF     		.section	.text.fromDriverDatetime,"ax",%progbits
 630              		.align	2
 631              		.global	fromDriverDatetime
 632              		.thumb
 633              		.thumb_func
 634              		.type	fromDriverDatetime, %function
 635              	fromDriverDatetime:
 636              	.LFB74:
 366:rhea\rtc/rtc_impl.c ****     
 367:rhea\rtc/rtc_impl.c ****     rhea_rtc_datetime fromDriverDatetime(MCP7940N_Datetime datetime) {
 637              		.loc 1 367 0
 638              		.cfi_startproc
 639              		@ args = 0, pretend = 0, frame = 8
ARM GAS  C:\Users\GYULAI~1\AppData\Local\Temp\cc2oeyFO.s 			page 19


 640              		@ frame_needed = 0, uses_anonymous_args = 0
 641              	.LVL68:
 642 0000 00B5     		push	{lr}
 643              		.cfi_def_cfa_offset 4
 644              		.cfi_offset 14, -4
 645 0002 83B0     		sub	sp, sp, #12
 646              		.cfi_def_cfa_offset 16
 647 0004 0DF1080E 		add	lr, sp, #8
 648 0008 0EE90600 		stmdb	lr, {r1, r2}
 368:rhea\rtc/rtc_impl.c ****         
 369:rhea\rtc/rtc_impl.c ****         // Creating Rhea datetime structure
 370:rhea\rtc/rtc_impl.c ****         rhea_rtc_datetime result;
 371:rhea\rtc/rtc_impl.c ****         
 372:rhea\rtc/rtc_impl.c ****         // Populating driver datetime
 373:rhea\rtc/rtc_impl.c ****         result.year = datetime.year;
 649              		.loc 1 373 0
 650 000c BDF80020 		ldrh	r2, [sp]
 651 0010 0280     		strh	r2, [r0]	@ movhi
 374:rhea\rtc/rtc_impl.c ****         result.month = datetime.month;
 652              		.loc 1 374 0
 653 0012 9DF80220 		ldrb	r2, [sp, #2]	@ zero_extendqisi2
 654 0016 8270     		strb	r2, [r0, #2]
 375:rhea\rtc/rtc_impl.c ****         result.date = datetime.date;
 655              		.loc 1 375 0
 656 0018 9DF80320 		ldrb	r2, [sp, #3]	@ zero_extendqisi2
 657 001c C270     		strb	r2, [r0, #3]
 376:rhea\rtc/rtc_impl.c ****         result.weekday = datetime.weekday;
 658              		.loc 1 376 0
 659 001e 9DF80420 		ldrb	r2, [sp, #4]	@ zero_extendqisi2
 660 0022 0271     		strb	r2, [r0, #4]
 377:rhea\rtc/rtc_impl.c ****         result.hour = datetime.hour;
 661              		.loc 1 377 0
 662 0024 9DF80520 		ldrb	r2, [sp, #5]	@ zero_extendqisi2
 663 0028 4271     		strb	r2, [r0, #5]
 378:rhea\rtc/rtc_impl.c ****         result.minute = datetime.minute;
 664              		.loc 1 378 0
 665 002a 9DF80620 		ldrb	r2, [sp, #6]	@ zero_extendqisi2
 666 002e 8271     		strb	r2, [r0, #6]
 379:rhea\rtc/rtc_impl.c ****         result.second = datetime.second;
 667              		.loc 1 379 0
 668 0030 9DF80720 		ldrb	r2, [sp, #7]	@ zero_extendqisi2
 669 0034 C271     		strb	r2, [r0, #7]
 380:rhea\rtc/rtc_impl.c ****         
 381:rhea\rtc/rtc_impl.c ****         return result;
 382:rhea\rtc/rtc_impl.c ****     }
 670              		.loc 1 382 0
 671 0036 03B0     		add	sp, sp, #12
 672              		.cfi_def_cfa_offset 4
 673              		@ sp needed
 674 0038 5DF804FB 		ldr	pc, [sp], #4
 675              		.cfi_endproc
 676              	.LFE74:
 677              		.size	fromDriverDatetime, .-fromDriverDatetime
 678              		.section	.text.rhea_rtc_initialize_impl,"ax",%progbits
 679              		.align	2
 680              		.global	rhea_rtc_initialize_impl
 681              		.thumb
ARM GAS  C:\Users\GYULAI~1\AppData\Local\Temp\cc2oeyFO.s 			page 20


 682              		.thumb_func
 683              		.type	rhea_rtc_initialize_impl, %function
 684              	rhea_rtc_initialize_impl:
 685              	.LFB63:
 109:rhea\rtc/rtc_impl.c **** 
 686              		.loc 1 109 0
 687              		.cfi_startproc
 688              		@ args = 0, pretend = 0, frame = 40
 689              		@ frame_needed = 0, uses_anonymous_args = 0
 690 0000 30B5     		push	{r4, r5, lr}
 691              		.cfi_def_cfa_offset 12
 692              		.cfi_offset 4, -12
 693              		.cfi_offset 5, -8
 694              		.cfi_offset 14, -4
 695 0002 8BB0     		sub	sp, sp, #44
 696              		.cfi_def_cfa_offset 56
 112:rhea\rtc/rtc_impl.c **** 			.MasterSendStart = rhea_i2c_MasterSendStart,
 697              		.loc 1 112 0
 698 0004 1D4B     		ldr	r3, .L35
 699 0006 02AC     		add	r4, sp, #8
 700 0008 0FCB     		ldmia	r3, {r0, r1, r2, r3}
 701 000a 84E80F00 		stmia	r4, {r0, r1, r2, r3}
 120:rhea\rtc/rtc_impl.c **** 
 702              		.loc 1 120 0
 703 000e FFF7FEFF 		bl	MCP7940N_SetI2CController
 704              	.LVL69:
 123:rhea\rtc/rtc_impl.c **** 
 705              		.loc 1 123 0
 706 0012 FFF7FEFF 		bl	MCP7940N_ReadRegisters
 707              	.LVL70:
 126:rhea\rtc/rtc_impl.c ****         
 708              		.loc 1 126 0
 709 0016 06AC     		add	r4, sp, #24
 710 0018 2046     		mov	r0, r4
 711 001a FFF7FEFF 		bl	MCP7940N_GetPowerFailDatetime
 712              	.LVL71:
 713 001e 184D     		ldr	r5, .L35+4
 714 0020 94E80600 		ldmia	r4, {r1, r2}
 715 0024 6846     		mov	r0, sp
 716 0026 FFF7FEFF 		bl	fromDriverDatetime
 717              	.LVL72:
 718 002a 009A     		ldr	r2, [sp]	@ unaligned
 719 002c 019B     		ldr	r3, [sp, #4]	@ unaligned
 720 002e 2A60     		str	r2, [r5]	@ unaligned
 721 0030 6B60     		str	r3, [r5, #4]	@ unaligned
 129:rhea\rtc/rtc_impl.c **** 
 722              		.loc 1 129 0
 723 0032 08AC     		add	r4, sp, #32
 724 0034 2046     		mov	r0, r4
 725 0036 FFF7FEFF 		bl	MCP7940N_GetPowerUpDatetime
 726              	.LVL73:
 727 003a 124D     		ldr	r5, .L35+8
 728 003c 94E80600 		ldmia	r4, {r1, r2}
 729 0040 6846     		mov	r0, sp
 730 0042 FFF7FEFF 		bl	fromDriverDatetime
 731              	.LVL74:
 732 0046 009A     		ldr	r2, [sp]	@ unaligned
ARM GAS  C:\Users\GYULAI~1\AppData\Local\Temp\cc2oeyFO.s 			page 21


 733 0048 019B     		ldr	r3, [sp, #4]	@ unaligned
 734 004a 2A60     		str	r2, [r5]	@ unaligned
 735 004c 6B60     		str	r3, [r5, #4]	@ unaligned
 132:rhea\rtc/rtc_impl.c **** 
 736              		.loc 1 132 0
 737 004e FFF7FEFF 		bl	MCP7940N_ClearPowerFailed
 738              	.LVL75:
 135:rhea\rtc/rtc_impl.c **** 
 739              		.loc 1 135 0
 740 0052 FFF7FEFF 		bl	MCP7940N_EnableBattery
 741              	.LVL76:
 138:rhea\rtc/rtc_impl.c **** 
 742              		.loc 1 138 0
 743 0056 BF20     		movs	r0, #191
 744 0058 FFF7FEFF 		bl	MCP7940N_SetMFPMode
 745              	.LVL77:
 141:rhea\rtc/rtc_impl.c **** 
 746              		.loc 1 141 0
 747 005c 0020     		movs	r0, #0
 748 005e FFF7FEFF 		bl	MCP7940N_SetTrimmingValue
 749              	.LVL78:
 144:rhea\rtc/rtc_impl.c **** 
 750              		.loc 1 144 0
 751 0062 FFF7FEFF 		bl	MCP7940N_DisableCoarseTrimming
 752              	.LVL79:
 147:rhea\rtc/rtc_impl.c **** 		MCP7940N_DisableAlarm(MCP7940N_ALARM1);  
 753              		.loc 1 147 0
 754 0066 0020     		movs	r0, #0
 755 0068 FFF7FEFF 		bl	MCP7940N_DisableAlarm
 756              	.LVL80:
 148:rhea\rtc/rtc_impl.c **** 
 757              		.loc 1 148 0
 758 006c 0120     		movs	r0, #1
 759 006e FFF7FEFF 		bl	MCP7940N_DisableAlarm
 760              	.LVL81:
 154:rhea\rtc/rtc_impl.c **** 
 761              		.loc 1 154 0
 762 0072 0548     		ldr	r0, .L35+12
 763 0074 FFF7FEFF 		bl	RTC_INTR_StartEx
 764              	.LVL82:
 162:rhea\rtc/rtc_impl.c **** 
 765              		.loc 1 162 0
 766 0078 0BB0     		add	sp, sp, #44
 767              		.cfi_def_cfa_offset 12
 768              		@ sp needed
 769 007a 30BD     		pop	{r4, r5, pc}
 770              	.L36:
 771              		.align	2
 772              	.L35:
 773 007c 00000000 		.word	.LANCHOR0
 774 0080 00000000 		.word	rhea_rtc_powerFailTimestamp
 775 0084 00000000 		.word	rhea_rtc_powerUpTimestamp
 776 0088 00000000 		.word	rhea_rtc_alarmISR
 777              		.cfi_endproc
 778              	.LFE63:
 779              		.size	rhea_rtc_initialize_impl, .-rhea_rtc_initialize_impl
 780              		.section	.text.rhea_rtc_now_impl,"ax",%progbits
ARM GAS  C:\Users\GYULAI~1\AppData\Local\Temp\cc2oeyFO.s 			page 22


 781              		.align	2
 782              		.global	rhea_rtc_now_impl
 783              		.thumb
 784              		.thumb_func
 785              		.type	rhea_rtc_now_impl, %function
 786              	rhea_rtc_now_impl:
 787              	.LFB64:
 164:rhea\rtc/rtc_impl.c **** 		
 788              		.loc 1 164 0
 789              		.cfi_startproc
 790              		@ args = 0, pretend = 0, frame = 8
 791              		@ frame_needed = 0, uses_anonymous_args = 0
 792              	.LVL83:
 793 0000 30B5     		push	{r4, r5, lr}
 794              		.cfi_def_cfa_offset 12
 795              		.cfi_offset 4, -12
 796              		.cfi_offset 5, -8
 797              		.cfi_offset 14, -4
 798 0002 83B0     		sub	sp, sp, #12
 799              		.cfi_def_cfa_offset 24
 800 0004 0546     		mov	r5, r0
 169:rhea\rtc/rtc_impl.c **** 
 801              		.loc 1 169 0
 802 0006 6846     		mov	r0, sp
 803              	.LVL84:
 804 0008 FFF7FEFF 		bl	MCP7940N_GetDatetime
 805              	.LVL85:
 806 000c 9DE80600 		ldmia	sp, {r1, r2}
 807 0010 2846     		mov	r0, r5
 808 0012 FFF7FEFF 		bl	fromDriverDatetime
 809              	.LVL86:
 177:rhea\rtc/rtc_impl.c **** 
 810              		.loc 1 177 0
 811 0016 2846     		mov	r0, r5
 812 0018 03B0     		add	sp, sp, #12
 813              		.cfi_def_cfa_offset 12
 814              		@ sp needed
 815 001a 30BD     		pop	{r4, r5, pc}
 816              		.cfi_endproc
 817              	.LFE64:
 818              		.size	rhea_rtc_now_impl, .-rhea_rtc_now_impl
 819              		.section	.rodata
 820              		.align	2
 821              		.set	.LANCHOR0,. + 0
 822              	.LC0:
 823 0000 00000000 		.word	rhea_i2c_MasterSendStart
 824 0004 00000000 		.word	rhea_i2c_MasterSendStop
 825 0008 00000000 		.word	rhea_i2c_MasterWriteByte
 826 000c 00000000 		.word	rhea_i2c_MasterReadByte
 827              		.text
 828              	.Letext0:
 829              		.file 2 "e:\\cypress\\psoc creator\\4.2\\psoc creator\\import\\gnu\\arm\\5.4.1\\arm-none-eabi\\inc
 830              		.file 3 "e:\\cypress\\psoc creator\\4.2\\psoc creator\\import\\gnu\\arm\\5.4.1\\arm-none-eabi\\inc
 831              		.file 4 "rhea\\rtc\\alarm/../datetime/datetime.h"
 832              		.file 5 "rhea\\rtc\\alarm/alarm.h"
 833              		.file 6 "rhea\\rtc\\../drivers/MCP7940N/MCP7940N.h"
 834              		.file 7 "rhea\\rtc\\rtc_impl.h"
ARM GAS  C:\Users\GYULAI~1\AppData\Local\Temp\cc2oeyFO.s 			page 23


 835              		.file 8 "Generated_Source\\PSoC5/core_cm3.h"
 836              		.file 9 "Generated_Source\\PSoC5/RTC_INTR.h"