ARM GAS  C:\Users\GYULAI~1\AppData\Local\Temp\ccwOZwzY.s 			page 1


   1              		.syntax unified
   2              		.cpu cortex-m3
   3              		.fpu softvfp
   4              		.eabi_attribute 20, 1
   5              		.eabi_attribute 21, 1
   6              		.eabi_attribute 23, 3
   7              		.eabi_attribute 24, 1
   8              		.eabi_attribute 25, 1
   9              		.eabi_attribute 26, 1
  10              		.eabi_attribute 30, 1
  11              		.eabi_attribute 34, 1
  12              		.eabi_attribute 18, 4
  13              		.thumb
  14              		.syntax unified
  15              		.file	"SSD1306.c"
  16              		.text
  17              	.Ltext0:
  18              		.cfi_sections	.debug_frame
  19              		.section	.text.SSD1306_SetI2CController,"ax",%progbits
  20              		.align	2
  21              		.global	SSD1306_SetI2CController
  22              		.thumb
  23              		.thumb_func
  24              		.type	SSD1306_SetI2CController, %function
  25              	SSD1306_SetI2CController:
  26              	.LFB0:
  27              		.file 1 "rhea\\drivers\\SSD1306\\SSD1306.c"
   1:rhea\drivers\SSD1306/SSD1306.c **** /*********************************************************************************
   2:rhea\drivers\SSD1306/SSD1306.c ****  * Copyright (c) 2020 Peter Gyulai
   3:rhea\drivers\SSD1306/SSD1306.c ****  *
   4:rhea\drivers\SSD1306/SSD1306.c ****  * Permission is hereby granted, free of charge, to any person obtaining a copy
   5:rhea\drivers\SSD1306/SSD1306.c ****  * of this software and associated documentation files (the "Software"), to deal
   6:rhea\drivers\SSD1306/SSD1306.c ****  * in the Software without restriction, including without limitation the rights
   7:rhea\drivers\SSD1306/SSD1306.c ****  * to use, copy, modify, merge, publish, distribute, sublicense, and/or sell
   8:rhea\drivers\SSD1306/SSD1306.c ****  * copies of the Software, and to permit persons to whom the Software is
   9:rhea\drivers\SSD1306/SSD1306.c ****  * furnished to do so, subject to the following conditions:
  10:rhea\drivers\SSD1306/SSD1306.c ****  *
  11:rhea\drivers\SSD1306/SSD1306.c ****  * The above copyright notice and this permission notice shall be included in all
  12:rhea\drivers\SSD1306/SSD1306.c ****  * copies or substantial portions of the Software.
  13:rhea\drivers\SSD1306/SSD1306.c ****  *
  14:rhea\drivers\SSD1306/SSD1306.c ****  * THE SOFTWARE IS PROVIDED "AS IS", WITHOUT WARRANTY OF ANY KIND,
  15:rhea\drivers\SSD1306/SSD1306.c ****  * EXPRESS OR IMPLIED, INCLUDING BUT NOT LIMITED TO THE WARRANTIES OF
  16:rhea\drivers\SSD1306/SSD1306.c ****  * MERCHANTABILITY, FITNESS FOR A PARTICULAR PURPOSE AND NONINFRINGEMENT.
  17:rhea\drivers\SSD1306/SSD1306.c ****  * IN NO EVENT SHALL THE AUTHORS OR COPYRIGHT HOLDERS BE LIABLE FOR ANY CLAIM,
  18:rhea\drivers\SSD1306/SSD1306.c ****  * DAMAGES OR OTHER LIABILITY, WHETHER IN AN ACTION OF CONTRACT, TORT OR
  19:rhea\drivers\SSD1306/SSD1306.c ****  * OTHERWISE, ARISING FROM, OUT OF OR IN CONNECTION WITH THE SOFTWARE OR THE USE
  20:rhea\drivers\SSD1306/SSD1306.c ****  * OR OTHER DEALINGS IN THE SOFTWARE.
  21:rhea\drivers\SSD1306/SSD1306.c **** **********************************************************************************/
  22:rhea\drivers\SSD1306/SSD1306.c **** 
  23:rhea\drivers\SSD1306/SSD1306.c **** /**
  24:rhea\drivers\SSD1306/SSD1306.c ****  * @file    SSD1306.c
  25:rhea\drivers\SSD1306/SSD1306.c ****  * @author  Peter Gyulai
  26:rhea\drivers\SSD1306/SSD1306.c ****  * @version 1.0.1
  27:rhea\drivers\SSD1306/SSD1306.c ****  * @date    2020.03.20
  28:rhea\drivers\SSD1306/SSD1306.c ****  * @brief   Library implementation.
  29:rhea\drivers\SSD1306/SSD1306.c ****  * @details
  30:rhea\drivers\SSD1306/SSD1306.c ****  * This file contains the function definitions and static variable definitions used
ARM GAS  C:\Users\GYULAI~1\AppData\Local\Temp\ccwOZwzY.s 			page 2


  31:rhea\drivers\SSD1306/SSD1306.c ****  * by the SSD1306 driver library.
  32:rhea\drivers\SSD1306/SSD1306.c ****  */
  33:rhea\drivers\SSD1306/SSD1306.c **** 
  34:rhea\drivers\SSD1306/SSD1306.c ****  // Doxygen documentation duplication suppression
  35:rhea\drivers\SSD1306/SSD1306.c **** #ifndef DOXYGEN_SHOULD_SKIP_THIS
  36:rhea\drivers\SSD1306/SSD1306.c **** 
  37:rhea\drivers\SSD1306/SSD1306.c **** // Project includes
  38:rhea\drivers\SSD1306/SSD1306.c **** #include "SSD1306.h"
  39:rhea\drivers\SSD1306/SSD1306.c **** 
  40:rhea\drivers\SSD1306/SSD1306.c **** 
  41:rhea\drivers\SSD1306/SSD1306.c **** // Structure holding function pointers to I2C handlers
  42:rhea\drivers\SSD1306/SSD1306.c **** static SSD1306_I2CControllerStruct SSD1306_I2CController;
  43:rhea\drivers\SSD1306/SSD1306.c **** 
  44:rhea\drivers\SSD1306/SSD1306.c **** // Shadow buffer for display data
  45:rhea\drivers\SSD1306/SSD1306.c **** static uint8_t SSD1306_PixelData[SSD1306_BUFFER_SIZE];
  46:rhea\drivers\SSD1306/SSD1306.c **** 
  47:rhea\drivers\SSD1306/SSD1306.c **** void SSD1306_SetI2CController(SSD1306_I2CControllerStruct controller) {
  28              		.loc 1 47 0
  29              		.cfi_startproc
  30              		@ args = 0, pretend = 0, frame = 16
  31              		@ frame_needed = 0, uses_anonymous_args = 0
  32              		@ link register save eliminated.
  33 0000 10B4     		push	{r4}
  34              		.cfi_def_cfa_offset 4
  35              		.cfi_offset 4, -4
  36 0002 85B0     		sub	sp, sp, #20
  37              		.cfi_def_cfa_offset 24
  38 0004 01AB     		add	r3, sp, #4
  39 0006 83E80700 		stmia	r3, {r0, r1, r2}
  48:rhea\drivers\SSD1306/SSD1306.c **** 	SSD1306_I2CController = controller;
  40              		.loc 1 48 0
  41 000a 044C     		ldr	r4, .L3
  42 000c 93E80700 		ldmia	r3, {r0, r1, r2}
  43 0010 84E80700 		stmia	r4, {r0, r1, r2}
  49:rhea\drivers\SSD1306/SSD1306.c **** }
  44              		.loc 1 49 0
  45 0014 05B0     		add	sp, sp, #20
  46              		.cfi_def_cfa_offset 4
  47              		@ sp needed
  48 0016 10BC     		pop	{r4}
  49              		.cfi_restore 4
  50              		.cfi_def_cfa_offset 0
  51 0018 7047     		bx	lr
  52              	.L4:
  53 001a 00BF     		.align	2
  54              	.L3:
  55 001c 00000000 		.word	.LANCHOR0
  56              		.cfi_endproc
  57              	.LFE0:
  58              		.size	SSD1306_SetI2CController, .-SSD1306_SetI2CController
  59              		.section	.text.SSD1306_GetDisplayBuffer,"ax",%progbits
  60              		.align	2
  61              		.global	SSD1306_GetDisplayBuffer
  62              		.thumb
  63              		.thumb_func
  64              		.type	SSD1306_GetDisplayBuffer, %function
  65              	SSD1306_GetDisplayBuffer:
ARM GAS  C:\Users\GYULAI~1\AppData\Local\Temp\ccwOZwzY.s 			page 3


  66              	.LFB3:
  50:rhea\drivers\SSD1306/SSD1306.c **** 
  51:rhea\drivers\SSD1306/SSD1306.c **** void SSD1306_Init() {
  52:rhea\drivers\SSD1306/SSD1306.c **** 
  53:rhea\drivers\SSD1306/SSD1306.c **** 	// Initializing command sequence
  54:rhea\drivers\SSD1306/SSD1306.c **** 	uint8_t commands[] = {
  55:rhea\drivers\SSD1306/SSD1306.c **** 		SSD1306_DISPLAY_OFF,
  56:rhea\drivers\SSD1306/SSD1306.c **** 		SSD1306_CLOCK_DIV_OSC,
  57:rhea\drivers\SSD1306/SSD1306.c **** 		SSD1306_CLOCK_DIV_OSC_DEFAULT,
  58:rhea\drivers\SSD1306/SSD1306.c **** 		SSD1306_MULTIPLEX_RATIO,
  59:rhea\drivers\SSD1306/SSD1306.c **** 		SSD1306_MULTIPLEX_RATIO_DEFAULT,
  60:rhea\drivers\SSD1306/SSD1306.c **** 		SSD1306_DISPLAY_OFFSET,
  61:rhea\drivers\SSD1306/SSD1306.c **** 		SSD1306_DISPLAY_OFFSET_DEFAULT,
  62:rhea\drivers\SSD1306/SSD1306.c **** 		SSD1306_DISPLAY_START_LINE | SSD1306_DISPLAY_START_LINE_DEFAULT,
  63:rhea\drivers\SSD1306/SSD1306.c **** 		SSD1306_CHARGEPUMP,
  64:rhea\drivers\SSD1306/SSD1306.c **** 		SSD1306_CHARGEPUMP_ON,
  65:rhea\drivers\SSD1306/SSD1306.c **** 		SSD1306_MEMORY_MODE,
  66:rhea\drivers\SSD1306/SSD1306.c **** 		SSD1306_MEMORY_MODE_HORIZONTAL,
  67:rhea\drivers\SSD1306/SSD1306.c **** 		SSD1306_SEGMENT_REMAP_ON,
  68:rhea\drivers\SSD1306/SSD1306.c **** 		SSD1306_COM_SCAN_INC,
  69:rhea\drivers\SSD1306/SSD1306.c **** 		SSD1306_COM_PINS,
  70:rhea\drivers\SSD1306/SSD1306.c **** 		SSD1306_COM_PINS_DEFAULT,
  71:rhea\drivers\SSD1306/SSD1306.c **** 		SSD1306_CONTRAST,
  72:rhea\drivers\SSD1306/SSD1306.c **** 		SSD1306_CONTRAST_DEFAULT,
  73:rhea\drivers\SSD1306/SSD1306.c **** 		SSD1306_PRECHARGE_PERIOD,
  74:rhea\drivers\SSD1306/SSD1306.c **** 		SSD1306_PRECHARGE_PERIOD_DEFAULT,
  75:rhea\drivers\SSD1306/SSD1306.c **** 		SSD1306_VCOM_DESELECT,
  76:rhea\drivers\SSD1306/SSD1306.c **** 		SSD1306_VCOM_DESELECT_DEFAULT,
  77:rhea\drivers\SSD1306/SSD1306.c **** 		SSD1306_LOWER_COLUMN_ADDR_START,
  78:rhea\drivers\SSD1306/SSD1306.c **** 		SSD1306_HIGHER_COLUMN_ADDR_START,
  79:rhea\drivers\SSD1306/SSD1306.c **** 		SSD1306_ENTIRE_DISPLAY_RESUME,
  80:rhea\drivers\SSD1306/SSD1306.c **** 		SSD1306_DISPLAY_NORMAL,
  81:rhea\drivers\SSD1306/SSD1306.c **** 		SSD1306_DISPLAY_ON
  82:rhea\drivers\SSD1306/SSD1306.c **** 	};
  83:rhea\drivers\SSD1306/SSD1306.c **** 
  84:rhea\drivers\SSD1306/SSD1306.c **** 	// Sending initialization commands
  85:rhea\drivers\SSD1306/SSD1306.c **** 	SSD1306_WriteCommands(commands, 25);
  86:rhea\drivers\SSD1306/SSD1306.c **** 
  87:rhea\drivers\SSD1306/SSD1306.c **** 	// Clearing display shadow buffer
  88:rhea\drivers\SSD1306/SSD1306.c **** 	SSD1306_ClearDisplay();
  89:rhea\drivers\SSD1306/SSD1306.c **** }
  90:rhea\drivers\SSD1306/SSD1306.c **** 
  91:rhea\drivers\SSD1306/SSD1306.c **** void SSD1306_Reset(void) {
  92:rhea\drivers\SSD1306/SSD1306.c **** 
  93:rhea\drivers\SSD1306/SSD1306.c **** 	// Restoring initial settings
  94:rhea\drivers\SSD1306/SSD1306.c **** 	SSD1306_Init();
  95:rhea\drivers\SSD1306/SSD1306.c **** 
  96:rhea\drivers\SSD1306/SSD1306.c **** 	// Clearing display
  97:rhea\drivers\SSD1306/SSD1306.c **** 	SSD1306_RefreshDisplay();
  98:rhea\drivers\SSD1306/SSD1306.c **** }
  99:rhea\drivers\SSD1306/SSD1306.c **** 
 100:rhea\drivers\SSD1306/SSD1306.c **** uint8_t* SSD1306_GetDisplayBuffer(void) {
  67              		.loc 1 100 0
  68              		.cfi_startproc
  69              		@ args = 0, pretend = 0, frame = 0
  70              		@ frame_needed = 0, uses_anonymous_args = 0
  71              		@ link register save eliminated.
ARM GAS  C:\Users\GYULAI~1\AppData\Local\Temp\ccwOZwzY.s 			page 4


 101:rhea\drivers\SSD1306/SSD1306.c **** 	return SSD1306_PixelData;
 102:rhea\drivers\SSD1306/SSD1306.c **** }
  72              		.loc 1 102 0
  73 0000 0048     		ldr	r0, .L6
  74 0002 7047     		bx	lr
  75              	.L7:
  76              		.align	2
  77              	.L6:
  78 0004 0C000000 		.word	.LANCHOR0+12
  79              		.cfi_endproc
  80              	.LFE3:
  81              		.size	SSD1306_GetDisplayBuffer, .-SSD1306_GetDisplayBuffer
  82              		.section	.text.SSD1306_WriteCommand,"ax",%progbits
  83              		.align	2
  84              		.global	SSD1306_WriteCommand
  85              		.thumb
  86              		.thumb_func
  87              		.type	SSD1306_WriteCommand, %function
  88              	SSD1306_WriteCommand:
  89              	.LFB4:
 103:rhea\drivers\SSD1306/SSD1306.c **** 
 104:rhea\drivers\SSD1306/SSD1306.c **** void SSD1306_WriteCommand(uint8_t command) {
  90              		.loc 1 104 0
  91              		.cfi_startproc
  92              		@ args = 0, pretend = 0, frame = 0
  93              		@ frame_needed = 0, uses_anonymous_args = 0
  94              	.LVL0:
  95 0000 38B5     		push	{r3, r4, r5, lr}
  96              		.cfi_def_cfa_offset 16
  97              		.cfi_offset 3, -16
  98              		.cfi_offset 4, -12
  99              		.cfi_offset 5, -8
 100              		.cfi_offset 14, -4
 101 0002 0546     		mov	r5, r0
 105:rhea\drivers\SSD1306/SSD1306.c **** 
 106:rhea\drivers\SSD1306/SSD1306.c **** 	// Sending START condition & indicating command
 107:rhea\drivers\SSD1306/SSD1306.c **** 	SSD1306_I2CController.MasterSendStart(SSD1306_I2C_ADDR, SSD1306_I2C_WRITE);
 102              		.loc 1 107 0
 103 0004 064C     		ldr	r4, .L10
 104 0006 2368     		ldr	r3, [r4]
 105 0008 0021     		movs	r1, #0
 106 000a 3D20     		movs	r0, #61
 107              	.LVL1:
 108 000c 9847     		blx	r3
 109              	.LVL2:
 108:rhea\drivers\SSD1306/SSD1306.c **** 	SSD1306_I2CController.MasterWriteByte(SSD1306_COMMAND);
 110              		.loc 1 108 0
 111 000e A368     		ldr	r3, [r4, #8]
 112 0010 0020     		movs	r0, #0
 113 0012 9847     		blx	r3
 114              	.LVL3:
 109:rhea\drivers\SSD1306/SSD1306.c **** 
 110:rhea\drivers\SSD1306/SSD1306.c **** 	// Sending command
 111:rhea\drivers\SSD1306/SSD1306.c **** 	SSD1306_I2CController.MasterWriteByte(command);
 115              		.loc 1 111 0
 116 0014 A368     		ldr	r3, [r4, #8]
 117 0016 2846     		mov	r0, r5
ARM GAS  C:\Users\GYULAI~1\AppData\Local\Temp\ccwOZwzY.s 			page 5


 118 0018 9847     		blx	r3
 119              	.LVL4:
 112:rhea\drivers\SSD1306/SSD1306.c **** 
 113:rhea\drivers\SSD1306/SSD1306.c **** 	// Sending STOP condition
 114:rhea\drivers\SSD1306/SSD1306.c **** 	SSD1306_I2CController.MasterSendStop();
 120              		.loc 1 114 0
 121 001a 6368     		ldr	r3, [r4, #4]
 122 001c 9847     		blx	r3
 123              	.LVL5:
 124 001e 38BD     		pop	{r3, r4, r5, pc}
 125              	.L11:
 126              		.align	2
 127              	.L10:
 128 0020 00000000 		.word	.LANCHOR0
 129              		.cfi_endproc
 130              	.LFE4:
 131              		.size	SSD1306_WriteCommand, .-SSD1306_WriteCommand
 132              		.section	.text.SSD1306_WriteCommands,"ax",%progbits
 133              		.align	2
 134              		.global	SSD1306_WriteCommands
 135              		.thumb
 136              		.thumb_func
 137              		.type	SSD1306_WriteCommands, %function
 138              	SSD1306_WriteCommands:
 139              	.LFB5:
 115:rhea\drivers\SSD1306/SSD1306.c **** }
 116:rhea\drivers\SSD1306/SSD1306.c **** 
 117:rhea\drivers\SSD1306/SSD1306.c **** void SSD1306_WriteCommands(uint8_t commands[], uint8_t count) {
 140              		.loc 1 117 0
 141              		.cfi_startproc
 142              		@ args = 0, pretend = 0, frame = 0
 143              		@ frame_needed = 0, uses_anonymous_args = 0
 144              	.LVL6:
 145 0000 70B5     		push	{r4, r5, r6, lr}
 146              		.cfi_def_cfa_offset 16
 147              		.cfi_offset 4, -16
 148              		.cfi_offset 5, -12
 149              		.cfi_offset 6, -8
 150              		.cfi_offset 14, -4
 151 0002 0646     		mov	r6, r0
 152 0004 0D46     		mov	r5, r1
 118:rhea\drivers\SSD1306/SSD1306.c **** 
 119:rhea\drivers\SSD1306/SSD1306.c **** 	// Sending START condition & indicating command stream 
 120:rhea\drivers\SSD1306/SSD1306.c **** 	SSD1306_I2CController.MasterSendStart(SSD1306_I2C_ADDR, SSD1306_I2C_WRITE);
 153              		.loc 1 120 0
 154 0006 0B4C     		ldr	r4, .L16
 155 0008 2368     		ldr	r3, [r4]
 156 000a 0021     		movs	r1, #0
 157              	.LVL7:
 158 000c 3D20     		movs	r0, #61
 159              	.LVL8:
 160 000e 9847     		blx	r3
 161              	.LVL9:
 121:rhea\drivers\SSD1306/SSD1306.c **** 	SSD1306_I2CController.MasterWriteByte(SSD1306_COMMAND);
 162              		.loc 1 121 0
 163 0010 A368     		ldr	r3, [r4, #8]
 164 0012 0020     		movs	r0, #0
ARM GAS  C:\Users\GYULAI~1\AppData\Local\Temp\ccwOZwzY.s 			page 6


 165 0014 9847     		blx	r3
 166              	.LVL10:
 167              	.LBB2:
 122:rhea\drivers\SSD1306/SSD1306.c **** 
 123:rhea\drivers\SSD1306/SSD1306.c **** 	// Sending commands
 124:rhea\drivers\SSD1306/SSD1306.c **** 	for (uint8_t i = 0; i < count; i++) {
 168              		.loc 1 124 0
 169 0016 0024     		movs	r4, #0
 170 0018 05E0     		b	.L13
 171              	.LVL11:
 172              	.L14:
 125:rhea\drivers\SSD1306/SSD1306.c **** 		SSD1306_I2CController.MasterWriteByte(commands[i]);
 173              		.loc 1 125 0 discriminator 3
 174 001a 064B     		ldr	r3, .L16
 175 001c 9B68     		ldr	r3, [r3, #8]
 176 001e 305D     		ldrb	r0, [r6, r4]	@ zero_extendqisi2
 177 0020 9847     		blx	r3
 178              	.LVL12:
 124:rhea\drivers\SSD1306/SSD1306.c **** 		SSD1306_I2CController.MasterWriteByte(commands[i]);
 179              		.loc 1 124 0 discriminator 3
 180 0022 0134     		adds	r4, r4, #1
 181              	.LVL13:
 182 0024 E4B2     		uxtb	r4, r4
 183              	.LVL14:
 184              	.L13:
 124:rhea\drivers\SSD1306/SSD1306.c **** 		SSD1306_I2CController.MasterWriteByte(commands[i]);
 185              		.loc 1 124 0 is_stmt 0 discriminator 1
 186 0026 AC42     		cmp	r4, r5
 187 0028 F7D3     		bcc	.L14
 188              	.LBE2:
 126:rhea\drivers\SSD1306/SSD1306.c **** 	}
 127:rhea\drivers\SSD1306/SSD1306.c **** 
 128:rhea\drivers\SSD1306/SSD1306.c **** 	// Sending STOP condition
 129:rhea\drivers\SSD1306/SSD1306.c **** 	SSD1306_I2CController.MasterSendStop();
 189              		.loc 1 129 0 is_stmt 1
 190 002a 024B     		ldr	r3, .L16
 191 002c 5B68     		ldr	r3, [r3, #4]
 192 002e 9847     		blx	r3
 193              	.LVL15:
 194 0030 70BD     		pop	{r4, r5, r6, pc}
 195              	.LVL16:
 196              	.L17:
 197 0032 00BF     		.align	2
 198              	.L16:
 199 0034 00000000 		.word	.LANCHOR0
 200              		.cfi_endproc
 201              	.LFE5:
 202              		.size	SSD1306_WriteCommands, .-SSD1306_WriteCommands
 203              		.section	.text.SSD1306_WriteData,"ax",%progbits
 204              		.align	2
 205              		.global	SSD1306_WriteData
 206              		.thumb
 207              		.thumb_func
 208              		.type	SSD1306_WriteData, %function
 209              	SSD1306_WriteData:
 210              	.LFB6:
 130:rhea\drivers\SSD1306/SSD1306.c **** }
ARM GAS  C:\Users\GYULAI~1\AppData\Local\Temp\ccwOZwzY.s 			page 7


 131:rhea\drivers\SSD1306/SSD1306.c **** 
 132:rhea\drivers\SSD1306/SSD1306.c **** void SSD1306_WriteData(uint8_t data[], uint16_t count) {
 211              		.loc 1 132 0
 212              		.cfi_startproc
 213              		@ args = 0, pretend = 0, frame = 0
 214              		@ frame_needed = 0, uses_anonymous_args = 0
 215              	.LVL17:
 216 0000 70B5     		push	{r4, r5, r6, lr}
 217              		.cfi_def_cfa_offset 16
 218              		.cfi_offset 4, -16
 219              		.cfi_offset 5, -12
 220              		.cfi_offset 6, -8
 221              		.cfi_offset 14, -4
 222 0002 0646     		mov	r6, r0
 223 0004 0D46     		mov	r5, r1
 133:rhea\drivers\SSD1306/SSD1306.c **** 
 134:rhea\drivers\SSD1306/SSD1306.c **** 	// Sending START condition & indicating data stream 
 135:rhea\drivers\SSD1306/SSD1306.c **** 	SSD1306_I2CController.MasterSendStart(SSD1306_I2C_ADDR, SSD1306_I2C_WRITE);
 224              		.loc 1 135 0
 225 0006 0B4C     		ldr	r4, .L22
 226 0008 2368     		ldr	r3, [r4]
 227 000a 0021     		movs	r1, #0
 228              	.LVL18:
 229 000c 3D20     		movs	r0, #61
 230              	.LVL19:
 231 000e 9847     		blx	r3
 232              	.LVL20:
 136:rhea\drivers\SSD1306/SSD1306.c **** 	SSD1306_I2CController.MasterWriteByte(SSD1306_DATA);
 233              		.loc 1 136 0
 234 0010 A368     		ldr	r3, [r4, #8]
 235 0012 4020     		movs	r0, #64
 236 0014 9847     		blx	r3
 237              	.LVL21:
 238              	.LBB3:
 137:rhea\drivers\SSD1306/SSD1306.c **** 
 138:rhea\drivers\SSD1306/SSD1306.c **** 	// Sending data
 139:rhea\drivers\SSD1306/SSD1306.c **** 	for (uint16_t i = 0; i < count; i++) {
 239              		.loc 1 139 0
 240 0016 0024     		movs	r4, #0
 241 0018 05E0     		b	.L19
 242              	.LVL22:
 243              	.L20:
 140:rhea\drivers\SSD1306/SSD1306.c **** 		SSD1306_I2CController.MasterWriteByte(data[i]);
 244              		.loc 1 140 0 discriminator 3
 245 001a 064B     		ldr	r3, .L22
 246 001c 9B68     		ldr	r3, [r3, #8]
 247 001e 305D     		ldrb	r0, [r6, r4]	@ zero_extendqisi2
 248 0020 9847     		blx	r3
 249              	.LVL23:
 139:rhea\drivers\SSD1306/SSD1306.c **** 		SSD1306_I2CController.MasterWriteByte(data[i]);
 250              		.loc 1 139 0 discriminator 3
 251 0022 0134     		adds	r4, r4, #1
 252              	.LVL24:
 253 0024 A4B2     		uxth	r4, r4
 254              	.LVL25:
 255              	.L19:
 139:rhea\drivers\SSD1306/SSD1306.c **** 		SSD1306_I2CController.MasterWriteByte(data[i]);
ARM GAS  C:\Users\GYULAI~1\AppData\Local\Temp\ccwOZwzY.s 			page 8


 256              		.loc 1 139 0 is_stmt 0 discriminator 1
 257 0026 AC42     		cmp	r4, r5
 258 0028 F7D3     		bcc	.L20
 259              	.LBE3:
 141:rhea\drivers\SSD1306/SSD1306.c **** 	}
 142:rhea\drivers\SSD1306/SSD1306.c **** 
 143:rhea\drivers\SSD1306/SSD1306.c **** 	// Sending STOP condition
 144:rhea\drivers\SSD1306/SSD1306.c **** 	SSD1306_I2CController.MasterSendStop();
 260              		.loc 1 144 0 is_stmt 1
 261 002a 024B     		ldr	r3, .L22
 262 002c 5B68     		ldr	r3, [r3, #4]
 263 002e 9847     		blx	r3
 264              	.LVL26:
 265 0030 70BD     		pop	{r4, r5, r6, pc}
 266              	.LVL27:
 267              	.L23:
 268 0032 00BF     		.align	2
 269              	.L22:
 270 0034 00000000 		.word	.LANCHOR0
 271              		.cfi_endproc
 272              	.LFE6:
 273              		.size	SSD1306_WriteData, .-SSD1306_WriteData
 274              		.section	.text.SSD1306_WritePixel,"ax",%progbits
 275              		.align	2
 276              		.global	SSD1306_WritePixel
 277              		.thumb
 278              		.thumb_func
 279              		.type	SSD1306_WritePixel, %function
 280              	SSD1306_WritePixel:
 281              	.LFB7:
 145:rhea\drivers\SSD1306/SSD1306.c **** }
 146:rhea\drivers\SSD1306/SSD1306.c **** 
 147:rhea\drivers\SSD1306/SSD1306.c **** void SSD1306_WritePixel(uint8_t x, uint8_t y, uint8_t color) {
 282              		.loc 1 147 0
 283              		.cfi_startproc
 284              		@ args = 0, pretend = 0, frame = 0
 285              		@ frame_needed = 0, uses_anonymous_args = 0
 286              		@ link register save eliminated.
 287              	.LVL28:
 148:rhea\drivers\SSD1306/SSD1306.c **** 
 149:rhea\drivers\SSD1306/SSD1306.c **** 	// CODE WORKS FOR HORIZONTAL MODE ONLY!!!
 150:rhea\drivers\SSD1306/SSD1306.c **** 
 151:rhea\drivers\SSD1306/SSD1306.c **** 	// Coordinate bounds check
 152:rhea\drivers\SSD1306/SSD1306.c **** 	if (x > SSD1306_WIDTH - 1 || y > SSD1306_HEIGHT - 1) return;
 288              		.loc 1 152 0
 289 0000 10F0800F 		tst	r0, #128
 290 0004 1DD1     		bne	.L24
 291              		.loc 1 152 0 is_stmt 0 discriminator 1
 292 0006 3F29     		cmp	r1, #63
 293 0008 1BD8     		bhi	.L24
 153:rhea\drivers\SSD1306/SSD1306.c **** 
 154:rhea\drivers\SSD1306/SSD1306.c **** 	// Calculating page and column index
 155:rhea\drivers\SSD1306/SSD1306.c **** 	uint8_t page = y / 8;
 294              		.loc 1 155 0 is_stmt 1
 295 000a CB08     		lsrs	r3, r1, #3
 296              	.LVL29:
 156:rhea\drivers\SSD1306/SSD1306.c **** 	uint8_t column = x;
ARM GAS  C:\Users\GYULAI~1\AppData\Local\Temp\ccwOZwzY.s 			page 9


 157:rhea\drivers\SSD1306/SSD1306.c **** 
 158:rhea\drivers\SSD1306/SSD1306.c **** 	// Calculating byte index in pixelData & bitshift value
 159:rhea\drivers\SSD1306/SSD1306.c **** 	uint16_t byteIndex = page * SSD1306_WIDTH + column;
 297              		.loc 1 159 0
 298 000c 00EBC310 		add	r0, r0, r3, lsl #7
 299              	.LVL30:
 160:rhea\drivers\SSD1306/SSD1306.c **** 	uint8_t bitIndex = y % 8;
 300              		.loc 1 160 0
 301 0010 01F00701 		and	r1, r1, #7
 302              	.LVL31:
 161:rhea\drivers\SSD1306/SSD1306.c **** 
 162:rhea\drivers\SSD1306/SSD1306.c **** 	// Setting or clearing the selected bit
 163:rhea\drivers\SSD1306/SSD1306.c **** 	if (color) SSD1306_PixelData[byteIndex] |= (1 << (7 - bitIndex));
 303              		.loc 1 163 0
 304 0014 52B1     		cbz	r2, .L26
 305              		.loc 1 163 0 is_stmt 0 discriminator 1
 306 0016 C1F10701 		rsb	r1, r1, #7
 307              	.LVL32:
 308 001a 0123     		movs	r3, #1
 309              	.LVL33:
 310 001c 03FA01F1 		lsl	r1, r3, r1
 311 0020 084B     		ldr	r3, .L27
 312 0022 1844     		add	r0, r0, r3
 313              	.LVL34:
 314 0024 037B     		ldrb	r3, [r0, #12]	@ zero_extendqisi2
 315 0026 1943     		orrs	r1, r1, r3
 316 0028 0173     		strb	r1, [r0, #12]
 317 002a 7047     		bx	lr
 318              	.LVL35:
 319              	.L26:
 164:rhea\drivers\SSD1306/SSD1306.c **** 	else       SSD1306_PixelData[byteIndex] &= ~(1 << (7 - bitIndex));
 320              		.loc 1 164 0 is_stmt 1
 321 002c C1F10701 		rsb	r1, r1, #7
 322              	.LVL36:
 323 0030 0123     		movs	r3, #1
 324              	.LVL37:
 325 0032 03FA01F1 		lsl	r1, r3, r1
 326 0036 034B     		ldr	r3, .L27
 327 0038 1844     		add	r0, r0, r3
 328              	.LVL38:
 329 003a 037B     		ldrb	r3, [r0, #12]	@ zero_extendqisi2
 330 003c 23EA0101 		bic	r1, r3, r1
 331 0040 0173     		strb	r1, [r0, #12]
 332              	.LVL39:
 333              	.L24:
 334 0042 7047     		bx	lr
 335              	.L28:
 336              		.align	2
 337              	.L27:
 338 0044 00000000 		.word	.LANCHOR0
 339              		.cfi_endproc
 340              	.LFE7:
 341              		.size	SSD1306_WritePixel, .-SSD1306_WritePixel
 342              		.section	.text.SSD1306_ClearDisplay,"ax",%progbits
 343              		.align	2
 344              		.global	SSD1306_ClearDisplay
 345              		.thumb
ARM GAS  C:\Users\GYULAI~1\AppData\Local\Temp\ccwOZwzY.s 			page 10


 346              		.thumb_func
 347              		.type	SSD1306_ClearDisplay, %function
 348              	SSD1306_ClearDisplay:
 349              	.LFB8:
 165:rhea\drivers\SSD1306/SSD1306.c **** }
 166:rhea\drivers\SSD1306/SSD1306.c **** 
 167:rhea\drivers\SSD1306/SSD1306.c **** void SSD1306_ClearDisplay(void) {
 350              		.loc 1 167 0
 351              		.cfi_startproc
 352              		@ args = 0, pretend = 0, frame = 0
 353              		@ frame_needed = 0, uses_anonymous_args = 0
 354              		@ link register save eliminated.
 355              	.LVL40:
 356              	.LBB4:
 168:rhea\drivers\SSD1306/SSD1306.c **** 
 169:rhea\drivers\SSD1306/SSD1306.c **** 	// Clearing shadow buffer content
 170:rhea\drivers\SSD1306/SSD1306.c **** 	for (unsigned int i = 0; i < SSD1306_BUFFER_SIZE; i++) {
 357              		.loc 1 170 0
 358 0000 0023     		movs	r3, #0
 359 0002 04E0     		b	.L30
 360              	.LVL41:
 361              	.L31:
 171:rhea\drivers\SSD1306/SSD1306.c **** 		SSD1306_PixelData[i] = 0x00;
 362              		.loc 1 171 0 discriminator 3
 363 0004 044A     		ldr	r2, .L32
 364 0006 1A44     		add	r2, r2, r3
 365 0008 0021     		movs	r1, #0
 366 000a 1173     		strb	r1, [r2, #12]
 170:rhea\drivers\SSD1306/SSD1306.c **** 		SSD1306_PixelData[i] = 0x00;
 367              		.loc 1 170 0 discriminator 3
 368 000c 0133     		adds	r3, r3, #1
 369              	.LVL42:
 370              	.L30:
 170:rhea\drivers\SSD1306/SSD1306.c **** 		SSD1306_PixelData[i] = 0x00;
 371              		.loc 1 170 0 is_stmt 0 discriminator 1
 372 000e B3F5806F 		cmp	r3, #1024
 373 0012 F7D3     		bcc	.L31
 374              	.LBE4:
 172:rhea\drivers\SSD1306/SSD1306.c **** 	}
 173:rhea\drivers\SSD1306/SSD1306.c **** }
 375              		.loc 1 173 0 is_stmt 1
 376 0014 7047     		bx	lr
 377              	.L33:
 378 0016 00BF     		.align	2
 379              	.L32:
 380 0018 00000000 		.word	.LANCHOR0
 381              		.cfi_endproc
 382              	.LFE8:
 383              		.size	SSD1306_ClearDisplay, .-SSD1306_ClearDisplay
 384              		.section	.text.SSD1306_Init,"ax",%progbits
 385              		.align	2
 386              		.global	SSD1306_Init
 387              		.thumb
 388              		.thumb_func
 389              		.type	SSD1306_Init, %function
 390              	SSD1306_Init:
 391              	.LFB1:
ARM GAS  C:\Users\GYULAI~1\AppData\Local\Temp\ccwOZwzY.s 			page 11


  51:rhea\drivers\SSD1306/SSD1306.c **** 
 392              		.loc 1 51 0
 393              		.cfi_startproc
 394              		@ args = 0, pretend = 0, frame = 32
 395              		@ frame_needed = 0, uses_anonymous_args = 0
 396 0000 30B5     		push	{r4, r5, lr}
 397              		.cfi_def_cfa_offset 12
 398              		.cfi_offset 4, -12
 399              		.cfi_offset 5, -8
 400              		.cfi_offset 14, -4
 401 0002 89B0     		sub	sp, sp, #36
 402              		.cfi_def_cfa_offset 48
  54:rhea\drivers\SSD1306/SSD1306.c **** 		SSD1306_DISPLAY_OFF,
 403              		.loc 1 54 0
 404 0004 0A4D     		ldr	r5, .L36
 405 0006 01AC     		add	r4, sp, #4
 406 0008 2868     		ldr	r0, [r5]	@ unaligned
 407 000a 6968     		ldr	r1, [r5, #4]	@ unaligned
 408 000c AA68     		ldr	r2, [r5, #8]	@ unaligned
 409 000e EB68     		ldr	r3, [r5, #12]	@ unaligned
 410 0010 0FC4     		stmia	r4!, {r0, r1, r2, r3}
 411 0012 2869     		ldr	r0, [r5, #16]	@ unaligned
 412 0014 6969     		ldr	r1, [r5, #20]	@ unaligned
 413 0016 03C4     		stmia	r4!, {r0, r1}
 414 0018 2A8B     		ldrh	r2, [r5, #24]	@ unaligned
 415 001a AB7E     		ldrb	r3, [r5, #26]	@ zero_extendqisi2
 416 001c 2280     		strh	r2, [r4]	@ unaligned
 417 001e A370     		strb	r3, [r4, #2]
  85:rhea\drivers\SSD1306/SSD1306.c **** 
 418              		.loc 1 85 0
 419 0020 1921     		movs	r1, #25
 420 0022 01A8     		add	r0, sp, #4
 421 0024 FFF7FEFF 		bl	SSD1306_WriteCommands
 422              	.LVL43:
  88:rhea\drivers\SSD1306/SSD1306.c **** }
 423              		.loc 1 88 0
 424 0028 FFF7FEFF 		bl	SSD1306_ClearDisplay
 425              	.LVL44:
  89:rhea\drivers\SSD1306/SSD1306.c **** 
 426              		.loc 1 89 0
 427 002c 09B0     		add	sp, sp, #36
 428              		.cfi_def_cfa_offset 12
 429              		@ sp needed
 430 002e 30BD     		pop	{r4, r5, pc}
 431              	.L37:
 432              		.align	2
 433              	.L36:
 434 0030 00000000 		.word	.LANCHOR1
 435              		.cfi_endproc
 436              	.LFE1:
 437              		.size	SSD1306_Init, .-SSD1306_Init
 438              		.section	.text.SSD1306_RefreshDisplay,"ax",%progbits
 439              		.align	2
 440              		.global	SSD1306_RefreshDisplay
 441              		.thumb
 442              		.thumb_func
 443              		.type	SSD1306_RefreshDisplay, %function
ARM GAS  C:\Users\GYULAI~1\AppData\Local\Temp\ccwOZwzY.s 			page 12


 444              	SSD1306_RefreshDisplay:
 445              	.LFB9:
 174:rhea\drivers\SSD1306/SSD1306.c **** 
 175:rhea\drivers\SSD1306/SSD1306.c **** void SSD1306_RefreshDisplay(void) {
 446              		.loc 1 175 0
 447              		.cfi_startproc
 448              		@ args = 0, pretend = 0, frame = 0
 449              		@ frame_needed = 0, uses_anonymous_args = 0
 450 0000 10B5     		push	{r4, lr}
 451              		.cfi_def_cfa_offset 8
 452              		.cfi_offset 4, -8
 453              		.cfi_offset 14, -4
 176:rhea\drivers\SSD1306/SSD1306.c **** 
 177:rhea\drivers\SSD1306/SSD1306.c **** 	// Initialize memory addressing
 178:rhea\drivers\SSD1306/SSD1306.c **** 	SSD1306_I2CController.MasterSendStart(SSD1306_I2C_ADDR, SSD1306_I2C_WRITE);
 454              		.loc 1 178 0
 455 0002 114C     		ldr	r4, .L40
 456 0004 2368     		ldr	r3, [r4]
 457 0006 0021     		movs	r1, #0
 458 0008 3D20     		movs	r0, #61
 459 000a 9847     		blx	r3
 460              	.LVL45:
 179:rhea\drivers\SSD1306/SSD1306.c **** 	SSD1306_I2CController.MasterWriteByte(SSD1306_COMMAND);
 461              		.loc 1 179 0
 462 000c A368     		ldr	r3, [r4, #8]
 463 000e 0020     		movs	r0, #0
 464 0010 9847     		blx	r3
 465              	.LVL46:
 180:rhea\drivers\SSD1306/SSD1306.c **** 
 181:rhea\drivers\SSD1306/SSD1306.c **** 	// Setting column addressing to fullscale: [0; WIDTH - 1]
 182:rhea\drivers\SSD1306/SSD1306.c **** 	SSD1306_I2CController.MasterWriteByte(SSD1306_COLUMN_ADDR);
 466              		.loc 1 182 0
 467 0012 A368     		ldr	r3, [r4, #8]
 468 0014 2120     		movs	r0, #33
 469 0016 9847     		blx	r3
 470              	.LVL47:
 183:rhea\drivers\SSD1306/SSD1306.c **** 	SSD1306_I2CController.MasterWriteByte(0);
 471              		.loc 1 183 0
 472 0018 A368     		ldr	r3, [r4, #8]
 473 001a 0020     		movs	r0, #0
 474 001c 9847     		blx	r3
 475              	.LVL48:
 184:rhea\drivers\SSD1306/SSD1306.c **** 	SSD1306_I2CController.MasterWriteByte(SSD1306_WIDTH - 1);
 476              		.loc 1 184 0
 477 001e A368     		ldr	r3, [r4, #8]
 478 0020 7F20     		movs	r0, #127
 479 0022 9847     		blx	r3
 480              	.LVL49:
 185:rhea\drivers\SSD1306/SSD1306.c **** 
 186:rhea\drivers\SSD1306/SSD1306.c **** 	// Setting page addressing to fullscale: [0; PAGES - 1]
 187:rhea\drivers\SSD1306/SSD1306.c **** 	SSD1306_I2CController.MasterWriteByte(SSD1306_PAGE_ADDR);
 481              		.loc 1 187 0
 482 0024 A368     		ldr	r3, [r4, #8]
 483 0026 2220     		movs	r0, #34
 484 0028 9847     		blx	r3
 485              	.LVL50:
 188:rhea\drivers\SSD1306/SSD1306.c **** 	SSD1306_I2CController.MasterWriteByte(0);
ARM GAS  C:\Users\GYULAI~1\AppData\Local\Temp\ccwOZwzY.s 			page 13


 486              		.loc 1 188 0
 487 002a A368     		ldr	r3, [r4, #8]
 488 002c 0020     		movs	r0, #0
 489 002e 9847     		blx	r3
 490              	.LVL51:
 189:rhea\drivers\SSD1306/SSD1306.c **** 	SSD1306_I2CController.MasterWriteByte((SSD1306_HEIGHT / 8) - 1);
 491              		.loc 1 189 0
 492 0030 A368     		ldr	r3, [r4, #8]
 493 0032 0720     		movs	r0, #7
 494 0034 9847     		blx	r3
 495              	.LVL52:
 190:rhea\drivers\SSD1306/SSD1306.c **** 	SSD1306_I2CController.MasterSendStop();
 496              		.loc 1 190 0
 497 0036 6368     		ldr	r3, [r4, #4]
 498 0038 9847     		blx	r3
 499              	.LVL53:
 191:rhea\drivers\SSD1306/SSD1306.c **** 
 192:rhea\drivers\SSD1306/SSD1306.c **** 	// Writing pixel data
 193:rhea\drivers\SSD1306/SSD1306.c **** 	SSD1306_WriteData(SSD1306_PixelData, SSD1306_BUFFER_SIZE);
 500              		.loc 1 193 0
 501 003a 4FF48061 		mov	r1, #1024
 502 003e 04F10C00 		add	r0, r4, #12
 503 0042 FFF7FEFF 		bl	SSD1306_WriteData
 504              	.LVL54:
 505 0046 10BD     		pop	{r4, pc}
 506              	.L41:
 507              		.align	2
 508              	.L40:
 509 0048 00000000 		.word	.LANCHOR0
 510              		.cfi_endproc
 511              	.LFE9:
 512              		.size	SSD1306_RefreshDisplay, .-SSD1306_RefreshDisplay
 513              		.section	.text.SSD1306_Reset,"ax",%progbits
 514              		.align	2
 515              		.global	SSD1306_Reset
 516              		.thumb
 517              		.thumb_func
 518              		.type	SSD1306_Reset, %function
 519              	SSD1306_Reset:
 520              	.LFB2:
  91:rhea\drivers\SSD1306/SSD1306.c **** 
 521              		.loc 1 91 0
 522              		.cfi_startproc
 523              		@ args = 0, pretend = 0, frame = 0
 524              		@ frame_needed = 0, uses_anonymous_args = 0
 525 0000 08B5     		push	{r3, lr}
 526              		.cfi_def_cfa_offset 8
 527              		.cfi_offset 3, -8
 528              		.cfi_offset 14, -4
  94:rhea\drivers\SSD1306/SSD1306.c **** 
 529              		.loc 1 94 0
 530 0002 FFF7FEFF 		bl	SSD1306_Init
 531              	.LVL55:
  97:rhea\drivers\SSD1306/SSD1306.c **** }
 532              		.loc 1 97 0
 533 0006 FFF7FEFF 		bl	SSD1306_RefreshDisplay
 534              	.LVL56:
ARM GAS  C:\Users\GYULAI~1\AppData\Local\Temp\ccwOZwzY.s 			page 14


 535 000a 08BD     		pop	{r3, pc}
 536              		.cfi_endproc
 537              	.LFE2:
 538              		.size	SSD1306_Reset, .-SSD1306_Reset
 539              		.section	.rodata
 540              		.align	2
 541              		.set	.LANCHOR1,. + 0
 542              	.LC0:
 543 0000 AF       		.byte	-81
 544 0001 D5       		.byte	-43
 545 0002 80       		.byte	-128
 546 0003 A8       		.byte	-88
 547 0004 3F       		.byte	63
 548 0005 D3       		.byte	-45
 549 0006 00       		.byte	0
 550 0007 40       		.byte	64
 551 0008 8D       		.byte	-115
 552 0009 14       		.byte	20
 553 000a 20       		.byte	32
 554 000b 00       		.byte	0
 555 000c A1       		.byte	-95
 556 000d C0       		.byte	-64
 557 000e DA       		.byte	-38
 558 000f 12       		.byte	18
 559 0010 81       		.byte	-127
 560 0011 CF       		.byte	-49
 561 0012 D9       		.byte	-39
 562 0013 F1       		.byte	-15
 563 0014 DB       		.byte	-37
 564 0015 40       		.byte	64
 565 0016 00       		.byte	0
 566 0017 10       		.byte	16
 567 0018 A5       		.byte	-91
 568 0019 A6       		.byte	-90
 569 001a AE       		.byte	-82
 570              		.bss
 571              		.align	2
 572              		.set	.LANCHOR0,. + 0
 573              		.type	SSD1306_I2CController, %object
 574              		.size	SSD1306_I2CController, 12
 575              	SSD1306_I2CController:
 576 0000 00000000 		.space	12
 576      00000000 
 576      00000000 
 577              		.type	SSD1306_PixelData, %object
 578              		.size	SSD1306_PixelData, 1024
 579              	SSD1306_PixelData:
 580 000c 00000000 		.space	1024
 580      00000000 
 580      00000000 
 580      00000000 
 580      00000000 
 581              		.text
 582              	.Letext0:
 583              		.file 2 "e:\\cypress\\psoc creator\\4.2\\psoc creator\\import\\gnu\\arm\\5.4.1\\arm-none-eabi\\inc
 584              		.file 3 "e:\\cypress\\psoc creator\\4.2\\psoc creator\\import\\gnu\\arm\\5.4.1\\arm-none-eabi\\inc
 585              		.file 4 "rhea\\drivers\\SSD1306\\SSD1306.h"
ARM GAS  C:\Users\GYULAI~1\AppData\Local\Temp\ccwOZwzY.s 			page 15

