ARM GAS  C:\Users\GYULAI~1\AppData\Local\Temp\ccVfgBli.s 			page 1


   1              		.syntax unified
   2              		.cpu cortex-m3
   3              		.fpu softvfp
   4              		.eabi_attribute 20, 1
   5              		.eabi_attribute 21, 1
   6              		.eabi_attribute 23, 3
   7              		.eabi_attribute 24, 1
   8              		.eabi_attribute 25, 1
   9              		.eabi_attribute 26, 1
  10              		.eabi_attribute 30, 1
  11              		.eabi_attribute 34, 1
  12              		.eabi_attribute 18, 4
  13              		.thumb
  14              		.syntax unified
  15              		.file	"uart_impl.c"
  16              		.text
  17              	.Ltext0:
  18              		.cfi_sections	.debug_frame
  19              		.section	.text.rhea_uart_initialize_impl,"ax",%progbits
  20              		.align	2
  21              		.global	rhea_uart_initialize_impl
  22              		.thumb
  23              		.thumb_func
  24              		.type	rhea_uart_initialize_impl, %function
  25              	rhea_uart_initialize_impl:
  26              	.LFB63:
  27              		.file 1 "rhea\\uart\\uart_impl.c"
   1:rhea\uart/uart_impl.c **** /*********************************************************************************
   2:rhea\uart/uart_impl.c ****  * Copyright (c) 2020 Peter Gyulai
   3:rhea\uart/uart_impl.c ****  *
   4:rhea\uart/uart_impl.c ****  * Permission is hereby granted, free of charge, to any person obtaining a copy
   5:rhea\uart/uart_impl.c ****  * of this software and associated documentation files (the "Software"), to deal
   6:rhea\uart/uart_impl.c ****  * in the Software without restriction, including without limitation the rights
   7:rhea\uart/uart_impl.c ****  * to use, copy, modify, merge, publish, distribute, sublicense, and/or sell
   8:rhea\uart/uart_impl.c ****  * copies of the Software, and to permit persons to whom the Software is
   9:rhea\uart/uart_impl.c ****  * furnished to do so, subject to the following conditions:
  10:rhea\uart/uart_impl.c ****  *
  11:rhea\uart/uart_impl.c ****  * The above copyright notice and this permission notice shall be included in all
  12:rhea\uart/uart_impl.c ****  * copies or substantial portions of the Software.
  13:rhea\uart/uart_impl.c ****  *
  14:rhea\uart/uart_impl.c ****  * THE SOFTWARE IS PROVIDED "AS IS", WITHOUT WARRANTY OF ANY KIND,
  15:rhea\uart/uart_impl.c ****  * EXPRESS OR IMPLIED, INCLUDING BUT NOT LIMITED TO THE WARRANTIES OF
  16:rhea\uart/uart_impl.c ****  * MERCHANTABILITY, FITNESS FOR A PARTICULAR PURPOSE AND NONINFRINGEMENT.
  17:rhea\uart/uart_impl.c ****  * IN NO EVENT SHALL THE AUTHORS OR COPYRIGHT HOLDERS BE LIABLE FOR ANY CLAIM,
  18:rhea\uart/uart_impl.c ****  * DAMAGES OR OTHER LIABILITY, WHETHER IN AN ACTION OF CONTRACT, TORT OR
  19:rhea\uart/uart_impl.c ****  * OTHERWISE, ARISING FROM, OUT OF OR IN CONNECTION WITH THE SOFTWARE OR THE USE
  20:rhea\uart/uart_impl.c ****  * OR OTHER DEALINGS IN THE SOFTWARE.
  21:rhea\uart/uart_impl.c **** **********************************************************************************/
  22:rhea\uart/uart_impl.c **** 
  23:rhea\uart/uart_impl.c **** /**
  24:rhea\uart/uart_impl.c ****  * @file    uart_impl.c
  25:rhea\uart/uart_impl.c ****  * @author  Peter Gyulai
  26:rhea\uart/uart_impl.c ****  * @version 1.0.0
  27:rhea\uart/uart_impl.c ****  * @date    2020.04.20
  28:rhea\uart/uart_impl.c ****  * @brief   UART driver implementation.
  29:rhea\uart/uart_impl.c ****  * @details
  30:rhea\uart/uart_impl.c ****  * This file contains the UART driver implementation. Implement the driver 
ARM GAS  C:\Users\GYULAI~1\AppData\Local\Temp\ccVfgBli.s 			page 2


  31:rhea\uart/uart_impl.c ****  * functionality here when porting to a new target microcontroller.
  32:rhea\uart/uart_impl.c ****  */
  33:rhea\uart/uart_impl.c **** 
  34:rhea\uart/uart_impl.c **** // Including global configuration
  35:rhea\uart/uart_impl.c **** #include "../rhea_config.h"
  36:rhea\uart/uart_impl.c **** 
  37:rhea\uart/uart_impl.c **** // Including necessary headers
  38:rhea\uart/uart_impl.c **** #include "uart_impl.h"
  39:rhea\uart/uart_impl.c **** 
  40:rhea\uart/uart_impl.c **** 
  41:rhea\uart/uart_impl.c **** // Implementation for PSoC5LP target
  42:rhea\uart/uart_impl.c **** #if defined(RHEA_TARGET_PSOC5LP)
  43:rhea\uart/uart_impl.c **** 
  44:rhea\uart/uart_impl.c ****     // Including generated source
  45:rhea\uart/uart_impl.c ****     #include "project.h"
  46:rhea\uart/uart_impl.c ****     
  47:rhea\uart/uart_impl.c ****     void rhea_uart_initialize_impl(void) {
  28              		.loc 1 47 0
  29              		.cfi_startproc
  30              		@ args = 0, pretend = 0, frame = 0
  31              		@ frame_needed = 0, uses_anonymous_args = 0
  32 0000 08B5     		push	{r3, lr}
  33              		.cfi_def_cfa_offset 8
  34              		.cfi_offset 3, -8
  35              		.cfi_offset 14, -4
  48:rhea\uart/uart_impl.c ****         UART_Start();
  36              		.loc 1 48 0
  37 0002 FFF7FEFF 		bl	UART_Start
  38              	.LVL0:
  39 0006 08BD     		pop	{r3, pc}
  40              		.cfi_endproc
  41              	.LFE63:
  42              		.size	rhea_uart_initialize_impl, .-rhea_uart_initialize_impl
  43              		.section	.text.rhea_uart_bytesAvailable_impl,"ax",%progbits
  44              		.align	2
  45              		.global	rhea_uart_bytesAvailable_impl
  46              		.thumb
  47              		.thumb_func
  48              		.type	rhea_uart_bytesAvailable_impl, %function
  49              	rhea_uart_bytesAvailable_impl:
  50              	.LFB64:
  49:rhea\uart/uart_impl.c ****     }
  50:rhea\uart/uart_impl.c ****     
  51:rhea\uart/uart_impl.c ****     uint64_t rhea_uart_bytesAvailable_impl(void) {
  51              		.loc 1 51 0
  52              		.cfi_startproc
  53              		@ args = 0, pretend = 0, frame = 0
  54              		@ frame_needed = 0, uses_anonymous_args = 0
  55 0000 08B5     		push	{r3, lr}
  56              		.cfi_def_cfa_offset 8
  57              		.cfi_offset 3, -8
  58              		.cfi_offset 14, -4
  52:rhea\uart/uart_impl.c ****         return UART_GetRxBufferSize();   
  59              		.loc 1 52 0
  60 0002 FFF7FEFF 		bl	UART_GetRxBufferSize
  61              	.LVL1:
  53:rhea\uart/uart_impl.c ****     }
ARM GAS  C:\Users\GYULAI~1\AppData\Local\Temp\ccVfgBli.s 			page 3


  62              		.loc 1 53 0
  63 0006 C0B2     		uxtb	r0, r0
  64 0008 0021     		movs	r1, #0
  65 000a 08BD     		pop	{r3, pc}
  66              		.cfi_endproc
  67              	.LFE64:
  68              		.size	rhea_uart_bytesAvailable_impl, .-rhea_uart_bytesAvailable_impl
  69              		.section	.text.rhea_uart_readByte_impl,"ax",%progbits
  70              		.align	2
  71              		.global	rhea_uart_readByte_impl
  72              		.thumb
  73              		.thumb_func
  74              		.type	rhea_uart_readByte_impl, %function
  75              	rhea_uart_readByte_impl:
  76              	.LFB65:
  54:rhea\uart/uart_impl.c **** 
  55:rhea\uart/uart_impl.c ****     uint8_t rhea_uart_readByte_impl(void) {
  77              		.loc 1 55 0
  78              		.cfi_startproc
  79              		@ args = 0, pretend = 0, frame = 0
  80              		@ frame_needed = 0, uses_anonymous_args = 0
  81 0000 08B5     		push	{r3, lr}
  82              		.cfi_def_cfa_offset 8
  83              		.cfi_offset 3, -8
  84              		.cfi_offset 14, -4
  56:rhea\uart/uart_impl.c ****         return UART_GetChar();
  85              		.loc 1 56 0
  86 0002 FFF7FEFF 		bl	UART_GetChar
  87              	.LVL2:
  57:rhea\uart/uart_impl.c ****     }
  88              		.loc 1 57 0
  89 0006 08BD     		pop	{r3, pc}
  90              		.cfi_endproc
  91              	.LFE65:
  92              		.size	rhea_uart_readByte_impl, .-rhea_uart_readByte_impl
  93              		.section	.text.rhea_uart_writeByte_impl,"ax",%progbits
  94              		.align	2
  95              		.global	rhea_uart_writeByte_impl
  96              		.thumb
  97              		.thumb_func
  98              		.type	rhea_uart_writeByte_impl, %function
  99              	rhea_uart_writeByte_impl:
 100              	.LFB66:
  58:rhea\uart/uart_impl.c **** 
  59:rhea\uart/uart_impl.c ****     void rhea_uart_writeByte_impl(uint8_t byte) {
 101              		.loc 1 59 0
 102              		.cfi_startproc
 103              		@ args = 0, pretend = 0, frame = 0
 104              		@ frame_needed = 0, uses_anonymous_args = 0
 105              	.LVL3:
 106 0000 08B5     		push	{r3, lr}
 107              		.cfi_def_cfa_offset 8
 108              		.cfi_offset 3, -8
 109              		.cfi_offset 14, -4
  60:rhea\uart/uart_impl.c ****         UART_PutChar(byte);
 110              		.loc 1 60 0
 111 0002 FFF7FEFF 		bl	UART_PutChar
ARM GAS  C:\Users\GYULAI~1\AppData\Local\Temp\ccVfgBli.s 			page 4


 112              	.LVL4:
 113 0006 08BD     		pop	{r3, pc}
 114              		.cfi_endproc
 115              	.LFE66:
 116              		.size	rhea_uart_writeByte_impl, .-rhea_uart_writeByte_impl
 117              		.text
 118              	.Letext0:
 119              		.file 2 "e:\\cypress\\psoc creator\\4.2\\psoc creator\\import\\gnu\\arm\\5.4.1\\arm-none-eabi\\inc
 120              		.file 3 "e:\\cypress\\psoc creator\\4.2\\psoc creator\\import\\gnu\\arm\\5.4.1\\arm-none-eabi\\inc
 121              		.file 4 "Generated_Source\\PSoC5/UART.h"
 122              		.file 5 "Generated_Source\\PSoC5/core_cm3.h"