ARM GAS  C:\Users\GYULAI~1\AppData\Local\Temp\ccw6JW2o.s 			page 1


   1              		.syntax unified
   2              		.cpu cortex-m3
   3              		.fpu softvfp
   4              		.eabi_attribute 20, 1
   5              		.eabi_attribute 21, 1
   6              		.eabi_attribute 23, 3
   7              		.eabi_attribute 24, 1
   8              		.eabi_attribute 25, 1
   9              		.eabi_attribute 26, 1
  10              		.eabi_attribute 30, 1
  11              		.eabi_attribute 34, 1
  12              		.eabi_attribute 18, 4
  13              		.thumb
  14              		.syntax unified
  15              		.file	"uart_rhea.c"
  16              		.text
  17              	.Ltext0:
  18              		.cfi_sections	.debug_frame
  19              		.section	.text.rhea_uart_Initialize,"ax",%progbits
  20              		.align	2
  21              		.global	rhea_uart_Initialize
  22              		.thumb
  23              		.thumb_func
  24              		.type	rhea_uart_Initialize, %function
  25              	rhea_uart_Initialize:
  26              	.LFB0:
  27              		.file 1 "rhea\\uart\\uart_rhea.c"
   1:rhea\uart/uart_rhea.c **** /*********************************************************************************
   2:rhea\uart/uart_rhea.c ****  * Copyright (c) 2020 Peter Gyulai
   3:rhea\uart/uart_rhea.c ****  *
   4:rhea\uart/uart_rhea.c ****  * Permission is hereby granted, free of charge, to any person obtaining a copy
   5:rhea\uart/uart_rhea.c ****  * of this software and associated documentation files (the "Software"), to deal
   6:rhea\uart/uart_rhea.c ****  * in the Software without restriction, including without limitation the rights
   7:rhea\uart/uart_rhea.c ****  * to use, copy, modify, merge, publish, distribute, sublicense, and/or sell
   8:rhea\uart/uart_rhea.c ****  * copies of the Software, and to permit persons to whom the Software is
   9:rhea\uart/uart_rhea.c ****  * furnished to do so, subject to the following conditions:
  10:rhea\uart/uart_rhea.c ****  *
  11:rhea\uart/uart_rhea.c ****  * The above copyright notice and this permission notice shall be included in all
  12:rhea\uart/uart_rhea.c ****  * copies or substantial portions of the Software.
  13:rhea\uart/uart_rhea.c ****  *
  14:rhea\uart/uart_rhea.c ****  * THE SOFTWARE IS PROVIDED "AS IS", WITHOUT WARRANTY OF ANY KIND,
  15:rhea\uart/uart_rhea.c ****  * EXPRESS OR IMPLIED, INCLUDING BUT NOT LIMITED TO THE WARRANTIES OF
  16:rhea\uart/uart_rhea.c ****  * MERCHANTABILITY, FITNESS FOR A PARTICULAR PURPOSE AND NONINFRINGEMENT.
  17:rhea\uart/uart_rhea.c ****  * IN NO EVENT SHALL THE AUTHORS OR COPYRIGHT HOLDERS BE LIABLE FOR ANY CLAIM,
  18:rhea\uart/uart_rhea.c ****  * DAMAGES OR OTHER LIABILITY, WHETHER IN AN ACTION OF CONTRACT, TORT OR
  19:rhea\uart/uart_rhea.c ****  * OTHERWISE, ARISING FROM, OUT OF OR IN CONNECTION WITH THE SOFTWARE OR THE USE
  20:rhea\uart/uart_rhea.c ****  * OR OTHER DEALINGS IN THE SOFTWARE.
  21:rhea\uart/uart_rhea.c **** **********************************************************************************/
  22:rhea\uart/uart_rhea.c **** 
  23:rhea\uart/uart_rhea.c **** /**
  24:rhea\uart/uart_rhea.c ****  * @file    uart_rhea.c
  25:rhea\uart/uart_rhea.c ****  * @author  Peter Gyulai
  26:rhea\uart/uart_rhea.c ****  * @version 1.0.0
  27:rhea\uart/uart_rhea.c ****  * @date    2020.04.20
  28:rhea\uart/uart_rhea.c ****  * @brief   UART library implementation.
  29:rhea\uart/uart_rhea.c ****  * @details
  30:rhea\uart/uart_rhea.c ****  * This file contains the function definitions used by the Rhea UART library.
ARM GAS  C:\Users\GYULAI~1\AppData\Local\Temp\ccw6JW2o.s 			page 2


  31:rhea\uart/uart_rhea.c ****  */
  32:rhea\uart/uart_rhea.c **** 
  33:rhea\uart/uart_rhea.c **** // Project includes
  34:rhea\uart/uart_rhea.c **** #include "uart.h"
  35:rhea\uart/uart_rhea.c **** #include "uart_impl.h"
  36:rhea\uart/uart_rhea.c **** 
  37:rhea\uart/uart_rhea.c **** 
  38:rhea\uart/uart_rhea.c **** void rhea_uart_Initialize(void) {
  28              		.loc 1 38 0
  29              		.cfi_startproc
  30              		@ args = 0, pretend = 0, frame = 0
  31              		@ frame_needed = 0, uses_anonymous_args = 0
  32 0000 08B5     		push	{r3, lr}
  33              		.cfi_def_cfa_offset 8
  34              		.cfi_offset 3, -8
  35              		.cfi_offset 14, -4
  39:rhea\uart/uart_rhea.c ****     
  40:rhea\uart/uart_rhea.c ****     // Invoking driver implementation
  41:rhea\uart/uart_rhea.c ****     rhea_uart_initialize_impl();
  36              		.loc 1 41 0
  37 0002 FFF7FEFF 		bl	rhea_uart_initialize_impl
  38              	.LVL0:
  39 0006 08BD     		pop	{r3, pc}
  40              		.cfi_endproc
  41              	.LFE0:
  42              		.size	rhea_uart_Initialize, .-rhea_uart_Initialize
  43              		.section	.text.rhea_uart_BytesAvailable,"ax",%progbits
  44              		.align	2
  45              		.global	rhea_uart_BytesAvailable
  46              		.thumb
  47              		.thumb_func
  48              		.type	rhea_uart_BytesAvailable, %function
  49              	rhea_uart_BytesAvailable:
  50              	.LFB1:
  42:rhea\uart/uart_rhea.c **** }
  43:rhea\uart/uart_rhea.c **** 
  44:rhea\uart/uart_rhea.c **** uint64_t rhea_uart_BytesAvailable(void) {
  51              		.loc 1 44 0
  52              		.cfi_startproc
  53              		@ args = 0, pretend = 0, frame = 0
  54              		@ frame_needed = 0, uses_anonymous_args = 0
  55 0000 08B5     		push	{r3, lr}
  56              		.cfi_def_cfa_offset 8
  57              		.cfi_offset 3, -8
  58              		.cfi_offset 14, -4
  45:rhea\uart/uart_rhea.c ****     
  46:rhea\uart/uart_rhea.c ****     // Invoking driver implementation
  47:rhea\uart/uart_rhea.c ****     return rhea_uart_bytesAvailable_impl();
  59              		.loc 1 47 0
  60 0002 FFF7FEFF 		bl	rhea_uart_bytesAvailable_impl
  61              	.LVL1:
  48:rhea\uart/uart_rhea.c **** }
  62              		.loc 1 48 0
  63 0006 08BD     		pop	{r3, pc}
  64              		.cfi_endproc
  65              	.LFE1:
  66              		.size	rhea_uart_BytesAvailable, .-rhea_uart_BytesAvailable
ARM GAS  C:\Users\GYULAI~1\AppData\Local\Temp\ccw6JW2o.s 			page 3


  67              		.section	.text.rhea_uart_ReadByte,"ax",%progbits
  68              		.align	2
  69              		.global	rhea_uart_ReadByte
  70              		.thumb
  71              		.thumb_func
  72              		.type	rhea_uart_ReadByte, %function
  73              	rhea_uart_ReadByte:
  74              	.LFB2:
  49:rhea\uart/uart_rhea.c ****     
  50:rhea\uart/uart_rhea.c **** uint8_t rhea_uart_ReadByte(void) {
  75              		.loc 1 50 0
  76              		.cfi_startproc
  77              		@ args = 0, pretend = 0, frame = 0
  78              		@ frame_needed = 0, uses_anonymous_args = 0
  79 0000 08B5     		push	{r3, lr}
  80              		.cfi_def_cfa_offset 8
  81              		.cfi_offset 3, -8
  82              		.cfi_offset 14, -4
  51:rhea\uart/uart_rhea.c ****     
  52:rhea\uart/uart_rhea.c ****     // Invoking driver implementation
  53:rhea\uart/uart_rhea.c ****     return rhea_uart_readByte_impl();
  83              		.loc 1 53 0
  84 0002 FFF7FEFF 		bl	rhea_uart_readByte_impl
  85              	.LVL2:
  54:rhea\uart/uart_rhea.c **** }
  86              		.loc 1 54 0
  87 0006 08BD     		pop	{r3, pc}
  88              		.cfi_endproc
  89              	.LFE2:
  90              		.size	rhea_uart_ReadByte, .-rhea_uart_ReadByte
  91              		.section	.text.rhea_uart_ReadBytes,"ax",%progbits
  92              		.align	2
  93              		.global	rhea_uart_ReadBytes
  94              		.thumb
  95              		.thumb_func
  96              		.type	rhea_uart_ReadBytes, %function
  97              	rhea_uart_ReadBytes:
  98              	.LFB3:
  55:rhea\uart/uart_rhea.c **** 
  56:rhea\uart/uart_rhea.c **** void rhea_uart_ReadBytes(uint8_t *bytes, uint64_t count) {
  99              		.loc 1 56 0
 100              		.cfi_startproc
 101              		@ args = 0, pretend = 0, frame = 0
 102              		@ frame_needed = 0, uses_anonymous_args = 0
 103              	.LVL3:
 104 0000 2DE9F843 		push	{r3, r4, r5, r6, r7, r8, r9, lr}
 105              		.cfi_def_cfa_offset 32
 106              		.cfi_offset 3, -32
 107              		.cfi_offset 4, -28
 108              		.cfi_offset 5, -24
 109              		.cfi_offset 6, -20
 110              		.cfi_offset 7, -16
 111              		.cfi_offset 8, -12
 112              		.cfi_offset 9, -8
 113              		.cfi_offset 14, -4
 114 0004 0746     		mov	r7, r0
 115 0006 9046     		mov	r8, r2
ARM GAS  C:\Users\GYULAI~1\AppData\Local\Temp\ccw6JW2o.s 			page 4


 116 0008 9946     		mov	r9, r3
 117              	.LVL4:
 118              	.LBB2:
  57:rhea\uart/uart_rhea.c ****     for(uint64_t i = 0; i < count; i++) {
 119              		.loc 1 57 0
 120 000a 0024     		movs	r4, #0
 121 000c 0025     		movs	r5, #0
 122 000e 06E0     		b	.L8
 123              	.LVL5:
 124              	.L9:
  58:rhea\uart/uart_rhea.c ****         bytes[i] = rhea_uart_ReadByte();   
 125              		.loc 1 58 0 discriminator 3
 126 0010 3E19     		adds	r6, r7, r4
 127 0012 FFF7FEFF 		bl	rhea_uart_ReadByte
 128              	.LVL6:
 129 0016 3070     		strb	r0, [r6]
  57:rhea\uart/uart_rhea.c ****     for(uint64_t i = 0; i < count; i++) {
 130              		.loc 1 57 0 discriminator 3
 131 0018 0134     		adds	r4, r4, #1
 132              	.LVL7:
 133 001a 45F10005 		adc	r5, r5, #0
 134              	.LVL8:
 135              	.L8:
  57:rhea\uart/uart_rhea.c ****     for(uint64_t i = 0; i < count; i++) {
 136              		.loc 1 57 0 is_stmt 0 discriminator 1
 137 001e 4D45     		cmp	r5, r9
 138 0020 08BF     		it	eq
 139 0022 4445     		cmpeq	r4, r8
 140 0024 F4D3     		bcc	.L9
 141              	.LBE2:
  59:rhea\uart/uart_rhea.c ****     }
  60:rhea\uart/uart_rhea.c **** }
 142              		.loc 1 60 0 is_stmt 1
 143 0026 BDE8F883 		pop	{r3, r4, r5, r6, r7, r8, r9, pc}
 144              		.cfi_endproc
 145              	.LFE3:
 146              		.size	rhea_uart_ReadBytes, .-rhea_uart_ReadBytes
 147 002a 00BF     		.section	.text.rhea_uart_ReadBuffer,"ax",%progbits
 148              		.align	2
 149              		.global	rhea_uart_ReadBuffer
 150              		.thumb
 151              		.thumb_func
 152              		.type	rhea_uart_ReadBuffer, %function
 153              	rhea_uart_ReadBuffer:
 154              	.LFB4:
  61:rhea\uart/uart_rhea.c **** 
  62:rhea\uart/uart_rhea.c **** void rhea_uart_ReadBuffer(uint8_t *buffer, uint64_t size) {
 155              		.loc 1 62 0
 156              		.cfi_startproc
 157              		@ args = 0, pretend = 0, frame = 0
 158              		@ frame_needed = 0, uses_anonymous_args = 0
 159              	.LVL9:
 160 0000 08B5     		push	{r3, lr}
 161              		.cfi_def_cfa_offset 8
 162              		.cfi_offset 3, -8
 163              		.cfi_offset 14, -4
  63:rhea\uart/uart_rhea.c ****     rhea_uart_ReadBytes(buffer, size);
ARM GAS  C:\Users\GYULAI~1\AppData\Local\Temp\ccw6JW2o.s 			page 5


 164              		.loc 1 63 0
 165 0002 FFF7FEFF 		bl	rhea_uart_ReadBytes
 166              	.LVL10:
 167 0006 08BD     		pop	{r3, pc}
 168              		.cfi_endproc
 169              	.LFE4:
 170              		.size	rhea_uart_ReadBuffer, .-rhea_uart_ReadBuffer
 171              		.section	.text.rhea_uart_ReadChar,"ax",%progbits
 172              		.align	2
 173              		.global	rhea_uart_ReadChar
 174              		.thumb
 175              		.thumb_func
 176              		.type	rhea_uart_ReadChar, %function
 177              	rhea_uart_ReadChar:
 178              	.LFB5:
  64:rhea\uart/uart_rhea.c **** }
  65:rhea\uart/uart_rhea.c **** 
  66:rhea\uart/uart_rhea.c **** char rhea_uart_ReadChar(void) {
 179              		.loc 1 66 0
 180              		.cfi_startproc
 181              		@ args = 0, pretend = 0, frame = 0
 182              		@ frame_needed = 0, uses_anonymous_args = 0
 183 0000 08B5     		push	{r3, lr}
 184              		.cfi_def_cfa_offset 8
 185              		.cfi_offset 3, -8
 186              		.cfi_offset 14, -4
  67:rhea\uart/uart_rhea.c ****     return rhea_uart_ReadByte();
 187              		.loc 1 67 0
 188 0002 FFF7FEFF 		bl	rhea_uart_ReadByte
 189              	.LVL11:
  68:rhea\uart/uart_rhea.c **** }
 190              		.loc 1 68 0
 191 0006 08BD     		pop	{r3, pc}
 192              		.cfi_endproc
 193              	.LFE5:
 194              		.size	rhea_uart_ReadChar, .-rhea_uart_ReadChar
 195              		.section	.text.rhea_uart_ReadString,"ax",%progbits
 196              		.align	2
 197              		.global	rhea_uart_ReadString
 198              		.thumb
 199              		.thumb_func
 200              		.type	rhea_uart_ReadString, %function
 201              	rhea_uart_ReadString:
 202              	.LFB6:
  69:rhea\uart/uart_rhea.c **** 
  70:rhea\uart/uart_rhea.c **** void rhea_uart_ReadString(char *string) {
 203              		.loc 1 70 0
 204              		.cfi_startproc
 205              		@ args = 0, pretend = 0, frame = 0
 206              		@ frame_needed = 0, uses_anonymous_args = 0
 207              	.LVL12:
 208 0000 38B5     		push	{r3, r4, r5, lr}
 209              		.cfi_def_cfa_offset 16
 210              		.cfi_offset 3, -16
 211              		.cfi_offset 4, -12
 212              		.cfi_offset 5, -8
 213              		.cfi_offset 14, -4
ARM GAS  C:\Users\GYULAI~1\AppData\Local\Temp\ccw6JW2o.s 			page 6


 214 0002 0446     		mov	r4, r0
  71:rhea\uart/uart_rhea.c ****     char c = rhea_uart_ReadChar();
 215              		.loc 1 71 0
 216 0004 FFF7FEFF 		bl	rhea_uart_ReadChar
 217              	.LVL13:
  72:rhea\uart/uart_rhea.c ****     while(c != '\0') {
 218              		.loc 1 72 0
 219 0008 04E0     		b	.L16
 220              	.L17:
  73:rhea\uart/uart_rhea.c ****         *(string++) = c;
 221              		.loc 1 73 0
 222 000a 651C     		adds	r5, r4, #1
 223              	.LVL14:
 224 000c 2070     		strb	r0, [r4]
  74:rhea\uart/uart_rhea.c ****         c = rhea_uart_ReadChar();
 225              		.loc 1 74 0
 226 000e FFF7FEFF 		bl	rhea_uart_ReadChar
 227              	.LVL15:
  73:rhea\uart/uart_rhea.c ****         *(string++) = c;
 228              		.loc 1 73 0
 229 0012 2C46     		mov	r4, r5
 230              	.LVL16:
 231              	.L16:
  72:rhea\uart/uart_rhea.c ****     while(c != '\0') {
 232              		.loc 1 72 0
 233 0014 0028     		cmp	r0, #0
 234 0016 F8D1     		bne	.L17
  75:rhea\uart/uart_rhea.c ****     }
  76:rhea\uart/uart_rhea.c ****     *string = '\0';
 235              		.loc 1 76 0
 236 0018 0023     		movs	r3, #0
 237 001a 2370     		strb	r3, [r4]
 238 001c 38BD     		pop	{r3, r4, r5, pc}
 239              		.cfi_endproc
 240              	.LFE6:
 241              		.size	rhea_uart_ReadString, .-rhea_uart_ReadString
 242 001e 00BF     		.section	.text.rhea_uart_WriteByte,"ax",%progbits
 243              		.align	2
 244              		.global	rhea_uart_WriteByte
 245              		.thumb
 246              		.thumb_func
 247              		.type	rhea_uart_WriteByte, %function
 248              	rhea_uart_WriteByte:
 249              	.LFB7:
  77:rhea\uart/uart_rhea.c **** }
  78:rhea\uart/uart_rhea.c **** 
  79:rhea\uart/uart_rhea.c **** void rhea_uart_WriteByte(uint8_t byte) {
 250              		.loc 1 79 0
 251              		.cfi_startproc
 252              		@ args = 0, pretend = 0, frame = 0
 253              		@ frame_needed = 0, uses_anonymous_args = 0
 254              	.LVL17:
 255 0000 08B5     		push	{r3, lr}
 256              		.cfi_def_cfa_offset 8
 257              		.cfi_offset 3, -8
 258              		.cfi_offset 14, -4
  80:rhea\uart/uart_rhea.c ****     
ARM GAS  C:\Users\GYULAI~1\AppData\Local\Temp\ccw6JW2o.s 			page 7


  81:rhea\uart/uart_rhea.c ****     // Invoking driver implementation
  82:rhea\uart/uart_rhea.c ****     rhea_uart_writeByte_impl(byte);
 259              		.loc 1 82 0
 260 0002 FFF7FEFF 		bl	rhea_uart_writeByte_impl
 261              	.LVL18:
 262 0006 08BD     		pop	{r3, pc}
 263              		.cfi_endproc
 264              	.LFE7:
 265              		.size	rhea_uart_WriteByte, .-rhea_uart_WriteByte
 266              		.section	.text.rhea_uart_WriteBytes,"ax",%progbits
 267              		.align	2
 268              		.global	rhea_uart_WriteBytes
 269              		.thumb
 270              		.thumb_func
 271              		.type	rhea_uart_WriteBytes, %function
 272              	rhea_uart_WriteBytes:
 273              	.LFB8:
  83:rhea\uart/uart_rhea.c **** }
  84:rhea\uart/uart_rhea.c **** 
  85:rhea\uart/uart_rhea.c **** void rhea_uart_WriteBytes(const uint8_t *bytes, uint64_t count) {
 274              		.loc 1 85 0
 275              		.cfi_startproc
 276              		@ args = 0, pretend = 0, frame = 0
 277              		@ frame_needed = 0, uses_anonymous_args = 0
 278              	.LVL19:
 279 0000 2DE9F041 		push	{r4, r5, r6, r7, r8, lr}
 280              		.cfi_def_cfa_offset 24
 281              		.cfi_offset 4, -24
 282              		.cfi_offset 5, -20
 283              		.cfi_offset 6, -16
 284              		.cfi_offset 7, -12
 285              		.cfi_offset 8, -8
 286              		.cfi_offset 14, -4
 287 0004 8046     		mov	r8, r0
 288 0006 1646     		mov	r6, r2
 289 0008 1F46     		mov	r7, r3
 290              	.LVL20:
 291              	.LBB3:
  86:rhea\uart/uart_rhea.c ****     for(uint64_t i = 0; i < count; i++) {
 292              		.loc 1 86 0
 293 000a 0024     		movs	r4, #0
 294 000c 0025     		movs	r5, #0
 295 000e 07E0     		b	.L22
 296              	.LVL21:
 297              	.L23:
  87:rhea\uart/uart_rhea.c ****         rhea_uart_WriteByte(bytes[i]);
 298              		.loc 1 87 0 discriminator 3
 299 0010 08EB0403 		add	r3, r8, r4
 300 0014 1878     		ldrb	r0, [r3]	@ zero_extendqisi2
 301 0016 FFF7FEFF 		bl	rhea_uart_WriteByte
 302              	.LVL22:
  86:rhea\uart/uart_rhea.c ****     for(uint64_t i = 0; i < count; i++) {
 303              		.loc 1 86 0 discriminator 3
 304 001a 0134     		adds	r4, r4, #1
 305              	.LVL23:
 306 001c 45F10005 		adc	r5, r5, #0
 307              	.LVL24:
ARM GAS  C:\Users\GYULAI~1\AppData\Local\Temp\ccw6JW2o.s 			page 8


 308              	.L22:
  86:rhea\uart/uart_rhea.c ****     for(uint64_t i = 0; i < count; i++) {
 309              		.loc 1 86 0 is_stmt 0 discriminator 1
 310 0020 BD42     		cmp	r5, r7
 311 0022 08BF     		it	eq
 312 0024 B442     		cmpeq	r4, r6
 313 0026 F3D3     		bcc	.L23
 314              	.LBE3:
  88:rhea\uart/uart_rhea.c ****     }
  89:rhea\uart/uart_rhea.c **** }
 315              		.loc 1 89 0 is_stmt 1
 316 0028 BDE8F081 		pop	{r4, r5, r6, r7, r8, pc}
 317              		.cfi_endproc
 318              	.LFE8:
 319              		.size	rhea_uart_WriteBytes, .-rhea_uart_WriteBytes
 320              		.section	.text.rhea_uart_WriteBuffer,"ax",%progbits
 321              		.align	2
 322              		.global	rhea_uart_WriteBuffer
 323              		.thumb
 324              		.thumb_func
 325              		.type	rhea_uart_WriteBuffer, %function
 326              	rhea_uart_WriteBuffer:
 327              	.LFB9:
  90:rhea\uart/uart_rhea.c **** 
  91:rhea\uart/uart_rhea.c **** void rhea_uart_WriteBuffer(const uint8_t *buffer, uint64_t size) {
 328              		.loc 1 91 0
 329              		.cfi_startproc
 330              		@ args = 0, pretend = 0, frame = 0
 331              		@ frame_needed = 0, uses_anonymous_args = 0
 332              	.LVL25:
 333 0000 08B5     		push	{r3, lr}
 334              		.cfi_def_cfa_offset 8
 335              		.cfi_offset 3, -8
 336              		.cfi_offset 14, -4
  92:rhea\uart/uart_rhea.c ****     rhea_uart_WriteBytes(buffer, size);
 337              		.loc 1 92 0
 338 0002 FFF7FEFF 		bl	rhea_uart_WriteBytes
 339              	.LVL26:
 340 0006 08BD     		pop	{r3, pc}
 341              		.cfi_endproc
 342              	.LFE9:
 343              		.size	rhea_uart_WriteBuffer, .-rhea_uart_WriteBuffer
 344              		.section	.text.rhea_uart_WriteChar,"ax",%progbits
 345              		.align	2
 346              		.global	rhea_uart_WriteChar
 347              		.thumb
 348              		.thumb_func
 349              		.type	rhea_uart_WriteChar, %function
 350              	rhea_uart_WriteChar:
 351              	.LFB10:
  93:rhea\uart/uart_rhea.c **** }
  94:rhea\uart/uart_rhea.c **** 
  95:rhea\uart/uart_rhea.c **** void rhea_uart_WriteChar(char c) {
 352              		.loc 1 95 0
 353              		.cfi_startproc
 354              		@ args = 0, pretend = 0, frame = 0
 355              		@ frame_needed = 0, uses_anonymous_args = 0
ARM GAS  C:\Users\GYULAI~1\AppData\Local\Temp\ccw6JW2o.s 			page 9


 356              	.LVL27:
 357 0000 08B5     		push	{r3, lr}
 358              		.cfi_def_cfa_offset 8
 359              		.cfi_offset 3, -8
 360              		.cfi_offset 14, -4
  96:rhea\uart/uart_rhea.c ****     rhea_uart_WriteByte(c);
 361              		.loc 1 96 0
 362 0002 FFF7FEFF 		bl	rhea_uart_WriteByte
 363              	.LVL28:
 364 0006 08BD     		pop	{r3, pc}
 365              		.cfi_endproc
 366              	.LFE10:
 367              		.size	rhea_uart_WriteChar, .-rhea_uart_WriteChar
 368              		.section	.text.rhea_uart_WriteString,"ax",%progbits
 369              		.align	2
 370              		.global	rhea_uart_WriteString
 371              		.thumb
 372              		.thumb_func
 373              		.type	rhea_uart_WriteString, %function
 374              	rhea_uart_WriteString:
 375              	.LFB11:
  97:rhea\uart/uart_rhea.c **** }
  98:rhea\uart/uart_rhea.c **** 
  99:rhea\uart/uart_rhea.c **** void rhea_uart_WriteString(const char *string) {
 376              		.loc 1 99 0
 377              		.cfi_startproc
 378              		@ args = 0, pretend = 0, frame = 0
 379              		@ frame_needed = 0, uses_anonymous_args = 0
 380              	.LVL29:
 381 0000 10B5     		push	{r4, lr}
 382              		.cfi_def_cfa_offset 8
 383              		.cfi_offset 4, -8
 384              		.cfi_offset 14, -4
 385 0002 0446     		mov	r4, r0
 100:rhea\uart/uart_rhea.c ****     while(*string != '\0') {
 386              		.loc 1 100 0
 387 0004 02E0     		b	.L30
 388              	.LVL30:
 389              	.L31:
 101:rhea\uart/uart_rhea.c ****         rhea_uart_WriteChar(*string++);   
 390              		.loc 1 101 0
 391 0006 0134     		adds	r4, r4, #1
 392              	.LVL31:
 393 0008 FFF7FEFF 		bl	rhea_uart_WriteChar
 394              	.LVL32:
 395              	.L30:
 100:rhea\uart/uart_rhea.c ****     while(*string != '\0') {
 396              		.loc 1 100 0
 397 000c 2078     		ldrb	r0, [r4]	@ zero_extendqisi2
 398 000e 0028     		cmp	r0, #0
 399 0010 F9D1     		bne	.L31
 102:rhea\uart/uart_rhea.c ****     }
 103:rhea\uart/uart_rhea.c ****     rhea_uart_WriteChar('\0');
 400              		.loc 1 103 0
 401 0012 FFF7FEFF 		bl	rhea_uart_WriteChar
 402              	.LVL33:
 403 0016 10BD     		pop	{r4, pc}
ARM GAS  C:\Users\GYULAI~1\AppData\Local\Temp\ccw6JW2o.s 			page 10


 404              		.cfi_endproc
 405              	.LFE11:
 406              		.size	rhea_uart_WriteString, .-rhea_uart_WriteString
 407              		.text
 408              	.Letext0:
 409              		.file 2 "e:\\cypress\\psoc creator\\4.2\\psoc creator\\import\\gnu\\arm\\5.4.1\\arm-none-eabi\\inc
 410              		.file 3 "e:\\cypress\\psoc creator\\4.2\\psoc creator\\import\\gnu\\arm\\5.4.1\\arm-none-eabi\\inc
 411              		.file 4 "rhea\\uart\\uart_impl.h"